(dp1
S'output'
p2
S"<type 'exceptions.SyntaxError'> invalid syntax (default.py, line 118)"
p3
sS'layer'
p4
S'/Users/hainna01/Downloads/web2py/applications/Starcraft2/controllers/default.py'
p5
sS'code'
p6
S'# -*- coding: utf-8 -*-\n# this file is released under public domain and you can use without limitations\n\n#########################################################################\n## This is a samples controller\n## - index is the default action of any application\n## - user is required for authentication and authorization\n## - download is for downloading files uploaded in the db (does streaming)\n## - call exposes all registered services (none by default)\n#########################################################################\nimport requests\nimport bs4\nimport re\n\n@auth.requires_login()\ndef index():\n\t\n\n\t\n\ttable = db(db.Unit)\n\tif len(table.select())<1:\n\t\t\n\t\tlinks = [\'http://sc2armory.com/game/protoss/units\',\'http://sc2armory.com/game/protoss/buildings\',\'http://sc2armory.com/game/zerg/units\',\'http://sc2armory.com/game/zerg/buildings\',\'http://sc2armory.com/game/terran/units\',\'http://sc2armory.com/game/terran/buildings\']\n\n\t\tfor alink in links:\n\t\t\tr = requests.get(alink)\n\t\t\tsoup = bs4.BeautifulSoup(r.text)\n\t\t\ttable = soup.find(\'table\')\n\n\t\t\trows = table.findAll(\'tr\')\n\n\t\t\tfor i in range(1,len(rows)):\n\t\t\t\trow = rows[i].find_all(\'td\')\n\t\t\t\tm = re.search(\'(\\w+)<\',str(row[1]))\n\t\t\t\tn = re.search(\'\\/img(.+)([0-9]{9,10})\',str(row))\n\t\t\t\talink = \'http://sc2armory.com/img\'\n\t\t\t\tfor item in n.groups(0):\n\t\t\t\t\talink = alink +str(item)\n\t\t\t\tif \'terran\' in alink:\n\t\t\t\t\tarace = \'terran\'\n\t\t\t\telse:\n\t\t\t\t\tif \'zerg\' in alink:\n\t\t\t\t\t\tarace=\'zerg\'\n\t\t\t\t\telse:\n\t\t\t\t\t\tarace = \'protoss\'\n\t\t\t\tdb.Unit.insert(name=str(m.groups(0)[0]),link=str(alink),race=str(arace))\n\t\t\t\n\t"""\n\texample action using the internationalization operator T and flash\n\trendered by views/default/index.html or views/generic.html\n\t"""\n\n\treturn dict(message=db(db.Unit).select())\n\ndef user():\n\t"""\n\texposes:\n\thttp://..../[app]/default/user/login\n\thttp://..../[app]/default/user/logout\n\thttp://..../[app]/default/user/register\n\thttp://..../[app]/default/user/profile\n\thttp://..../[app]/default/user/retrieve_password\n\thttp://..../[app]/default/user/change_password\n\tuse @auth.requires_login()\n\t\t@auth.requires_membership(\'group name\')\n\t\t@auth.requires_permission(\'read\',\'table name\',record_id)\n\tto decorate functions that need access control\n\t"""\n\treturn dict(form=auth())\n\n\ndef download():\n\t"""\n\tallows downloading of uploaded files\n\thttp://..../[app]/default/download/[filename]\n\t"""\n\treturn response.download(request,db)\n\n\ndef call():\n\t"""\n\texposes services. for example:\n\thttp://..../[app]/default/call/jsonrpc\n\tdecorate with @services.jsonrpc the functions to expose\n\tsupports xml, json, xmlrpc, jsonrpc, amfrpc, rss, csv\n\t"""\n\treturn service()\n\n\n@auth.requires_signature()\ndef data():\n\t"""\n\thttp://..../[app]/default/data/tables\n\thttp://..../[app]/default/data/create/[table]\n\thttp://..../[app]/default/data/read/[table]/[id]\n\thttp://..../[app]/default/data/update/[table]/[id]\n\thttp://..../[app]/default/data/delete/[table]/[id]\n\thttp://..../[app]/default/data/select/[table]\n\thttp://..../[app]/default/data/search/[table]\n\tbut URLs must be signed, i.e. linked with\n\t  A(\'table\',_href=URL(\'data/tables\',user_signature=True))\n\tor with the signed load operator\n\t  LOAD(\'default\',\'data.load\',args=\'tables\',ajax=True,user_signature=True)\n\t"""\n\treturn dict(form=crud())\n\ndef build():\n\t\n\tmessage= db(db.Unit.race==request.vars.race).select().as_list()\n\talist= []\n\tfor unit in message:\n\t\talist.append(unit[\'name\'])\n\tif request.vars.Unit:\n\t\tform = SQLFORM.factory(Field(\'Unit\',requires=IS_IN_SET(alist),default=alist[0]),Field(\'Supply\',requires=IS_IN_SET([1,2,3,4,5,6,7,8,9]),default=2),hidden=dict(race=request.vars.race,unit=request.vars.unit+request.vars.Unit+\'||\',supply=request.vars.supply+request.vars.Supply+\'||\'))\n\t\tunitlist = request.vars.unit +request.vars.Unit+\'||\'\n\t\tsupplylist = request.vars.supply + request.vars.Supply + \'||\'\n\telse:\n\t\tform = SQLFORM.factory(Field(\'Unit\',requires=IS_IN_SET(alist)default=alist[0]),Field(\'Supply\',requires=IS_IN_SET([1,2,3,4,5,6,7,8,9]),default=2),hidden=dict(race=request.vars.race,unit=request.vars.unit,supply=request.vars.supply))\n\t\tunitlist=\'\'\n\t\tsupplylist=\'\'\n\tunitlist = unitlist.split(\'||\')\n\tunitlist = filter(lambda a:a!=\'\',unitlist)\n\tsupplylist = supplylist.split(\'||\')\n\tsupplylist = filter(lambda a:a!=\'\',supplylist)\n\tfor i in range(len(unitlist)):\n\t\trow = db(db.Unit.name==unitlist[i]).select()\n\t\tunitlist[i] = row.as_list()\n\treturn dict(form=form,unitlist=unitlist,supplylist=supplylist)\n\nresponse._vars=response._caller(build)\n'
p7
sS'snapshot'
p8
(dp9
S'exception'
p10
(dp11
S'__getslice__'
p12
S"<method-wrapper '__getslice__' of exceptions.SyntaxError object>"
p13
sS'text'
p14
S'"\\t\\tform = SQLFORM.factory(Field(\'Unit\',requires=I...t=request.vars.unit,supply=request.vars.supply))\\n"'
p15
sS'__str__'
p16
S"<method-wrapper '__str__' of exceptions.SyntaxError object>"
p17
sS'__reduce__'
p18
S'<built-in method __reduce__ of exceptions.SyntaxError object>'
p19
sS'__dict__'
p20
S'{}'
p21
sS'__sizeof__'
p22
S'<built-in method __sizeof__ of exceptions.SyntaxError object>'
p23
sS'__init__'
p24
S"<method-wrapper '__init__' of exceptions.SyntaxError object>"
p25
sS'__setattr__'
p26
S"<method-wrapper '__setattr__' of exceptions.SyntaxError object>"
p27
sS'__reduce_ex__'
p28
S'<built-in method __reduce_ex__ of exceptions.SyntaxError object>'
p29
sS'__new__'
p30
S'<built-in method __new__ of type object>'
p31
sS'__format__'
p32
S'<built-in method __format__ of exceptions.SyntaxError object>'
p33
sS'__class__'
p34
S"<type 'exceptions.SyntaxError'>"
p35
sS'filename'
p36
S"'/Users/hainna01/Downloads/web2py/applications/Starcraft2/controllers/default.py'"
p37
sS'lineno'
p38
S'118'
p39
sS'msg'
p40
S"'invalid syntax'"
p41
sS'__doc__'
p42
S"'Invalid syntax.'"
p43
sS'__getitem__'
p44
S"<method-wrapper '__getitem__' of exceptions.SyntaxError object>"
p45
sS'__setstate__'
p46
S'<built-in method __setstate__ of exceptions.SyntaxError object>'
p47
sS'__getattribute__'
p48
S"<method-wrapper '__getattribute__' of exceptions.SyntaxError object>"
p49
sS'print_file_and_line'
p50
S'None'
p51
sS'args'
p52
S'(\'invalid syntax\', (\'/Users/hainna01/Downloads/web2py/applications/Starcraft2/controllers/default.py\', 118, 70, "\\t\\tform = SQLFORM.factory(Field(\'Unit\',requires=I...t=request.vars.unit,supply=request.vars.supply))\\n"))'
p53
sS'__subclasshook__'
p54
S'<built-in method __subclasshook__ of type object>'
p55
sS'offset'
p56
S'70'
p57
sS'__unicode__'
p58
S'<built-in method __unicode__ of exceptions.SyntaxError object>'
p59
sS'__delattr__'
p60
S"<method-wrapper '__delattr__' of exceptions.SyntaxError object>"
p61
sS'__repr__'
p62
S"<method-wrapper '__repr__' of exceptions.SyntaxError object>"
p63
sS'__hash__'
p64
S"<method-wrapper '__hash__' of exceptions.SyntaxError object>"
p65
ssS'evalue'
p66
S'invalid syntax (default.py, line 118)'
p67
sS'request'
p68
ccopy_reg
_reconstructor
p69
(cgluon.html
BEAUTIFY
p70
c__builtin__
object
p71
NtRp72
(dp73
S'attributes'
p74
(dp75
sS'components'
p76
(lp77
g69
(cgluon.html
TABLE
p78
g71
NtRp79
(dp80
g74
(dp81
S'level'
p82
I5
ssS'parent'
p83
Nsg76
(lp84
g69
(cgluon.html
TR
p85
g71
NtRp86
(dp87
g74
(dp88
sg83
g79
sg76
(lp89
g69
(cgluon.html
TD
p90
g71
NtRp91
(dp92
g74
(dp93
S'_style'
p94
S'font-weight:bold;vertical-align:top'
p95
ssg83
g86
sg76
(lp96
S'ajax'
p97
asbag69
(g90
g71
NtRp98
(dp99
g74
(dp100
S'_valign'
p101
S'top'
p102
ssg83
g86
sg76
(lp103
S':'
asbag69
(g90
g71
NtRp104
(dp105
g74
(dp106
sg83
g86
sg76
(lp107
g69
(g70
g71
NtRp108
(dp109
g74
(dp110
g82
I5
ssg83
g104
sg76
(lp111
S'False'
p112
asbasbasbag69
(g85
g71
NtRp113
(dp114
g74
(dp115
sg83
g79
sg76
(lp116
g69
(g90
g71
NtRp117
(dp118
g74
(dp119
g94
g95
ssg83
g113
sg76
(lp120
S'application'
p121
asbag69
(g90
g71
NtRp122
(dp123
g74
(dp124
g101
g102
ssg83
g113
sg76
(lp125
S':'
asbag69
(g90
g71
NtRp126
(dp127
g74
(dp128
sg83
g113
sg76
(lp129
g69
(g70
g71
NtRp130
(dp131
g74
(dp132
g82
I5
ssg83
g126
sg76
(lp133
S'Starcraft2'
p134
asbasbasbag69
(g85
g71
NtRp135
(dp136
g74
(dp137
sg83
g79
sg76
(lp138
g69
(g90
g71
NtRp139
(dp140
g74
(dp141
g94
g95
ssg83
g135
sg76
(lp142
g52
asbag69
(g90
g71
NtRp143
(dp144
g74
(dp145
g101
g102
ssg83
g135
sg76
(lp146
S':'
asbag69
(g90
g71
NtRp147
(dp148
g74
(dp149
sg83
g135
sg76
(lp150
g69
(g70
g71
NtRp151
(dp152
g74
(dp153
g82
I5
ssg83
g147
sg76
(lp154
g69
(g78
g71
NtRp155
(dp156
g74
(dp157
g82
I4
ssg83
Nsg76
(lp158
sbasbasbasbag69
(g85
g71
NtRp159
(dp160
g74
(dp161
sg83
g79
sg76
(lp162
g69
(g90
g71
NtRp163
(dp164
g74
(dp165
g94
g95
ssg83
g159
sg76
(lp166
S'body'
p167
asbag69
(g90
g71
NtRp168
(dp169
g74
(dp170
g101
g102
ssg83
g159
sg76
(lp171
S':'
asbag69
(g90
g71
NtRp172
(dp173
g74
(dp174
sg83
g159
sg76
(lp175
g69
(g70
g71
NtRp176
(dp177
g74
(dp178
g82
I5
ssg83
g172
sg76
(lp179
S"<open file '<fdopen>', mode 'w+b' at 0x101ebe390>"
p180
asbasbasbag69
(g85
g71
NtRp181
(dp182
g74
(dp183
sg83
g79
sg76
(lp184
g69
(g90
g71
NtRp185
(dp186
g74
(dp187
g94
g95
ssg83
g181
sg76
(lp188
S'client'
p189
asbag69
(g90
g71
NtRp190
(dp191
g74
(dp192
g101
g102
ssg83
g181
sg76
(lp193
S':'
asbag69
(g90
g71
NtRp194
(dp195
g74
(dp196
sg83
g181
sg76
(lp197
g69
(g70
g71
NtRp198
(dp199
g74
(dp200
g82
I5
ssg83
g194
sg76
(lp201
S'127.0.0.1'
p202
asbasbasbag69
(g85
g71
NtRp203
(dp204
g74
(dp205
sg83
g79
sg76
(lp206
g69
(g90
g71
NtRp207
(dp208
g74
(dp209
g94
g95
ssg83
g203
sg76
(lp210
S'controller'
p211
asbag69
(g90
g71
NtRp212
(dp213
g74
(dp214
g101
g102
ssg83
g203
sg76
(lp215
S':'
asbag69
(g90
g71
NtRp216
(dp217
g74
(dp218
sg83
g203
sg76
(lp219
g69
(g70
g71
NtRp220
(dp221
g74
(dp222
g82
I5
ssg83
g216
sg76
(lp223
S'default'
p224
asbasbasbag69
(g85
g71
NtRp225
(dp226
g74
(dp227
sg83
g79
sg76
(lp228
g69
(g90
g71
NtRp229
(dp230
g74
(dp231
g94
g95
ssg83
g225
sg76
(lp232
S'cookies'
p233
asbag69
(g90
g71
NtRp234
(dp235
g74
(dp236
g101
g102
ssg83
g225
sg76
(lp237
S':'
asbag69
(g90
g71
NtRp238
(dp239
g74
(dp240
sg83
g225
sg76
(lp241
g69
(g70
g71
NtRp242
(dp243
g74
(dp244
g82
I5
ssg83
g238
sg76
(lp245
g69
(g78
g71
NtRp246
(dp247
g74
(dp248
g82
I4
ssg83
Nsg76
(lp249
g69
(g85
g71
NtRp250
(dp251
g74
(dp252
sg83
g246
sg76
(lp253
g69
(g90
g71
NtRp254
(dp255
g74
(dp256
g94
g95
ssg83
g250
sg76
(lp257
S'session_id_admin'
p258
asbag69
(g90
g71
NtRp259
(dp260
g74
(dp261
g101
g102
ssg83
g250
sg76
(lp262
S':'
asbag69
(g90
g71
NtRp263
(dp264
g74
(dp265
sg83
g250
sg76
(lp266
g69
(g70
g71
NtRp267
(dp268
g74
(dp269
g82
I4
ssg83
g263
sg76
(lp270
g69
(g78
g71
NtRp271
(dp272
g74
(dp273
g82
I3
ssg83
Nsg76
(lp274
g69
(g85
g71
NtRp275
(dp276
g74
(dp277
sg83
g271
sg76
(lp278
g69
(g90
g71
NtRp279
(dp280
g74
(dp281
g94
g95
ssg83
g275
sg76
(lp282
S'comment'
p283
asbag69
(g90
g71
NtRp284
(dp285
g74
(dp286
g101
g102
ssg83
g275
sg76
(lp287
S':'
asbag69
(g90
g71
NtRp288
(dp289
g74
(dp290
sg83
g275
sg76
(lp291
g69
(g70
g71
NtRp292
(dp293
g74
(dp294
g82
I3
ssg83
g288
sg76
(lp295
S''
asbasbasbag69
(g85
g71
NtRp296
(dp297
g74
(dp298
sg83
g271
sg76
(lp299
g69
(g90
g71
NtRp300
(dp301
g74
(dp302
g94
g95
ssg83
g296
sg76
(lp303
S'domain'
p304
asbag69
(g90
g71
NtRp305
(dp306
g74
(dp307
g101
g102
ssg83
g296
sg76
(lp308
S':'
asbag69
(g90
g71
NtRp309
(dp310
g74
(dp311
sg83
g296
sg76
(lp312
g69
(g70
g71
NtRp313
(dp314
g74
(dp315
g82
I3
ssg83
g309
sg76
(lp316
S''
asbasbasbag69
(g85
g71
NtRp317
(dp318
g74
(dp319
sg83
g271
sg76
(lp320
g69
(g90
g71
NtRp321
(dp322
g74
(dp323
g94
g95
ssg83
g317
sg76
(lp324
S'expires'
p325
asbag69
(g90
g71
NtRp326
(dp327
g74
(dp328
g101
g102
ssg83
g317
sg76
(lp329
S':'
asbag69
(g90
g71
NtRp330
(dp331
g74
(dp332
sg83
g317
sg76
(lp333
g69
(g70
g71
NtRp334
(dp335
g74
(dp336
g82
I3
ssg83
g330
sg76
(lp337
S''
asbasbasbag69
(g85
g71
NtRp338
(dp339
g74
(dp340
sg83
g271
sg76
(lp341
g69
(g90
g71
NtRp342
(dp343
g74
(dp344
g94
g95
ssg83
g338
sg76
(lp345
S'httponly'
p346
asbag69
(g90
g71
NtRp347
(dp348
g74
(dp349
g101
g102
ssg83
g338
sg76
(lp350
S':'
asbag69
(g90
g71
NtRp351
(dp352
g74
(dp353
sg83
g338
sg76
(lp354
g69
(g70
g71
NtRp355
(dp356
g74
(dp357
g82
I3
ssg83
g351
sg76
(lp358
S''
asbasbasbag69
(g85
g71
NtRp359
(dp360
g74
(dp361
sg83
g271
sg76
(lp362
g69
(g90
g71
NtRp363
(dp364
g74
(dp365
g94
g95
ssg83
g359
sg76
(lp366
S'max-age'
p367
asbag69
(g90
g71
NtRp368
(dp369
g74
(dp370
g101
g102
ssg83
g359
sg76
(lp371
S':'
asbag69
(g90
g71
NtRp372
(dp373
g74
(dp374
sg83
g359
sg76
(lp375
g69
(g70
g71
NtRp376
(dp377
g74
(dp378
g82
I3
ssg83
g372
sg76
(lp379
S''
asbasbasbag69
(g85
g71
NtRp380
(dp381
g74
(dp382
sg83
g271
sg76
(lp383
g69
(g90
g71
NtRp384
(dp385
g74
(dp386
g94
g95
ssg83
g380
sg76
(lp387
S'path'
p388
asbag69
(g90
g71
NtRp389
(dp390
g74
(dp391
g101
g102
ssg83
g380
sg76
(lp392
S':'
asbag69
(g90
g71
NtRp393
(dp394
g74
(dp395
sg83
g380
sg76
(lp396
g69
(g70
g71
NtRp397
(dp398
g74
(dp399
g82
I3
ssg83
g393
sg76
(lp400
S''
asbasbasbag69
(g85
g71
NtRp401
(dp402
g74
(dp403
sg83
g271
sg76
(lp404
g69
(g90
g71
NtRp405
(dp406
g74
(dp407
g94
g95
ssg83
g401
sg76
(lp408
S'secure'
p409
asbag69
(g90
g71
NtRp410
(dp411
g74
(dp412
g101
g102
ssg83
g401
sg76
(lp413
S':'
asbag69
(g90
g71
NtRp414
(dp415
g74
(dp416
sg83
g401
sg76
(lp417
g69
(g70
g71
NtRp418
(dp419
g74
(dp420
g82
I3
ssg83
g414
sg76
(lp421
S''
asbasbasbag69
(g85
g71
NtRp422
(dp423
g74
(dp424
sg83
g271
sg76
(lp425
g69
(g90
g71
NtRp426
(dp427
g74
(dp428
g94
g95
ssg83
g422
sg76
(lp429
S'version'
p430
asbag69
(g90
g71
NtRp431
(dp432
g74
(dp433
g101
g102
ssg83
g422
sg76
(lp434
S':'
asbag69
(g90
g71
NtRp435
(dp436
g74
(dp437
sg83
g422
sg76
(lp438
g69
(g70
g71
NtRp439
(dp440
g74
(dp441
g82
I3
ssg83
g435
sg76
(lp442
S''
asbasbasbasbasbasbasbag69
(g85
g71
NtRp443
(dp444
g74
(dp445
sg83
g246
sg76
(lp446
g69
(g90
g71
NtRp447
(dp448
g74
(dp449
g94
g95
ssg83
g443
sg76
(lp450
S'session_id_starcraft2'
p451
asbag69
(g90
g71
NtRp452
(dp453
g74
(dp454
g101
g102
ssg83
g443
sg76
(lp455
S':'
asbag69
(g90
g71
NtRp456
(dp457
g74
(dp458
sg83
g443
sg76
(lp459
g69
(g70
g71
NtRp460
(dp461
g74
(dp462
g82
I4
ssg83
g456
sg76
(lp463
g69
(g78
g71
NtRp464
(dp465
g74
(dp466
g82
I3
ssg83
Nsg76
(lp467
g69
(g85
g71
NtRp468
(dp469
g74
(dp470
sg83
g464
sg76
(lp471
g69
(g90
g71
NtRp472
(dp473
g74
(dp474
g94
g95
ssg83
g468
sg76
(lp475
g283
asbag69
(g90
g71
NtRp476
(dp477
g74
(dp478
g101
g102
ssg83
g468
sg76
(lp479
S':'
asbag69
(g90
g71
NtRp480
(dp481
g74
(dp482
sg83
g468
sg76
(lp483
g69
(g70
g71
NtRp484
(dp485
g74
(dp486
g82
I3
ssg83
g480
sg76
(lp487
S''
asbasbasbag69
(g85
g71
NtRp488
(dp489
g74
(dp490
sg83
g464
sg76
(lp491
g69
(g90
g71
NtRp492
(dp493
g74
(dp494
g94
g95
ssg83
g488
sg76
(lp495
g304
asbag69
(g90
g71
NtRp496
(dp497
g74
(dp498
g101
g102
ssg83
g488
sg76
(lp499
S':'
asbag69
(g90
g71
NtRp500
(dp501
g74
(dp502
sg83
g488
sg76
(lp503
g69
(g70
g71
NtRp504
(dp505
g74
(dp506
g82
I3
ssg83
g500
sg76
(lp507
S''
asbasbasbag69
(g85
g71
NtRp508
(dp509
g74
(dp510
sg83
g464
sg76
(lp511
g69
(g90
g71
NtRp512
(dp513
g74
(dp514
g94
g95
ssg83
g508
sg76
(lp515
g325
asbag69
(g90
g71
NtRp516
(dp517
g74
(dp518
g101
g102
ssg83
g508
sg76
(lp519
S':'
asbag69
(g90
g71
NtRp520
(dp521
g74
(dp522
sg83
g508
sg76
(lp523
g69
(g70
g71
NtRp524
(dp525
g74
(dp526
g82
I3
ssg83
g520
sg76
(lp527
S''
asbasbasbag69
(g85
g71
NtRp528
(dp529
g74
(dp530
sg83
g464
sg76
(lp531
g69
(g90
g71
NtRp532
(dp533
g74
(dp534
g94
g95
ssg83
g528
sg76
(lp535
g346
asbag69
(g90
g71
NtRp536
(dp537
g74
(dp538
g101
g102
ssg83
g528
sg76
(lp539
S':'
asbag69
(g90
g71
NtRp540
(dp541
g74
(dp542
sg83
g528
sg76
(lp543
g69
(g70
g71
NtRp544
(dp545
g74
(dp546
g82
I3
ssg83
g540
sg76
(lp547
S''
asbasbasbag69
(g85
g71
NtRp548
(dp549
g74
(dp550
sg83
g464
sg76
(lp551
g69
(g90
g71
NtRp552
(dp553
g74
(dp554
g94
g95
ssg83
g548
sg76
(lp555
g367
asbag69
(g90
g71
NtRp556
(dp557
g74
(dp558
g101
g102
ssg83
g548
sg76
(lp559
S':'
asbag69
(g90
g71
NtRp560
(dp561
g74
(dp562
sg83
g548
sg76
(lp563
g69
(g70
g71
NtRp564
(dp565
g74
(dp566
g82
I3
ssg83
g560
sg76
(lp567
S''
asbasbasbag69
(g85
g71
NtRp568
(dp569
g74
(dp570
sg83
g464
sg76
(lp571
g69
(g90
g71
NtRp572
(dp573
g74
(dp574
g94
g95
ssg83
g568
sg76
(lp575
g388
asbag69
(g90
g71
NtRp576
(dp577
g74
(dp578
g101
g102
ssg83
g568
sg76
(lp579
S':'
asbag69
(g90
g71
NtRp580
(dp581
g74
(dp582
sg83
g568
sg76
(lp583
g69
(g70
g71
NtRp584
(dp585
g74
(dp586
g82
I3
ssg83
g580
sg76
(lp587
S''
asbasbasbag69
(g85
g71
NtRp588
(dp589
g74
(dp590
sg83
g464
sg76
(lp591
g69
(g90
g71
NtRp592
(dp593
g74
(dp594
g94
g95
ssg83
g588
sg76
(lp595
g409
asbag69
(g90
g71
NtRp596
(dp597
g74
(dp598
g101
g102
ssg83
g588
sg76
(lp599
S':'
asbag69
(g90
g71
NtRp600
(dp601
g74
(dp602
sg83
g588
sg76
(lp603
g69
(g70
g71
NtRp604
(dp605
g74
(dp606
g82
I3
ssg83
g600
sg76
(lp607
S''
asbasbasbag69
(g85
g71
NtRp608
(dp609
g74
(dp610
sg83
g464
sg76
(lp611
g69
(g90
g71
NtRp612
(dp613
g74
(dp614
g94
g95
ssg83
g608
sg76
(lp615
g430
asbag69
(g90
g71
NtRp616
(dp617
g74
(dp618
g101
g102
ssg83
g608
sg76
(lp619
S':'
asbag69
(g90
g71
NtRp620
(dp621
g74
(dp622
sg83
g608
sg76
(lp623
g69
(g70
g71
NtRp624
(dp625
g74
(dp626
g82
I3
ssg83
g620
sg76
(lp627
S''
asbasbasbasbasbasbasbag69
(g85
g71
NtRp628
(dp629
g74
(dp630
sg83
g246
sg76
(lp631
g69
(g90
g71
NtRp632
(dp633
g74
(dp634
g94
g95
ssg83
g628
sg76
(lp635
S'session_id_welcome'
p636
asbag69
(g90
g71
NtRp637
(dp638
g74
(dp639
g101
g102
ssg83
g628
sg76
(lp640
S':'
asbag69
(g90
g71
NtRp641
(dp642
g74
(dp643
sg83
g628
sg76
(lp644
g69
(g70
g71
NtRp645
(dp646
g74
(dp647
g82
I4
ssg83
g641
sg76
(lp648
g69
(g78
g71
NtRp649
(dp650
g74
(dp651
g82
I3
ssg83
Nsg76
(lp652
g69
(g85
g71
NtRp653
(dp654
g74
(dp655
sg83
g649
sg76
(lp656
g69
(g90
g71
NtRp657
(dp658
g74
(dp659
g94
g95
ssg83
g653
sg76
(lp660
g283
asbag69
(g90
g71
NtRp661
(dp662
g74
(dp663
g101
g102
ssg83
g653
sg76
(lp664
S':'
asbag69
(g90
g71
NtRp665
(dp666
g74
(dp667
sg83
g653
sg76
(lp668
g69
(g70
g71
NtRp669
(dp670
g74
(dp671
g82
I3
ssg83
g665
sg76
(lp672
S''
asbasbasbag69
(g85
g71
NtRp673
(dp674
g74
(dp675
sg83
g649
sg76
(lp676
g69
(g90
g71
NtRp677
(dp678
g74
(dp679
g94
g95
ssg83
g673
sg76
(lp680
g304
asbag69
(g90
g71
NtRp681
(dp682
g74
(dp683
g101
g102
ssg83
g673
sg76
(lp684
S':'
asbag69
(g90
g71
NtRp685
(dp686
g74
(dp687
sg83
g673
sg76
(lp688
g69
(g70
g71
NtRp689
(dp690
g74
(dp691
g82
I3
ssg83
g685
sg76
(lp692
S''
asbasbasbag69
(g85
g71
NtRp693
(dp694
g74
(dp695
sg83
g649
sg76
(lp696
g69
(g90
g71
NtRp697
(dp698
g74
(dp699
g94
g95
ssg83
g693
sg76
(lp700
g325
asbag69
(g90
g71
NtRp701
(dp702
g74
(dp703
g101
g102
ssg83
g693
sg76
(lp704
S':'
asbag69
(g90
g71
NtRp705
(dp706
g74
(dp707
sg83
g693
sg76
(lp708
g69
(g70
g71
NtRp709
(dp710
g74
(dp711
g82
I3
ssg83
g705
sg76
(lp712
S''
asbasbasbag69
(g85
g71
NtRp713
(dp714
g74
(dp715
sg83
g649
sg76
(lp716
g69
(g90
g71
NtRp717
(dp718
g74
(dp719
g94
g95
ssg83
g713
sg76
(lp720
g346
asbag69
(g90
g71
NtRp721
(dp722
g74
(dp723
g101
g102
ssg83
g713
sg76
(lp724
S':'
asbag69
(g90
g71
NtRp725
(dp726
g74
(dp727
sg83
g713
sg76
(lp728
g69
(g70
g71
NtRp729
(dp730
g74
(dp731
g82
I3
ssg83
g725
sg76
(lp732
S''
asbasbasbag69
(g85
g71
NtRp733
(dp734
g74
(dp735
sg83
g649
sg76
(lp736
g69
(g90
g71
NtRp737
(dp738
g74
(dp739
g94
g95
ssg83
g733
sg76
(lp740
g367
asbag69
(g90
g71
NtRp741
(dp742
g74
(dp743
g101
g102
ssg83
g733
sg76
(lp744
S':'
asbag69
(g90
g71
NtRp745
(dp746
g74
(dp747
sg83
g733
sg76
(lp748
g69
(g70
g71
NtRp749
(dp750
g74
(dp751
g82
I3
ssg83
g745
sg76
(lp752
S''
asbasbasbag69
(g85
g71
NtRp753
(dp754
g74
(dp755
sg83
g649
sg76
(lp756
g69
(g90
g71
NtRp757
(dp758
g74
(dp759
g94
g95
ssg83
g753
sg76
(lp760
g388
asbag69
(g90
g71
NtRp761
(dp762
g74
(dp763
g101
g102
ssg83
g753
sg76
(lp764
S':'
asbag69
(g90
g71
NtRp765
(dp766
g74
(dp767
sg83
g753
sg76
(lp768
g69
(g70
g71
NtRp769
(dp770
g74
(dp771
g82
I3
ssg83
g765
sg76
(lp772
S''
asbasbasbag69
(g85
g71
NtRp773
(dp774
g74
(dp775
sg83
g649
sg76
(lp776
g69
(g90
g71
NtRp777
(dp778
g74
(dp779
g94
g95
ssg83
g773
sg76
(lp780
g409
asbag69
(g90
g71
NtRp781
(dp782
g74
(dp783
g101
g102
ssg83
g773
sg76
(lp784
S':'
asbag69
(g90
g71
NtRp785
(dp786
g74
(dp787
sg83
g773
sg76
(lp788
g69
(g70
g71
NtRp789
(dp790
g74
(dp791
g82
I3
ssg83
g785
sg76
(lp792
S''
asbasbasbag69
(g85
g71
NtRp793
(dp794
g74
(dp795
sg83
g649
sg76
(lp796
g69
(g90
g71
NtRp797
(dp798
g74
(dp799
g94
g95
ssg83
g793
sg76
(lp800
g430
asbag69
(g90
g71
NtRp801
(dp802
g74
(dp803
g101
g102
ssg83
g793
sg76
(lp804
S':'
asbag69
(g90
g71
NtRp805
(dp806
g74
(dp807
sg83
g793
sg76
(lp808
g69
(g70
g71
NtRp809
(dp810
g74
(dp811
g82
I3
ssg83
g805
sg76
(lp812
S''
asbasbasbasbasbasbasbasbasbasbasbag69
(g85
g71
NtRp813
(dp814
g74
(dp815
sg83
g79
sg76
(lp816
g69
(g90
g71
NtRp817
(dp818
g74
(dp819
g94
g95
ssg83
g813
sg76
(lp820
S'env'
p821
asbag69
(g90
g71
NtRp822
(dp823
g74
(dp824
g101
g102
ssg83
g813
sg76
(lp825
S':'
asbag69
(g90
g71
NtRp826
(dp827
g74
(dp828
sg83
g813
sg76
(lp829
g69
(g70
g71
NtRp830
(dp831
g74
(dp832
g82
I5
ssg83
g826
sg76
(lp833
g69
(g78
g71
NtRp834
(dp835
g74
(dp836
g82
I4
ssg83
Nsg76
(lp837
g69
(g85
g71
NtRp838
(dp839
g74
(dp840
sg83
g834
sg76
(lp841
g69
(g90
g71
NtRp842
(dp843
g74
(dp844
g94
g95
ssg83
g838
sg76
(lp845
S'app_folders'
p846
asbag69
(g90
g71
NtRp847
(dp848
g74
(dp849
g101
g102
ssg83
g838
sg76
(lp850
S':'
asbag69
(g90
g71
NtRp851
(dp852
g74
(dp853
sg83
g838
sg76
(lp854
g69
(g70
g71
NtRp855
(dp856
g74
(dp857
g82
I4
ssg83
g851
sg76
(lp858
S"set(['/Users/hainna01/Downloads/web2py/applications/welcome/', '/Users/hainna01/Downloads/web2py/applications/Starcraft2/', '/Users/hainna01/Downloads/web2py/applications/examples/', '/Users/hainna01/Downloads/web2py/applications/admin/'])"
p859
asbasbasbag69
(g85
g71
NtRp860
(dp861
g74
(dp862
sg83
g834
sg76
(lp863
g69
(g90
g71
NtRp864
(dp865
g74
(dp866
g94
g95
ssg83
g860
sg76
(lp867
S'applications_parent'
p868
asbag69
(g90
g71
NtRp869
(dp870
g74
(dp871
g101
g102
ssg83
g860
sg76
(lp872
S':'
asbag69
(g90
g71
NtRp873
(dp874
g74
(dp875
sg83
g860
sg76
(lp876
g69
(g70
g71
NtRp877
(dp878
g74
(dp879
g82
I4
ssg83
g873
sg76
(lp880
S'/Users/hainna01/Downloads/web2py'
p881
asbasbasbag69
(g85
g71
NtRp882
(dp883
g74
(dp884
sg83
g834
sg76
(lp885
g69
(g90
g71
NtRp886
(dp887
g74
(dp888
g94
g95
ssg83
g882
sg76
(lp889
S'cmd_args'
p890
asbag69
(g90
g71
NtRp891
(dp892
g74
(dp893
g101
g102
ssg83
g882
sg76
(lp894
S':'
asbag69
(g90
g71
NtRp895
(dp896
g74
(dp897
sg83
g882
sg76
(lp898
g69
(g70
g71
NtRp899
(dp900
g74
(dp901
g82
I4
ssg83
g895
sg76
(lp902
g69
(g78
g71
NtRp903
(dp904
g74
(dp905
g82
I3
ssg83
Nsg76
(lp906
sbasbasbasbag69
(g85
g71
NtRp907
(dp908
g74
(dp909
sg83
g834
sg76
(lp910
g69
(g90
g71
NtRp911
(dp912
g74
(dp913
g94
g95
ssg83
g907
sg76
(lp914
S'cmd_options'
p915
asbag69
(g90
g71
NtRp916
(dp917
g74
(dp918
g101
g102
ssg83
g907
sg76
(lp919
S':'
asbag69
(g90
g71
NtRp920
(dp921
g74
(dp922
sg83
g907
sg76
(lp923
g69
(g70
g71
NtRp924
(dp925
g74
(dp926
g82
I4
ssg83
g920
sg76
(lp927
S"<Values at 0x1014e2710: {'verbose': False, 'ip': '127.0.0.1', 'shutdown_timeout': 5, 'taskbar': False, 'nocron': False, 'pid_filename': 'httpserver.pid', 'maxthreads': None, 'softcron': False, 'server_name': 'Nathans-MacBook-Pro.local', 'bpython': False, 'nogui': False, 'port': 8000, 'extcron': False, 'debuglevel': 30, 'test': None, 'folder': '/Users/hainna01/Downloads/web2py', 'config': '', 'import_models': False, 'winservice': '', 'shell': None, 'run': '', 'log_filename': 'httpserver.log', 'args': [''], 'socket_timeout': 5, 'ssl_ca_certificate': None, 'scheduler': None, 'profiler_filename': None, 'ssl_private_key': '', 'password': '<ask>', 'request_queue_size': 5, 'ssl_certificate': '', 'cronjob': False, 'numthreads': None, 'quiet': False, 'interfaces': None, 'minthreads': None, 'timeout': 10, 'plain': False, 'nobanner': False}>"
p928
asbasbasbag69
(g85
g71
NtRp929
(dp930
g74
(dp931
sg83
g834
sg76
(lp932
g69
(g90
g71
NtRp933
(dp934
g74
(dp935
g94
g95
ssg83
g929
sg76
(lp936
S'content_length'
p937
asbag69
(g90
g71
NtRp938
(dp939
g74
(dp940
g101
g102
ssg83
g929
sg76
(lp941
S':'
asbag69
(g90
g71
NtRp942
(dp943
g74
(dp944
sg83
g929
sg76
(lp945
g69
(g70
g71
NtRp946
(dp947
g74
(dp948
g82
I4
ssg83
g942
sg76
(lp949
S'537'
p950
asbasbasbag69
(g85
g71
NtRp951
(dp952
g74
(dp953
sg83
g834
sg76
(lp954
g69
(g90
g71
NtRp955
(dp956
g74
(dp957
g94
g95
ssg83
g951
sg76
(lp958
S'content_type'
p959
asbag69
(g90
g71
NtRp960
(dp961
g74
(dp962
g101
g102
ssg83
g951
sg76
(lp963
S':'
asbag69
(g90
g71
NtRp964
(dp965
g74
(dp966
sg83
g951
sg76
(lp967
g69
(g70
g71
NtRp968
(dp969
g74
(dp970
g82
I4
ssg83
g964
sg76
(lp971
S'multipart/form-data; boundary=----WebKitFormBoundaryivOPQ0Dk2TbL6AhJ'
p972
asbasbasbag69
(g85
g71
NtRp973
(dp974
g74
(dp975
sg83
g834
sg76
(lp976
g69
(g90
g71
NtRp977
(dp978
g74
(dp979
g94
g95
ssg83
g973
sg76
(lp980
S'db_sessions'
p981
asbag69
(g90
g71
NtRp982
(dp983
g74
(dp984
g101
g102
ssg83
g973
sg76
(lp985
S':'
asbag69
(g90
g71
NtRp986
(dp987
g74
(dp988
sg83
g973
sg76
(lp989
g69
(g70
g71
NtRp990
(dp991
g74
(dp992
g82
I4
ssg83
g986
sg76
(lp993
S'set([])'
p994
asbasbasbag69
(g85
g71
NtRp995
(dp996
g74
(dp997
sg83
g834
sg76
(lp998
g69
(g90
g71
NtRp999
(dp1000
g74
(dp1001
g94
g95
ssg83
g995
sg76
(lp1002
S'debugging'
p1003
asbag69
(g90
g71
NtRp1004
(dp1005
g74
(dp1006
g101
g102
ssg83
g995
sg76
(lp1007
S':'
asbag69
(g90
g71
NtRp1008
(dp1009
g74
(dp1010
sg83
g995
sg76
(lp1011
g69
(g70
g71
NtRp1012
(dp1013
g74
(dp1014
g82
I4
ssg83
g1008
sg76
(lp1015
g112
asbasbasbag69
(g85
g71
NtRp1016
(dp1017
g74
(dp1018
sg83
g834
sg76
(lp1019
g69
(g90
g71
NtRp1020
(dp1021
g74
(dp1022
g94
g95
ssg83
g1016
sg76
(lp1023
S'gluon_parent'
p1024
asbag69
(g90
g71
NtRp1025
(dp1026
g74
(dp1027
g101
g102
ssg83
g1016
sg76
(lp1028
S':'
asbag69
(g90
g71
NtRp1029
(dp1030
g74
(dp1031
sg83
g1016
sg76
(lp1032
g69
(g70
g71
NtRp1033
(dp1034
g74
(dp1035
g82
I4
ssg83
g1029
sg76
(lp1036
S'/Users/hainna01/Downloads/web2py'
p1037
asbasbasbag69
(g85
g71
NtRp1038
(dp1039
g74
(dp1040
sg83
g834
sg76
(lp1041
g69
(g90
g71
NtRp1042
(dp1043
g74
(dp1044
g94
g95
ssg83
g1038
sg76
(lp1045
S'http_accept'
p1046
asbag69
(g90
g71
NtRp1047
(dp1048
g74
(dp1049
g101
g102
ssg83
g1038
sg76
(lp1050
S':'
asbag69
(g90
g71
NtRp1051
(dp1052
g74
(dp1053
sg83
g1038
sg76
(lp1054
g69
(g70
g71
NtRp1055
(dp1056
g74
(dp1057
g82
I4
ssg83
g1051
sg76
(lp1058
S'text/html,application/xhtml+xml,application/xml;q=0.9,*/*;q=0.8'
p1059
asbasbasbag69
(g85
g71
NtRp1060
(dp1061
g74
(dp1062
sg83
g834
sg76
(lp1063
g69
(g90
g71
NtRp1064
(dp1065
g74
(dp1066
g94
g95
ssg83
g1060
sg76
(lp1067
S'http_accept_charset'
p1068
asbag69
(g90
g71
NtRp1069
(dp1070
g74
(dp1071
g101
g102
ssg83
g1060
sg76
(lp1072
S':'
asbag69
(g90
g71
NtRp1073
(dp1074
g74
(dp1075
sg83
g1060
sg76
(lp1076
g69
(g70
g71
NtRp1077
(dp1078
g74
(dp1079
g82
I4
ssg83
g1073
sg76
(lp1080
S'ISO-8859-1,utf-8;q=0.7,*;q=0.3'
p1081
asbasbasbag69
(g85
g71
NtRp1082
(dp1083
g74
(dp1084
sg83
g834
sg76
(lp1085
g69
(g90
g71
NtRp1086
(dp1087
g74
(dp1088
g94
g95
ssg83
g1082
sg76
(lp1089
S'http_accept_encoding'
p1090
asbag69
(g90
g71
NtRp1091
(dp1092
g74
(dp1093
g101
g102
ssg83
g1082
sg76
(lp1094
S':'
asbag69
(g90
g71
NtRp1095
(dp1096
g74
(dp1097
sg83
g1082
sg76
(lp1098
g69
(g70
g71
NtRp1099
(dp1100
g74
(dp1101
g82
I4
ssg83
g1095
sg76
(lp1102
S'gzip,deflate,sdch'
p1103
asbasbasbag69
(g85
g71
NtRp1104
(dp1105
g74
(dp1106
sg83
g834
sg76
(lp1107
g69
(g90
g71
NtRp1108
(dp1109
g74
(dp1110
g94
g95
ssg83
g1104
sg76
(lp1111
S'http_accept_language'
p1112
asbag69
(g90
g71
NtRp1113
(dp1114
g74
(dp1115
g101
g102
ssg83
g1104
sg76
(lp1116
S':'
asbag69
(g90
g71
NtRp1117
(dp1118
g74
(dp1119
sg83
g1104
sg76
(lp1120
g69
(g70
g71
NtRp1121
(dp1122
g74
(dp1123
g82
I4
ssg83
g1117
sg76
(lp1124
S'en-US,en;q=0.8'
p1125
asbasbasbag69
(g85
g71
NtRp1126
(dp1127
g74
(dp1128
sg83
g834
sg76
(lp1129
g69
(g90
g71
NtRp1130
(dp1131
g74
(dp1132
g94
g95
ssg83
g1126
sg76
(lp1133
S'http_cache_control'
p1134
asbag69
(g90
g71
NtRp1135
(dp1136
g74
(dp1137
g101
g102
ssg83
g1126
sg76
(lp1138
S':'
asbag69
(g90
g71
NtRp1139
(dp1140
g74
(dp1141
sg83
g1126
sg76
(lp1142
g69
(g70
g71
NtRp1143
(dp1144
g74
(dp1145
g82
I4
ssg83
g1139
sg76
(lp1146
S'max-age=0'
p1147
asbasbasbag69
(g85
g71
NtRp1148
(dp1149
g74
(dp1150
sg83
g834
sg76
(lp1151
g69
(g90
g71
NtRp1152
(dp1153
g74
(dp1154
g94
g95
ssg83
g1148
sg76
(lp1155
S'http_connection'
p1156
asbag69
(g90
g71
NtRp1157
(dp1158
g74
(dp1159
g101
g102
ssg83
g1148
sg76
(lp1160
S':'
asbag69
(g90
g71
NtRp1161
(dp1162
g74
(dp1163
sg83
g1148
sg76
(lp1164
g69
(g70
g71
NtRp1165
(dp1166
g74
(dp1167
g82
I4
ssg83
g1161
sg76
(lp1168
S'keep-alive'
p1169
asbasbasbag69
(g85
g71
NtRp1170
(dp1171
g74
(dp1172
sg83
g834
sg76
(lp1173
g69
(g90
g71
NtRp1174
(dp1175
g74
(dp1176
g94
g95
ssg83
g1170
sg76
(lp1177
S'http_content_length'
p1178
asbag69
(g90
g71
NtRp1179
(dp1180
g74
(dp1181
g101
g102
ssg83
g1170
sg76
(lp1182
S':'
asbag69
(g90
g71
NtRp1183
(dp1184
g74
(dp1185
sg83
g1170
sg76
(lp1186
g69
(g70
g71
NtRp1187
(dp1188
g74
(dp1189
g82
I4
ssg83
g1183
sg76
(lp1190
g950
asbasbasbag69
(g85
g71
NtRp1191
(dp1192
g74
(dp1193
sg83
g834
sg76
(lp1194
g69
(g90
g71
NtRp1195
(dp1196
g74
(dp1197
g94
g95
ssg83
g1191
sg76
(lp1198
S'http_content_type'
p1199
asbag69
(g90
g71
NtRp1200
(dp1201
g74
(dp1202
g101
g102
ssg83
g1191
sg76
(lp1203
S':'
asbag69
(g90
g71
NtRp1204
(dp1205
g74
(dp1206
sg83
g1191
sg76
(lp1207
g69
(g70
g71
NtRp1208
(dp1209
g74
(dp1210
g82
I4
ssg83
g1204
sg76
(lp1211
g972
asbasbasbag69
(g85
g71
NtRp1212
(dp1213
g74
(dp1214
sg83
g834
sg76
(lp1215
g69
(g90
g71
NtRp1216
(dp1217
g74
(dp1218
g94
g95
ssg83
g1212
sg76
(lp1219
S'http_cookie'
p1220
asbag69
(g90
g71
NtRp1221
(dp1222
g74
(dp1223
g101
g102
ssg83
g1212
sg76
(lp1224
S':'
asbag69
(g90
g71
NtRp1225
(dp1226
g74
(dp1227
sg83
g1212
sg76
(lp1228
g69
(g70
g71
NtRp1229
(dp1230
g74
(dp1231
g82
I4
ssg83
g1225
sg76
(lp1232
S'session_id_welcome=127.0.0.1-e0d9ef4a-1bde-4498-ae05-2fb015154a48; session_id_admin=127.0.0.1-e1cb751d-a18d-4bb5-bfaf-e8c7ec51a0bb; session_id_starcraft2=127.0.0.1-ab0c6fa2-79d9-46c1-ab68-7df9589f9e17'
p1233
asbasbasbag69
(g85
g71
NtRp1234
(dp1235
g74
(dp1236
sg83
g834
sg76
(lp1237
g69
(g90
g71
NtRp1238
(dp1239
g74
(dp1240
g94
g95
ssg83
g1234
sg76
(lp1241
S'http_host'
p1242
asbag69
(g90
g71
NtRp1243
(dp1244
g74
(dp1245
g101
g102
ssg83
g1234
sg76
(lp1246
S':'
asbag69
(g90
g71
NtRp1247
(dp1248
g74
(dp1249
sg83
g1234
sg76
(lp1250
g69
(g70
g71
NtRp1251
(dp1252
g74
(dp1253
g82
I4
ssg83
g1247
sg76
(lp1254
S'127.0.0.1:8000'
p1255
asbasbasbag69
(g85
g71
NtRp1256
(dp1257
g74
(dp1258
sg83
g834
sg76
(lp1259
g69
(g90
g71
NtRp1260
(dp1261
g74
(dp1262
g94
g95
ssg83
g1256
sg76
(lp1263
S'http_origin'
p1264
asbag69
(g90
g71
NtRp1265
(dp1266
g74
(dp1267
g101
g102
ssg83
g1256
sg76
(lp1268
S':'
asbag69
(g90
g71
NtRp1269
(dp1270
g74
(dp1271
sg83
g1256
sg76
(lp1272
g69
(g70
g71
NtRp1273
(dp1274
g74
(dp1275
g82
I4
ssg83
g1269
sg76
(lp1276
S'http://127.0.0.1:8000'
p1277
asbasbasbag69
(g85
g71
NtRp1278
(dp1279
g74
(dp1280
sg83
g834
sg76
(lp1281
g69
(g90
g71
NtRp1282
(dp1283
g74
(dp1284
g94
g95
ssg83
g1278
sg76
(lp1285
S'http_referer'
p1286
asbag69
(g90
g71
NtRp1287
(dp1288
g74
(dp1289
g101
g102
ssg83
g1278
sg76
(lp1290
S':'
asbag69
(g90
g71
NtRp1291
(dp1292
g74
(dp1293
sg83
g1278
sg76
(lp1294
g69
(g70
g71
NtRp1295
(dp1296
g74
(dp1297
g82
I4
ssg83
g1291
sg76
(lp1298
S'http://127.0.0.1:8000/Starcraft2/default/build'
p1299
asbasbasbag69
(g85
g71
NtRp1300
(dp1301
g74
(dp1302
sg83
g834
sg76
(lp1303
g69
(g90
g71
NtRp1304
(dp1305
g74
(dp1306
g94
g95
ssg83
g1300
sg76
(lp1307
S'http_user_agent'
p1308
asbag69
(g90
g71
NtRp1309
(dp1310
g74
(dp1311
g101
g102
ssg83
g1300
sg76
(lp1312
S':'
asbag69
(g90
g71
NtRp1313
(dp1314
g74
(dp1315
sg83
g1300
sg76
(lp1316
g69
(g70
g71
NtRp1317
(dp1318
g74
(dp1319
g82
I4
ssg83
g1313
sg76
(lp1320
S'Mozilla/5.0 (Macintosh; Intel Mac OS X 10_7_3) AppleWebKit/535.19 (KHTML, like Gecko) Chrome/18.0.1025.165 Safari/535.19'
p1321
asbasbasbag69
(g85
g71
NtRp1322
(dp1323
g74
(dp1324
sg83
g834
sg76
(lp1325
g69
(g90
g71
NtRp1326
(dp1327
g74
(dp1328
g94
g95
ssg83
g1322
sg76
(lp1329
S'is_jython'
p1330
asbag69
(g90
g71
NtRp1331
(dp1332
g74
(dp1333
g101
g102
ssg83
g1322
sg76
(lp1334
S':'
asbag69
(g90
g71
NtRp1335
(dp1336
g74
(dp1337
sg83
g1322
sg76
(lp1338
g69
(g70
g71
NtRp1339
(dp1340
g74
(dp1341
g82
I4
ssg83
g1335
sg76
(lp1342
g112
asbasbasbag69
(g85
g71
NtRp1343
(dp1344
g74
(dp1345
sg83
g834
sg76
(lp1346
g69
(g90
g71
NtRp1347
(dp1348
g74
(dp1349
g94
g95
ssg83
g1343
sg76
(lp1350
S'is_pypy'
p1351
asbag69
(g90
g71
NtRp1352
(dp1353
g74
(dp1354
g101
g102
ssg83
g1343
sg76
(lp1355
S':'
asbag69
(g90
g71
NtRp1356
(dp1357
g74
(dp1358
sg83
g1343
sg76
(lp1359
g69
(g70
g71
NtRp1360
(dp1361
g74
(dp1362
g82
I4
ssg83
g1356
sg76
(lp1363
g112
asbasbasbag69
(g85
g71
NtRp1364
(dp1365
g74
(dp1366
sg83
g834
sg76
(lp1367
g69
(g90
g71
NtRp1368
(dp1369
g74
(dp1370
g94
g95
ssg83
g1364
sg76
(lp1371
S'path_info'
p1372
asbag69
(g90
g71
NtRp1373
(dp1374
g74
(dp1375
g101
g102
ssg83
g1364
sg76
(lp1376
S':'
asbag69
(g90
g71
NtRp1377
(dp1378
g74
(dp1379
sg83
g1364
sg76
(lp1380
g69
(g70
g71
NtRp1381
(dp1382
g74
(dp1383
g82
I4
ssg83
g1377
sg76
(lp1384
S'/Starcraft2/default/build'
p1385
asbasbasbag69
(g85
g71
NtRp1386
(dp1387
g74
(dp1388
sg83
g834
sg76
(lp1389
g69
(g90
g71
NtRp1390
(dp1391
g74
(dp1392
g94
g95
ssg83
g1386
sg76
(lp1393
S'query_string'
p1394
asbag69
(g90
g71
NtRp1395
(dp1396
g74
(dp1397
g101
g102
ssg83
g1386
sg76
(lp1398
S':'
asbag69
(g90
g71
NtRp1399
(dp1400
g74
(dp1401
sg83
g1386
sg76
(lp1402
g69
(g70
g71
NtRp1403
(dp1404
g74
(dp1405
g82
I4
ssg83
g1399
sg76
(lp1406
S''
asbasbasbag69
(g85
g71
NtRp1407
(dp1408
g74
(dp1409
sg83
g834
sg76
(lp1410
g69
(g90
g71
NtRp1411
(dp1412
g74
(dp1413
g94
g95
ssg83
g1407
sg76
(lp1414
S'remote_addr'
p1415
asbag69
(g90
g71
NtRp1416
(dp1417
g74
(dp1418
g101
g102
ssg83
g1407
sg76
(lp1419
S':'
asbag69
(g90
g71
NtRp1420
(dp1421
g74
(dp1422
sg83
g1407
sg76
(lp1423
g69
(g70
g71
NtRp1424
(dp1425
g74
(dp1426
g82
I4
ssg83
g1420
sg76
(lp1427
g202
asbasbasbag69
(g85
g71
NtRp1428
(dp1429
g74
(dp1430
sg83
g834
sg76
(lp1431
g69
(g90
g71
NtRp1432
(dp1433
g74
(dp1434
g94
g95
ssg83
g1428
sg76
(lp1435
S'remote_port'
p1436
asbag69
(g90
g71
NtRp1437
(dp1438
g74
(dp1439
g101
g102
ssg83
g1428
sg76
(lp1440
S':'
asbag69
(g90
g71
NtRp1441
(dp1442
g74
(dp1443
sg83
g1428
sg76
(lp1444
g69
(g70
g71
NtRp1445
(dp1446
g74
(dp1447
g82
I4
ssg83
g1441
sg76
(lp1448
S'49266'
p1449
asbasbasbag69
(g85
g71
NtRp1450
(dp1451
g74
(dp1452
sg83
g834
sg76
(lp1453
g69
(g90
g71
NtRp1454
(dp1455
g74
(dp1456
g94
g95
ssg83
g1450
sg76
(lp1457
S'request_method'
p1458
asbag69
(g90
g71
NtRp1459
(dp1460
g74
(dp1461
g101
g102
ssg83
g1450
sg76
(lp1462
S':'
asbag69
(g90
g71
NtRp1463
(dp1464
g74
(dp1465
sg83
g1450
sg76
(lp1466
g69
(g70
g71
NtRp1467
(dp1468
g74
(dp1469
g82
I4
ssg83
g1463
sg76
(lp1470
S'POST'
p1471
asbasbasbag69
(g85
g71
NtRp1472
(dp1473
g74
(dp1474
sg83
g834
sg76
(lp1475
g69
(g90
g71
NtRp1476
(dp1477
g74
(dp1478
g94
g95
ssg83
g1472
sg76
(lp1479
S'script_name'
p1480
asbag69
(g90
g71
NtRp1481
(dp1482
g74
(dp1483
g101
g102
ssg83
g1472
sg76
(lp1484
S':'
asbag69
(g90
g71
NtRp1485
(dp1486
g74
(dp1487
sg83
g1472
sg76
(lp1488
g69
(g70
g71
NtRp1489
(dp1490
g74
(dp1491
g82
I4
ssg83
g1485
sg76
(lp1492
S''
asbasbasbag69
(g85
g71
NtRp1493
(dp1494
g74
(dp1495
sg83
g834
sg76
(lp1496
g69
(g90
g71
NtRp1497
(dp1498
g74
(dp1499
g94
g95
ssg83
g1493
sg76
(lp1500
S'server_name'
p1501
asbag69
(g90
g71
NtRp1502
(dp1503
g74
(dp1504
g101
g102
ssg83
g1493
sg76
(lp1505
S':'
asbag69
(g90
g71
NtRp1506
(dp1507
g74
(dp1508
sg83
g1493
sg76
(lp1509
g69
(g70
g71
NtRp1510
(dp1511
g74
(dp1512
g82
I4
ssg83
g1506
sg76
(lp1513
S'Nathans-MacBook-Pro.local'
p1514
asbasbasbag69
(g85
g71
NtRp1515
(dp1516
g74
(dp1517
sg83
g834
sg76
(lp1518
g69
(g90
g71
NtRp1519
(dp1520
g74
(dp1521
g94
g95
ssg83
g1515
sg76
(lp1522
S'server_port'
p1523
asbag69
(g90
g71
NtRp1524
(dp1525
g74
(dp1526
g101
g102
ssg83
g1515
sg76
(lp1527
S':'
asbag69
(g90
g71
NtRp1528
(dp1529
g74
(dp1530
sg83
g1515
sg76
(lp1531
g69
(g70
g71
NtRp1532
(dp1533
g74
(dp1534
g82
I4
ssg83
g1528
sg76
(lp1535
S'8000'
p1536
asbasbasbag69
(g85
g71
NtRp1537
(dp1538
g74
(dp1539
sg83
g834
sg76
(lp1540
g69
(g90
g71
NtRp1541
(dp1542
g74
(dp1543
g94
g95
ssg83
g1537
sg76
(lp1544
S'server_protocol'
p1545
asbag69
(g90
g71
NtRp1546
(dp1547
g74
(dp1548
g101
g102
ssg83
g1537
sg76
(lp1549
S':'
asbag69
(g90
g71
NtRp1550
(dp1551
g74
(dp1552
sg83
g1537
sg76
(lp1553
g69
(g70
g71
NtRp1554
(dp1555
g74
(dp1556
g82
I4
ssg83
g1550
sg76
(lp1557
S'HTTP/1.1'
p1558
asbasbasbag69
(g85
g71
NtRp1559
(dp1560
g74
(dp1561
sg83
g834
sg76
(lp1562
g69
(g90
g71
NtRp1563
(dp1564
g74
(dp1565
g94
g95
ssg83
g1559
sg76
(lp1566
S'server_software'
p1567
asbag69
(g90
g71
NtRp1568
(dp1569
g74
(dp1570
g101
g102
ssg83
g1559
sg76
(lp1571
S':'
asbag69
(g90
g71
NtRp1572
(dp1573
g74
(dp1574
sg83
g1559
sg76
(lp1575
g69
(g70
g71
NtRp1576
(dp1577
g74
(dp1578
g82
I4
ssg83
g1572
sg76
(lp1579
S'Rocket 1.2.4'
p1580
asbasbasbag69
(g85
g71
NtRp1581
(dp1582
g74
(dp1583
sg83
g834
sg76
(lp1584
g69
(g90
g71
NtRp1585
(dp1586
g74
(dp1587
g94
g95
ssg83
g1581
sg76
(lp1588
S'web2py_crontype'
p1589
asbag69
(g90
g71
NtRp1590
(dp1591
g74
(dp1592
g101
g102
ssg83
g1581
sg76
(lp1593
S':'
asbag69
(g90
g71
NtRp1594
(dp1595
g74
(dp1596
sg83
g1581
sg76
(lp1597
g69
(g70
g71
NtRp1598
(dp1599
g74
(dp1600
g82
I4
ssg83
g1594
sg76
(lp1601
S'hard'
p1602
asbasbasbag69
(g85
g71
NtRp1603
(dp1604
g74
(dp1605
sg83
g834
sg76
(lp1606
g69
(g90
g71
NtRp1607
(dp1608
g74
(dp1609
g94
g95
ssg83
g1603
sg76
(lp1610
S'web2py_path'
p1611
asbag69
(g90
g71
NtRp1612
(dp1613
g74
(dp1614
g101
g102
ssg83
g1603
sg76
(lp1615
S':'
asbag69
(g90
g71
NtRp1616
(dp1617
g74
(dp1618
sg83
g1603
sg76
(lp1619
g69
(g70
g71
NtRp1620
(dp1621
g74
(dp1622
g82
I4
ssg83
g1616
sg76
(lp1623
g881
asbasbasbag69
(g85
g71
NtRp1624
(dp1625
g74
(dp1626
sg83
g834
sg76
(lp1627
g69
(g90
g71
NtRp1628
(dp1629
g74
(dp1630
g94
g95
ssg83
g1624
sg76
(lp1631
S'web2py_version'
p1632
asbag69
(g90
g71
NtRp1633
(dp1634
g74
(dp1635
g101
g102
ssg83
g1624
sg76
(lp1636
S':'
asbag69
(g90
g71
NtRp1637
(dp1638
g74
(dp1639
sg83
g1624
sg76
(lp1640
g69
(g70
g71
NtRp1641
(dp1642
g74
(dp1643
g82
I4
ssg83
g1637
sg76
(lp1644
g69
(g78
g71
NtRp1645
(dp1646
g74
(dp1647
g82
I3
ssg83
Nsg76
(lp1648
g69
(g85
g71
NtRp1649
(dp1650
g74
(dp1651
sg83
g1645
sg76
(lp1652
g69
(g90
g71
NtRp1653
(dp1654
g74
(dp1655
sg83
g1649
sg76
(lp1656
g69
(g70
g71
NtRp1657
(dp1658
g74
(dp1659
g82
I3
ssg83
g1653
sg76
(lp1660
S'1'
asbasbasbag69
(g85
g71
NtRp1661
(dp1662
g74
(dp1663
sg83
g1645
sg76
(lp1664
g69
(g90
g71
NtRp1665
(dp1666
g74
(dp1667
sg83
g1661
sg76
(lp1668
g69
(g70
g71
NtRp1669
(dp1670
g74
(dp1671
g82
I3
ssg83
g1665
sg76
(lp1672
S'99'
p1673
asbasbasbag69
(g85
g71
NtRp1674
(dp1675
g74
(dp1676
sg83
g1645
sg76
(lp1677
g69
(g90
g71
NtRp1678
(dp1679
g74
(dp1680
sg83
g1674
sg76
(lp1681
g69
(g70
g71
NtRp1682
(dp1683
g74
(dp1684
g82
I3
ssg83
g1678
sg76
(lp1685
S'7'
asbasbasbag69
(g85
g71
NtRp1686
(dp1687
g74
(dp1688
sg83
g1645
sg76
(lp1689
g69
(g90
g71
NtRp1690
(dp1691
g74
(dp1692
sg83
g1686
sg76
(lp1693
g69
(g70
g71
NtRp1694
(dp1695
g74
(dp1696
g82
I3
ssg83
g1690
sg76
(lp1697
S'datetime.datetime(2012, 3, 4, 22, 12, 8)'
p1698
asbasbasbag69
(g85
g71
NtRp1699
(dp1700
g74
(dp1701
sg83
g1645
sg76
(lp1702
g69
(g90
g71
NtRp1703
(dp1704
g74
(dp1705
sg83
g1699
sg76
(lp1706
g69
(g70
g71
NtRp1707
(dp1708
g74
(dp1709
g82
I3
ssg83
g1703
sg76
(lp1710
S'stable'
p1711
asbasbasbasbasbasbasbag69
(g85
g71
NtRp1712
(dp1713
g74
(dp1714
sg83
g834
sg76
(lp1715
g69
(g90
g71
NtRp1716
(dp1717
g74
(dp1718
g94
g95
ssg83
g1712
sg76
(lp1719
S'wsgi_errors'
p1720
asbag69
(g90
g71
NtRp1721
(dp1722
g74
(dp1723
g101
g102
ssg83
g1712
sg76
(lp1724
S':'
asbag69
(g90
g71
NtRp1725
(dp1726
g74
(dp1727
sg83
g1712
sg76
(lp1728
g69
(g70
g71
NtRp1729
(dp1730
g74
(dp1731
g82
I4
ssg83
g1725
sg76
(lp1732
S"<open file '<stderr>', mode 'w' at 0x100282270>"
p1733
asbasbasbag69
(g85
g71
NtRp1734
(dp1735
g74
(dp1736
sg83
g834
sg76
(lp1737
g69
(g90
g71
NtRp1738
(dp1739
g74
(dp1740
g94
g95
ssg83
g1734
sg76
(lp1741
S'wsgi_file_wrapper'
p1742
asbag69
(g90
g71
NtRp1743
(dp1744
g74
(dp1745
g101
g102
ssg83
g1734
sg76
(lp1746
S':'
asbag69
(g90
g71
NtRp1747
(dp1748
g74
(dp1749
sg83
g1734
sg76
(lp1750
g69
(g70
g71
NtRp1751
(dp1752
g74
(dp1753
g82
I4
ssg83
g1747
sg76
(lp1754
S'<class wsgiref.util.FileWrapper at 0x1012b4d50>'
p1755
asbasbasbag69
(g85
g71
NtRp1756
(dp1757
g74
(dp1758
sg83
g834
sg76
(lp1759
g69
(g90
g71
NtRp1760
(dp1761
g74
(dp1762
g94
g95
ssg83
g1756
sg76
(lp1763
S'wsgi_input'
p1764
asbag69
(g90
g71
NtRp1765
(dp1766
g74
(dp1767
g101
g102
ssg83
g1756
sg76
(lp1768
S':'
asbag69
(g90
g71
NtRp1769
(dp1770
g74
(dp1771
sg83
g1756
sg76
(lp1772
g69
(g70
g71
NtRp1773
(dp1774
g74
(dp1775
g82
I4
ssg83
g1769
sg76
(lp1776
S'<socket._fileobject object at 0x1019b6350>'
p1777
asbasbasbag69
(g85
g71
NtRp1778
(dp1779
g74
(dp1780
sg83
g834
sg76
(lp1781
g69
(g90
g71
NtRp1782
(dp1783
g74
(dp1784
g94
g95
ssg83
g1778
sg76
(lp1785
S'wsgi_multiprocess'
p1786
asbag69
(g90
g71
NtRp1787
(dp1788
g74
(dp1789
g101
g102
ssg83
g1778
sg76
(lp1790
S':'
asbag69
(g90
g71
NtRp1791
(dp1792
g74
(dp1793
sg83
g1778
sg76
(lp1794
g69
(g70
g71
NtRp1795
(dp1796
g74
(dp1797
g82
I4
ssg83
g1791
sg76
(lp1798
g112
asbasbasbag69
(g85
g71
NtRp1799
(dp1800
g74
(dp1801
sg83
g834
sg76
(lp1802
g69
(g90
g71
NtRp1803
(dp1804
g74
(dp1805
g94
g95
ssg83
g1799
sg76
(lp1806
S'wsgi_multithread'
p1807
asbag69
(g90
g71
NtRp1808
(dp1809
g74
(dp1810
g101
g102
ssg83
g1799
sg76
(lp1811
S':'
asbag69
(g90
g71
NtRp1812
(dp1813
g74
(dp1814
sg83
g1799
sg76
(lp1815
g69
(g70
g71
NtRp1816
(dp1817
g74
(dp1818
g82
I4
ssg83
g1812
sg76
(lp1819
S'True'
p1820
asbasbasbag69
(g85
g71
NtRp1821
(dp1822
g74
(dp1823
sg83
g834
sg76
(lp1824
g69
(g90
g71
NtRp1825
(dp1826
g74
(dp1827
g94
g95
ssg83
g1821
sg76
(lp1828
S'wsgi_run_once'
p1829
asbag69
(g90
g71
NtRp1830
(dp1831
g74
(dp1832
g101
g102
ssg83
g1821
sg76
(lp1833
S':'
asbag69
(g90
g71
NtRp1834
(dp1835
g74
(dp1836
sg83
g1821
sg76
(lp1837
g69
(g70
g71
NtRp1838
(dp1839
g74
(dp1840
g82
I4
ssg83
g1834
sg76
(lp1841
g112
asbasbasbag69
(g85
g71
NtRp1842
(dp1843
g74
(dp1844
sg83
g834
sg76
(lp1845
g69
(g90
g71
NtRp1846
(dp1847
g74
(dp1848
g94
g95
ssg83
g1842
sg76
(lp1849
S'wsgi_url_scheme'
p1850
asbag69
(g90
g71
NtRp1851
(dp1852
g74
(dp1853
g101
g102
ssg83
g1842
sg76
(lp1854
S':'
asbag69
(g90
g71
NtRp1855
(dp1856
g74
(dp1857
sg83
g1842
sg76
(lp1858
g69
(g70
g71
NtRp1859
(dp1860
g74
(dp1861
g82
I4
ssg83
g1855
sg76
(lp1862
S'http'
p1863
asbasbasbag69
(g85
g71
NtRp1864
(dp1865
g74
(dp1866
sg83
g834
sg76
(lp1867
g69
(g90
g71
NtRp1868
(dp1869
g74
(dp1870
g94
g95
ssg83
g1864
sg76
(lp1871
S'wsgi_version'
p1872
asbag69
(g90
g71
NtRp1873
(dp1874
g74
(dp1875
g101
g102
ssg83
g1864
sg76
(lp1876
S':'
asbag69
(g90
g71
NtRp1877
(dp1878
g74
(dp1879
sg83
g1864
sg76
(lp1880
g69
(g70
g71
NtRp1881
(dp1882
g74
(dp1883
g82
I4
ssg83
g1877
sg76
(lp1884
g69
(g78
g71
NtRp1885
(dp1886
g74
(dp1887
g82
I3
ssg83
Nsg76
(lp1888
g69
(g85
g71
NtRp1889
(dp1890
g74
(dp1891
sg83
g1885
sg76
(lp1892
g69
(g90
g71
NtRp1893
(dp1894
g74
(dp1895
sg83
g1889
sg76
(lp1896
g69
(g70
g71
NtRp1897
(dp1898
g74
(dp1899
g82
I3
ssg83
g1893
sg76
(lp1900
S'1'
asbasbasbag69
(g85
g71
NtRp1901
(dp1902
g74
(dp1903
sg83
g1885
sg76
(lp1904
g69
(g90
g71
NtRp1905
(dp1906
g74
(dp1907
sg83
g1901
sg76
(lp1908
g69
(g70
g71
NtRp1909
(dp1910
g74
(dp1911
g82
I3
ssg83
g1905
sg76
(lp1912
S'0'
asbasbasbasbasbasbasbasbasbasbasbag69
(g85
g71
NtRp1913
(dp1914
g74
(dp1915
sg83
g79
sg76
(lp1916
g69
(g90
g71
NtRp1917
(dp1918
g74
(dp1919
g94
g95
ssg83
g1913
sg76
(lp1920
S'extension'
p1921
asbag69
(g90
g71
NtRp1922
(dp1923
g74
(dp1924
g101
g102
ssg83
g1913
sg76
(lp1925
S':'
asbag69
(g90
g71
NtRp1926
(dp1927
g74
(dp1928
sg83
g1913
sg76
(lp1929
g69
(g70
g71
NtRp1930
(dp1931
g74
(dp1932
g82
I5
ssg83
g1926
sg76
(lp1933
S'html'
p1934
asbasbasbag69
(g85
g71
NtRp1935
(dp1936
g74
(dp1937
sg83
g79
sg76
(lp1938
g69
(g90
g71
NtRp1939
(dp1940
g74
(dp1941
g94
g95
ssg83
g1935
sg76
(lp1942
S'folder'
p1943
asbag69
(g90
g71
NtRp1944
(dp1945
g74
(dp1946
g101
g102
ssg83
g1935
sg76
(lp1947
S':'
asbag69
(g90
g71
NtRp1948
(dp1949
g74
(dp1950
sg83
g1935
sg76
(lp1951
g69
(g70
g71
NtRp1952
(dp1953
g74
(dp1954
g82
I5
ssg83
g1948
sg76
(lp1955
S'/Users/hainna01/Downloads/web2py/applications/Starcraft2/'
p1956
asbasbasbag69
(g85
g71
NtRp1957
(dp1958
g74
(dp1959
sg83
g79
sg76
(lp1960
g69
(g90
g71
NtRp1961
(dp1962
g74
(dp1963
g94
g95
ssg83
g1957
sg76
(lp1964
S'function'
p1965
asbag69
(g90
g71
NtRp1966
(dp1967
g74
(dp1968
g101
g102
ssg83
g1957
sg76
(lp1969
S':'
asbag69
(g90
g71
NtRp1970
(dp1971
g74
(dp1972
sg83
g1957
sg76
(lp1973
g69
(g70
g71
NtRp1974
(dp1975
g74
(dp1976
g82
I5
ssg83
g1970
sg76
(lp1977
S'build'
p1978
asbasbasbag69
(g85
g71
NtRp1979
(dp1980
g74
(dp1981
sg83
g79
sg76
(lp1982
g69
(g90
g71
NtRp1983
(dp1984
g74
(dp1985
g94
g95
ssg83
g1979
sg76
(lp1986
S'get_vars'
p1987
asbag69
(g90
g71
NtRp1988
(dp1989
g74
(dp1990
g101
g102
ssg83
g1979
sg76
(lp1991
S':'
asbag69
(g90
g71
NtRp1992
(dp1993
g74
(dp1994
sg83
g1979
sg76
(lp1995
g69
(g70
g71
NtRp1996
(dp1997
g74
(dp1998
g82
I5
ssg83
g1992
sg76
(lp1999
g69
(g78
g71
NtRp2000
(dp2001
g74
(dp2002
g82
I4
ssg83
Nsg76
(lp2003
sbasbasbasbag69
(g85
g71
NtRp2004
(dp2005
g74
(dp2006
sg83
g79
sg76
(lp2007
g69
(g90
g71
NtRp2008
(dp2009
g74
(dp2010
g94
g95
ssg83
g2004
sg76
(lp2011
S'global_settings'
p2012
asbag69
(g90
g71
NtRp2013
(dp2014
g74
(dp2015
g101
g102
ssg83
g2004
sg76
(lp2016
S':'
asbag69
(g90
g71
NtRp2017
(dp2018
g74
(dp2019
sg83
g2004
sg76
(lp2020
g69
(g70
g71
NtRp2021
(dp2022
g74
(dp2023
g82
I5
ssg83
g2017
sg76
(lp2024
g69
(g78
g71
NtRp2025
(dp2026
g74
(dp2027
g82
I4
ssg83
Nsg76
(lp2028
g69
(g85
g71
NtRp2029
(dp2030
g74
(dp2031
sg83
g2025
sg76
(lp2032
g69
(g90
g71
NtRp2033
(dp2034
g74
(dp2035
g94
g95
ssg83
g2029
sg76
(lp2036
g846
asbag69
(g90
g71
NtRp2037
(dp2038
g74
(dp2039
g101
g102
ssg83
g2029
sg76
(lp2040
S':'
asbag69
(g90
g71
NtRp2041
(dp2042
g74
(dp2043
sg83
g2029
sg76
(lp2044
g69
(g70
g71
NtRp2045
(dp2046
g74
(dp2047
g82
I4
ssg83
g2041
sg76
(lp2048
S"set(['/Users/hainna01/Downloads/web2py/applications/welcome/', '/Users/hainna01/Downloads/web2py/applications/Starcraft2/', '/Users/hainna01/Downloads/web2py/applications/examples/', '/Users/hainna01/Downloads/web2py/applications/admin/'])"
p2049
asbasbasbag69
(g85
g71
NtRp2050
(dp2051
g74
(dp2052
sg83
g2025
sg76
(lp2053
g69
(g90
g71
NtRp2054
(dp2055
g74
(dp2056
g94
g95
ssg83
g2050
sg76
(lp2057
g868
asbag69
(g90
g71
NtRp2058
(dp2059
g74
(dp2060
g101
g102
ssg83
g2050
sg76
(lp2061
S':'
asbag69
(g90
g71
NtRp2062
(dp2063
g74
(dp2064
sg83
g2050
sg76
(lp2065
g69
(g70
g71
NtRp2066
(dp2067
g74
(dp2068
g82
I4
ssg83
g2062
sg76
(lp2069
g881
asbasbasbag69
(g85
g71
NtRp2070
(dp2071
g74
(dp2072
sg83
g2025
sg76
(lp2073
g69
(g90
g71
NtRp2074
(dp2075
g74
(dp2076
g94
g95
ssg83
g2070
sg76
(lp2077
g890
asbag69
(g90
g71
NtRp2078
(dp2079
g74
(dp2080
g101
g102
ssg83
g2070
sg76
(lp2081
S':'
asbag69
(g90
g71
NtRp2082
(dp2083
g74
(dp2084
sg83
g2070
sg76
(lp2085
g69
(g70
g71
NtRp2086
(dp2087
g74
(dp2088
g82
I4
ssg83
g2082
sg76
(lp2089
g69
(g78
g71
NtRp2090
(dp2091
g74
(dp2092
g82
I3
ssg83
Nsg76
(lp2093
sbasbasbasbag69
(g85
g71
NtRp2094
(dp2095
g74
(dp2096
sg83
g2025
sg76
(lp2097
g69
(g90
g71
NtRp2098
(dp2099
g74
(dp2100
g94
g95
ssg83
g2094
sg76
(lp2101
g915
asbag69
(g90
g71
NtRp2102
(dp2103
g74
(dp2104
g101
g102
ssg83
g2094
sg76
(lp2105
S':'
asbag69
(g90
g71
NtRp2106
(dp2107
g74
(dp2108
sg83
g2094
sg76
(lp2109
g69
(g70
g71
NtRp2110
(dp2111
g74
(dp2112
g82
I4
ssg83
g2106
sg76
(lp2113
S"<Values at 0x1014e2710: {'verbose': False, 'ip': '127.0.0.1', 'shutdown_timeout': 5, 'taskbar': False, 'nocron': False, 'pid_filename': 'httpserver.pid', 'maxthreads': None, 'softcron': False, 'server_name': 'Nathans-MacBook-Pro.local', 'bpython': False, 'nogui': False, 'port': 8000, 'extcron': False, 'debuglevel': 30, 'test': None, 'folder': '/Users/hainna01/Downloads/web2py', 'config': '', 'import_models': False, 'winservice': '', 'shell': None, 'run': '', 'log_filename': 'httpserver.log', 'args': [''], 'socket_timeout': 5, 'ssl_ca_certificate': None, 'scheduler': None, 'profiler_filename': None, 'ssl_private_key': '', 'password': '<ask>', 'request_queue_size': 5, 'ssl_certificate': '', 'cronjob': False, 'numthreads': None, 'quiet': False, 'interfaces': None, 'minthreads': None, 'timeout': 10, 'plain': False, 'nobanner': False}>"
p2114
asbasbasbag69
(g85
g71
NtRp2115
(dp2116
g74
(dp2117
sg83
g2025
sg76
(lp2118
g69
(g90
g71
NtRp2119
(dp2120
g74
(dp2121
g94
g95
ssg83
g2115
sg76
(lp2122
g981
asbag69
(g90
g71
NtRp2123
(dp2124
g74
(dp2125
g101
g102
ssg83
g2115
sg76
(lp2126
S':'
asbag69
(g90
g71
NtRp2127
(dp2128
g74
(dp2129
sg83
g2115
sg76
(lp2130
g69
(g70
g71
NtRp2131
(dp2132
g74
(dp2133
g82
I4
ssg83
g2127
sg76
(lp2134
S'set([])'
p2135
asbasbasbag69
(g85
g71
NtRp2136
(dp2137
g74
(dp2138
sg83
g2025
sg76
(lp2139
g69
(g90
g71
NtRp2140
(dp2141
g74
(dp2142
g94
g95
ssg83
g2136
sg76
(lp2143
g1003
asbag69
(g90
g71
NtRp2144
(dp2145
g74
(dp2146
g101
g102
ssg83
g2136
sg76
(lp2147
S':'
asbag69
(g90
g71
NtRp2148
(dp2149
g74
(dp2150
sg83
g2136
sg76
(lp2151
g69
(g70
g71
NtRp2152
(dp2153
g74
(dp2154
g82
I4
ssg83
g2148
sg76
(lp2155
g112
asbasbasbag69
(g85
g71
NtRp2156
(dp2157
g74
(dp2158
sg83
g2025
sg76
(lp2159
g69
(g90
g71
NtRp2160
(dp2161
g74
(dp2162
g94
g95
ssg83
g2156
sg76
(lp2163
g1024
asbag69
(g90
g71
NtRp2164
(dp2165
g74
(dp2166
g101
g102
ssg83
g2156
sg76
(lp2167
S':'
asbag69
(g90
g71
NtRp2168
(dp2169
g74
(dp2170
sg83
g2156
sg76
(lp2171
g69
(g70
g71
NtRp2172
(dp2173
g74
(dp2174
g82
I4
ssg83
g2168
sg76
(lp2175
g1037
asbasbasbag69
(g85
g71
NtRp2176
(dp2177
g74
(dp2178
sg83
g2025
sg76
(lp2179
g69
(g90
g71
NtRp2180
(dp2181
g74
(dp2182
g94
g95
ssg83
g2176
sg76
(lp2183
g1330
asbag69
(g90
g71
NtRp2184
(dp2185
g74
(dp2186
g101
g102
ssg83
g2176
sg76
(lp2187
S':'
asbag69
(g90
g71
NtRp2188
(dp2189
g74
(dp2190
sg83
g2176
sg76
(lp2191
g69
(g70
g71
NtRp2192
(dp2193
g74
(dp2194
g82
I4
ssg83
g2188
sg76
(lp2195
g112
asbasbasbag69
(g85
g71
NtRp2196
(dp2197
g74
(dp2198
sg83
g2025
sg76
(lp2199
g69
(g90
g71
NtRp2200
(dp2201
g74
(dp2202
g94
g95
ssg83
g2196
sg76
(lp2203
g1351
asbag69
(g90
g71
NtRp2204
(dp2205
g74
(dp2206
g101
g102
ssg83
g2196
sg76
(lp2207
S':'
asbag69
(g90
g71
NtRp2208
(dp2209
g74
(dp2210
sg83
g2196
sg76
(lp2211
g69
(g70
g71
NtRp2212
(dp2213
g74
(dp2214
g82
I4
ssg83
g2208
sg76
(lp2215
g112
asbasbasbag69
(g85
g71
NtRp2216
(dp2217
g74
(dp2218
sg83
g2025
sg76
(lp2219
g69
(g90
g71
NtRp2220
(dp2221
g74
(dp2222
g94
g95
ssg83
g2216
sg76
(lp2223
g1589
asbag69
(g90
g71
NtRp2224
(dp2225
g74
(dp2226
g101
g102
ssg83
g2216
sg76
(lp2227
S':'
asbag69
(g90
g71
NtRp2228
(dp2229
g74
(dp2230
sg83
g2216
sg76
(lp2231
g69
(g70
g71
NtRp2232
(dp2233
g74
(dp2234
g82
I4
ssg83
g2228
sg76
(lp2235
g1602
asbasbasbag69
(g85
g71
NtRp2236
(dp2237
g74
(dp2238
sg83
g2025
sg76
(lp2239
g69
(g90
g71
NtRp2240
(dp2241
g74
(dp2242
g94
g95
ssg83
g2236
sg76
(lp2243
g1632
asbag69
(g90
g71
NtRp2244
(dp2245
g74
(dp2246
g101
g102
ssg83
g2236
sg76
(lp2247
S':'
asbag69
(g90
g71
NtRp2248
(dp2249
g74
(dp2250
sg83
g2236
sg76
(lp2251
g69
(g70
g71
NtRp2252
(dp2253
g74
(dp2254
g82
I4
ssg83
g2248
sg76
(lp2255
g69
(g78
g71
NtRp2256
(dp2257
g74
(dp2258
g82
I3
ssg83
Nsg76
(lp2259
g69
(g85
g71
NtRp2260
(dp2261
g74
(dp2262
sg83
g2256
sg76
(lp2263
g69
(g90
g71
NtRp2264
(dp2265
g74
(dp2266
sg83
g2260
sg76
(lp2267
g69
(g70
g71
NtRp2268
(dp2269
g74
(dp2270
g82
I3
ssg83
g2264
sg76
(lp2271
S'1'
asbasbasbag69
(g85
g71
NtRp2272
(dp2273
g74
(dp2274
sg83
g2256
sg76
(lp2275
g69
(g90
g71
NtRp2276
(dp2277
g74
(dp2278
sg83
g2272
sg76
(lp2279
g69
(g70
g71
NtRp2280
(dp2281
g74
(dp2282
g82
I3
ssg83
g2276
sg76
(lp2283
S'99'
p2284
asbasbasbag69
(g85
g71
NtRp2285
(dp2286
g74
(dp2287
sg83
g2256
sg76
(lp2288
g69
(g90
g71
NtRp2289
(dp2290
g74
(dp2291
sg83
g2285
sg76
(lp2292
g69
(g70
g71
NtRp2293
(dp2294
g74
(dp2295
g82
I3
ssg83
g2289
sg76
(lp2296
S'7'
asbasbasbag69
(g85
g71
NtRp2297
(dp2298
g74
(dp2299
sg83
g2256
sg76
(lp2300
g69
(g90
g71
NtRp2301
(dp2302
g74
(dp2303
sg83
g2297
sg76
(lp2304
g69
(g70
g71
NtRp2305
(dp2306
g74
(dp2307
g82
I3
ssg83
g2301
sg76
(lp2308
S'datetime.datetime(2012, 3, 4, 22, 12, 8)'
p2309
asbasbasbag69
(g85
g71
NtRp2310
(dp2311
g74
(dp2312
sg83
g2256
sg76
(lp2313
g69
(g90
g71
NtRp2314
(dp2315
g74
(dp2316
sg83
g2310
sg76
(lp2317
g69
(g70
g71
NtRp2318
(dp2319
g74
(dp2320
g82
I3
ssg83
g2314
sg76
(lp2321
g1711
asbasbasbasbasbasbasbasbasbasbasbag69
(g85
g71
NtRp2322
(dp2323
g74
(dp2324
sg83
g79
sg76
(lp2325
g69
(g90
g71
NtRp2326
(dp2327
g74
(dp2328
g94
g95
ssg83
g2322
sg76
(lp2329
S'is_https'
p2330
asbag69
(g90
g71
NtRp2331
(dp2332
g74
(dp2333
g101
g102
ssg83
g2322
sg76
(lp2334
S':'
asbag69
(g90
g71
NtRp2335
(dp2336
g74
(dp2337
sg83
g2322
sg76
(lp2338
g69
(g70
g71
NtRp2339
(dp2340
g74
(dp2341
g82
I5
ssg83
g2335
sg76
(lp2342
g112
asbasbasbag69
(g85
g71
NtRp2343
(dp2344
g74
(dp2345
sg83
g79
sg76
(lp2346
g69
(g90
g71
NtRp2347
(dp2348
g74
(dp2349
g94
g95
ssg83
g2343
sg76
(lp2350
S'is_local'
p2351
asbag69
(g90
g71
NtRp2352
(dp2353
g74
(dp2354
g101
g102
ssg83
g2343
sg76
(lp2355
S':'
asbag69
(g90
g71
NtRp2356
(dp2357
g74
(dp2358
sg83
g2343
sg76
(lp2359
g69
(g70
g71
NtRp2360
(dp2361
g74
(dp2362
g82
I5
ssg83
g2356
sg76
(lp2363
g1820
asbasbasbag69
(g85
g71
NtRp2364
(dp2365
g74
(dp2366
sg83
g79
sg76
(lp2367
g69
(g90
g71
NtRp2368
(dp2369
g74
(dp2370
g94
g95
ssg83
g2364
sg76
(lp2371
S'is_restful'
p2372
asbag69
(g90
g71
NtRp2373
(dp2374
g74
(dp2375
g101
g102
ssg83
g2364
sg76
(lp2376
S':'
asbag69
(g90
g71
NtRp2377
(dp2378
g74
(dp2379
sg83
g2364
sg76
(lp2380
g69
(g70
g71
NtRp2381
(dp2382
g74
(dp2383
g82
I5
ssg83
g2377
sg76
(lp2384
g112
asbasbasbag69
(g85
g71
NtRp2385
(dp2386
g74
(dp2387
sg83
g79
sg76
(lp2388
g69
(g90
g71
NtRp2389
(dp2390
g74
(dp2391
g94
g95
ssg83
g2385
sg76
(lp2392
S'now'
p2393
asbag69
(g90
g71
NtRp2394
(dp2395
g74
(dp2396
g101
g102
ssg83
g2385
sg76
(lp2397
S':'
asbag69
(g90
g71
NtRp2398
(dp2399
g74
(dp2400
sg83
g2385
sg76
(lp2401
g69
(g70
g71
NtRp2402
(dp2403
g74
(dp2404
g82
I5
ssg83
g2398
sg76
(lp2405
S'datetime.datetime(2012, 5, 7, 18, 42, 27, 275617)'
p2406
asbasbasbag69
(g85
g71
NtRp2407
(dp2408
g74
(dp2409
sg83
g79
sg76
(lp2410
g69
(g90
g71
NtRp2411
(dp2412
g74
(dp2413
g94
g95
ssg83
g2407
sg76
(lp2414
S'post_vars'
p2415
asbag69
(g90
g71
NtRp2416
(dp2417
g74
(dp2418
g101
g102
ssg83
g2407
sg76
(lp2419
S':'
asbag69
(g90
g71
NtRp2420
(dp2421
g74
(dp2422
sg83
g2407
sg76
(lp2423
g69
(g70
g71
NtRp2424
(dp2425
g74
(dp2426
g82
I5
ssg83
g2420
sg76
(lp2427
g69
(g78
g71
NtRp2428
(dp2429
g74
(dp2430
g82
I4
ssg83
Nsg76
(lp2431
g69
(g85
g71
NtRp2432
(dp2433
g74
(dp2434
sg83
g2428
sg76
(lp2435
g69
(g90
g71
NtRp2436
(dp2437
g74
(dp2438
g94
g95
ssg83
g2432
sg76
(lp2439
S'Supply'
p2440
asbag69
(g90
g71
NtRp2441
(dp2442
g74
(dp2443
g101
g102
ssg83
g2432
sg76
(lp2444
S':'
asbag69
(g90
g71
NtRp2445
(dp2446
g74
(dp2447
sg83
g2432
sg76
(lp2448
g69
(g70
g71
NtRp2449
(dp2450
g74
(dp2451
g82
I4
ssg83
g2445
sg76
(lp2452
S'2'
asbasbasbag69
(g85
g71
NtRp2453
(dp2454
g74
(dp2455
sg83
g2428
sg76
(lp2456
g69
(g90
g71
NtRp2457
(dp2458
g74
(dp2459
g94
g95
ssg83
g2453
sg76
(lp2460
S'Unit'
p2461
asbag69
(g90
g71
NtRp2462
(dp2463
g74
(dp2464
g101
g102
ssg83
g2453
sg76
(lp2465
S':'
asbag69
(g90
g71
NtRp2466
(dp2467
g74
(dp2468
sg83
g2453
sg76
(lp2469
g69
(g70
g71
NtRp2470
(dp2471
g74
(dp2472
g82
I4
ssg83
g2466
sg76
(lp2473
S'Reaper'
p2474
asbasbasbag69
(g85
g71
NtRp2475
(dp2476
g74
(dp2477
sg83
g2428
sg76
(lp2478
g69
(g90
g71
NtRp2479
(dp2480
g74
(dp2481
g94
g95
ssg83
g2475
sg76
(lp2482
S'race'
p2483
asbag69
(g90
g71
NtRp2484
(dp2485
g74
(dp2486
g101
g102
ssg83
g2475
sg76
(lp2487
S':'
asbag69
(g90
g71
NtRp2488
(dp2489
g74
(dp2490
sg83
g2475
sg76
(lp2491
g69
(g70
g71
NtRp2492
(dp2493
g74
(dp2494
g82
I4
ssg83
g2488
sg76
(lp2495
S'terran'
p2496
asbasbasbag69
(g85
g71
NtRp2497
(dp2498
g74
(dp2499
sg83
g2428
sg76
(lp2500
g69
(g90
g71
NtRp2501
(dp2502
g74
(dp2503
g94
g95
ssg83
g2497
sg76
(lp2504
S'supply'
p2505
asbag69
(g90
g71
NtRp2506
(dp2507
g74
(dp2508
g101
g102
ssg83
g2497
sg76
(lp2509
S':'
asbag69
(g90
g71
NtRp2510
(dp2511
g74
(dp2512
sg83
g2497
sg76
(lp2513
g69
(g70
g71
NtRp2514
(dp2515
g74
(dp2516
g82
I4
ssg83
g2510
sg76
(lp2517
S'6||2||'
p2518
asbasbasbag69
(g85
g71
NtRp2519
(dp2520
g74
(dp2521
sg83
g2428
sg76
(lp2522
g69
(g90
g71
NtRp2523
(dp2524
g74
(dp2525
g94
g95
ssg83
g2519
sg76
(lp2526
S'unit'
p2527
asbag69
(g90
g71
NtRp2528
(dp2529
g74
(dp2530
g101
g102
ssg83
g2519
sg76
(lp2531
S':'
asbag69
(g90
g71
NtRp2532
(dp2533
g74
(dp2534
sg83
g2519
sg76
(lp2535
g69
(g70
g71
NtRp2536
(dp2537
g74
(dp2538
g82
I4
ssg83
g2532
sg76
(lp2539
S'||Reaper||SCV||'
p2540
asbasbasbasbasbasbasbag69
(g85
g71
NtRp2541
(dp2542
g74
(dp2543
sg83
g79
sg76
(lp2544
g69
(g90
g71
NtRp2545
(dp2546
g74
(dp2547
g94
g95
ssg83
g2541
sg76
(lp2548
S'url'
p2549
asbag69
(g90
g71
NtRp2550
(dp2551
g74
(dp2552
g101
g102
ssg83
g2541
sg76
(lp2553
S':'
asbag69
(g90
g71
NtRp2554
(dp2555
g74
(dp2556
sg83
g2541
sg76
(lp2557
g69
(g70
g71
NtRp2558
(dp2559
g74
(dp2560
g82
I5
ssg83
g2554
sg76
(lp2561
S'/Starcraft2/default/build'
p2562
asbasbasbag69
(g85
g71
NtRp2563
(dp2564
g74
(dp2565
sg83
g79
sg76
(lp2566
g69
(g90
g71
NtRp2567
(dp2568
g74
(dp2569
g94
g95
ssg83
g2563
sg76
(lp2570
S'utcnow'
p2571
asbag69
(g90
g71
NtRp2572
(dp2573
g74
(dp2574
g101
g102
ssg83
g2563
sg76
(lp2575
S':'
asbag69
(g90
g71
NtRp2576
(dp2577
g74
(dp2578
sg83
g2563
sg76
(lp2579
g69
(g70
g71
NtRp2580
(dp2581
g74
(dp2582
g82
I5
ssg83
g2576
sg76
(lp2583
S'datetime.datetime(2012, 5, 7, 23, 42, 27, 275631)'
p2584
asbasbasbag69
(g85
g71
NtRp2585
(dp2586
g74
(dp2587
sg83
g79
sg76
(lp2588
g69
(g90
g71
NtRp2589
(dp2590
g74
(dp2591
g94
g95
ssg83
g2585
sg76
(lp2592
S'uuid'
p2593
asbag69
(g90
g71
NtRp2594
(dp2595
g74
(dp2596
g101
g102
ssg83
g2585
sg76
(lp2597
S':'
asbag69
(g90
g71
NtRp2598
(dp2599
g74
(dp2600
sg83
g2585
sg76
(lp2601
g69
(g70
g71
NtRp2602
(dp2603
g74
(dp2604
g82
I5
ssg83
g2598
sg76
(lp2605
S'Starcraft2/127.0.0.1.2012-05-07.18-42-27.a207482c-3c2e-42ad-a74f-498297953050'
p2606
asbasbasbag69
(g85
g71
NtRp2607
(dp2608
g74
(dp2609
sg83
g79
sg76
(lp2610
g69
(g90
g71
NtRp2611
(dp2612
g74
(dp2613
g94
g95
ssg83
g2607
sg76
(lp2614
S'vars'
p2615
asbag69
(g90
g71
NtRp2616
(dp2617
g74
(dp2618
g101
g102
ssg83
g2607
sg76
(lp2619
S':'
asbag69
(g90
g71
NtRp2620
(dp2621
g74
(dp2622
sg83
g2607
sg76
(lp2623
g69
(g70
g71
NtRp2624
(dp2625
g74
(dp2626
g82
I5
ssg83
g2620
sg76
(lp2627
g69
(g78
g71
NtRp2628
(dp2629
g74
(dp2630
g82
I4
ssg83
Nsg76
(lp2631
g69
(g85
g71
NtRp2632
(dp2633
g74
(dp2634
sg83
g2628
sg76
(lp2635
g69
(g90
g71
NtRp2636
(dp2637
g74
(dp2638
g94
g95
ssg83
g2632
sg76
(lp2639
g2440
asbag69
(g90
g71
NtRp2640
(dp2641
g74
(dp2642
g101
g102
ssg83
g2632
sg76
(lp2643
S':'
asbag69
(g90
g71
NtRp2644
(dp2645
g74
(dp2646
sg83
g2632
sg76
(lp2647
g69
(g70
g71
NtRp2648
(dp2649
g74
(dp2650
g82
I4
ssg83
g2644
sg76
(lp2651
S'2'
asbasbasbag69
(g85
g71
NtRp2652
(dp2653
g74
(dp2654
sg83
g2628
sg76
(lp2655
g69
(g90
g71
NtRp2656
(dp2657
g74
(dp2658
g94
g95
ssg83
g2652
sg76
(lp2659
g2461
asbag69
(g90
g71
NtRp2660
(dp2661
g74
(dp2662
g101
g102
ssg83
g2652
sg76
(lp2663
S':'
asbag69
(g90
g71
NtRp2664
(dp2665
g74
(dp2666
sg83
g2652
sg76
(lp2667
g69
(g70
g71
NtRp2668
(dp2669
g74
(dp2670
g82
I4
ssg83
g2664
sg76
(lp2671
g2474
asbasbasbag69
(g85
g71
NtRp2672
(dp2673
g74
(dp2674
sg83
g2628
sg76
(lp2675
g69
(g90
g71
NtRp2676
(dp2677
g74
(dp2678
g94
g95
ssg83
g2672
sg76
(lp2679
g2483
asbag69
(g90
g71
NtRp2680
(dp2681
g74
(dp2682
g101
g102
ssg83
g2672
sg76
(lp2683
S':'
asbag69
(g90
g71
NtRp2684
(dp2685
g74
(dp2686
sg83
g2672
sg76
(lp2687
g69
(g70
g71
NtRp2688
(dp2689
g74
(dp2690
g82
I4
ssg83
g2684
sg76
(lp2691
g2496
asbasbasbag69
(g85
g71
NtRp2692
(dp2693
g74
(dp2694
sg83
g2628
sg76
(lp2695
g69
(g90
g71
NtRp2696
(dp2697
g74
(dp2698
g94
g95
ssg83
g2692
sg76
(lp2699
g2505
asbag69
(g90
g71
NtRp2700
(dp2701
g74
(dp2702
g101
g102
ssg83
g2692
sg76
(lp2703
S':'
asbag69
(g90
g71
NtRp2704
(dp2705
g74
(dp2706
sg83
g2692
sg76
(lp2707
g69
(g70
g71
NtRp2708
(dp2709
g74
(dp2710
g82
I4
ssg83
g2704
sg76
(lp2711
g2518
asbasbasbag69
(g85
g71
NtRp2712
(dp2713
g74
(dp2714
sg83
g2628
sg76
(lp2715
g69
(g90
g71
NtRp2716
(dp2717
g74
(dp2718
g94
g95
ssg83
g2712
sg76
(lp2719
g2527
asbag69
(g90
g71
NtRp2720
(dp2721
g74
(dp2722
g101
g102
ssg83
g2712
sg76
(lp2723
S':'
asbag69
(g90
g71
NtRp2724
(dp2725
g74
(dp2726
sg83
g2712
sg76
(lp2727
g69
(g70
g71
NtRp2728
(dp2729
g74
(dp2730
g82
I4
ssg83
g2724
sg76
(lp2731
g2540
asbasbasbasbasbasbasbag69
(g85
g71
NtRp2732
(dp2733
g74
(dp2734
sg83
g79
sg76
(lp2735
g69
(g90
g71
NtRp2736
(dp2737
g74
(dp2738
g94
g95
ssg83
g2732
sg76
(lp2739
S'wsgi'
p2740
asbag69
(g90
g71
NtRp2741
(dp2742
g74
(dp2743
g101
g102
ssg83
g2732
sg76
(lp2744
S':'
asbag69
(g90
g71
NtRp2745
(dp2746
g74
(dp2747
sg83
g2732
sg76
(lp2748
g69
(g70
g71
NtRp2749
(dp2750
g74
(dp2751
g82
I5
ssg83
g2745
sg76
(lp2752
g69
(g78
g71
NtRp2753
(dp2754
g74
(dp2755
g82
I4
ssg83
Nsg76
(lp2756
g69
(g85
g71
NtRp2757
(dp2758
g74
(dp2759
sg83
g2753
sg76
(lp2760
g69
(g90
g71
NtRp2761
(dp2762
g74
(dp2763
g94
g95
ssg83
g2757
sg76
(lp2764
S'environ'
p2765
asbag69
(g90
g71
NtRp2766
(dp2767
g74
(dp2768
g101
g102
ssg83
g2757
sg76
(lp2769
S':'
asbag69
(g90
g71
NtRp2770
(dp2771
g74
(dp2772
sg83
g2757
sg76
(lp2773
g69
(g70
g71
NtRp2774
(dp2775
g74
(dp2776
g82
I4
ssg83
g2770
sg76
(lp2777
g69
(g78
g71
NtRp2778
(dp2779
g74
(dp2780
g82
I3
ssg83
Nsg76
(lp2781
g69
(g85
g71
NtRp2782
(dp2783
g74
(dp2784
sg83
g2778
sg76
(lp2785
g69
(g90
g71
NtRp2786
(dp2787
g74
(dp2788
g94
g95
ssg83
g2782
sg76
(lp2789
S'CONTENT_LENGTH'
p2790
asbag69
(g90
g71
NtRp2791
(dp2792
g74
(dp2793
g101
g102
ssg83
g2782
sg76
(lp2794
S':'
asbag69
(g90
g71
NtRp2795
(dp2796
g74
(dp2797
sg83
g2782
sg76
(lp2798
g69
(g70
g71
NtRp2799
(dp2800
g74
(dp2801
g82
I3
ssg83
g2795
sg76
(lp2802
g950
asbasbasbag69
(g85
g71
NtRp2803
(dp2804
g74
(dp2805
sg83
g2778
sg76
(lp2806
g69
(g90
g71
NtRp2807
(dp2808
g74
(dp2809
g94
g95
ssg83
g2803
sg76
(lp2810
S'CONTENT_TYPE'
p2811
asbag69
(g90
g71
NtRp2812
(dp2813
g74
(dp2814
g101
g102
ssg83
g2803
sg76
(lp2815
S':'
asbag69
(g90
g71
NtRp2816
(dp2817
g74
(dp2818
sg83
g2803
sg76
(lp2819
g69
(g70
g71
NtRp2820
(dp2821
g74
(dp2822
g82
I3
ssg83
g2816
sg76
(lp2823
g972
asbasbasbag69
(g85
g71
NtRp2824
(dp2825
g74
(dp2826
sg83
g2778
sg76
(lp2827
g69
(g90
g71
NtRp2828
(dp2829
g74
(dp2830
g94
g95
ssg83
g2824
sg76
(lp2831
S'HTTP_ACCEPT'
p2832
asbag69
(g90
g71
NtRp2833
(dp2834
g74
(dp2835
g101
g102
ssg83
g2824
sg76
(lp2836
S':'
asbag69
(g90
g71
NtRp2837
(dp2838
g74
(dp2839
sg83
g2824
sg76
(lp2840
g69
(g70
g71
NtRp2841
(dp2842
g74
(dp2843
g82
I3
ssg83
g2837
sg76
(lp2844
g1059
asbasbasbag69
(g85
g71
NtRp2845
(dp2846
g74
(dp2847
sg83
g2778
sg76
(lp2848
g69
(g90
g71
NtRp2849
(dp2850
g74
(dp2851
g94
g95
ssg83
g2845
sg76
(lp2852
S'HTTP_ACCEPT_CHARSET'
p2853
asbag69
(g90
g71
NtRp2854
(dp2855
g74
(dp2856
g101
g102
ssg83
g2845
sg76
(lp2857
S':'
asbag69
(g90
g71
NtRp2858
(dp2859
g74
(dp2860
sg83
g2845
sg76
(lp2861
g69
(g70
g71
NtRp2862
(dp2863
g74
(dp2864
g82
I3
ssg83
g2858
sg76
(lp2865
g1081
asbasbasbag69
(g85
g71
NtRp2866
(dp2867
g74
(dp2868
sg83
g2778
sg76
(lp2869
g69
(g90
g71
NtRp2870
(dp2871
g74
(dp2872
g94
g95
ssg83
g2866
sg76
(lp2873
S'HTTP_ACCEPT_ENCODING'
p2874
asbag69
(g90
g71
NtRp2875
(dp2876
g74
(dp2877
g101
g102
ssg83
g2866
sg76
(lp2878
S':'
asbag69
(g90
g71
NtRp2879
(dp2880
g74
(dp2881
sg83
g2866
sg76
(lp2882
g69
(g70
g71
NtRp2883
(dp2884
g74
(dp2885
g82
I3
ssg83
g2879
sg76
(lp2886
g1103
asbasbasbag69
(g85
g71
NtRp2887
(dp2888
g74
(dp2889
sg83
g2778
sg76
(lp2890
g69
(g90
g71
NtRp2891
(dp2892
g74
(dp2893
g94
g95
ssg83
g2887
sg76
(lp2894
S'HTTP_ACCEPT_LANGUAGE'
p2895
asbag69
(g90
g71
NtRp2896
(dp2897
g74
(dp2898
g101
g102
ssg83
g2887
sg76
(lp2899
S':'
asbag69
(g90
g71
NtRp2900
(dp2901
g74
(dp2902
sg83
g2887
sg76
(lp2903
g69
(g70
g71
NtRp2904
(dp2905
g74
(dp2906
g82
I3
ssg83
g2900
sg76
(lp2907
g1125
asbasbasbag69
(g85
g71
NtRp2908
(dp2909
g74
(dp2910
sg83
g2778
sg76
(lp2911
g69
(g90
g71
NtRp2912
(dp2913
g74
(dp2914
g94
g95
ssg83
g2908
sg76
(lp2915
S'HTTP_CACHE_CONTROL'
p2916
asbag69
(g90
g71
NtRp2917
(dp2918
g74
(dp2919
g101
g102
ssg83
g2908
sg76
(lp2920
S':'
asbag69
(g90
g71
NtRp2921
(dp2922
g74
(dp2923
sg83
g2908
sg76
(lp2924
g69
(g70
g71
NtRp2925
(dp2926
g74
(dp2927
g82
I3
ssg83
g2921
sg76
(lp2928
g1147
asbasbasbag69
(g85
g71
NtRp2929
(dp2930
g74
(dp2931
sg83
g2778
sg76
(lp2932
g69
(g90
g71
NtRp2933
(dp2934
g74
(dp2935
g94
g95
ssg83
g2929
sg76
(lp2936
S'HTTP_CONNECTION'
p2937
asbag69
(g90
g71
NtRp2938
(dp2939
g74
(dp2940
g101
g102
ssg83
g2929
sg76
(lp2941
S':'
asbag69
(g90
g71
NtRp2942
(dp2943
g74
(dp2944
sg83
g2929
sg76
(lp2945
g69
(g70
g71
NtRp2946
(dp2947
g74
(dp2948
g82
I3
ssg83
g2942
sg76
(lp2949
g1169
asbasbasbag69
(g85
g71
NtRp2950
(dp2951
g74
(dp2952
sg83
g2778
sg76
(lp2953
g69
(g90
g71
NtRp2954
(dp2955
g74
(dp2956
g94
g95
ssg83
g2950
sg76
(lp2957
S'HTTP_CONTENT_LENGTH'
p2958
asbag69
(g90
g71
NtRp2959
(dp2960
g74
(dp2961
g101
g102
ssg83
g2950
sg76
(lp2962
S':'
asbag69
(g90
g71
NtRp2963
(dp2964
g74
(dp2965
sg83
g2950
sg76
(lp2966
g69
(g70
g71
NtRp2967
(dp2968
g74
(dp2969
g82
I3
ssg83
g2963
sg76
(lp2970
g950
asbasbasbag69
(g85
g71
NtRp2971
(dp2972
g74
(dp2973
sg83
g2778
sg76
(lp2974
g69
(g90
g71
NtRp2975
(dp2976
g74
(dp2977
g94
g95
ssg83
g2971
sg76
(lp2978
S'HTTP_CONTENT_TYPE'
p2979
asbag69
(g90
g71
NtRp2980
(dp2981
g74
(dp2982
g101
g102
ssg83
g2971
sg76
(lp2983
S':'
asbag69
(g90
g71
NtRp2984
(dp2985
g74
(dp2986
sg83
g2971
sg76
(lp2987
g69
(g70
g71
NtRp2988
(dp2989
g74
(dp2990
g82
I3
ssg83
g2984
sg76
(lp2991
g972
asbasbasbag69
(g85
g71
NtRp2992
(dp2993
g74
(dp2994
sg83
g2778
sg76
(lp2995
g69
(g90
g71
NtRp2996
(dp2997
g74
(dp2998
g94
g95
ssg83
g2992
sg76
(lp2999
S'HTTP_COOKIE'
p3000
asbag69
(g90
g71
NtRp3001
(dp3002
g74
(dp3003
g101
g102
ssg83
g2992
sg76
(lp3004
S':'
asbag69
(g90
g71
NtRp3005
(dp3006
g74
(dp3007
sg83
g2992
sg76
(lp3008
g69
(g70
g71
NtRp3009
(dp3010
g74
(dp3011
g82
I3
ssg83
g3005
sg76
(lp3012
g1233
asbasbasbag69
(g85
g71
NtRp3013
(dp3014
g74
(dp3015
sg83
g2778
sg76
(lp3016
g69
(g90
g71
NtRp3017
(dp3018
g74
(dp3019
g94
g95
ssg83
g3013
sg76
(lp3020
S'HTTP_HOST'
p3021
asbag69
(g90
g71
NtRp3022
(dp3023
g74
(dp3024
g101
g102
ssg83
g3013
sg76
(lp3025
S':'
asbag69
(g90
g71
NtRp3026
(dp3027
g74
(dp3028
sg83
g3013
sg76
(lp3029
g69
(g70
g71
NtRp3030
(dp3031
g74
(dp3032
g82
I3
ssg83
g3026
sg76
(lp3033
g1255
asbasbasbag69
(g85
g71
NtRp3034
(dp3035
g74
(dp3036
sg83
g2778
sg76
(lp3037
g69
(g90
g71
NtRp3038
(dp3039
g74
(dp3040
g94
g95
ssg83
g3034
sg76
(lp3041
S'HTTP_ORIGIN'
p3042
asbag69
(g90
g71
NtRp3043
(dp3044
g74
(dp3045
g101
g102
ssg83
g3034
sg76
(lp3046
S':'
asbag69
(g90
g71
NtRp3047
(dp3048
g74
(dp3049
sg83
g3034
sg76
(lp3050
g69
(g70
g71
NtRp3051
(dp3052
g74
(dp3053
g82
I3
ssg83
g3047
sg76
(lp3054
g1277
asbasbasbag69
(g85
g71
NtRp3055
(dp3056
g74
(dp3057
sg83
g2778
sg76
(lp3058
g69
(g90
g71
NtRp3059
(dp3060
g74
(dp3061
g94
g95
ssg83
g3055
sg76
(lp3062
S'HTTP_REFERER'
p3063
asbag69
(g90
g71
NtRp3064
(dp3065
g74
(dp3066
g101
g102
ssg83
g3055
sg76
(lp3067
S':'
asbag69
(g90
g71
NtRp3068
(dp3069
g74
(dp3070
sg83
g3055
sg76
(lp3071
g69
(g70
g71
NtRp3072
(dp3073
g74
(dp3074
g82
I3
ssg83
g3068
sg76
(lp3075
g1299
asbasbasbag69
(g85
g71
NtRp3076
(dp3077
g74
(dp3078
sg83
g2778
sg76
(lp3079
g69
(g90
g71
NtRp3080
(dp3081
g74
(dp3082
g94
g95
ssg83
g3076
sg76
(lp3083
S'HTTP_USER_AGENT'
p3084
asbag69
(g90
g71
NtRp3085
(dp3086
g74
(dp3087
g101
g102
ssg83
g3076
sg76
(lp3088
S':'
asbag69
(g90
g71
NtRp3089
(dp3090
g74
(dp3091
sg83
g3076
sg76
(lp3092
g69
(g70
g71
NtRp3093
(dp3094
g74
(dp3095
g82
I3
ssg83
g3089
sg76
(lp3096
g1321
asbasbasbag69
(g85
g71
NtRp3097
(dp3098
g74
(dp3099
sg83
g2778
sg76
(lp3100
g69
(g90
g71
NtRp3101
(dp3102
g74
(dp3103
g94
g95
ssg83
g3097
sg76
(lp3104
S'PATH_INFO'
p3105
asbag69
(g90
g71
NtRp3106
(dp3107
g74
(dp3108
g101
g102
ssg83
g3097
sg76
(lp3109
S':'
asbag69
(g90
g71
NtRp3110
(dp3111
g74
(dp3112
sg83
g3097
sg76
(lp3113
g69
(g70
g71
NtRp3114
(dp3115
g74
(dp3116
g82
I3
ssg83
g3110
sg76
(lp3117
g1385
asbasbasbag69
(g85
g71
NtRp3118
(dp3119
g74
(dp3120
sg83
g2778
sg76
(lp3121
g69
(g90
g71
NtRp3122
(dp3123
g74
(dp3124
g94
g95
ssg83
g3118
sg76
(lp3125
S'QUERY_STRING'
p3126
asbag69
(g90
g71
NtRp3127
(dp3128
g74
(dp3129
g101
g102
ssg83
g3118
sg76
(lp3130
S':'
asbag69
(g90
g71
NtRp3131
(dp3132
g74
(dp3133
sg83
g3118
sg76
(lp3134
g69
(g70
g71
NtRp3135
(dp3136
g74
(dp3137
g82
I3
ssg83
g3131
sg76
(lp3138
S''
asbasbasbag69
(g85
g71
NtRp3139
(dp3140
g74
(dp3141
sg83
g2778
sg76
(lp3142
g69
(g90
g71
NtRp3143
(dp3144
g74
(dp3145
g94
g95
ssg83
g3139
sg76
(lp3146
S'REMOTE_ADDR'
p3147
asbag69
(g90
g71
NtRp3148
(dp3149
g74
(dp3150
g101
g102
ssg83
g3139
sg76
(lp3151
S':'
asbag69
(g90
g71
NtRp3152
(dp3153
g74
(dp3154
sg83
g3139
sg76
(lp3155
g69
(g70
g71
NtRp3156
(dp3157
g74
(dp3158
g82
I3
ssg83
g3152
sg76
(lp3159
g202
asbasbasbag69
(g85
g71
NtRp3160
(dp3161
g74
(dp3162
sg83
g2778
sg76
(lp3163
g69
(g90
g71
NtRp3164
(dp3165
g74
(dp3166
g94
g95
ssg83
g3160
sg76
(lp3167
S'REMOTE_PORT'
p3168
asbag69
(g90
g71
NtRp3169
(dp3170
g74
(dp3171
g101
g102
ssg83
g3160
sg76
(lp3172
S':'
asbag69
(g90
g71
NtRp3173
(dp3174
g74
(dp3175
sg83
g3160
sg76
(lp3176
g69
(g70
g71
NtRp3177
(dp3178
g74
(dp3179
g82
I3
ssg83
g3173
sg76
(lp3180
g1449
asbasbasbag69
(g85
g71
NtRp3181
(dp3182
g74
(dp3183
sg83
g2778
sg76
(lp3184
g69
(g90
g71
NtRp3185
(dp3186
g74
(dp3187
g94
g95
ssg83
g3181
sg76
(lp3188
S'REQUEST_METHOD'
p3189
asbag69
(g90
g71
NtRp3190
(dp3191
g74
(dp3192
g101
g102
ssg83
g3181
sg76
(lp3193
S':'
asbag69
(g90
g71
NtRp3194
(dp3195
g74
(dp3196
sg83
g3181
sg76
(lp3197
g69
(g70
g71
NtRp3198
(dp3199
g74
(dp3200
g82
I3
ssg83
g3194
sg76
(lp3201
g1471
asbasbasbag69
(g85
g71
NtRp3202
(dp3203
g74
(dp3204
sg83
g2778
sg76
(lp3205
g69
(g90
g71
NtRp3206
(dp3207
g74
(dp3208
g94
g95
ssg83
g3202
sg76
(lp3209
S'SCRIPT_NAME'
p3210
asbag69
(g90
g71
NtRp3211
(dp3212
g74
(dp3213
g101
g102
ssg83
g3202
sg76
(lp3214
S':'
asbag69
(g90
g71
NtRp3215
(dp3216
g74
(dp3217
sg83
g3202
sg76
(lp3218
g69
(g70
g71
NtRp3219
(dp3220
g74
(dp3221
g82
I3
ssg83
g3215
sg76
(lp3222
S''
asbasbasbag69
(g85
g71
NtRp3223
(dp3224
g74
(dp3225
sg83
g2778
sg76
(lp3226
g69
(g90
g71
NtRp3227
(dp3228
g74
(dp3229
g94
g95
ssg83
g3223
sg76
(lp3230
S'SERVER_NAME'
p3231
asbag69
(g90
g71
NtRp3232
(dp3233
g74
(dp3234
g101
g102
ssg83
g3223
sg76
(lp3235
S':'
asbag69
(g90
g71
NtRp3236
(dp3237
g74
(dp3238
sg83
g3223
sg76
(lp3239
g69
(g70
g71
NtRp3240
(dp3241
g74
(dp3242
g82
I3
ssg83
g3236
sg76
(lp3243
g1514
asbasbasbag69
(g85
g71
NtRp3244
(dp3245
g74
(dp3246
sg83
g2778
sg76
(lp3247
g69
(g90
g71
NtRp3248
(dp3249
g74
(dp3250
g94
g95
ssg83
g3244
sg76
(lp3251
S'SERVER_PORT'
p3252
asbag69
(g90
g71
NtRp3253
(dp3254
g74
(dp3255
g101
g102
ssg83
g3244
sg76
(lp3256
S':'
asbag69
(g90
g71
NtRp3257
(dp3258
g74
(dp3259
sg83
g3244
sg76
(lp3260
g69
(g70
g71
NtRp3261
(dp3262
g74
(dp3263
g82
I3
ssg83
g3257
sg76
(lp3264
g1536
asbasbasbag69
(g85
g71
NtRp3265
(dp3266
g74
(dp3267
sg83
g2778
sg76
(lp3268
g69
(g90
g71
NtRp3269
(dp3270
g74
(dp3271
g94
g95
ssg83
g3265
sg76
(lp3272
S'SERVER_PROTOCOL'
p3273
asbag69
(g90
g71
NtRp3274
(dp3275
g74
(dp3276
g101
g102
ssg83
g3265
sg76
(lp3277
S':'
asbag69
(g90
g71
NtRp3278
(dp3279
g74
(dp3280
sg83
g3265
sg76
(lp3281
g69
(g70
g71
NtRp3282
(dp3283
g74
(dp3284
g82
I3
ssg83
g3278
sg76
(lp3285
g1558
asbasbasbag69
(g85
g71
NtRp3286
(dp3287
g74
(dp3288
sg83
g2778
sg76
(lp3289
g69
(g90
g71
NtRp3290
(dp3291
g74
(dp3292
g94
g95
ssg83
g3286
sg76
(lp3293
S'SERVER_SOFTWARE'
p3294
asbag69
(g90
g71
NtRp3295
(dp3296
g74
(dp3297
g101
g102
ssg83
g3286
sg76
(lp3298
S':'
asbag69
(g90
g71
NtRp3299
(dp3300
g74
(dp3301
sg83
g3286
sg76
(lp3302
g69
(g70
g71
NtRp3303
(dp3304
g74
(dp3305
g82
I3
ssg83
g3299
sg76
(lp3306
g1580
asbasbasbag69
(g85
g71
NtRp3307
(dp3308
g74
(dp3309
sg83
g2778
sg76
(lp3310
g69
(g90
g71
NtRp3311
(dp3312
g74
(dp3313
g94
g95
ssg83
g3307
sg76
(lp3314
S'wsgi.errors'
p3315
asbag69
(g90
g71
NtRp3316
(dp3317
g74
(dp3318
g101
g102
ssg83
g3307
sg76
(lp3319
S':'
asbag69
(g90
g71
NtRp3320
(dp3321
g74
(dp3322
sg83
g3307
sg76
(lp3323
g69
(g70
g71
NtRp3324
(dp3325
g74
(dp3326
g82
I3
ssg83
g3320
sg76
(lp3327
S"<open file '<stderr>', mode 'w' at 0x100282270>"
p3328
asbasbasbag69
(g85
g71
NtRp3329
(dp3330
g74
(dp3331
sg83
g2778
sg76
(lp3332
g69
(g90
g71
NtRp3333
(dp3334
g74
(dp3335
g94
g95
ssg83
g3329
sg76
(lp3336
S'wsgi.file_wrapper'
p3337
asbag69
(g90
g71
NtRp3338
(dp3339
g74
(dp3340
g101
g102
ssg83
g3329
sg76
(lp3341
S':'
asbag69
(g90
g71
NtRp3342
(dp3343
g74
(dp3344
sg83
g3329
sg76
(lp3345
g69
(g70
g71
NtRp3346
(dp3347
g74
(dp3348
g82
I3
ssg83
g3342
sg76
(lp3349
S'<class wsgiref.util.FileWrapper at 0x1012b4d50>'
p3350
asbasbasbag69
(g85
g71
NtRp3351
(dp3352
g74
(dp3353
sg83
g2778
sg76
(lp3354
g69
(g90
g71
NtRp3355
(dp3356
g74
(dp3357
g94
g95
ssg83
g3351
sg76
(lp3358
S'wsgi.input'
p3359
asbag69
(g90
g71
NtRp3360
(dp3361
g74
(dp3362
g101
g102
ssg83
g3351
sg76
(lp3363
S':'
asbag69
(g90
g71
NtRp3364
(dp3365
g74
(dp3366
sg83
g3351
sg76
(lp3367
g69
(g70
g71
NtRp3368
(dp3369
g74
(dp3370
g82
I3
ssg83
g3364
sg76
(lp3371
S"<open file '<fdopen>', mode 'w+b' at 0x101ebe390>"
p3372
asbasbasbag69
(g85
g71
NtRp3373
(dp3374
g74
(dp3375
sg83
g2778
sg76
(lp3376
g69
(g90
g71
NtRp3377
(dp3378
g74
(dp3379
g94
g95
ssg83
g3373
sg76
(lp3380
S'wsgi.multiprocess'
p3381
asbag69
(g90
g71
NtRp3382
(dp3383
g74
(dp3384
g101
g102
ssg83
g3373
sg76
(lp3385
S':'
asbag69
(g90
g71
NtRp3386
(dp3387
g74
(dp3388
sg83
g3373
sg76
(lp3389
g69
(g70
g71
NtRp3390
(dp3391
g74
(dp3392
g82
I3
ssg83
g3386
sg76
(lp3393
g112
asbasbasbag69
(g85
g71
NtRp3394
(dp3395
g74
(dp3396
sg83
g2778
sg76
(lp3397
g69
(g90
g71
NtRp3398
(dp3399
g74
(dp3400
g94
g95
ssg83
g3394
sg76
(lp3401
S'wsgi.multithread'
p3402
asbag69
(g90
g71
NtRp3403
(dp3404
g74
(dp3405
g101
g102
ssg83
g3394
sg76
(lp3406
S':'
asbag69
(g90
g71
NtRp3407
(dp3408
g74
(dp3409
sg83
g3394
sg76
(lp3410
g69
(g70
g71
NtRp3411
(dp3412
g74
(dp3413
g82
I3
ssg83
g3407
sg76
(lp3414
g1820
asbasbasbag69
(g85
g71
NtRp3415
(dp3416
g74
(dp3417
sg83
g2778
sg76
(lp3418
g69
(g90
g71
NtRp3419
(dp3420
g74
(dp3421
g94
g95
ssg83
g3415
sg76
(lp3422
S'wsgi.run_once'
p3423
asbag69
(g90
g71
NtRp3424
(dp3425
g74
(dp3426
g101
g102
ssg83
g3415
sg76
(lp3427
S':'
asbag69
(g90
g71
NtRp3428
(dp3429
g74
(dp3430
sg83
g3415
sg76
(lp3431
g69
(g70
g71
NtRp3432
(dp3433
g74
(dp3434
g82
I3
ssg83
g3428
sg76
(lp3435
g112
asbasbasbag69
(g85
g71
NtRp3436
(dp3437
g74
(dp3438
sg83
g2778
sg76
(lp3439
g69
(g90
g71
NtRp3440
(dp3441
g74
(dp3442
g94
g95
ssg83
g3436
sg76
(lp3443
S'wsgi.url_scheme'
p3444
asbag69
(g90
g71
NtRp3445
(dp3446
g74
(dp3447
g101
g102
ssg83
g3436
sg76
(lp3448
S':'
asbag69
(g90
g71
NtRp3449
(dp3450
g74
(dp3451
sg83
g3436
sg76
(lp3452
g69
(g70
g71
NtRp3453
(dp3454
g74
(dp3455
g82
I3
ssg83
g3449
sg76
(lp3456
g1863
asbasbasbag69
(g85
g71
NtRp3457
(dp3458
g74
(dp3459
sg83
g2778
sg76
(lp3460
g69
(g90
g71
NtRp3461
(dp3462
g74
(dp3463
g94
g95
ssg83
g3457
sg76
(lp3464
S'wsgi.version'
p3465
asbag69
(g90
g71
NtRp3466
(dp3467
g74
(dp3468
g101
g102
ssg83
g3457
sg76
(lp3469
S':'
asbag69
(g90
g71
NtRp3470
(dp3471
g74
(dp3472
sg83
g3457
sg76
(lp3473
g69
(g70
g71
NtRp3474
(dp3475
g74
(dp3476
g82
I3
ssg83
g3470
sg76
(lp3477
S'1'
asbasbasbasbasbasbasbasbasbasbasbasbasbsS'frames'
p3478
(lp3479
(dp3480
S'file'
p3481
S'/Users/hainna01/Downloads/web2py/gluon/restricted.py'
p3482
sS'dump'
p3483
(dp3484
S'code'
p3485
S"'# -*- coding: utf-8 -*-\\n# this file is released ...plylist)\\n\\nresponse._vars=response._caller(build)\\n'"
p3486
sS'layer'
p3487
S"'/Users/hainna01/Downloads/web2py/applications/Starcraft2/controllers/default.py'"
p3488
sS'global compile2'
p3489
S'<function compile2>'
p3490
sS'ccode'
p3491
S'undefined'
p3492
ssS'lnum'
p3493
I204
sS'lines'
p3494
(dp3495
I199
S"    environment['__name__'] = '__restricted__'"
p3496
sI200
S'    try:'
p3497
sI201
S'        if type(code) == types.CodeType:'
p3498
sI202
S'            ccode = code'
p3499
sI203
S'        else:'
p3500
sI204
S'            ccode = compile2(code,layer)'
p3501
sI205
S'        exec ccode in environment'
p3502
sI206
S'    except HTTP:'
p3503
sI207
S'        raise'
p3504
sI208
S'    except RestrictedError:'
p3505
ssS'call'
p3506
S"(code='# -*- coding: utf-8 -*-\\n# this file is released ...plylist)\\n\\nresponse._vars=response._caller(build)\\n', environment={'A': <class 'gluon.html.A'>, 'Auth': <class 'gluon.tools.Auth'>, 'B': <class 'gluon.html.B'>, 'BEAUTIFY': <class 'gluon.html.BEAUTIFY'>, 'BODY': <class 'gluon.html.BODY'>, 'BR': <class 'gluon.html.BR'>, 'BUTTON': <class 'gluon.html.BUTTON'>, 'CAT': <class 'gluon.html.CAT'>, 'CENTER': <class 'gluon.html.CENTER'>, 'CLEANUP': <class 'gluon.validators.CLEANUP'>, ...}, layer='/Users/hainna01/Downloads/web2py/applications/Starcraft2/controllers/default.py')"
p3507
sS'func'
p3508
S'restricted'
p3509
sa(dp3510
g3481
S'/Users/hainna01/Downloads/web2py/gluon/restricted.py'
p3511
sg3483
(dp3512
S'builtincompile'
p3513
S'<built-in function compile>'
p3514
sS'code'
p3515
S"'# -*- coding: utf-8 -*-\\n# this file is released ...plylist)\\n\\nresponse._vars=response._caller(build)\\n'"
p3516
sS'code.rstrip'
p3517
S'<built-in method rstrip of str object>'
p3518
sS').replace'
p3519
g3492
sS'layer'
p3520
S"'/Users/hainna01/Downloads/web2py/applications/Starcraft2/controllers/default.py'"
p3521
ssg3493
I189
sg3494
(dp3522
I192
S'    """'
p3523
sI193
S'    runs code in environment and returns the output. if an exception occurs'
p3524
sI184
S''
sI185
S'def compile2(code,layer):'
p3525
sI186
S'    """'
p3526
sI187
S"    The +'\\n' is necessary else compile fails when code ends in a comment."
p3527
sI188
S'    """'
p3528
sI189
S"    return compile(code.rstrip().replace('\\r\\n','\\n')+'\\n', layer, 'exec')"
p3529
sI190
S''
sI191
S"def restricted(code, environment=None, layer='Unknown'):"
p3530
ssg3506
S"(code='# -*- coding: utf-8 -*-\\n# this file is released ...plylist)\\n\\nresponse._vars=response._caller(build)\\n', layer='/Users/hainna01/Downloads/web2py/applications/Starcraft2/controllers/default.py')"
p3531
sg3508
S'compile2'
p3532
sasS'pyver'
p3533
S'Python 2.7.2: /Library/Frameworks/Python.framework/Versions/2.7/Resources/Python.app/Contents/MacOS/Python'
p3534
sS'session'
p3535
g69
(g70
g71
NtRp3536
(dp3537
g74
(dp3538
sg76
(lp3539
g69
(g78
g71
NtRp3540
(dp3541
g74
(dp3542
g82
I5
ssg83
Nsg76
(lp3543
g69
(g85
g71
NtRp3544
(dp3545
g74
(dp3546
sg83
g3540
sg76
(lp3547
g69
(g90
g71
NtRp3548
(dp3549
g74
(dp3550
g94
g95
ssg83
g3544
sg76
(lp3551
S'auth'
p3552
asbag69
(g90
g71
NtRp3553
(dp3554
g74
(dp3555
g101
g102
ssg83
g3544
sg76
(lp3556
S':'
asbag69
(g90
g71
NtRp3557
(dp3558
g74
(dp3559
sg83
g3544
sg76
(lp3560
g69
(g70
g71
NtRp3561
(dp3562
g74
(dp3563
g82
I5
ssg83
g3557
sg76
(lp3564
g69
(g78
g71
NtRp3565
(dp3566
g74
(dp3567
g82
I4
ssg83
Nsg76
(lp3568
g69
(g85
g71
NtRp3569
(dp3570
g74
(dp3571
sg83
g3565
sg76
(lp3572
g69
(g90
g71
NtRp3573
(dp3574
g74
(dp3575
g94
g95
ssg83
g3569
sg76
(lp3576
S'expiration'
p3577
asbag69
(g90
g71
NtRp3578
(dp3579
g74
(dp3580
g101
g102
ssg83
g3569
sg76
(lp3581
S':'
asbag69
(g90
g71
NtRp3582
(dp3583
g74
(dp3584
sg83
g3569
sg76
(lp3585
g69
(g70
g71
NtRp3586
(dp3587
g74
(dp3588
g82
I4
ssg83
g3582
sg76
(lp3589
S'3600'
p3590
asbasbasbag69
(g85
g71
NtRp3591
(dp3592
g74
(dp3593
sg83
g3565
sg76
(lp3594
g69
(g90
g71
NtRp3595
(dp3596
g74
(dp3597
g94
g95
ssg83
g3591
sg76
(lp3598
S'hmac_key'
p3599
asbag69
(g90
g71
NtRp3600
(dp3601
g74
(dp3602
g101
g102
ssg83
g3591
sg76
(lp3603
S':'
asbag69
(g90
g71
NtRp3604
(dp3605
g74
(dp3606
sg83
g3591
sg76
(lp3607
g69
(g70
g71
NtRp3608
(dp3609
g74
(dp3610
g82
I4
ssg83
g3604
sg76
(lp3611
S'568849cd-725e-40e3-b3b0-ad28cb447c3f'
p3612
asbasbasbag69
(g85
g71
NtRp3613
(dp3614
g74
(dp3615
sg83
g3565
sg76
(lp3616
g69
(g90
g71
NtRp3617
(dp3618
g74
(dp3619
g94
g95
ssg83
g3613
sg76
(lp3620
S'last_visit'
p3621
asbag69
(g90
g71
NtRp3622
(dp3623
g74
(dp3624
g101
g102
ssg83
g3613
sg76
(lp3625
S':'
asbag69
(g90
g71
NtRp3626
(dp3627
g74
(dp3628
sg83
g3613
sg76
(lp3629
g69
(g70
g71
NtRp3630
(dp3631
g74
(dp3632
g82
I4
ssg83
g3626
sg76
(lp3633
S'datetime.datetime(2012, 5, 7, 18, 39, 28, 685661)'
p3634
asbasbasbag69
(g85
g71
NtRp3635
(dp3636
g74
(dp3637
sg83
g3565
sg76
(lp3638
g69
(g90
g71
NtRp3639
(dp3640
g74
(dp3641
g94
g95
ssg83
g3635
sg76
(lp3642
S'remember'
p3643
asbag69
(g90
g71
NtRp3644
(dp3645
g74
(dp3646
g101
g102
ssg83
g3635
sg76
(lp3647
S':'
asbag69
(g90
g71
NtRp3648
(dp3649
g74
(dp3650
sg83
g3635
sg76
(lp3651
g69
(g70
g71
NtRp3652
(dp3653
g74
(dp3654
g82
I4
ssg83
g3648
sg76
(lp3655
g112
asbasbasbag69
(g85
g71
NtRp3656
(dp3657
g74
(dp3658
sg83
g3565
sg76
(lp3659
g69
(g90
g71
NtRp3660
(dp3661
g74
(dp3662
g94
g95
ssg83
g3656
sg76
(lp3663
S'user'
p3664
asbag69
(g90
g71
NtRp3665
(dp3666
g74
(dp3667
g101
g102
ssg83
g3656
sg76
(lp3668
S':'
asbag69
(g90
g71
NtRp3669
(dp3670
g74
(dp3671
sg83
g3656
sg76
(lp3672
g69
(g70
g71
NtRp3673
(dp3674
g74
(dp3675
g82
I4
ssg83
g3669
sg76
(lp3676
g69
(g78
g71
NtRp3677
(dp3678
g74
(dp3679
g82
I3
ssg83
Nsg76
(lp3680
g69
(g85
g71
NtRp3681
(dp3682
g74
(dp3683
sg83
g3677
sg76
(lp3684
g69
(g90
g71
NtRp3685
(dp3686
g74
(dp3687
g94
g95
ssg83
g3681
sg76
(lp3688
S'email'
p3689
asbag69
(g90
g71
NtRp3690
(dp3691
g74
(dp3692
g101
g102
ssg83
g3681
sg76
(lp3693
S':'
asbag69
(g90
g71
NtRp3694
(dp3695
g74
(dp3696
sg83
g3681
sg76
(lp3697
g69
(g70
g71
NtRp3698
(dp3699
g74
(dp3700
g82
I3
ssg83
g3694
sg76
(lp3701
S'hainna01@luther.edu'
p3702
asbasbasbag69
(g85
g71
NtRp3703
(dp3704
g74
(dp3705
sg83
g3677
sg76
(lp3706
g69
(g90
g71
NtRp3707
(dp3708
g74
(dp3709
g94
g95
ssg83
g3703
sg76
(lp3710
S'first_name'
p3711
asbag69
(g90
g71
NtRp3712
(dp3713
g74
(dp3714
g101
g102
ssg83
g3703
sg76
(lp3715
S':'
asbag69
(g90
g71
NtRp3716
(dp3717
g74
(dp3718
sg83
g3703
sg76
(lp3719
g69
(g70
g71
NtRp3720
(dp3721
g74
(dp3722
g82
I3
ssg83
g3716
sg76
(lp3723
S'Nathan'
p3724
asbasbasbag69
(g85
g71
NtRp3725
(dp3726
g74
(dp3727
sg83
g3677
sg76
(lp3728
g69
(g90
g71
NtRp3729
(dp3730
g74
(dp3731
g94
g95
ssg83
g3725
sg76
(lp3732
S'id'
p3733
asbag69
(g90
g71
NtRp3734
(dp3735
g74
(dp3736
g101
g102
ssg83
g3725
sg76
(lp3737
S':'
asbag69
(g90
g71
NtRp3738
(dp3739
g74
(dp3740
sg83
g3725
sg76
(lp3741
g69
(g70
g71
NtRp3742
(dp3743
g74
(dp3744
g82
I3
ssg83
g3738
sg76
(lp3745
S'1'
asbasbasbag69
(g85
g71
NtRp3746
(dp3747
g74
(dp3748
sg83
g3677
sg76
(lp3749
g69
(g90
g71
NtRp3750
(dp3751
g74
(dp3752
g94
g95
ssg83
g3746
sg76
(lp3753
S'last_name'
p3754
asbag69
(g90
g71
NtRp3755
(dp3756
g74
(dp3757
g101
g102
ssg83
g3746
sg76
(lp3758
S':'
asbag69
(g90
g71
NtRp3759
(dp3760
g74
(dp3761
sg83
g3746
sg76
(lp3762
g69
(g70
g71
NtRp3763
(dp3764
g74
(dp3765
g82
I3
ssg83
g3759
sg76
(lp3766
S'Haines'
p3767
asbasbasbag69
(g85
g71
NtRp3768
(dp3769
g74
(dp3770
sg83
g3677
sg76
(lp3771
g69
(g90
g71
NtRp3772
(dp3773
g74
(dp3774
g94
g95
ssg83
g3768
sg76
(lp3775
S'password'
p3776
asbag69
(g90
g71
NtRp3777
(dp3778
g74
(dp3779
g101
g102
ssg83
g3768
sg76
(lp3780
S':'
asbag69
(g90
g71
NtRp3781
(dp3782
g74
(dp3783
sg83
g3768
sg76
(lp3784
g69
(g70
g71
NtRp3785
(dp3786
g74
(dp3787
g82
I3
ssg83
g3781
sg76
(lp3788
S'69170c197bb10e8a02203b4713d1b379'
p3789
asbasbasbag69
(g85
g71
NtRp3790
(dp3791
g74
(dp3792
sg83
g3677
sg76
(lp3793
g69
(g90
g71
NtRp3794
(dp3795
g74
(dp3796
g94
g95
ssg83
g3790
sg76
(lp3797
S'registration_id'
p3798
asbag69
(g90
g71
NtRp3799
(dp3800
g74
(dp3801
g101
g102
ssg83
g3790
sg76
(lp3802
S':'
asbag69
(g90
g71
NtRp3803
(dp3804
g74
(dp3805
sg83
g3790
sg76
(lp3806
g69
(g70
g71
NtRp3807
(dp3808
g74
(dp3809
g82
I3
ssg83
g3803
sg76
(lp3810
S''
asbasbasbag69
(g85
g71
NtRp3811
(dp3812
g74
(dp3813
sg83
g3677
sg76
(lp3814
g69
(g90
g71
NtRp3815
(dp3816
g74
(dp3817
g94
g95
ssg83
g3811
sg76
(lp3818
S'registration_key'
p3819
asbag69
(g90
g71
NtRp3820
(dp3821
g74
(dp3822
g101
g102
ssg83
g3811
sg76
(lp3823
S':'
asbag69
(g90
g71
NtRp3824
(dp3825
g74
(dp3826
sg83
g3811
sg76
(lp3827
g69
(g70
g71
NtRp3828
(dp3829
g74
(dp3830
g82
I3
ssg83
g3824
sg76
(lp3831
S''
asbasbasbag69
(g85
g71
NtRp3832
(dp3833
g74
(dp3834
sg83
g3677
sg76
(lp3835
g69
(g90
g71
NtRp3836
(dp3837
g74
(dp3838
g94
g95
ssg83
g3832
sg76
(lp3839
S'reset_password_key'
p3840
asbag69
(g90
g71
NtRp3841
(dp3842
g74
(dp3843
g101
g102
ssg83
g3832
sg76
(lp3844
S':'
asbag69
(g90
g71
NtRp3845
(dp3846
g74
(dp3847
sg83
g3832
sg76
(lp3848
g69
(g70
g71
NtRp3849
(dp3850
g74
(dp3851
g82
I3
ssg83
g3845
sg76
(lp3852
S''
asbasbasbasbasbasbasbag69
(g85
g71
NtRp3853
(dp3854
g74
(dp3855
sg83
g3565
sg76
(lp3856
g69
(g90
g71
NtRp3857
(dp3858
g74
(dp3859
g94
g95
ssg83
g3853
sg76
(lp3860
S'user_groups'
p3861
asbag69
(g90
g71
NtRp3862
(dp3863
g74
(dp3864
g101
g102
ssg83
g3853
sg76
(lp3865
S':'
asbag69
(g90
g71
NtRp3866
(dp3867
g74
(dp3868
sg83
g3853
sg76
(lp3869
g69
(g70
g71
NtRp3870
(dp3871
g74
(dp3872
g82
I4
ssg83
g3866
sg76
(lp3873
g69
(g78
g71
NtRp3874
(dp3875
g74
(dp3876
g82
I3
ssg83
Nsg76
(lp3877
g69
(g85
g71
NtRp3878
(dp3879
g74
(dp3880
sg83
g3874
sg76
(lp3881
g69
(g90
g71
NtRp3882
(dp3883
g74
(dp3884
g94
g95
ssg83
g3878
sg76
(lp3885
S'1'
asbag69
(g90
g71
NtRp3886
(dp3887
g74
(dp3888
g101
g102
ssg83
g3878
sg76
(lp3889
S':'
asbag69
(g90
g71
NtRp3890
(dp3891
g74
(dp3892
sg83
g3878
sg76
(lp3893
g69
(g70
g71
NtRp3894
(dp3895
g74
(dp3896
g82
I3
ssg83
g3890
sg76
(lp3897
S'user_1'
p3898
asbasbasbasbasbasbasbasbasbasbasbag69
(g85
g71
NtRp3899
(dp3900
g74
(dp3901
sg83
g3540
sg76
(lp3902
g69
(g90
g71
NtRp3903
(dp3904
g74
(dp3905
g94
g95
ssg83
g3899
sg76
(lp3906
S'last_query'
p3907
asbag69
(g90
g71
NtRp3908
(dp3909
g74
(dp3910
g101
g102
ssg83
g3899
sg76
(lp3911
S':'
asbag69
(g90
g71
NtRp3912
(dp3913
g74
(dp3914
sg83
g3899
sg76
(lp3915
g69
(g70
g71
NtRp3916
(dp3917
g74
(dp3918
g82
I5
ssg83
g3912
sg76
(lp3919
S'db.Unit.id>0'
p3920
asbasbasbasbasbsS'etype'
p3921
S"<type 'exceptions.SyntaxError'>"
p3922
sS'date'
p3923
S'Mon May  7 18:42:27 2012'
p3924
sS'response'
p3925
g69
(g70
g71
NtRp3926
(dp3927
g74
(dp3928
sg76
(lp3929
g69
(g78
g71
NtRp3930
(dp3931
g74
(dp3932
g82
I5
ssg83
Nsg76
(lp3933
g69
(g85
g71
NtRp3934
(dp3935
g74
(dp3936
sg83
g3930
sg76
(lp3937
g69
(g90
g71
NtRp3938
(dp3939
g74
(dp3940
g94
g95
ssg83
g3934
sg76
(lp3941
g167
asbag69
(g90
g71
NtRp3942
(dp3943
g74
(dp3944
g101
g102
ssg83
g3934
sg76
(lp3945
S':'
asbag69
(g90
g71
NtRp3946
(dp3947
g74
(dp3948
sg83
g3934
sg76
(lp3949
g69
(g70
g71
NtRp3950
(dp3951
g74
(dp3952
g82
I5
ssg83
g3946
sg76
(lp3953
S'<cStringIO.StringO object at 0x1019f0260>'
p3954
asbasbasbag69
(g85
g71
NtRp3955
(dp3956
g74
(dp3957
sg83
g3930
sg76
(lp3958
g69
(g90
g71
NtRp3959
(dp3960
g74
(dp3961
g94
g95
ssg83
g3955
sg76
(lp3962
g233
asbag69
(g90
g71
NtRp3963
(dp3964
g74
(dp3965
g101
g102
ssg83
g3955
sg76
(lp3966
S':'
asbag69
(g90
g71
NtRp3967
(dp3968
g74
(dp3969
sg83
g3955
sg76
(lp3970
g69
(g70
g71
NtRp3971
(dp3972
g74
(dp3973
g82
I5
ssg83
g3967
sg76
(lp3974
g69
(g78
g71
NtRp3975
(dp3976
g74
(dp3977
g82
I4
ssg83
Nsg76
(lp3978
g69
(g85
g71
NtRp3979
(dp3980
g74
(dp3981
sg83
g3975
sg76
(lp3982
g69
(g90
g71
NtRp3983
(dp3984
g74
(dp3985
g94
g95
ssg83
g3979
sg76
(lp3986
S'session_id_starcraft2'
p3987
asbag69
(g90
g71
NtRp3988
(dp3989
g74
(dp3990
g101
g102
ssg83
g3979
sg76
(lp3991
S':'
asbag69
(g90
g71
NtRp3992
(dp3993
g74
(dp3994
sg83
g3979
sg76
(lp3995
g69
(g70
g71
NtRp3996
(dp3997
g74
(dp3998
g82
I4
ssg83
g3992
sg76
(lp3999
g69
(g78
g71
NtRp4000
(dp4001
g74
(dp4002
g82
I3
ssg83
Nsg76
(lp4003
g69
(g85
g71
NtRp4004
(dp4005
g74
(dp4006
sg83
g4000
sg76
(lp4007
g69
(g90
g71
NtRp4008
(dp4009
g74
(dp4010
g94
g95
ssg83
g4004
sg76
(lp4011
g283
asbag69
(g90
g71
NtRp4012
(dp4013
g74
(dp4014
g101
g102
ssg83
g4004
sg76
(lp4015
S':'
asbag69
(g90
g71
NtRp4016
(dp4017
g74
(dp4018
sg83
g4004
sg76
(lp4019
g69
(g70
g71
NtRp4020
(dp4021
g74
(dp4022
g82
I3
ssg83
g4016
sg76
(lp4023
S''
asbasbasbag69
(g85
g71
NtRp4024
(dp4025
g74
(dp4026
sg83
g4000
sg76
(lp4027
g69
(g90
g71
NtRp4028
(dp4029
g74
(dp4030
g94
g95
ssg83
g4024
sg76
(lp4031
g304
asbag69
(g90
g71
NtRp4032
(dp4033
g74
(dp4034
g101
g102
ssg83
g4024
sg76
(lp4035
S':'
asbag69
(g90
g71
NtRp4036
(dp4037
g74
(dp4038
sg83
g4024
sg76
(lp4039
g69
(g70
g71
NtRp4040
(dp4041
g74
(dp4042
g82
I3
ssg83
g4036
sg76
(lp4043
S''
asbasbasbag69
(g85
g71
NtRp4044
(dp4045
g74
(dp4046
sg83
g4000
sg76
(lp4047
g69
(g90
g71
NtRp4048
(dp4049
g74
(dp4050
g94
g95
ssg83
g4044
sg76
(lp4051
g325
asbag69
(g90
g71
NtRp4052
(dp4053
g74
(dp4054
g101
g102
ssg83
g4044
sg76
(lp4055
S':'
asbag69
(g90
g71
NtRp4056
(dp4057
g74
(dp4058
sg83
g4044
sg76
(lp4059
g69
(g70
g71
NtRp4060
(dp4061
g74
(dp4062
g82
I3
ssg83
g4056
sg76
(lp4063
S''
asbasbasbag69
(g85
g71
NtRp4064
(dp4065
g74
(dp4066
sg83
g4000
sg76
(lp4067
g69
(g90
g71
NtRp4068
(dp4069
g74
(dp4070
g94
g95
ssg83
g4064
sg76
(lp4071
g346
asbag69
(g90
g71
NtRp4072
(dp4073
g74
(dp4074
g101
g102
ssg83
g4064
sg76
(lp4075
S':'
asbag69
(g90
g71
NtRp4076
(dp4077
g74
(dp4078
sg83
g4064
sg76
(lp4079
g69
(g70
g71
NtRp4080
(dp4081
g74
(dp4082
g82
I3
ssg83
g4076
sg76
(lp4083
S''
asbasbasbag69
(g85
g71
NtRp4084
(dp4085
g74
(dp4086
sg83
g4000
sg76
(lp4087
g69
(g90
g71
NtRp4088
(dp4089
g74
(dp4090
g94
g95
ssg83
g4084
sg76
(lp4091
g367
asbag69
(g90
g71
NtRp4092
(dp4093
g74
(dp4094
g101
g102
ssg83
g4084
sg76
(lp4095
S':'
asbag69
(g90
g71
NtRp4096
(dp4097
g74
(dp4098
sg83
g4084
sg76
(lp4099
g69
(g70
g71
NtRp4100
(dp4101
g74
(dp4102
g82
I3
ssg83
g4096
sg76
(lp4103
S''
asbasbasbag69
(g85
g71
NtRp4104
(dp4105
g74
(dp4106
sg83
g4000
sg76
(lp4107
g69
(g90
g71
NtRp4108
(dp4109
g74
(dp4110
g94
g95
ssg83
g4104
sg76
(lp4111
g388
asbag69
(g90
g71
NtRp4112
(dp4113
g74
(dp4114
g101
g102
ssg83
g4104
sg76
(lp4115
S':'
asbag69
(g90
g71
NtRp4116
(dp4117
g74
(dp4118
sg83
g4104
sg76
(lp4119
g69
(g70
g71
NtRp4120
(dp4121
g74
(dp4122
g82
I3
ssg83
g4116
sg76
(lp4123
S'/'
asbasbasbag69
(g85
g71
NtRp4124
(dp4125
g74
(dp4126
sg83
g4000
sg76
(lp4127
g69
(g90
g71
NtRp4128
(dp4129
g74
(dp4130
g94
g95
ssg83
g4124
sg76
(lp4131
g409
asbag69
(g90
g71
NtRp4132
(dp4133
g74
(dp4134
g101
g102
ssg83
g4124
sg76
(lp4135
S':'
asbag69
(g90
g71
NtRp4136
(dp4137
g74
(dp4138
sg83
g4124
sg76
(lp4139
g69
(g70
g71
NtRp4140
(dp4141
g74
(dp4142
g82
I3
ssg83
g4136
sg76
(lp4143
S''
asbasbasbag69
(g85
g71
NtRp4144
(dp4145
g74
(dp4146
sg83
g4000
sg76
(lp4147
g69
(g90
g71
NtRp4148
(dp4149
g74
(dp4150
g94
g95
ssg83
g4144
sg76
(lp4151
g430
asbag69
(g90
g71
NtRp4152
(dp4153
g74
(dp4154
g101
g102
ssg83
g4144
sg76
(lp4155
S':'
asbag69
(g90
g71
NtRp4156
(dp4157
g74
(dp4158
sg83
g4144
sg76
(lp4159
g69
(g70
g71
NtRp4160
(dp4161
g74
(dp4162
g82
I3
ssg83
g4156
sg76
(lp4163
S''
asbasbasbasbasbasbasbasbasbasbasbag69
(g85
g71
NtRp4164
(dp4165
g74
(dp4166
sg83
g3930
sg76
(lp4167
g69
(g90
g71
NtRp4168
(dp4169
g74
(dp4170
g94
g95
ssg83
g4164
sg76
(lp4171
S'delimiters'
p4172
asbag69
(g90
g71
NtRp4173
(dp4174
g74
(dp4175
g101
g102
ssg83
g4164
sg76
(lp4176
S':'
asbag69
(g90
g71
NtRp4177
(dp4178
g74
(dp4179
sg83
g4164
sg76
(lp4180
g69
(g70
g71
NtRp4181
(dp4182
g74
(dp4183
g82
I5
ssg83
g4177
sg76
(lp4184
g69
(g78
g71
NtRp4185
(dp4186
g74
(dp4187
g82
I4
ssg83
Nsg76
(lp4188
g69
(g85
g71
NtRp4189
(dp4190
g74
(dp4191
sg83
g4185
sg76
(lp4192
g69
(g90
g71
NtRp4193
(dp4194
g74
(dp4195
sg83
g4189
sg76
(lp4196
g69
(g70
g71
NtRp4197
(dp4198
g74
(dp4199
g82
I4
ssg83
g4193
sg76
(lp4200
S'{{'
p4201
asbasbasbag69
(g85
g71
NtRp4202
(dp4203
g74
(dp4204
sg83
g4185
sg76
(lp4205
g69
(g90
g71
NtRp4206
(dp4207
g74
(dp4208
sg83
g4202
sg76
(lp4209
g69
(g70
g71
NtRp4210
(dp4211
g74
(dp4212
g82
I4
ssg83
g4206
sg76
(lp4213
S'}}'
p4214
asbasbasbasbasbasbasbag69
(g85
g71
NtRp4215
(dp4216
g74
(dp4217
sg83
g3930
sg76
(lp4218
g69
(g90
g71
NtRp4219
(dp4220
g74
(dp4221
g94
g95
ssg83
g4215
sg76
(lp4222
S'files'
p4223
asbag69
(g90
g71
NtRp4224
(dp4225
g74
(dp4226
g101
g102
ssg83
g4215
sg76
(lp4227
S':'
asbag69
(g90
g71
NtRp4228
(dp4229
g74
(dp4230
sg83
g4215
sg76
(lp4231
g69
(g70
g71
NtRp4232
(dp4233
g74
(dp4234
g82
I5
ssg83
g4228
sg76
(lp4235
g69
(g78
g71
NtRp4236
(dp4237
g74
(dp4238
g82
I4
ssg83
Nsg76
(lp4239
sbasbasbasbag69
(g85
g71
NtRp4240
(dp4241
g74
(dp4242
sg83
g3930
sg76
(lp4243
g69
(g90
g71
NtRp4244
(dp4245
g74
(dp4246
g94
g95
ssg83
g4240
sg76
(lp4247
S'flash'
p4248
asbag69
(g90
g71
NtRp4249
(dp4250
g74
(dp4251
g101
g102
ssg83
g4240
sg76
(lp4252
S':'
asbag69
(g90
g71
NtRp4253
(dp4254
g74
(dp4255
sg83
g4240
sg76
(lp4256
g69
(g70
g71
NtRp4257
(dp4258
g74
(dp4259
g82
I5
ssg83
g4253
sg76
(lp4260
S''
asbasbasbag69
(g85
g71
NtRp4261
(dp4262
g74
(dp4263
sg83
g3930
sg76
(lp4264
g69
(g90
g71
NtRp4265
(dp4266
g74
(dp4267
g94
g95
ssg83
g4261
sg76
(lp4268
S'generic_patterns'
p4269
asbag69
(g90
g71
NtRp4270
(dp4271
g74
(dp4272
g101
g102
ssg83
g4261
sg76
(lp4273
S':'
asbag69
(g90
g71
NtRp4274
(dp4275
g74
(dp4276
sg83
g4261
sg76
(lp4277
g69
(g70
g71
NtRp4278
(dp4279
g74
(dp4280
g82
I5
ssg83
g4274
sg76
(lp4281
g69
(g78
g71
NtRp4282
(dp4283
g74
(dp4284
g82
I4
ssg83
Nsg76
(lp4285
g69
(g85
g71
NtRp4286
(dp4287
g74
(dp4288
sg83
g4282
sg76
(lp4289
g69
(g90
g71
NtRp4290
(dp4291
g74
(dp4292
sg83
g4286
sg76
(lp4293
g69
(g70
g71
NtRp4294
(dp4295
g74
(dp4296
g82
I4
ssg83
g4290
sg76
(lp4297
S'*'
asbasbasbasbasbasbasbag69
(g85
g71
NtRp4298
(dp4299
g74
(dp4300
sg83
g3930
sg76
(lp4301
g69
(g90
g71
NtRp4302
(dp4303
g74
(dp4304
g94
g95
ssg83
g4298
sg76
(lp4305
S'headers'
p4306
asbag69
(g90
g71
NtRp4307
(dp4308
g74
(dp4309
g101
g102
ssg83
g4298
sg76
(lp4310
S':'
asbag69
(g90
g71
NtRp4311
(dp4312
g74
(dp4313
sg83
g4298
sg76
(lp4314
g69
(g70
g71
NtRp4315
(dp4316
g74
(dp4317
g82
I5
ssg83
g4311
sg76
(lp4318
g69
(g78
g71
NtRp4319
(dp4320
g74
(dp4321
g82
I4
ssg83
Nsg76
(lp4322
g69
(g85
g71
NtRp4323
(dp4324
g74
(dp4325
sg83
g4319
sg76
(lp4326
g69
(g90
g71
NtRp4327
(dp4328
g74
(dp4329
g94
g95
ssg83
g4323
sg76
(lp4330
S'Cache-Control'
p4331
asbag69
(g90
g71
NtRp4332
(dp4333
g74
(dp4334
g101
g102
ssg83
g4323
sg76
(lp4335
S':'
asbag69
(g90
g71
NtRp4336
(dp4337
g74
(dp4338
sg83
g4323
sg76
(lp4339
g69
(g70
g71
NtRp4340
(dp4341
g74
(dp4342
g82
I4
ssg83
g4336
sg76
(lp4343
S'no-store, no-cache, must-revalidate, post-check=0, pre-check=0'
p4344
asbasbasbag69
(g85
g71
NtRp4345
(dp4346
g74
(dp4347
sg83
g4319
sg76
(lp4348
g69
(g90
g71
NtRp4349
(dp4350
g74
(dp4351
g94
g95
ssg83
g4345
sg76
(lp4352
S'Content-Type'
p4353
asbag69
(g90
g71
NtRp4354
(dp4355
g74
(dp4356
g101
g102
ssg83
g4345
sg76
(lp4357
S':'
asbag69
(g90
g71
NtRp4358
(dp4359
g74
(dp4360
sg83
g4345
sg76
(lp4361
g69
(g70
g71
NtRp4362
(dp4363
g74
(dp4364
g82
I4
ssg83
g4358
sg76
(lp4365
S'text/html; charset=utf-8'
p4366
asbasbasbag69
(g85
g71
NtRp4367
(dp4368
g74
(dp4369
sg83
g4319
sg76
(lp4370
g69
(g90
g71
NtRp4371
(dp4372
g74
(dp4373
g94
g95
ssg83
g4367
sg76
(lp4374
S'Expires'
p4375
asbag69
(g90
g71
NtRp4376
(dp4377
g74
(dp4378
g101
g102
ssg83
g4367
sg76
(lp4379
S':'
asbag69
(g90
g71
NtRp4380
(dp4381
g74
(dp4382
sg83
g4367
sg76
(lp4383
g69
(g70
g71
NtRp4384
(dp4385
g74
(dp4386
g82
I4
ssg83
g4380
sg76
(lp4387
S'Mon, 07 May 2012 23:42:27 GMT'
p4388
asbasbasbag69
(g85
g71
NtRp4389
(dp4390
g74
(dp4391
sg83
g4319
sg76
(lp4392
g69
(g90
g71
NtRp4393
(dp4394
g74
(dp4395
g94
g95
ssg83
g4389
sg76
(lp4396
S'Pragma'
p4397
asbag69
(g90
g71
NtRp4398
(dp4399
g74
(dp4400
g101
g102
ssg83
g4389
sg76
(lp4401
S':'
asbag69
(g90
g71
NtRp4402
(dp4403
g74
(dp4404
sg83
g4389
sg76
(lp4405
g69
(g70
g71
NtRp4406
(dp4407
g74
(dp4408
g82
I4
ssg83
g4402
sg76
(lp4409
S'no-cache'
p4410
asbasbasbag69
(g85
g71
NtRp4411
(dp4412
g74
(dp4413
sg83
g4319
sg76
(lp4414
g69
(g90
g71
NtRp4415
(dp4416
g74
(dp4417
g94
g95
ssg83
g4411
sg76
(lp4418
S'X-Powered-By'
p4419
asbag69
(g90
g71
NtRp4420
(dp4421
g74
(dp4422
g101
g102
ssg83
g4411
sg76
(lp4423
S':'
asbag69
(g90
g71
NtRp4424
(dp4425
g74
(dp4426
sg83
g4411
sg76
(lp4427
g69
(g70
g71
NtRp4428
(dp4429
g74
(dp4430
g82
I4
ssg83
g4424
sg76
(lp4431
S'web2py'
p4432
asbasbasbasbasbasbasbag69
(g85
g71
NtRp4433
(dp4434
g74
(dp4435
sg83
g3930
sg76
(lp4436
g69
(g90
g71
NtRp4437
(dp4438
g74
(dp4439
g94
g95
ssg83
g4433
sg76
(lp4440
S'menu'
p4441
asbag69
(g90
g71
NtRp4442
(dp4443
g74
(dp4444
g101
g102
ssg83
g4433
sg76
(lp4445
S':'
asbag69
(g90
g71
NtRp4446
(dp4447
g74
(dp4448
sg83
g4433
sg76
(lp4449
g69
(g70
g71
NtRp4450
(dp4451
g74
(dp4452
g82
I5
ssg83
g4446
sg76
(lp4453
g69
(g78
g71
NtRp4454
(dp4455
g74
(dp4456
g82
I4
ssg83
Nsg76
(lp4457
g69
(g85
g71
NtRp4458
(dp4459
g74
(dp4460
sg83
g4454
sg76
(lp4461
g69
(g90
g71
NtRp4462
(dp4463
g74
(dp4464
sg83
g4458
sg76
(lp4465
g69
(g70
g71
NtRp4466
(dp4467
g74
(dp4468
g82
I4
ssg83
g4462
sg76
(lp4469
g69
(g78
g71
NtRp4470
(dp4471
g74
(dp4472
g82
I3
ssg83
Nsg76
(lp4473
g69
(g85
g71
NtRp4474
(dp4475
g74
(dp4476
sg83
g4470
sg76
(lp4477
g69
(g90
g71
NtRp4478
(dp4479
g74
(dp4480
sg83
g4474
sg76
(lp4481
g69
(g70
g71
NtRp4482
(dp4483
g74
(dp4484
g82
I3
ssg83
g4478
sg76
(lp4485
cgluon.languages
lazyT_unpickle
p4486
(S't\x04\x00\x00\x00Home'
tRp4487
asbasbasbag69
(g85
g71
NtRp4488
(dp4489
g74
(dp4490
sg83
g4470
sg76
(lp4491
g69
(g90
g71
NtRp4492
(dp4493
g74
(dp4494
sg83
g4488
sg76
(lp4495
g69
(g70
g71
NtRp4496
(dp4497
g74
(dp4498
g82
I3
ssg83
g4492
sg76
(lp4499
g112
asbasbasbag69
(g85
g71
NtRp4500
(dp4501
g74
(dp4502
sg83
g4470
sg76
(lp4503
g69
(g90
g71
NtRp4504
(dp4505
g74
(dp4506
sg83
g4500
sg76
(lp4507
g69
(g70
g71
NtRp4508
(dp4509
g74
(dp4510
g82
I3
ssg83
g4504
sg76
(lp4511
S'/Starcraft2/default/index'
p4512
asbasbasbag69
(g85
g71
NtRp4513
(dp4514
g74
(dp4515
sg83
g4470
sg76
(lp4516
g69
(g90
g71
NtRp4517
(dp4518
g74
(dp4519
sg83
g4513
sg76
(lp4520
g69
(g70
g71
NtRp4521
(dp4522
g74
(dp4523
g82
I3
ssg83
g4517
sg76
(lp4524
g69
(g78
g71
NtRp4525
(dp4526
g74
(dp4527
g82
I2
ssg83
Nsg76
(lp4528
sbasbasbasbasbasbasbasbag69
(g85
g71
NtRp4529
(dp4530
g74
(dp4531
sg83
g4454
sg76
(lp4532
g69
(g90
g71
NtRp4533
(dp4534
g74
(dp4535
sg83
g4529
sg76
(lp4536
g69
(g70
g71
NtRp4537
(dp4538
g74
(dp4539
g82
I4
ssg83
g4533
sg76
(lp4540
g69
(g78
g71
NtRp4541
(dp4542
g74
(dp4543
g82
I3
ssg83
Nsg76
(lp4544
g69
(g85
g71
NtRp4545
(dp4546
g74
(dp4547
sg83
g4541
sg76
(lp4548
g69
(g90
g71
NtRp4549
(dp4550
g74
(dp4551
sg83
g4545
sg76
(lp4552
g69
(g70
g71
NtRp4553
(dp4554
g74
(dp4555
g82
I3
ssg83
g4549
sg76
(lp4556
g69
(cgluon.html
SPAN
p4557
g71
NtRp4558
(dp4559
g74
(dp4560
g94
S'color:yellow'
p4561
ssg83
Nsg76
(lp4562
g4432
asbasbasbasbag69
(g85
g71
NtRp4563
(dp4564
g74
(dp4565
sg83
g4541
sg76
(lp4566
g69
(g90
g71
NtRp4567
(dp4568
g74
(dp4569
sg83
g4563
sg76
(lp4570
g69
(g70
g71
NtRp4571
(dp4572
g74
(dp4573
g82
I3
ssg83
g4567
sg76
(lp4574
g112
asbasbasbag69
(g85
g71
NtRp4575
(dp4576
g74
(dp4577
sg83
g4541
sg76
(lp4578
g69
(g90
g71
NtRp4579
(dp4580
g74
(dp4581
sg83
g4575
sg76
(lp4582
g69
(g70
g71
NtRp4583
(dp4584
g74
(dp4585
g82
I3
ssg83
g4579
sg76
(lp4586
S'None'
p4587
asbasbasbag69
(g85
g71
NtRp4588
(dp4589
g74
(dp4590
sg83
g4541
sg76
(lp4591
g69
(g90
g71
NtRp4592
(dp4593
g74
(dp4594
sg83
g4588
sg76
(lp4595
g69
(g70
g71
NtRp4596
(dp4597
g74
(dp4598
g82
I3
ssg83
g4592
sg76
(lp4599
g69
(g78
g71
NtRp4600
(dp4601
g74
(dp4602
g82
I2
ssg83
Nsg76
(lp4603
g69
(g85
g71
NtRp4604
(dp4605
g74
(dp4606
sg83
g4600
sg76
(lp4607
g69
(g90
g71
NtRp4608
(dp4609
g74
(dp4610
sg83
g4604
sg76
(lp4611
g69
(g70
g71
NtRp4612
(dp4613
g74
(dp4614
g82
I2
ssg83
g4608
sg76
(lp4615
g69
(g78
g71
NtRp4616
(dp4617
g74
(dp4618
g82
I1
ssg83
Nsg76
(lp4619
g69
(g85
g71
NtRp4620
(dp4621
g74
(dp4622
sg83
g4616
sg76
(lp4623
g69
(g90
g71
NtRp4624
(dp4625
g74
(dp4626
sg83
g4620
sg76
(lp4627
g69
(g70
g71
NtRp4628
(dp4629
g74
(dp4630
g82
I1
ssg83
g4624
sg76
(lp4631
g4486
(S's\x08\x00\x00\x00My Sites'
tRp4632
asbasbasbag69
(g85
g71
NtRp4633
(dp4634
g74
(dp4635
sg83
g4616
sg76
(lp4636
g69
(g90
g71
NtRp4637
(dp4638
g74
(dp4639
sg83
g4633
sg76
(lp4640
g69
(g70
g71
NtRp4641
(dp4642
g74
(dp4643
g82
I1
ssg83
g4637
sg76
(lp4644
I00
asbasbasbag69
(g85
g71
NtRp4645
(dp4646
g74
(dp4647
sg83
g4616
sg76
(lp4648
g69
(g90
g71
NtRp4649
(dp4650
g74
(dp4651
sg83
g4645
sg76
(lp4652
g69
(g70
g71
NtRp4653
(dp4654
g74
(dp4655
g82
I1
ssg83
g4649
sg76
(lp4656
S'/admin/default/site'
p4657
asbasbasbasbasbasbasbag69
(g85
g71
NtRp4658
(dp4659
g74
(dp4660
sg83
g4600
sg76
(lp4661
g69
(g90
g71
NtRp4662
(dp4663
g74
(dp4664
sg83
g4658
sg76
(lp4665
g69
(g70
g71
NtRp4666
(dp4667
g74
(dp4668
g82
I2
ssg83
g4662
sg76
(lp4669
g69
(g78
g71
NtRp4670
(dp4671
g74
(dp4672
g82
I1
ssg83
Nsg76
(lp4673
g69
(g85
g71
NtRp4674
(dp4675
g74
(dp4676
sg83
g4670
sg76
(lp4677
g69
(g90
g71
NtRp4678
(dp4679
g74
(dp4680
sg83
g4674
sg76
(lp4681
g69
(g70
g71
NtRp4682
(dp4683
g74
(dp4684
g82
I1
ssg83
g4678
sg76
(lp4685
g4486
(S's\x08\x00\x00\x00This App'
tRp4686
asbasbasbag69
(g85
g71
NtRp4687
(dp4688
g74
(dp4689
sg83
g4670
sg76
(lp4690
g69
(g90
g71
NtRp4691
(dp4692
g74
(dp4693
sg83
g4687
sg76
(lp4694
g69
(g70
g71
NtRp4695
(dp4696
g74
(dp4697
g82
I1
ssg83
g4691
sg76
(lp4698
I00
asbasbasbag69
(g85
g71
NtRp4699
(dp4700
g74
(dp4701
sg83
g4670
sg76
(lp4702
g69
(g90
g71
NtRp4703
(dp4704
g74
(dp4705
sg83
g4699
sg76
(lp4706
g69
(g70
g71
NtRp4707
(dp4708
g74
(dp4709
g82
I1
ssg83
g4703
sg76
(lp4710
S'/admin/default/design/Starcraft2'
p4711
asbasbasbag69
(g85
g71
NtRp4712
(dp4713
g74
(dp4714
sg83
g4670
sg76
(lp4715
g69
(g90
g71
NtRp4716
(dp4717
g74
(dp4718
sg83
g4712
sg76
(lp4719
g69
(g70
g71
NtRp4720
(dp4721
g74
(dp4722
g82
I1
ssg83
g4716
sg76
(lp4723
(lp4724
(g4486
(S't\n\x00\x00\x00Controller'
tRp4725
I00
S'/admin/default/edit/Starcraft2/controllers/default.py'
tp4726
a(g4486
(S't\x04\x00\x00\x00View'
tRp4727
I00
S'/admin/default/edit/Starcraft2/views/default/build.html'
tp4728
a(g4486
(S't\x06\x00\x00\x00Layout'
tRp4729
I00
S'/admin/default/edit/Starcraft2/views/layout.html'
tp4730
a(g4486
(S't\n\x00\x00\x00Stylesheet'
tRp4731
I00
S'/admin/default/edit/Starcraft2/static/css/web2py.css'
tp4732
a(g4486
(S's\x08\x00\x00\x00DB Model'
tRp4733
I00
S'/admin/default/edit/Starcraft2/models/db.py'
tp4734
a(g4486
(S's\n\x00\x00\x00Menu Model'
tRp4735
I00
S'/admin/default/edit/Starcraft2/models/menu.py'
tp4736
a(g4486
(S't\x08\x00\x00\x00Database'
tRp4737
I00
S'/Starcraft2/appadmin/index'
tp4738
a(g4486
(S't\x06\x00\x00\x00Errors'
tRp4739
I00
S'/admin/default/errors/Starcraft2'
tp4740
a(g4486
(S't\x05\x00\x00\x00About'
tRp4741
I00
S'/admin/default/about/Starcraft2'
tp4742
aasbasbasbasbasbasbasbag69
(g85
g71
NtRp4743
(dp4744
g74
(dp4745
sg83
g4600
sg76
(lp4746
g69
(g90
g71
NtRp4747
(dp4748
g74
(dp4749
sg83
g4743
sg76
(lp4750
g69
(g70
g71
NtRp4751
(dp4752
g74
(dp4753
g82
I2
ssg83
g4747
sg76
(lp4754
g69
(g78
g71
NtRp4755
(dp4756
g74
(dp4757
g82
I1
ssg83
Nsg76
(lp4758
g69
(g85
g71
NtRp4759
(dp4760
g74
(dp4761
sg83
g4755
sg76
(lp4762
g69
(g90
g71
NtRp4763
(dp4764
g74
(dp4765
sg83
g4759
sg76
(lp4766
g69
(g70
g71
NtRp4767
(dp4768
g74
(dp4769
g82
I1
ssg83
g4763
sg76
(lp4770
S'web2py.com'
p4771
asbasbasbag69
(g85
g71
NtRp4772
(dp4773
g74
(dp4774
sg83
g4755
sg76
(lp4775
g69
(g90
g71
NtRp4776
(dp4777
g74
(dp4778
sg83
g4772
sg76
(lp4779
g69
(g70
g71
NtRp4780
(dp4781
g74
(dp4782
g82
I1
ssg83
g4776
sg76
(lp4783
I00
asbasbasbag69
(g85
g71
NtRp4784
(dp4785
g74
(dp4786
sg83
g4755
sg76
(lp4787
g69
(g90
g71
NtRp4788
(dp4789
g74
(dp4790
sg83
g4784
sg76
(lp4791
g69
(g70
g71
NtRp4792
(dp4793
g74
(dp4794
g82
I1
ssg83
g4788
sg76
(lp4795
S'http://www.web2py.com'
p4796
asbasbasbag69
(g85
g71
NtRp4797
(dp4798
g74
(dp4799
sg83
g4755
sg76
(lp4800
g69
(g90
g71
NtRp4801
(dp4802
g74
(dp4803
sg83
g4797
sg76
(lp4804
g69
(g70
g71
NtRp4805
(dp4806
g74
(dp4807
g82
I1
ssg83
g4801
sg76
(lp4808
(lp4809
(g4486
(S't\x08\x00\x00\x00Download'
tRp4810
I00
S'http://www.web2py.com/examples/default/download'
p4811
tp4812
a(g4486
(S't\x07\x00\x00\x00Support'
tRp4813
I00
S'http://www.web2py.com/examples/default/support'
p4814
tp4815
a(g4486
(S't\x04\x00\x00\x00Demo'
tRp4816
I00
S'http://web2py.com/demo_admin'
p4817
tp4818
a(g4486
(S's\x0e\x00\x00\x00Quick Examples'
tRp4819
I00
S'http://web2py.com/examples/default/examples'
p4820
tp4821
a(g4486
(S't\x03\x00\x00\x00FAQ'
tRp4822
I00
S'http://web2py.com/AlterEgo'
p4823
tp4824
a(g4486
(S't\x06\x00\x00\x00Videos'
tRp4825
I00
S'http://www.web2py.com/examples/default/videos/'
p4826
tp4827
a(g4486
(S's\x11\x00\x00\x00Free Applications'
tRp4828
I00
S'http://web2py.com/appliances'
p4829
tp4830
a(g4486
(S't\x07\x00\x00\x00Plugins'
tRp4831
I00
S'http://web2py.com/plugins'
p4832
tp4833
a(g4486
(S't\x07\x00\x00\x00Layouts'
tRp4834
I00
S'http://web2py.com/layouts'
p4835
tp4836
a(g4486
(S't\x07\x00\x00\x00Recipes'
tRp4837
I00
S'http://web2pyslices.com/'
p4838
tp4839
a(g4486
(S't\x08\x00\x00\x00Semantic'
tRp4840
I00
S'http://web2py.com/semantic'
p4841
tp4842
aasbasbasbasbasbasbasbag69
(g85
g71
NtRp4843
(dp4844
g74
(dp4845
sg83
g4600
sg76
(lp4846
g69
(g90
g71
NtRp4847
(dp4848
g74
(dp4849
sg83
g4843
sg76
(lp4850
g69
(g70
g71
NtRp4851
(dp4852
g74
(dp4853
g82
I2
ssg83
g4847
sg76
(lp4854
g69
(g78
g71
NtRp4855
(dp4856
g74
(dp4857
g82
I1
ssg83
Nsg76
(lp4858
g69
(g85
g71
NtRp4859
(dp4860
g74
(dp4861
sg83
g4855
sg76
(lp4862
g69
(g90
g71
NtRp4863
(dp4864
g74
(dp4865
sg83
g4859
sg76
(lp4866
g69
(g70
g71
NtRp4867
(dp4868
g74
(dp4869
g82
I1
ssg83
g4863
sg76
(lp4870
g4486
(S't\r\x00\x00\x00Documentation'
tRp4871
asbasbasbag69
(g85
g71
NtRp4872
(dp4873
g74
(dp4874
sg83
g4855
sg76
(lp4875
g69
(g90
g71
NtRp4876
(dp4877
g74
(dp4878
sg83
g4872
sg76
(lp4879
g69
(g70
g71
NtRp4880
(dp4881
g74
(dp4882
g82
I1
ssg83
g4876
sg76
(lp4883
I00
asbasbasbag69
(g85
g71
NtRp4884
(dp4885
g74
(dp4886
sg83
g4855
sg76
(lp4887
g69
(g90
g71
NtRp4888
(dp4889
g74
(dp4890
sg83
g4884
sg76
(lp4891
g69
(g70
g71
NtRp4892
(dp4893
g74
(dp4894
g82
I1
ssg83
g4888
sg76
(lp4895
S'http://www.web2py.com/book'
p4896
asbasbasbag69
(g85
g71
NtRp4897
(dp4898
g74
(dp4899
sg83
g4855
sg76
(lp4900
g69
(g90
g71
NtRp4901
(dp4902
g74
(dp4903
sg83
g4897
sg76
(lp4904
g69
(g70
g71
NtRp4905
(dp4906
g74
(dp4907
g82
I1
ssg83
g4901
sg76
(lp4908
(lp4909
(g4486
(S't\x07\x00\x00\x00Preface'
tRp4910
I00
S'http://www.web2py.com/book/default/chapter/00'
p4911
tp4912
a(g4486
(S't\x0c\x00\x00\x00Introduction'
tRp4913
I00
S'http://www.web2py.com/book/default/chapter/01'
p4914
tp4915
a(g4486
(S't\x06\x00\x00\x00Python'
tRp4916
I00
S'http://www.web2py.com/book/default/chapter/02'
p4917
tp4918
a(g4486
(S't\x08\x00\x00\x00Overview'
tRp4919
I00
S'http://www.web2py.com/book/default/chapter/03'
p4920
tp4921
a(g4486
(S's\x08\x00\x00\x00The Core'
tRp4922
I00
S'http://www.web2py.com/book/default/chapter/04'
p4923
tp4924
a(g4486
(S's\t\x00\x00\x00The Views'
tRp4925
I00
S'http://www.web2py.com/book/default/chapter/05'
p4926
tp4927
a(g4486
(S't\x08\x00\x00\x00Database'
tRp4928
I00
S'http://www.web2py.com/book/default/chapter/06'
p4929
tp4930
a(g4486
(S's\x14\x00\x00\x00Forms and Validators'
tRp4931
I00
S'http://www.web2py.com/book/default/chapter/07'
p4932
tp4933
a(g4486
(S's\r\x00\x00\x00Email and SMS'
tRp4934
I00
S'http://www.web2py.com/book/default/chapter/08'
p4935
tp4936
a(g4486
(S's\x0e\x00\x00\x00Access Control'
tRp4937
I00
S'http://www.web2py.com/book/default/chapter/09'
p4938
tp4939
a(g4486
(S't\x08\x00\x00\x00Services'
tRp4940
I00
S'http://www.web2py.com/book/default/chapter/10'
p4941
tp4942
a(g4486
(S's\x0c\x00\x00\x00Ajax Recipes'
tRp4943
I00
S'http://www.web2py.com/book/default/chapter/11'
p4944
tp4945
a(g4486
(S's\x16\x00\x00\x00Components and Plugins'
tRp4946
I00
S'http://www.web2py.com/book/default/chapter/12'
p4947
tp4948
a(g4486
(S's\x12\x00\x00\x00Deployment Recipes'
tRp4949
I00
S'http://www.web2py.com/book/default/chapter/13'
p4950
tp4951
a(g4486
(S's\r\x00\x00\x00Other Recipes'
tRp4952
I00
S'http://www.web2py.com/book/default/chapter/14'
p4953
tp4954
a(g4486
(S's\r\x00\x00\x00Buy this book'
tRp4955
I00
S'http://stores.lulu.com/web2py'
p4956
tp4957
aasbasbasbasbasbasbasbag69
(g85
g71
NtRp4958
(dp4959
g74
(dp4960
sg83
g4600
sg76
(lp4961
g69
(g90
g71
NtRp4962
(dp4963
g74
(dp4964
sg83
g4958
sg76
(lp4965
g69
(g70
g71
NtRp4966
(dp4967
g74
(dp4968
g82
I2
ssg83
g4962
sg76
(lp4969
g69
(g78
g71
NtRp4970
(dp4971
g74
(dp4972
g82
I1
ssg83
Nsg76
(lp4973
g69
(g85
g71
NtRp4974
(dp4975
g74
(dp4976
sg83
g4970
sg76
(lp4977
g69
(g90
g71
NtRp4978
(dp4979
g74
(dp4980
sg83
g4974
sg76
(lp4981
g69
(g70
g71
NtRp4982
(dp4983
g74
(dp4984
g82
I1
ssg83
g4978
sg76
(lp4985
g4486
(S't\t\x00\x00\x00Community'
tRp4986
asbasbasbag69
(g85
g71
NtRp4987
(dp4988
g74
(dp4989
sg83
g4970
sg76
(lp4990
g69
(g90
g71
NtRp4991
(dp4992
g74
(dp4993
sg83
g4987
sg76
(lp4994
g69
(g70
g71
NtRp4995
(dp4996
g74
(dp4997
g82
I1
ssg83
g4991
sg76
(lp4998
I00
asbasbasbag69
(g85
g71
NtRp4999
(dp5000
g74
(dp5001
sg83
g4970
sg76
(lp5002
g69
(g90
g71
NtRp5003
(dp5004
g74
(dp5005
sg83
g4999
sg76
(lp5006
g69
(g70
g71
NtRp5007
(dp5008
g74
(dp5009
g82
I1
ssg83
g5003
sg76
(lp5010
Nasbasbasbag69
(g85
g71
NtRp5011
(dp5012
g74
(dp5013
sg83
g4970
sg76
(lp5014
g69
(g90
g71
NtRp5015
(dp5016
g74
(dp5017
sg83
g5011
sg76
(lp5018
g69
(g70
g71
NtRp5019
(dp5020
g74
(dp5021
g82
I1
ssg83
g5015
sg76
(lp5022
(lp5023
(g4486
(S't\x06\x00\x00\x00Groups'
tRp5024
I00
S'http://www.web2py.com/examples/default/usergroups'
p5025
tp5026
a(g4486
(S't\x07\x00\x00\x00Twitter'
tRp5027
I00
S'http://twitter.com/web2py'
p5028
tp5029
a(g4486
(S's\t\x00\x00\x00Live Chat'
tRp5030
I00
S'http://webchat.freenode.net/?channels=web2py'
p5031
tp5032
aasbasbasbasbasbasbasbag69
(g85
g71
NtRp5033
(dp5034
g74
(dp5035
sg83
g4600
sg76
(lp5036
g69
(g90
g71
NtRp5037
(dp5038
g74
(dp5039
sg83
g5033
sg76
(lp5040
g69
(g70
g71
NtRp5041
(dp5042
g74
(dp5043
g82
I2
ssg83
g5037
sg76
(lp5044
g69
(g78
g71
NtRp5045
(dp5046
g74
(dp5047
g82
I1
ssg83
Nsg76
(lp5048
g69
(g85
g71
NtRp5049
(dp5050
g74
(dp5051
sg83
g5045
sg76
(lp5052
g69
(g90
g71
NtRp5053
(dp5054
g74
(dp5055
sg83
g5049
sg76
(lp5056
g69
(g70
g71
NtRp5057
(dp5058
g74
(dp5059
g82
I1
ssg83
g5053
sg76
(lp5060
g4486
(S't\x07\x00\x00\x00Plugins'
tRp5061
asbasbasbag69
(g85
g71
NtRp5062
(dp5063
g74
(dp5064
sg83
g5045
sg76
(lp5065
g69
(g90
g71
NtRp5066
(dp5067
g74
(dp5068
sg83
g5062
sg76
(lp5069
g69
(g70
g71
NtRp5070
(dp5071
g74
(dp5072
g82
I1
ssg83
g5066
sg76
(lp5073
I00
asbasbasbag69
(g85
g71
NtRp5074
(dp5075
g74
(dp5076
sg83
g5045
sg76
(lp5077
g69
(g90
g71
NtRp5078
(dp5079
g74
(dp5080
sg83
g5074
sg76
(lp5081
g69
(g70
g71
NtRp5082
(dp5083
g74
(dp5084
g82
I1
ssg83
g5078
sg76
(lp5085
Nasbasbasbag69
(g85
g71
NtRp5086
(dp5087
g74
(dp5088
sg83
g5045
sg76
(lp5089
g69
(g90
g71
NtRp5090
(dp5091
g74
(dp5092
sg83
g5086
sg76
(lp5093
g69
(g70
g71
NtRp5094
(dp5095
g74
(dp5096
g82
I1
ssg83
g5090
sg76
(lp5097
(lp5098
(S'plugin_wiki'
p5099
I00
S'http://web2py.com/examples/default/download'
p5100
tp5101
a(g4486
(S's\r\x00\x00\x00Other Plugins'
tRp5102
I00
g4832
tp5103
a(g4486
(S's\x0e\x00\x00\x00Layout Plugins'
tRp5104
I00
g4835
tp5105
aasbasbasbasbasbasbasbasbasbasbasbasbasbasbasbasbasbasbasbag69
(g85
g71
NtRp5106
(dp5107
g74
(dp5108
sg83
g3930
sg76
(lp5109
g69
(g90
g71
NtRp5110
(dp5111
g74
(dp5112
g94
g95
ssg83
g5106
sg76
(lp5113
S'meta'
p5114
asbag69
(g90
g71
NtRp5115
(dp5116
g74
(dp5117
g101
g102
ssg83
g5106
sg76
(lp5118
S':'
asbag69
(g90
g71
NtRp5119
(dp5120
g74
(dp5121
sg83
g5106
sg76
(lp5122
g69
(g70
g71
NtRp5123
(dp5124
g74
(dp5125
g82
I5
ssg83
g5119
sg76
(lp5126
g69
(g78
g71
NtRp5127
(dp5128
g74
(dp5129
g82
I4
ssg83
Nsg76
(lp5130
g69
(g85
g71
NtRp5131
(dp5132
g74
(dp5133
sg83
g5127
sg76
(lp5134
g69
(g90
g71
NtRp5135
(dp5136
g74
(dp5137
g94
g95
ssg83
g5131
sg76
(lp5138
S'author'
p5139
asbag69
(g90
g71
NtRp5140
(dp5141
g74
(dp5142
g101
g102
ssg83
g5131
sg76
(lp5143
S':'
asbag69
(g90
g71
NtRp5144
(dp5145
g74
(dp5146
sg83
g5131
sg76
(lp5147
g69
(g70
g71
NtRp5148
(dp5149
g74
(dp5150
g82
I4
ssg83
g5144
sg76
(lp5151
S'Your Name <you@example.com>'
p5152
asbasbasbag69
(g85
g71
NtRp5153
(dp5154
g74
(dp5155
sg83
g5127
sg76
(lp5156
g69
(g90
g71
NtRp5157
(dp5158
g74
(dp5159
g94
g95
ssg83
g5153
sg76
(lp5160
S'copyright'
p5161
asbag69
(g90
g71
NtRp5162
(dp5163
g74
(dp5164
g101
g102
ssg83
g5153
sg76
(lp5165
S':'
asbag69
(g90
g71
NtRp5166
(dp5167
g74
(dp5168
sg83
g5153
sg76
(lp5169
g69
(g70
g71
NtRp5170
(dp5171
g74
(dp5172
g82
I4
ssg83
g5166
sg76
(lp5173
S'Copyright 2011'
p5174
asbasbasbag69
(g85
g71
NtRp5175
(dp5176
g74
(dp5177
sg83
g5127
sg76
(lp5178
g69
(g90
g71
NtRp5179
(dp5180
g74
(dp5181
g94
g95
ssg83
g5175
sg76
(lp5182
S'description'
p5183
asbag69
(g90
g71
NtRp5184
(dp5185
g74
(dp5186
g101
g102
ssg83
g5175
sg76
(lp5187
S':'
asbag69
(g90
g71
NtRp5188
(dp5189
g74
(dp5190
sg83
g5175
sg76
(lp5191
g69
(g70
g71
NtRp5192
(dp5193
g74
(dp5194
g82
I4
ssg83
g5188
sg76
(lp5195
S'a cool new app'
p5196
asbasbasbag69
(g85
g71
NtRp5197
(dp5198
g74
(dp5199
sg83
g5127
sg76
(lp5200
g69
(g90
g71
NtRp5201
(dp5202
g74
(dp5203
g94
g95
ssg83
g5197
sg76
(lp5204
S'generator'
p5205
asbag69
(g90
g71
NtRp5206
(dp5207
g74
(dp5208
g101
g102
ssg83
g5197
sg76
(lp5209
S':'
asbag69
(g90
g71
NtRp5210
(dp5211
g74
(dp5212
sg83
g5197
sg76
(lp5213
g69
(g70
g71
NtRp5214
(dp5215
g74
(dp5216
g82
I4
ssg83
g5210
sg76
(lp5217
S'Web2py Web Framework'
p5218
asbasbasbag69
(g85
g71
NtRp5219
(dp5220
g74
(dp5221
sg83
g5127
sg76
(lp5222
g69
(g90
g71
NtRp5223
(dp5224
g74
(dp5225
g94
g95
ssg83
g5219
sg76
(lp5226
S'keywords'
p5227
asbag69
(g90
g71
NtRp5228
(dp5229
g74
(dp5230
g101
g102
ssg83
g5219
sg76
(lp5231
S':'
asbag69
(g90
g71
NtRp5232
(dp5233
g74
(dp5234
sg83
g5219
sg76
(lp5235
g69
(g70
g71
NtRp5236
(dp5237
g74
(dp5238
g82
I4
ssg83
g5232
sg76
(lp5239
S'web2py, python, framework'
p5240
asbasbasbasbasbasbasbag69
(g85
g71
NtRp5241
(dp5242
g74
(dp5243
sg83
g3930
sg76
(lp5244
g69
(g90
g71
NtRp5245
(dp5246
g74
(dp5247
g94
g95
ssg83
g5241
sg76
(lp5248
S'postprocessing'
p5249
asbag69
(g90
g71
NtRp5250
(dp5251
g74
(dp5252
g101
g102
ssg83
g5241
sg76
(lp5253
S':'
asbag69
(g90
g71
NtRp5254
(dp5255
g74
(dp5256
sg83
g5241
sg76
(lp5257
g69
(g70
g71
NtRp5258
(dp5259
g74
(dp5260
g82
I5
ssg83
g5254
sg76
(lp5261
g69
(g78
g71
NtRp5262
(dp5263
g74
(dp5264
g82
I4
ssg83
Nsg76
(lp5265
sbasbasbasbag69
(g85
g71
NtRp5266
(dp5267
g74
(dp5268
sg83
g3930
sg76
(lp5269
g69
(g90
g71
NtRp5270
(dp5271
g74
(dp5272
g94
g95
ssg83
g5266
sg76
(lp5273
S'session_file'
p5274
asbag69
(g90
g71
NtRp5275
(dp5276
g74
(dp5277
g101
g102
ssg83
g5266
sg76
(lp5278
S':'
asbag69
(g90
g71
NtRp5279
(dp5280
g74
(dp5281
sg83
g5266
sg76
(lp5282
g69
(g70
g71
NtRp5283
(dp5284
g74
(dp5285
g82
I5
ssg83
g5279
sg76
(lp5286
S"<open file '/Users/hainna01/Downloads/web2py/applications/Starcraft2/sessions/127.0.0.1-ab0c6fa2-79d9-46c1-ab68-7df9589f9e17', mode 'rb+' at 0x101ebe030>"
p5287
asbasbasbag69
(g85
g71
NtRp5288
(dp5289
g74
(dp5290
sg83
g3930
sg76
(lp5291
g69
(g90
g71
NtRp5292
(dp5293
g74
(dp5294
g94
g95
ssg83
g5288
sg76
(lp5295
S'session_filename'
p5296
asbag69
(g90
g71
NtRp5297
(dp5298
g74
(dp5299
g101
g102
ssg83
g5288
sg76
(lp5300
S':'
asbag69
(g90
g71
NtRp5301
(dp5302
g74
(dp5303
sg83
g5288
sg76
(lp5304
g69
(g70
g71
NtRp5305
(dp5306
g74
(dp5307
g82
I5
ssg83
g5301
sg76
(lp5308
S'/Users/hainna01/Downloads/web2py/applications/Starcraft2/sessions/127.0.0.1-ab0c6fa2-79d9-46c1-ab68-7df9589f9e17'
p5309
asbasbasbag69
(g85
g71
NtRp5310
(dp5311
g74
(dp5312
sg83
g3930
sg76
(lp5313
g69
(g90
g71
NtRp5314
(dp5315
g74
(dp5316
g94
g95
ssg83
g5310
sg76
(lp5317
S'session_id'
p5318
asbag69
(g90
g71
NtRp5319
(dp5320
g74
(dp5321
g101
g102
ssg83
g5310
sg76
(lp5322
S':'
asbag69
(g90
g71
NtRp5323
(dp5324
g74
(dp5325
sg83
g5310
sg76
(lp5326
g69
(g70
g71
NtRp5327
(dp5328
g74
(dp5329
g82
I5
ssg83
g5323
sg76
(lp5330
S'127.0.0.1-ab0c6fa2-79d9-46c1-ab68-7df9589f9e17'
p5331
asbasbasbag69
(g85
g71
NtRp5332
(dp5333
g74
(dp5334
sg83
g3930
sg76
(lp5335
g69
(g90
g71
NtRp5336
(dp5337
g74
(dp5338
g94
g95
ssg83
g5332
sg76
(lp5339
S'session_id_name'
p5340
asbag69
(g90
g71
NtRp5341
(dp5342
g74
(dp5343
g101
g102
ssg83
g5332
sg76
(lp5344
S':'
asbag69
(g90
g71
NtRp5345
(dp5346
g74
(dp5347
sg83
g5332
sg76
(lp5348
g69
(g70
g71
NtRp5349
(dp5350
g74
(dp5351
g82
I5
ssg83
g5345
sg76
(lp5352
g3987
asbasbasbag69
(g85
g71
NtRp5353
(dp5354
g74
(dp5355
sg83
g3930
sg76
(lp5356
g69
(g90
g71
NtRp5357
(dp5358
g74
(dp5359
g94
g95
ssg83
g5353
sg76
(lp5360
S'session_locked'
p5361
asbag69
(g90
g71
NtRp5362
(dp5363
g74
(dp5364
g101
g102
ssg83
g5353
sg76
(lp5365
S':'
asbag69
(g90
g71
NtRp5366
(dp5367
g74
(dp5368
sg83
g5353
sg76
(lp5369
g69
(g70
g71
NtRp5370
(dp5371
g74
(dp5372
g82
I5
ssg83
g5366
sg76
(lp5373
g1820
asbasbasbag69
(g85
g71
NtRp5374
(dp5375
g74
(dp5376
sg83
g3930
sg76
(lp5377
g69
(g90
g71
NtRp5378
(dp5379
g74
(dp5380
g94
g95
ssg83
g5374
sg76
(lp5381
S'session_new'
p5382
asbag69
(g90
g71
NtRp5383
(dp5384
g74
(dp5385
g101
g102
ssg83
g5374
sg76
(lp5386
S':'
asbag69
(g90
g71
NtRp5387
(dp5388
g74
(dp5389
sg83
g5374
sg76
(lp5390
g69
(g70
g71
NtRp5391
(dp5392
g74
(dp5393
g82
I5
ssg83
g5387
sg76
(lp5394
g112
asbasbasbag69
(g85
g71
NtRp5395
(dp5396
g74
(dp5397
sg83
g3930
sg76
(lp5398
g69
(g90
g71
NtRp5399
(dp5400
g74
(dp5401
g94
g95
ssg83
g5395
sg76
(lp5402
S'status'
p5403
asbag69
(g90
g71
NtRp5404
(dp5405
g74
(dp5406
g101
g102
ssg83
g5395
sg76
(lp5407
S':'
asbag69
(g90
g71
NtRp5408
(dp5409
g74
(dp5410
sg83
g5395
sg76
(lp5411
g69
(g70
g71
NtRp5412
(dp5413
g74
(dp5414
g82
I5
ssg83
g5408
sg76
(lp5415
S'200'
p5416
asbasbasbag69
(g85
g71
NtRp5417
(dp5418
g74
(dp5419
sg83
g3930
sg76
(lp5420
g69
(g90
g71
NtRp5421
(dp5422
g74
(dp5423
g94
g95
ssg83
g5417
sg76
(lp5424
S'subtitle'
p5425
asbag69
(g90
g71
NtRp5426
(dp5427
g74
(dp5428
g101
g102
ssg83
g5417
sg76
(lp5429
S':'
asbag69
(g90
g71
NtRp5430
(dp5431
g74
(dp5432
sg83
g5417
sg76
(lp5433
g69
(g70
g71
NtRp5434
(dp5435
g74
(dp5436
g82
I5
ssg83
g5430
sg76
(lp5437
g4486
(S's\r\x00\x00\x00customize me!'
tRp5438
asbasbasbag69
(g85
g71
NtRp5439
(dp5440
g74
(dp5441
sg83
g3930
sg76
(lp5442
g69
(g90
g71
NtRp5443
(dp5444
g74
(dp5445
g94
g95
ssg83
g5439
sg76
(lp5446
S'title'
p5447
asbag69
(g90
g71
NtRp5448
(dp5449
g74
(dp5450
g101
g102
ssg83
g5439
sg76
(lp5451
S':'
asbag69
(g90
g71
NtRp5452
(dp5453
g74
(dp5454
sg83
g5439
sg76
(lp5455
g69
(g70
g71
NtRp5456
(dp5457
g74
(dp5458
g82
I5
ssg83
g5452
sg76
(lp5459
S'Starcraft2'
p5460
asbasbasbag69
(g85
g71
NtRp5461
(dp5462
g74
(dp5463
sg83
g3930
sg76
(lp5464
g69
(g90
g71
NtRp5465
(dp5466
g74
(dp5467
g94
g95
ssg83
g5461
sg76
(lp5468
g2593
asbag69
(g90
g71
NtRp5469
(dp5470
g74
(dp5471
g101
g102
ssg83
g5461
sg76
(lp5472
S':'
asbag69
(g90
g71
NtRp5473
(dp5474
g74
(dp5475
sg83
g5461
sg76
(lp5476
g69
(g70
g71
NtRp5477
(dp5478
g74
(dp5479
g82
I5
ssg83
g5473
sg76
(lp5480
g2606
asbasbasbag69
(g85
g71
NtRp5481
(dp5482
g74
(dp5483
sg83
g3930
sg76
(lp5484
g69
(g90
g71
NtRp5485
(dp5486
g74
(dp5487
g94
g95
ssg83
g5481
sg76
(lp5488
S'view'
p5489
asbag69
(g90
g71
NtRp5490
(dp5491
g74
(dp5492
g101
g102
ssg83
g5481
sg76
(lp5493
S':'
asbag69
(g90
g71
NtRp5494
(dp5495
g74
(dp5496
sg83
g5481
sg76
(lp5497
g69
(g70
g71
NtRp5498
(dp5499
g74
(dp5500
g82
I5
ssg83
g5494
sg76
(lp5501
S'default/build.html'
p5502
asbasbasbasbasbsS'locals'
p5503
(dp5504
g4
S"'/Users/hainna01/Downloads/web2py/applications/Starcraft2/controllers/default.py'"
p5505
sg6
S"'# -*- coding: utf-8 -*-\\n# this file is released ...plylist)\\n\\nresponse._vars=response._caller(build)\\n'"
p5506
sssS'traceback'
p5507
S'Traceback (most recent call last):\n  File "/Users/hainna01/Downloads/web2py/gluon/restricted.py", line 204, in restricted\n    ccode = compile2(code,layer)\n  File "/Users/hainna01/Downloads/web2py/gluon/restricted.py", line 189, in compile2\n    return compile(code.rstrip().replace(\'\\r\\n\',\'\\n\')+\'\\n\', layer, \'exec\')\n  File "/Users/hainna01/Downloads/web2py/applications/Starcraft2/controllers/default.py", line 118\n    form = SQLFORM.factory(Field(\'Unit\',requires=IS_IN_SET(alist)default=alist[0]),Field(\'Supply\',requires=IS_IN_SET([1,2,3,4,5,6,7,8,9]),default=2),hidden=dict(race=request.vars.race,unit=request.vars.unit,supply=request.vars.supply))\n                                                                       ^\nSyntaxError: invalid syntax\n'
p5508
s.