(dp1
S'output'
p2
S"<type 'exceptions.ValueError'> invalid literal for int() with base 10: ''"
p3
sS'layer'
p4
S'/Users/hainna01/Downloads/web2py/applications/Starcraft2/controllers/default.py'
p5
sS'code'
p6
S'# -*- coding: utf-8 -*-\n# this file is released under public domain and you can use without limitations\n\n#########################################################################\n## This is a samples controller\n## - index is the default action of any application\n## - user is required for authentication and authorization\n## - download is for downloading files uploaded in the db (does streaming)\n## - call exposes all registered services (none by default)\n#########################################################################\nimport requests\nimport bs4\nimport re\n\nr = requests.get(\'http://sc2pod.com/feeds/news.xml\')\nf = bs4.BeautifulSoup(r.text)\n\nd = {}\nd[\'1\'] = []\nd[\'2\'] = [\'20\']\nd[\'3\'] = [\'20\',\'24\']\nd[\'4\'] = [\'20\',\'24\']\nd[\'5\'] = [\'26\']\nd[\'6\'] = [\'26\']\nd[\'7\'] = [\'27\']\nd[\'8\'] = [\'30\']\nd[\'9\'] = [\'27\']\nd[\'10\'] = [\'27\']\nd[\'11\'] = [\'28\']\nd[\'12\'] = [\'29\']\nd[\'13\'] = [\'28\']\nd[\'14\'] = [\'31\']\nd[\'15\'] = [\'31\']\nd[\'16\'] = [\'31\']\nd[\'17\'] = []\nd[\'18\'] = []\nd[\'19\'] = []\nd[\'20\'] = []\nd[\'21\'] = []\nd[\'22\'] = [\'21\']\nd[\'23\'] = [\'20\',\'24\']\nd[\'24\'] = [\'20\']\nd[\'25\'] = [\'24\']\nd[\'26\'] = [\'24\']\nd[\'27\'] = [\'24\']\nd[\'28\'] = [\'25\']\nd[\'29\'] = [\'25\']\nd[\'30\'] = [\'24\']\nd[\'31\'] = [\'27\']\nd[\'32\'] = []\nd[\'33\'] = []\nd[\'34\'] = []\nd[\'35\'] = [\'52\']\nd[\'36\'] = [\'52\']\nd[\'37\'] = [\'56\']\nd[\'38\'] = [\'57\']\nd[\'39\'] = [\'58\']\nd[\'40\'] = [\'59\']\nd[\'41\'] = [\'60\']\nd[\'42\'] = [\'41\']\nd[\'43\'] = [\'61\']\nd[\'44\'] = [\'61\']\nd[\'45\'] = [\'62\']\nd[\'46\'] = [\'64\']\nd[\'47\'] = [\'65\']\nd[\'48\'] = [\'47\']\nd[\'49\'] = [\'39\']\nd[\'50\'] = []\nd[\'51\'] = []\nd[\'52\'] = []\nd[\'53\'] = [\'52\']\nd[\'54\'] = [\'52\']\nd[\'55\'] = [\'53\']\nd[\'56\'] = [\'58\']\nd[\'57\'] = [\'52\']\nd[\'58\'] = [\'52\']\nd[\'59\'] = [\'52\']\nd[\'60\'] = [\'58\']\nd[\'61\'] = [\'58\']\nd[\'62\'] = [\'58\']\nd[\'63\'] = [\'58\']\nd[\'64\'] = [\'63\']\nd[\'65\'] = [\'63\',]\nd[\'66\'] = [\'36\']\nd[\'67\'] = []\nd[\'68\'] = [\'87\']\nd[\'69\'] = [\'86\']\nd[\'70\'] = [\'86\',\'98\']\nd[\'71\'] = [\'86\',\'98\']\nd[\'72\'] = [\'86\',\'94\',\'98\']\nd[\'73\'] = [\'93\']\nd[\'74\'] = [\'93\',\'98\']\nd[\'75\'] = [\'93\',\'95\',\'98\']\nd[\'76\'] = [\'96\']\nd[\'77\'] = [\'96\']\nd[\'78\'] = [\'96\',\'98\']\nd[\'79\'] = [\'96\',\'98\']\nd[\'80\'] = [\'96\',\'97\',\'98\']\nd[\'81\'] = [\'78\']\nd[\'82\'] = [\'78\']\nd[\'83\'] = []\nd[\'84\'] = []\nd[\'85\'] = []\nd[\'86\'] = [\'84\']\nd[\'87\'] = [\'83\']\nd[\'88\'] = [\'87\']\nd[\'89\'] = [\'86\']\nd[\'90\'] = [\'86\']\nd[\'91\'] = [\'89\']\nd[\'92\'] = [\'89\']\nd[\'93\'] = [\'86\']\nd[\'94\'] = [\'86\']\nd[\'95\'] = [\'93\']\nd[\'96\'] = [\'93\']\nd[\'97\'] = [\'96\']\nd[\'98\'] = []\nd[\'99\'] = []\n\n@auth.requires_login()\ndef index():\n\t\n\n\t\n\ttable = db(db.Unit)\n\tif len(table.select())<1:\n\t\t\n\t\tlinks = [\'http://sc2armory.com/game/protoss/units\',\'http://sc2armory.com/game/protoss/buildings\',\'http://sc2armory.com/game/zerg/units\',\'http://sc2armory.com/game/zerg/buildings\',\'http://sc2armory.com/game/terran/units\',\'http://sc2armory.com/game/terran/buildings\']\n\n\t\tfor alink in links:\n\t\t\tr = requests.get(alink)\n\t\t\tsoup = bs4.BeautifulSoup(r.text)\n\t\t\ttable = soup.find(\'table\')\n\n\t\t\trows = table.findAll(\'tr\')\n\n\t\t\tfor i in range(1,len(rows)):\n\t\t\t\trow = rows[i].find_all(\'td\')\n\t\t\t\tm = re.search(\'(\\w+)<\',str(row[1]))\n\t\t\t\tn = re.search(\'\\/img(.+)([0-9]{9,10})\',str(row))\n\t\t\t\talink = \'http://sc2armory.com/img\'\n\t\t\t\tfor item in n.groups(0):\n\t\t\t\t\talink = alink +str(item)\n\t\t\t\tif \'terran\' in alink:\n\t\t\t\t\tarace = \'terran\'\n\t\t\t\telse:\n\t\t\t\t\tif \'zerg\' in alink:\n\t\t\t\t\t\tarace=\'zerg\'\n\t\t\t\t\telse:\n\t\t\t\t\t\tarace = \'protoss\'\n\t\t\t\tdb.Unit.insert(name=str(m.groups(0)[0]),link=str(alink),race=str(arace))\n\t\t\t\n\t"""\n\texample action using the internationalization operator T and flash\n\trendered by views/default/index.html or views/generic.html\n\t"""\n\n\treturn dict(message=db(db.Unit).select(),feed=f)\n\ndef user():\n\t"""\n\texposes:\n\thttp://..../[app]/default/user/login\n\thttp://..../[app]/default/user/logout\n\thttp://..../[app]/default/user/register\n\thttp://..../[app]/default/user/profile\n\thttp://..../[app]/default/user/retrieve_password\n\thttp://..../[app]/default/user/change_password\n\tuse @auth.requires_login()\n\t\t@auth.requires_membership(\'group name\')\n\t\t@auth.requires_permission(\'read\',\'table name\',record_id)\n\tto decorate functions that need access control\n\t"""\n\treturn dict(form=auth())\n\n\ndef download():\n\t"""\n\tallows downloading of uploaded files\n\thttp://..../[app]/default/download/[filename]\n\t"""\n\treturn response.download(request,db)\n\n\ndef call():\n\t"""\n\texposes services. for example:\n\thttp://..../[app]/default/call/jsonrpc\n\tdecorate with @services.jsonrpc the functions to expose\n\tsupports xml, json, xmlrpc, jsonrpc, amfrpc, rss, csv\n\t"""\n\treturn service()\n\n\n@auth.requires_signature()\ndef data():\n\t"""\n\thttp://..../[app]/default/data/tables\n\thttp://..../[app]/default/data/create/[table]\n\thttp://..../[app]/default/data/read/[table]/[id]\n\thttp://..../[app]/default/data/update/[table]/[id]\n\thttp://..../[app]/default/data/delete/[table]/[id]\n\thttp://..../[app]/default/data/select/[table]\n\thttp://..../[app]/default/data/search/[table]\n\tbut URLs must be signed, i.e. linked with\n\t  A(\'table\',_href=URL(\'data/tables\',user_signature=True))\n\tor with the signed load operator\n\t  LOAD(\'default\',\'data.load\',args=\'tables\',ajax=True,user_signature=True)\n\t"""\n\treturn dict(form=crud())\n\ndef build():\n\t\n\tmessage= db(db.Unit.race==request.vars.race).select().as_list()\n\tnumlist = []\n\tfor i in range(5,151):\n\t\tnumlist.append(i)\n\talist= []\n\tfor unit in message:\n\t\talist.append(unit[\'name\'])\n\talist.sort()\n\tif request.vars.Unit:\n\t\tnumlist = filter(lambda a:a>int(request.vars.Supply),numlist)\n\t\tmybuild = db(db.Build.id==request.vars.build).select().first()\n\t\tneededUnits=False\n\t\tfailUnit= None\n\t\treqUnits=0\n\t\tcheckUnit = db(db.Unit.name==request.vars.Unit).select().first()\n\t\tfor item in d[str(checkUnit.id)]:\n\t\t\tif checkIt(item,request.vars.unit):\n\t\t\t\treqUnits +=1\n\t\t\telse:\n\t\t\t\tfailUnit = db(db.Unit.id==item).select().first()\n\t\tif len(d[str(checkUnit.id)])==reqUnits:\n\t\t\tneededUnits=True\n\t\t\t\n\t\tif neededUnits==True:\n\t\t\tform = SQLFORM.factory(Field(\'Unit\',requires=IS_IN_SET(alist),default=alist[0]),Field(\'Supply\',requires=IS_IN_SET(numlist),default=2),hidden=dict(race=request.vars.race,unit=request.vars.unit+request.vars.Unit+\'||\',supply=request.vars.supply+request.vars.Supply+\'||\',build=request.vars.build,buildname=request.vars.buildname))\n\t\t\tunitlist = request.vars.unit +request.vars.Unit+\'||\'\n\t\t\tsupplylist = request.vars.supply + request.vars.Supply + \'||\'\n\t\t\tmybuild.update_record(unitList=unitlist)\n\t\t\tmybuild.update_record(supplyList=supplylist)\n\t\telse:\n\t\t\tform = SQLFORM.factory(Field(\'Unit\',requires=IS_IN_SET(alist),default=alist[0]),Field(\'Supply\',requires=IS_IN_SET(numlist),default=5),hidden=dict(race=request.vars.race,unit=request.vars.unit,supply=request.vars.supply,build=request.vars.build,buildname=request.vars.buildname))\n\t\t\tunitlist = request.vars.unit\n\t\t\tsupplylist = request.vars.supply\n\t\t\tresponse.flash="Need a "+ str(failUnit.name)\n\t\t\n\telse:\n\t\tbuildNum=db.Build.insert(name=request.vars.buildname,userid=auth.user.id,unitList=\'\',supplyList=\'\')\n\t\tform = SQLFORM.factory(Field(\'Unit\',requires=IS_IN_SET(alist),default=alist[0]),Field(\'Supply\',requires=IS_IN_SET(numlist),default=5),hidden=dict(race=request.vars.race,unit=request.vars.unit,supply=request.vars.supply,build=buildNum,buildname=request.vars.buildname))\n\t\tunitlist=\'\'\n\t\tsupplylist=\'\'\n\t\t\n\tunitlist = unitlist.split(\'||\')\n\tunitlist = filter(lambda a:a!=\'\',unitlist)\n\tsupplylist = supplylist.split(\'||\')\n\tsupplylist = filter(lambda a:a!=\'\',supplylist)\n\tfor i in range(len(unitlist)):\n\t\trow = db(db.Unit.name==unitlist[i]).select()\n\t\tunitlist[i] = row.as_list()\n\treturn dict(form=form,unitlist=unitlist,supplylist=supplylist,feed=f)\n\t\ndef mybuild():\n\tbuildUnits = []\n\tbuildSupplies = []\n\tbuildNames=[]\n\tbuildIDs=[]\n\tbuilds = db(db.Build.userid==auth.user.id).select()\n\tfor build in builds:\n\t\tbuildIDs.append(build.id)\n\t\tbuildNames.append(build.name)\n\t\tunitlist = build.unitList.split(\'||\')\n\t\tunitlist = filter(lambda a:a!=\'\',unitlist)\n\t\tsupplylist = build.supplyList.split(\'||\')\n\t\tsupplylist = filter(lambda a:a!=\'\',supplylist)\n\t\tbuildUnits.append(unitlist)\n\t\tbuildSupplies.append(supplylist)\n\treturn dict(buildUnits=buildUnits,buildSupplies=buildSupplies,buildNames=buildNames,buildIDs=buildIDs,feed=f)\n\t\ndef delete():\n\tquery = db(db.Build.id==request.args(0).replace(\'_\',\' \')).select().first()\n\tremove = db(db.Build.id==query).delete()\n\tif remove:\n\t\t redirect(URL(\'Starcraft2\',\'default\',\'mybuild\'))\n\treturn dict(remove=remove)\n\t\ndef checkIt(unitnum, unitList):\n\tprint(unitnum)\n\tprint(unitList)\n\tunit = db(db.Unit.id==unitnum).select().first()\n\tif unit.name in unitList:\n\t\treturn True\n\telse:\n\t\treturn False\n\t#Get id number of proposed unit, and current units\n\t#Create hardcde requirement list\n\t#if fine, redirect to build, passing the same argruments\n\t#else, flash.response \n\t\n\nresponse._vars=response._caller(build)\n'
p7
sS'snapshot'
p8
(dp9
S'exception'
p10
(dp11
S'__hash__'
p12
S"<method-wrapper '__hash__' of exceptions.ValueError object>"
p13
sS'__setattr__'
p14
S"<method-wrapper '__setattr__' of exceptions.ValueError object>"
p15
sS'__reduce_ex__'
p16
S'<built-in method __reduce_ex__ of exceptions.ValueError object>'
p17
sS'__getslice__'
p18
S"<method-wrapper '__getslice__' of exceptions.ValueError object>"
p19
sS'__getitem__'
p20
S"<method-wrapper '__getitem__' of exceptions.ValueError object>"
p21
sS'__setstate__'
p22
S'<built-in method __setstate__ of exceptions.ValueError object>'
p23
sS'args'
p24
S'("invalid literal for int() with base 10: \'\'",)'
p25
sS'__reduce__'
p26
S'<built-in method __reduce__ of exceptions.ValueError object>'
p27
sS'__str__'
p28
S"<method-wrapper '__str__' of exceptions.ValueError object>"
p29
sS'__format__'
p30
S'<built-in method __format__ of exceptions.ValueError object>'
p31
sS'__getattribute__'
p32
S"<method-wrapper '__getattribute__' of exceptions.ValueError object>"
p33
sS'__class__'
p34
S"<type 'exceptions.ValueError'>"
p35
sS'__unicode__'
p36
S'<built-in method __unicode__ of exceptions.ValueError object>'
p37
sS'__delattr__'
p38
S"<method-wrapper '__delattr__' of exceptions.ValueError object>"
p39
sS'__subclasshook__'
p40
S'<built-in method __subclasshook__ of type object>'
p41
sS'__repr__'
p42
S"<method-wrapper '__repr__' of exceptions.ValueError object>"
p43
sS'__dict__'
p44
S'{}'
p45
sS'__sizeof__'
p46
S'<built-in method __sizeof__ of exceptions.ValueError object>'
p47
sS'__doc__'
p48
S"'Inappropriate argument value (of correct type).'"
p49
sS'__init__'
p50
S"<method-wrapper '__init__' of exceptions.ValueError object>"
p51
sS'__new__'
p52
S'<built-in method __new__ of type object>'
p53
ssS'evalue'
p54
S"invalid literal for int() with base 10: ''"
p55
sS'request'
p56
ccopy_reg
_reconstructor
p57
(cgluon.html
BEAUTIFY
p58
c__builtin__
object
p59
NtRp60
(dp61
S'attributes'
p62
(dp63
sS'components'
p64
(lp65
g57
(cgluon.html
TABLE
p66
g59
NtRp67
(dp68
g62
(dp69
S'level'
p70
I5
ssS'parent'
p71
Nsg64
(lp72
g57
(cgluon.html
TR
p73
g59
NtRp74
(dp75
g62
(dp76
sg71
g67
sg64
(lp77
g57
(cgluon.html
TD
p78
g59
NtRp79
(dp80
g62
(dp81
S'_style'
p82
S'font-weight:bold;vertical-align:top'
p83
ssg71
g74
sg64
(lp84
S'ajax'
p85
asbag57
(g78
g59
NtRp86
(dp87
g62
(dp88
S'_valign'
p89
S'top'
p90
ssg71
g74
sg64
(lp91
S':'
asbag57
(g78
g59
NtRp92
(dp93
g62
(dp94
sg71
g74
sg64
(lp95
g57
(g58
g59
NtRp96
(dp97
g62
(dp98
g70
I5
ssg71
g92
sg64
(lp99
S'False'
p100
asbasbasbag57
(g73
g59
NtRp101
(dp102
g62
(dp103
sg71
g67
sg64
(lp104
g57
(g78
g59
NtRp105
(dp106
g62
(dp107
g82
g83
ssg71
g101
sg64
(lp108
S'application'
p109
asbag57
(g78
g59
NtRp110
(dp111
g62
(dp112
g89
g90
ssg71
g101
sg64
(lp113
S':'
asbag57
(g78
g59
NtRp114
(dp115
g62
(dp116
sg71
g101
sg64
(lp117
g57
(g58
g59
NtRp118
(dp119
g62
(dp120
g70
I5
ssg71
g114
sg64
(lp121
S'Starcraft2'
p122
asbasbasbag57
(g73
g59
NtRp123
(dp124
g62
(dp125
sg71
g67
sg64
(lp126
g57
(g78
g59
NtRp127
(dp128
g62
(dp129
g82
g83
ssg71
g123
sg64
(lp130
g24
asbag57
(g78
g59
NtRp131
(dp132
g62
(dp133
g89
g90
ssg71
g123
sg64
(lp134
S':'
asbag57
(g78
g59
NtRp135
(dp136
g62
(dp137
sg71
g123
sg64
(lp138
g57
(g58
g59
NtRp139
(dp140
g62
(dp141
g70
I5
ssg71
g135
sg64
(lp142
g57
(g66
g59
NtRp143
(dp144
g62
(dp145
g70
I4
ssg71
Nsg64
(lp146
sbasbasbasbag57
(g73
g59
NtRp147
(dp148
g62
(dp149
sg71
g67
sg64
(lp150
g57
(g78
g59
NtRp151
(dp152
g62
(dp153
g82
g83
ssg71
g147
sg64
(lp154
S'body'
p155
asbag57
(g78
g59
NtRp156
(dp157
g62
(dp158
g89
g90
ssg71
g147
sg64
(lp159
S':'
asbag57
(g78
g59
NtRp160
(dp161
g62
(dp162
sg71
g147
sg64
(lp163
g57
(g58
g59
NtRp164
(dp165
g62
(dp166
g70
I5
ssg71
g160
sg64
(lp167
S"<open file '<fdopen>', mode 'w+b' at 0x10c304c90>"
p168
asbasbasbag57
(g73
g59
NtRp169
(dp170
g62
(dp171
sg71
g67
sg64
(lp172
g57
(g78
g59
NtRp173
(dp174
g62
(dp175
g82
g83
ssg71
g169
sg64
(lp176
S'client'
p177
asbag57
(g78
g59
NtRp178
(dp179
g62
(dp180
g89
g90
ssg71
g169
sg64
(lp181
S':'
asbag57
(g78
g59
NtRp182
(dp183
g62
(dp184
sg71
g169
sg64
(lp185
g57
(g58
g59
NtRp186
(dp187
g62
(dp188
g70
I5
ssg71
g182
sg64
(lp189
S'127.0.0.1'
p190
asbasbasbag57
(g73
g59
NtRp191
(dp192
g62
(dp193
sg71
g67
sg64
(lp194
g57
(g78
g59
NtRp195
(dp196
g62
(dp197
g82
g83
ssg71
g191
sg64
(lp198
S'controller'
p199
asbag57
(g78
g59
NtRp200
(dp201
g62
(dp202
g89
g90
ssg71
g191
sg64
(lp203
S':'
asbag57
(g78
g59
NtRp204
(dp205
g62
(dp206
sg71
g191
sg64
(lp207
g57
(g58
g59
NtRp208
(dp209
g62
(dp210
g70
I5
ssg71
g204
sg64
(lp211
S'default'
p212
asbasbasbag57
(g73
g59
NtRp213
(dp214
g62
(dp215
sg71
g67
sg64
(lp216
g57
(g78
g59
NtRp217
(dp218
g62
(dp219
g82
g83
ssg71
g213
sg64
(lp220
S'cookies'
p221
asbag57
(g78
g59
NtRp222
(dp223
g62
(dp224
g89
g90
ssg71
g213
sg64
(lp225
S':'
asbag57
(g78
g59
NtRp226
(dp227
g62
(dp228
sg71
g213
sg64
(lp229
g57
(g58
g59
NtRp230
(dp231
g62
(dp232
g70
I5
ssg71
g226
sg64
(lp233
g57
(g66
g59
NtRp234
(dp235
g62
(dp236
g70
I4
ssg71
Nsg64
(lp237
g57
(g73
g59
NtRp238
(dp239
g62
(dp240
sg71
g234
sg64
(lp241
g57
(g78
g59
NtRp242
(dp243
g62
(dp244
g82
g83
ssg71
g238
sg64
(lp245
S'session_id_admin'
p246
asbag57
(g78
g59
NtRp247
(dp248
g62
(dp249
g89
g90
ssg71
g238
sg64
(lp250
S':'
asbag57
(g78
g59
NtRp251
(dp252
g62
(dp253
sg71
g238
sg64
(lp254
g57
(g58
g59
NtRp255
(dp256
g62
(dp257
g70
I4
ssg71
g251
sg64
(lp258
g57
(g66
g59
NtRp259
(dp260
g62
(dp261
g70
I3
ssg71
Nsg64
(lp262
g57
(g73
g59
NtRp263
(dp264
g62
(dp265
sg71
g259
sg64
(lp266
g57
(g78
g59
NtRp267
(dp268
g62
(dp269
g82
g83
ssg71
g263
sg64
(lp270
S'comment'
p271
asbag57
(g78
g59
NtRp272
(dp273
g62
(dp274
g89
g90
ssg71
g263
sg64
(lp275
S':'
asbag57
(g78
g59
NtRp276
(dp277
g62
(dp278
sg71
g263
sg64
(lp279
g57
(g58
g59
NtRp280
(dp281
g62
(dp282
g70
I3
ssg71
g276
sg64
(lp283
S''
asbasbasbag57
(g73
g59
NtRp284
(dp285
g62
(dp286
sg71
g259
sg64
(lp287
g57
(g78
g59
NtRp288
(dp289
g62
(dp290
g82
g83
ssg71
g284
sg64
(lp291
S'domain'
p292
asbag57
(g78
g59
NtRp293
(dp294
g62
(dp295
g89
g90
ssg71
g284
sg64
(lp296
S':'
asbag57
(g78
g59
NtRp297
(dp298
g62
(dp299
sg71
g284
sg64
(lp300
g57
(g58
g59
NtRp301
(dp302
g62
(dp303
g70
I3
ssg71
g297
sg64
(lp304
S''
asbasbasbag57
(g73
g59
NtRp305
(dp306
g62
(dp307
sg71
g259
sg64
(lp308
g57
(g78
g59
NtRp309
(dp310
g62
(dp311
g82
g83
ssg71
g305
sg64
(lp312
S'expires'
p313
asbag57
(g78
g59
NtRp314
(dp315
g62
(dp316
g89
g90
ssg71
g305
sg64
(lp317
S':'
asbag57
(g78
g59
NtRp318
(dp319
g62
(dp320
sg71
g305
sg64
(lp321
g57
(g58
g59
NtRp322
(dp323
g62
(dp324
g70
I3
ssg71
g318
sg64
(lp325
S''
asbasbasbag57
(g73
g59
NtRp326
(dp327
g62
(dp328
sg71
g259
sg64
(lp329
g57
(g78
g59
NtRp330
(dp331
g62
(dp332
g82
g83
ssg71
g326
sg64
(lp333
S'httponly'
p334
asbag57
(g78
g59
NtRp335
(dp336
g62
(dp337
g89
g90
ssg71
g326
sg64
(lp338
S':'
asbag57
(g78
g59
NtRp339
(dp340
g62
(dp341
sg71
g326
sg64
(lp342
g57
(g58
g59
NtRp343
(dp344
g62
(dp345
g70
I3
ssg71
g339
sg64
(lp346
S''
asbasbasbag57
(g73
g59
NtRp347
(dp348
g62
(dp349
sg71
g259
sg64
(lp350
g57
(g78
g59
NtRp351
(dp352
g62
(dp353
g82
g83
ssg71
g347
sg64
(lp354
S'max-age'
p355
asbag57
(g78
g59
NtRp356
(dp357
g62
(dp358
g89
g90
ssg71
g347
sg64
(lp359
S':'
asbag57
(g78
g59
NtRp360
(dp361
g62
(dp362
sg71
g347
sg64
(lp363
g57
(g58
g59
NtRp364
(dp365
g62
(dp366
g70
I3
ssg71
g360
sg64
(lp367
S''
asbasbasbag57
(g73
g59
NtRp368
(dp369
g62
(dp370
sg71
g259
sg64
(lp371
g57
(g78
g59
NtRp372
(dp373
g62
(dp374
g82
g83
ssg71
g368
sg64
(lp375
S'path'
p376
asbag57
(g78
g59
NtRp377
(dp378
g62
(dp379
g89
g90
ssg71
g368
sg64
(lp380
S':'
asbag57
(g78
g59
NtRp381
(dp382
g62
(dp383
sg71
g368
sg64
(lp384
g57
(g58
g59
NtRp385
(dp386
g62
(dp387
g70
I3
ssg71
g381
sg64
(lp388
S''
asbasbasbag57
(g73
g59
NtRp389
(dp390
g62
(dp391
sg71
g259
sg64
(lp392
g57
(g78
g59
NtRp393
(dp394
g62
(dp395
g82
g83
ssg71
g389
sg64
(lp396
S'secure'
p397
asbag57
(g78
g59
NtRp398
(dp399
g62
(dp400
g89
g90
ssg71
g389
sg64
(lp401
S':'
asbag57
(g78
g59
NtRp402
(dp403
g62
(dp404
sg71
g389
sg64
(lp405
g57
(g58
g59
NtRp406
(dp407
g62
(dp408
g70
I3
ssg71
g402
sg64
(lp409
S''
asbasbasbag57
(g73
g59
NtRp410
(dp411
g62
(dp412
sg71
g259
sg64
(lp413
g57
(g78
g59
NtRp414
(dp415
g62
(dp416
g82
g83
ssg71
g410
sg64
(lp417
S'version'
p418
asbag57
(g78
g59
NtRp419
(dp420
g62
(dp421
g89
g90
ssg71
g410
sg64
(lp422
S':'
asbag57
(g78
g59
NtRp423
(dp424
g62
(dp425
sg71
g410
sg64
(lp426
g57
(g58
g59
NtRp427
(dp428
g62
(dp429
g70
I3
ssg71
g423
sg64
(lp430
S''
asbasbasbasbasbasbasbag57
(g73
g59
NtRp431
(dp432
g62
(dp433
sg71
g234
sg64
(lp434
g57
(g78
g59
NtRp435
(dp436
g62
(dp437
g82
g83
ssg71
g431
sg64
(lp438
S'session_id_starcraft2'
p439
asbag57
(g78
g59
NtRp440
(dp441
g62
(dp442
g89
g90
ssg71
g431
sg64
(lp443
S':'
asbag57
(g78
g59
NtRp444
(dp445
g62
(dp446
sg71
g431
sg64
(lp447
g57
(g58
g59
NtRp448
(dp449
g62
(dp450
g70
I4
ssg71
g444
sg64
(lp451
g57
(g66
g59
NtRp452
(dp453
g62
(dp454
g70
I3
ssg71
Nsg64
(lp455
g57
(g73
g59
NtRp456
(dp457
g62
(dp458
sg71
g452
sg64
(lp459
g57
(g78
g59
NtRp460
(dp461
g62
(dp462
g82
g83
ssg71
g456
sg64
(lp463
g271
asbag57
(g78
g59
NtRp464
(dp465
g62
(dp466
g89
g90
ssg71
g456
sg64
(lp467
S':'
asbag57
(g78
g59
NtRp468
(dp469
g62
(dp470
sg71
g456
sg64
(lp471
g57
(g58
g59
NtRp472
(dp473
g62
(dp474
g70
I3
ssg71
g468
sg64
(lp475
S''
asbasbasbag57
(g73
g59
NtRp476
(dp477
g62
(dp478
sg71
g452
sg64
(lp479
g57
(g78
g59
NtRp480
(dp481
g62
(dp482
g82
g83
ssg71
g476
sg64
(lp483
g292
asbag57
(g78
g59
NtRp484
(dp485
g62
(dp486
g89
g90
ssg71
g476
sg64
(lp487
S':'
asbag57
(g78
g59
NtRp488
(dp489
g62
(dp490
sg71
g476
sg64
(lp491
g57
(g58
g59
NtRp492
(dp493
g62
(dp494
g70
I3
ssg71
g488
sg64
(lp495
S''
asbasbasbag57
(g73
g59
NtRp496
(dp497
g62
(dp498
sg71
g452
sg64
(lp499
g57
(g78
g59
NtRp500
(dp501
g62
(dp502
g82
g83
ssg71
g496
sg64
(lp503
g313
asbag57
(g78
g59
NtRp504
(dp505
g62
(dp506
g89
g90
ssg71
g496
sg64
(lp507
S':'
asbag57
(g78
g59
NtRp508
(dp509
g62
(dp510
sg71
g496
sg64
(lp511
g57
(g58
g59
NtRp512
(dp513
g62
(dp514
g70
I3
ssg71
g508
sg64
(lp515
S''
asbasbasbag57
(g73
g59
NtRp516
(dp517
g62
(dp518
sg71
g452
sg64
(lp519
g57
(g78
g59
NtRp520
(dp521
g62
(dp522
g82
g83
ssg71
g516
sg64
(lp523
g334
asbag57
(g78
g59
NtRp524
(dp525
g62
(dp526
g89
g90
ssg71
g516
sg64
(lp527
S':'
asbag57
(g78
g59
NtRp528
(dp529
g62
(dp530
sg71
g516
sg64
(lp531
g57
(g58
g59
NtRp532
(dp533
g62
(dp534
g70
I3
ssg71
g528
sg64
(lp535
S''
asbasbasbag57
(g73
g59
NtRp536
(dp537
g62
(dp538
sg71
g452
sg64
(lp539
g57
(g78
g59
NtRp540
(dp541
g62
(dp542
g82
g83
ssg71
g536
sg64
(lp543
g355
asbag57
(g78
g59
NtRp544
(dp545
g62
(dp546
g89
g90
ssg71
g536
sg64
(lp547
S':'
asbag57
(g78
g59
NtRp548
(dp549
g62
(dp550
sg71
g536
sg64
(lp551
g57
(g58
g59
NtRp552
(dp553
g62
(dp554
g70
I3
ssg71
g548
sg64
(lp555
S''
asbasbasbag57
(g73
g59
NtRp556
(dp557
g62
(dp558
sg71
g452
sg64
(lp559
g57
(g78
g59
NtRp560
(dp561
g62
(dp562
g82
g83
ssg71
g556
sg64
(lp563
g376
asbag57
(g78
g59
NtRp564
(dp565
g62
(dp566
g89
g90
ssg71
g556
sg64
(lp567
S':'
asbag57
(g78
g59
NtRp568
(dp569
g62
(dp570
sg71
g556
sg64
(lp571
g57
(g58
g59
NtRp572
(dp573
g62
(dp574
g70
I3
ssg71
g568
sg64
(lp575
S''
asbasbasbag57
(g73
g59
NtRp576
(dp577
g62
(dp578
sg71
g452
sg64
(lp579
g57
(g78
g59
NtRp580
(dp581
g62
(dp582
g82
g83
ssg71
g576
sg64
(lp583
g397
asbag57
(g78
g59
NtRp584
(dp585
g62
(dp586
g89
g90
ssg71
g576
sg64
(lp587
S':'
asbag57
(g78
g59
NtRp588
(dp589
g62
(dp590
sg71
g576
sg64
(lp591
g57
(g58
g59
NtRp592
(dp593
g62
(dp594
g70
I3
ssg71
g588
sg64
(lp595
S''
asbasbasbag57
(g73
g59
NtRp596
(dp597
g62
(dp598
sg71
g452
sg64
(lp599
g57
(g78
g59
NtRp600
(dp601
g62
(dp602
g82
g83
ssg71
g596
sg64
(lp603
g418
asbag57
(g78
g59
NtRp604
(dp605
g62
(dp606
g89
g90
ssg71
g596
sg64
(lp607
S':'
asbag57
(g78
g59
NtRp608
(dp609
g62
(dp610
sg71
g596
sg64
(lp611
g57
(g58
g59
NtRp612
(dp613
g62
(dp614
g70
I3
ssg71
g608
sg64
(lp615
S''
asbasbasbasbasbasbasbag57
(g73
g59
NtRp616
(dp617
g62
(dp618
sg71
g234
sg64
(lp619
g57
(g78
g59
NtRp620
(dp621
g62
(dp622
g82
g83
ssg71
g616
sg64
(lp623
S'session_id_welcome'
p624
asbag57
(g78
g59
NtRp625
(dp626
g62
(dp627
g89
g90
ssg71
g616
sg64
(lp628
S':'
asbag57
(g78
g59
NtRp629
(dp630
g62
(dp631
sg71
g616
sg64
(lp632
g57
(g58
g59
NtRp633
(dp634
g62
(dp635
g70
I4
ssg71
g629
sg64
(lp636
g57
(g66
g59
NtRp637
(dp638
g62
(dp639
g70
I3
ssg71
Nsg64
(lp640
g57
(g73
g59
NtRp641
(dp642
g62
(dp643
sg71
g637
sg64
(lp644
g57
(g78
g59
NtRp645
(dp646
g62
(dp647
g82
g83
ssg71
g641
sg64
(lp648
g271
asbag57
(g78
g59
NtRp649
(dp650
g62
(dp651
g89
g90
ssg71
g641
sg64
(lp652
S':'
asbag57
(g78
g59
NtRp653
(dp654
g62
(dp655
sg71
g641
sg64
(lp656
g57
(g58
g59
NtRp657
(dp658
g62
(dp659
g70
I3
ssg71
g653
sg64
(lp660
S''
asbasbasbag57
(g73
g59
NtRp661
(dp662
g62
(dp663
sg71
g637
sg64
(lp664
g57
(g78
g59
NtRp665
(dp666
g62
(dp667
g82
g83
ssg71
g661
sg64
(lp668
g292
asbag57
(g78
g59
NtRp669
(dp670
g62
(dp671
g89
g90
ssg71
g661
sg64
(lp672
S':'
asbag57
(g78
g59
NtRp673
(dp674
g62
(dp675
sg71
g661
sg64
(lp676
g57
(g58
g59
NtRp677
(dp678
g62
(dp679
g70
I3
ssg71
g673
sg64
(lp680
S''
asbasbasbag57
(g73
g59
NtRp681
(dp682
g62
(dp683
sg71
g637
sg64
(lp684
g57
(g78
g59
NtRp685
(dp686
g62
(dp687
g82
g83
ssg71
g681
sg64
(lp688
g313
asbag57
(g78
g59
NtRp689
(dp690
g62
(dp691
g89
g90
ssg71
g681
sg64
(lp692
S':'
asbag57
(g78
g59
NtRp693
(dp694
g62
(dp695
sg71
g681
sg64
(lp696
g57
(g58
g59
NtRp697
(dp698
g62
(dp699
g70
I3
ssg71
g693
sg64
(lp700
S''
asbasbasbag57
(g73
g59
NtRp701
(dp702
g62
(dp703
sg71
g637
sg64
(lp704
g57
(g78
g59
NtRp705
(dp706
g62
(dp707
g82
g83
ssg71
g701
sg64
(lp708
g334
asbag57
(g78
g59
NtRp709
(dp710
g62
(dp711
g89
g90
ssg71
g701
sg64
(lp712
S':'
asbag57
(g78
g59
NtRp713
(dp714
g62
(dp715
sg71
g701
sg64
(lp716
g57
(g58
g59
NtRp717
(dp718
g62
(dp719
g70
I3
ssg71
g713
sg64
(lp720
S''
asbasbasbag57
(g73
g59
NtRp721
(dp722
g62
(dp723
sg71
g637
sg64
(lp724
g57
(g78
g59
NtRp725
(dp726
g62
(dp727
g82
g83
ssg71
g721
sg64
(lp728
g355
asbag57
(g78
g59
NtRp729
(dp730
g62
(dp731
g89
g90
ssg71
g721
sg64
(lp732
S':'
asbag57
(g78
g59
NtRp733
(dp734
g62
(dp735
sg71
g721
sg64
(lp736
g57
(g58
g59
NtRp737
(dp738
g62
(dp739
g70
I3
ssg71
g733
sg64
(lp740
S''
asbasbasbag57
(g73
g59
NtRp741
(dp742
g62
(dp743
sg71
g637
sg64
(lp744
g57
(g78
g59
NtRp745
(dp746
g62
(dp747
g82
g83
ssg71
g741
sg64
(lp748
g376
asbag57
(g78
g59
NtRp749
(dp750
g62
(dp751
g89
g90
ssg71
g741
sg64
(lp752
S':'
asbag57
(g78
g59
NtRp753
(dp754
g62
(dp755
sg71
g741
sg64
(lp756
g57
(g58
g59
NtRp757
(dp758
g62
(dp759
g70
I3
ssg71
g753
sg64
(lp760
S''
asbasbasbag57
(g73
g59
NtRp761
(dp762
g62
(dp763
sg71
g637
sg64
(lp764
g57
(g78
g59
NtRp765
(dp766
g62
(dp767
g82
g83
ssg71
g761
sg64
(lp768
g397
asbag57
(g78
g59
NtRp769
(dp770
g62
(dp771
g89
g90
ssg71
g761
sg64
(lp772
S':'
asbag57
(g78
g59
NtRp773
(dp774
g62
(dp775
sg71
g761
sg64
(lp776
g57
(g58
g59
NtRp777
(dp778
g62
(dp779
g70
I3
ssg71
g773
sg64
(lp780
S''
asbasbasbag57
(g73
g59
NtRp781
(dp782
g62
(dp783
sg71
g637
sg64
(lp784
g57
(g78
g59
NtRp785
(dp786
g62
(dp787
g82
g83
ssg71
g781
sg64
(lp788
g418
asbag57
(g78
g59
NtRp789
(dp790
g62
(dp791
g89
g90
ssg71
g781
sg64
(lp792
S':'
asbag57
(g78
g59
NtRp793
(dp794
g62
(dp795
sg71
g781
sg64
(lp796
g57
(g58
g59
NtRp797
(dp798
g62
(dp799
g70
I3
ssg71
g793
sg64
(lp800
S''
asbasbasbasbasbasbasbasbasbasbasbag57
(g73
g59
NtRp801
(dp802
g62
(dp803
sg71
g67
sg64
(lp804
g57
(g78
g59
NtRp805
(dp806
g62
(dp807
g82
g83
ssg71
g801
sg64
(lp808
S'env'
p809
asbag57
(g78
g59
NtRp810
(dp811
g62
(dp812
g89
g90
ssg71
g801
sg64
(lp813
S':'
asbag57
(g78
g59
NtRp814
(dp815
g62
(dp816
sg71
g801
sg64
(lp817
g57
(g58
g59
NtRp818
(dp819
g62
(dp820
g70
I5
ssg71
g814
sg64
(lp821
g57
(g66
g59
NtRp822
(dp823
g62
(dp824
g70
I4
ssg71
Nsg64
(lp825
g57
(g73
g59
NtRp826
(dp827
g62
(dp828
sg71
g822
sg64
(lp829
g57
(g78
g59
NtRp830
(dp831
g62
(dp832
g82
g83
ssg71
g826
sg64
(lp833
S'app_folders'
p834
asbag57
(g78
g59
NtRp835
(dp836
g62
(dp837
g89
g90
ssg71
g826
sg64
(lp838
S':'
asbag57
(g78
g59
NtRp839
(dp840
g62
(dp841
sg71
g826
sg64
(lp842
g57
(g58
g59
NtRp843
(dp844
g62
(dp845
g70
I4
ssg71
g839
sg64
(lp846
S"set(['/Users/hainna01/Downloads/web2py/applications/welcome/', '/Users/hainna01/Downloads/web2py/applications/Starcraft2/', '/Users/hainna01/Downloads/web2py/applications/admin/'])"
p847
asbasbasbag57
(g73
g59
NtRp848
(dp849
g62
(dp850
sg71
g822
sg64
(lp851
g57
(g78
g59
NtRp852
(dp853
g62
(dp854
g82
g83
ssg71
g848
sg64
(lp855
S'applications_parent'
p856
asbag57
(g78
g59
NtRp857
(dp858
g62
(dp859
g89
g90
ssg71
g848
sg64
(lp860
S':'
asbag57
(g78
g59
NtRp861
(dp862
g62
(dp863
sg71
g848
sg64
(lp864
g57
(g58
g59
NtRp865
(dp866
g62
(dp867
g70
I4
ssg71
g861
sg64
(lp868
S'/Users/hainna01/Downloads/web2py'
p869
asbasbasbag57
(g73
g59
NtRp870
(dp871
g62
(dp872
sg71
g822
sg64
(lp873
g57
(g78
g59
NtRp874
(dp875
g62
(dp876
g82
g83
ssg71
g870
sg64
(lp877
S'cmd_args'
p878
asbag57
(g78
g59
NtRp879
(dp880
g62
(dp881
g89
g90
ssg71
g870
sg64
(lp882
S':'
asbag57
(g78
g59
NtRp883
(dp884
g62
(dp885
sg71
g870
sg64
(lp886
g57
(g58
g59
NtRp887
(dp888
g62
(dp889
g70
I4
ssg71
g883
sg64
(lp890
g57
(g66
g59
NtRp891
(dp892
g62
(dp893
g70
I3
ssg71
Nsg64
(lp894
sbasbasbasbag57
(g73
g59
NtRp895
(dp896
g62
(dp897
sg71
g822
sg64
(lp898
g57
(g78
g59
NtRp899
(dp900
g62
(dp901
g82
g83
ssg71
g895
sg64
(lp902
S'cmd_options'
p903
asbag57
(g78
g59
NtRp904
(dp905
g62
(dp906
g89
g90
ssg71
g895
sg64
(lp907
S':'
asbag57
(g78
g59
NtRp908
(dp909
g62
(dp910
sg71
g895
sg64
(lp911
g57
(g58
g59
NtRp912
(dp913
g62
(dp914
g70
I4
ssg71
g908
sg64
(lp915
S"<Values at 0x101860560: {'verbose': False, 'ip': '127.0.0.1', 'shutdown_timeout': 5, 'taskbar': False, 'nocron': False, 'pid_filename': 'httpserver.pid', 'maxthreads': None, 'softcron': False, 'server_name': 'Nathans-MacBook-Pro.local', 'bpython': False, 'nogui': False, 'port': 8000, 'extcron': False, 'debuglevel': 30, 'test': None, 'folder': '/Users/hainna01/Downloads/web2py', 'config': '', 'import_models': False, 'winservice': '', 'shell': None, 'run': '', 'log_filename': 'httpserver.log', 'args': [''], 'socket_timeout': 5, 'ssl_ca_certificate': None, 'scheduler': None, 'profiler_filename': None, 'ssl_private_key': '', 'password': '<ask>', 'request_queue_size': 5, 'ssl_certificate': '', 'cronjob': False, 'numthreads': None, 'quiet': False, 'interfaces': None, 'minthreads': None, 'timeout': 10, 'plain': False, 'nobanner': False}>"
p916
asbasbasbag57
(g73
g59
NtRp917
(dp918
g62
(dp919
sg71
g822
sg64
(lp920
g57
(g78
g59
NtRp921
(dp922
g62
(dp923
g82
g83
ssg71
g917
sg64
(lp924
S'content_length'
p925
asbag57
(g78
g59
NtRp926
(dp927
g62
(dp928
g89
g90
ssg71
g917
sg64
(lp929
S':'
asbag57
(g78
g59
NtRp930
(dp931
g62
(dp932
sg71
g917
sg64
(lp933
g57
(g58
g59
NtRp934
(dp935
g62
(dp936
g70
I4
ssg71
g930
sg64
(lp937
S'745'
p938
asbasbasbag57
(g73
g59
NtRp939
(dp940
g62
(dp941
sg71
g822
sg64
(lp942
g57
(g78
g59
NtRp943
(dp944
g62
(dp945
g82
g83
ssg71
g939
sg64
(lp946
S'content_type'
p947
asbag57
(g78
g59
NtRp948
(dp949
g62
(dp950
g89
g90
ssg71
g939
sg64
(lp951
S':'
asbag57
(g78
g59
NtRp952
(dp953
g62
(dp954
sg71
g939
sg64
(lp955
g57
(g58
g59
NtRp956
(dp957
g62
(dp958
g70
I4
ssg71
g952
sg64
(lp959
S'multipart/form-data; boundary=----WebKitFormBoundary4nSiLUi2piShDZRB'
p960
asbasbasbag57
(g73
g59
NtRp961
(dp962
g62
(dp963
sg71
g822
sg64
(lp964
g57
(g78
g59
NtRp965
(dp966
g62
(dp967
g82
g83
ssg71
g961
sg64
(lp968
S'db_sessions'
p969
asbag57
(g78
g59
NtRp970
(dp971
g62
(dp972
g89
g90
ssg71
g961
sg64
(lp973
S':'
asbag57
(g78
g59
NtRp974
(dp975
g62
(dp976
sg71
g961
sg64
(lp977
g57
(g58
g59
NtRp978
(dp979
g62
(dp980
g70
I4
ssg71
g974
sg64
(lp981
S'set([])'
p982
asbasbasbag57
(g73
g59
NtRp983
(dp984
g62
(dp985
sg71
g822
sg64
(lp986
g57
(g78
g59
NtRp987
(dp988
g62
(dp989
g82
g83
ssg71
g983
sg64
(lp990
S'debugging'
p991
asbag57
(g78
g59
NtRp992
(dp993
g62
(dp994
g89
g90
ssg71
g983
sg64
(lp995
S':'
asbag57
(g78
g59
NtRp996
(dp997
g62
(dp998
sg71
g983
sg64
(lp999
g57
(g58
g59
NtRp1000
(dp1001
g62
(dp1002
g70
I4
ssg71
g996
sg64
(lp1003
g100
asbasbasbag57
(g73
g59
NtRp1004
(dp1005
g62
(dp1006
sg71
g822
sg64
(lp1007
g57
(g78
g59
NtRp1008
(dp1009
g62
(dp1010
g82
g83
ssg71
g1004
sg64
(lp1011
S'gluon_parent'
p1012
asbag57
(g78
g59
NtRp1013
(dp1014
g62
(dp1015
g89
g90
ssg71
g1004
sg64
(lp1016
S':'
asbag57
(g78
g59
NtRp1017
(dp1018
g62
(dp1019
sg71
g1004
sg64
(lp1020
g57
(g58
g59
NtRp1021
(dp1022
g62
(dp1023
g70
I4
ssg71
g1017
sg64
(lp1024
S'/Users/hainna01/Downloads/web2py'
p1025
asbasbasbag57
(g73
g59
NtRp1026
(dp1027
g62
(dp1028
sg71
g822
sg64
(lp1029
g57
(g78
g59
NtRp1030
(dp1031
g62
(dp1032
g82
g83
ssg71
g1026
sg64
(lp1033
S'http_accept'
p1034
asbag57
(g78
g59
NtRp1035
(dp1036
g62
(dp1037
g89
g90
ssg71
g1026
sg64
(lp1038
S':'
asbag57
(g78
g59
NtRp1039
(dp1040
g62
(dp1041
sg71
g1026
sg64
(lp1042
g57
(g58
g59
NtRp1043
(dp1044
g62
(dp1045
g70
I4
ssg71
g1039
sg64
(lp1046
S'text/html,application/xhtml+xml,application/xml;q=0.9,*/*;q=0.8'
p1047
asbasbasbag57
(g73
g59
NtRp1048
(dp1049
g62
(dp1050
sg71
g822
sg64
(lp1051
g57
(g78
g59
NtRp1052
(dp1053
g62
(dp1054
g82
g83
ssg71
g1048
sg64
(lp1055
S'http_accept_charset'
p1056
asbag57
(g78
g59
NtRp1057
(dp1058
g62
(dp1059
g89
g90
ssg71
g1048
sg64
(lp1060
S':'
asbag57
(g78
g59
NtRp1061
(dp1062
g62
(dp1063
sg71
g1048
sg64
(lp1064
g57
(g58
g59
NtRp1065
(dp1066
g62
(dp1067
g70
I4
ssg71
g1061
sg64
(lp1068
S'ISO-8859-1,utf-8;q=0.7,*;q=0.3'
p1069
asbasbasbag57
(g73
g59
NtRp1070
(dp1071
g62
(dp1072
sg71
g822
sg64
(lp1073
g57
(g78
g59
NtRp1074
(dp1075
g62
(dp1076
g82
g83
ssg71
g1070
sg64
(lp1077
S'http_accept_encoding'
p1078
asbag57
(g78
g59
NtRp1079
(dp1080
g62
(dp1081
g89
g90
ssg71
g1070
sg64
(lp1082
S':'
asbag57
(g78
g59
NtRp1083
(dp1084
g62
(dp1085
sg71
g1070
sg64
(lp1086
g57
(g58
g59
NtRp1087
(dp1088
g62
(dp1089
g70
I4
ssg71
g1083
sg64
(lp1090
S'gzip,deflate,sdch'
p1091
asbasbasbag57
(g73
g59
NtRp1092
(dp1093
g62
(dp1094
sg71
g822
sg64
(lp1095
g57
(g78
g59
NtRp1096
(dp1097
g62
(dp1098
g82
g83
ssg71
g1092
sg64
(lp1099
S'http_accept_language'
p1100
asbag57
(g78
g59
NtRp1101
(dp1102
g62
(dp1103
g89
g90
ssg71
g1092
sg64
(lp1104
S':'
asbag57
(g78
g59
NtRp1105
(dp1106
g62
(dp1107
sg71
g1092
sg64
(lp1108
g57
(g58
g59
NtRp1109
(dp1110
g62
(dp1111
g70
I4
ssg71
g1105
sg64
(lp1112
S'en-US,en;q=0.8'
p1113
asbasbasbag57
(g73
g59
NtRp1114
(dp1115
g62
(dp1116
sg71
g822
sg64
(lp1117
g57
(g78
g59
NtRp1118
(dp1119
g62
(dp1120
g82
g83
ssg71
g1114
sg64
(lp1121
S'http_cache_control'
p1122
asbag57
(g78
g59
NtRp1123
(dp1124
g62
(dp1125
g89
g90
ssg71
g1114
sg64
(lp1126
S':'
asbag57
(g78
g59
NtRp1127
(dp1128
g62
(dp1129
sg71
g1114
sg64
(lp1130
g57
(g58
g59
NtRp1131
(dp1132
g62
(dp1133
g70
I4
ssg71
g1127
sg64
(lp1134
S'max-age=0'
p1135
asbasbasbag57
(g73
g59
NtRp1136
(dp1137
g62
(dp1138
sg71
g822
sg64
(lp1139
g57
(g78
g59
NtRp1140
(dp1141
g62
(dp1142
g82
g83
ssg71
g1136
sg64
(lp1143
S'http_connection'
p1144
asbag57
(g78
g59
NtRp1145
(dp1146
g62
(dp1147
g89
g90
ssg71
g1136
sg64
(lp1148
S':'
asbag57
(g78
g59
NtRp1149
(dp1150
g62
(dp1151
sg71
g1136
sg64
(lp1152
g57
(g58
g59
NtRp1153
(dp1154
g62
(dp1155
g70
I4
ssg71
g1149
sg64
(lp1156
S'keep-alive'
p1157
asbasbasbag57
(g73
g59
NtRp1158
(dp1159
g62
(dp1160
sg71
g822
sg64
(lp1161
g57
(g78
g59
NtRp1162
(dp1163
g62
(dp1164
g82
g83
ssg71
g1158
sg64
(lp1165
S'http_content_length'
p1166
asbag57
(g78
g59
NtRp1167
(dp1168
g62
(dp1169
g89
g90
ssg71
g1158
sg64
(lp1170
S':'
asbag57
(g78
g59
NtRp1171
(dp1172
g62
(dp1173
sg71
g1158
sg64
(lp1174
g57
(g58
g59
NtRp1175
(dp1176
g62
(dp1177
g70
I4
ssg71
g1171
sg64
(lp1178
g938
asbasbasbag57
(g73
g59
NtRp1179
(dp1180
g62
(dp1181
sg71
g822
sg64
(lp1182
g57
(g78
g59
NtRp1183
(dp1184
g62
(dp1185
g82
g83
ssg71
g1179
sg64
(lp1186
S'http_content_type'
p1187
asbag57
(g78
g59
NtRp1188
(dp1189
g62
(dp1190
g89
g90
ssg71
g1179
sg64
(lp1191
S':'
asbag57
(g78
g59
NtRp1192
(dp1193
g62
(dp1194
sg71
g1179
sg64
(lp1195
g57
(g58
g59
NtRp1196
(dp1197
g62
(dp1198
g70
I4
ssg71
g1192
sg64
(lp1199
g960
asbasbasbag57
(g73
g59
NtRp1200
(dp1201
g62
(dp1202
sg71
g822
sg64
(lp1203
g57
(g78
g59
NtRp1204
(dp1205
g62
(dp1206
g82
g83
ssg71
g1200
sg64
(lp1207
S'http_cookie'
p1208
asbag57
(g78
g59
NtRp1209
(dp1210
g62
(dp1211
g89
g90
ssg71
g1200
sg64
(lp1212
S':'
asbag57
(g78
g59
NtRp1213
(dp1214
g62
(dp1215
sg71
g1200
sg64
(lp1216
g57
(g58
g59
NtRp1217
(dp1218
g62
(dp1219
g70
I4
ssg71
g1213
sg64
(lp1220
S'session_id_welcome=127.0.0.1-d14490e1-9404-4ea6-83ff-2ebdb1793b16; session_id_admin=127.0.0.1-a269895b-e002-4a82-a516-a4177cca5081; session_id_starcraft2=127.0.0.1-ab0c6fa2-79d9-46c1-ab68-7df9589f9e17'
p1221
asbasbasbag57
(g73
g59
NtRp1222
(dp1223
g62
(dp1224
sg71
g822
sg64
(lp1225
g57
(g78
g59
NtRp1226
(dp1227
g62
(dp1228
g82
g83
ssg71
g1222
sg64
(lp1229
S'http_host'
p1230
asbag57
(g78
g59
NtRp1231
(dp1232
g62
(dp1233
g89
g90
ssg71
g1222
sg64
(lp1234
S':'
asbag57
(g78
g59
NtRp1235
(dp1236
g62
(dp1237
sg71
g1222
sg64
(lp1238
g57
(g58
g59
NtRp1239
(dp1240
g62
(dp1241
g70
I4
ssg71
g1235
sg64
(lp1242
S'127.0.0.1:8000'
p1243
asbasbasbag57
(g73
g59
NtRp1244
(dp1245
g62
(dp1246
sg71
g822
sg64
(lp1247
g57
(g78
g59
NtRp1248
(dp1249
g62
(dp1250
g82
g83
ssg71
g1244
sg64
(lp1251
S'http_origin'
p1252
asbag57
(g78
g59
NtRp1253
(dp1254
g62
(dp1255
g89
g90
ssg71
g1244
sg64
(lp1256
S':'
asbag57
(g78
g59
NtRp1257
(dp1258
g62
(dp1259
sg71
g1244
sg64
(lp1260
g57
(g58
g59
NtRp1261
(dp1262
g62
(dp1263
g70
I4
ssg71
g1257
sg64
(lp1264
S'http://127.0.0.1:8000'
p1265
asbasbasbag57
(g73
g59
NtRp1266
(dp1267
g62
(dp1268
sg71
g822
sg64
(lp1269
g57
(g78
g59
NtRp1270
(dp1271
g62
(dp1272
g82
g83
ssg71
g1266
sg64
(lp1273
S'http_referer'
p1274
asbag57
(g78
g59
NtRp1275
(dp1276
g62
(dp1277
g89
g90
ssg71
g1266
sg64
(lp1278
S':'
asbag57
(g78
g59
NtRp1279
(dp1280
g62
(dp1281
sg71
g1266
sg64
(lp1282
g57
(g58
g59
NtRp1283
(dp1284
g62
(dp1285
g70
I4
ssg71
g1279
sg64
(lp1286
S'http://127.0.0.1:8000/Starcraft2/default/build'
p1287
asbasbasbag57
(g73
g59
NtRp1288
(dp1289
g62
(dp1290
sg71
g822
sg64
(lp1291
g57
(g78
g59
NtRp1292
(dp1293
g62
(dp1294
g82
g83
ssg71
g1288
sg64
(lp1295
S'http_user_agent'
p1296
asbag57
(g78
g59
NtRp1297
(dp1298
g62
(dp1299
g89
g90
ssg71
g1288
sg64
(lp1300
S':'
asbag57
(g78
g59
NtRp1301
(dp1302
g62
(dp1303
sg71
g1288
sg64
(lp1304
g57
(g58
g59
NtRp1305
(dp1306
g62
(dp1307
g70
I4
ssg71
g1301
sg64
(lp1308
S'Mozilla/5.0 (Macintosh; Intel Mac OS X 10_7_3) AppleWebKit/535.19 (KHTML, like Gecko) Chrome/18.0.1025.168 Safari/535.19'
p1309
asbasbasbag57
(g73
g59
NtRp1310
(dp1311
g62
(dp1312
sg71
g822
sg64
(lp1313
g57
(g78
g59
NtRp1314
(dp1315
g62
(dp1316
g82
g83
ssg71
g1310
sg64
(lp1317
S'is_jython'
p1318
asbag57
(g78
g59
NtRp1319
(dp1320
g62
(dp1321
g89
g90
ssg71
g1310
sg64
(lp1322
S':'
asbag57
(g78
g59
NtRp1323
(dp1324
g62
(dp1325
sg71
g1310
sg64
(lp1326
g57
(g58
g59
NtRp1327
(dp1328
g62
(dp1329
g70
I4
ssg71
g1323
sg64
(lp1330
g100
asbasbasbag57
(g73
g59
NtRp1331
(dp1332
g62
(dp1333
sg71
g822
sg64
(lp1334
g57
(g78
g59
NtRp1335
(dp1336
g62
(dp1337
g82
g83
ssg71
g1331
sg64
(lp1338
S'is_pypy'
p1339
asbag57
(g78
g59
NtRp1340
(dp1341
g62
(dp1342
g89
g90
ssg71
g1331
sg64
(lp1343
S':'
asbag57
(g78
g59
NtRp1344
(dp1345
g62
(dp1346
sg71
g1331
sg64
(lp1347
g57
(g58
g59
NtRp1348
(dp1349
g62
(dp1350
g70
I4
ssg71
g1344
sg64
(lp1351
g100
asbasbasbag57
(g73
g59
NtRp1352
(dp1353
g62
(dp1354
sg71
g822
sg64
(lp1355
g57
(g78
g59
NtRp1356
(dp1357
g62
(dp1358
g82
g83
ssg71
g1352
sg64
(lp1359
S'path_info'
p1360
asbag57
(g78
g59
NtRp1361
(dp1362
g62
(dp1363
g89
g90
ssg71
g1352
sg64
(lp1364
S':'
asbag57
(g78
g59
NtRp1365
(dp1366
g62
(dp1367
sg71
g1352
sg64
(lp1368
g57
(g58
g59
NtRp1369
(dp1370
g62
(dp1371
g70
I4
ssg71
g1365
sg64
(lp1372
S'/Starcraft2/default/build'
p1373
asbasbasbag57
(g73
g59
NtRp1374
(dp1375
g62
(dp1376
sg71
g822
sg64
(lp1377
g57
(g78
g59
NtRp1378
(dp1379
g62
(dp1380
g82
g83
ssg71
g1374
sg64
(lp1381
S'query_string'
p1382
asbag57
(g78
g59
NtRp1383
(dp1384
g62
(dp1385
g89
g90
ssg71
g1374
sg64
(lp1386
S':'
asbag57
(g78
g59
NtRp1387
(dp1388
g62
(dp1389
sg71
g1374
sg64
(lp1390
g57
(g58
g59
NtRp1391
(dp1392
g62
(dp1393
g70
I4
ssg71
g1387
sg64
(lp1394
S''
asbasbasbag57
(g73
g59
NtRp1395
(dp1396
g62
(dp1397
sg71
g822
sg64
(lp1398
g57
(g78
g59
NtRp1399
(dp1400
g62
(dp1401
g82
g83
ssg71
g1395
sg64
(lp1402
S'remote_addr'
p1403
asbag57
(g78
g59
NtRp1404
(dp1405
g62
(dp1406
g89
g90
ssg71
g1395
sg64
(lp1407
S':'
asbag57
(g78
g59
NtRp1408
(dp1409
g62
(dp1410
sg71
g1395
sg64
(lp1411
g57
(g58
g59
NtRp1412
(dp1413
g62
(dp1414
g70
I4
ssg71
g1408
sg64
(lp1415
g190
asbasbasbag57
(g73
g59
NtRp1416
(dp1417
g62
(dp1418
sg71
g822
sg64
(lp1419
g57
(g78
g59
NtRp1420
(dp1421
g62
(dp1422
g82
g83
ssg71
g1416
sg64
(lp1423
S'remote_port'
p1424
asbag57
(g78
g59
NtRp1425
(dp1426
g62
(dp1427
g89
g90
ssg71
g1416
sg64
(lp1428
S':'
asbag57
(g78
g59
NtRp1429
(dp1430
g62
(dp1431
sg71
g1416
sg64
(lp1432
g57
(g58
g59
NtRp1433
(dp1434
g62
(dp1435
g70
I4
ssg71
g1429
sg64
(lp1436
S'56014'
p1437
asbasbasbag57
(g73
g59
NtRp1438
(dp1439
g62
(dp1440
sg71
g822
sg64
(lp1441
g57
(g78
g59
NtRp1442
(dp1443
g62
(dp1444
g82
g83
ssg71
g1438
sg64
(lp1445
S'request_method'
p1446
asbag57
(g78
g59
NtRp1447
(dp1448
g62
(dp1449
g89
g90
ssg71
g1438
sg64
(lp1450
S':'
asbag57
(g78
g59
NtRp1451
(dp1452
g62
(dp1453
sg71
g1438
sg64
(lp1454
g57
(g58
g59
NtRp1455
(dp1456
g62
(dp1457
g70
I4
ssg71
g1451
sg64
(lp1458
S'POST'
p1459
asbasbasbag57
(g73
g59
NtRp1460
(dp1461
g62
(dp1462
sg71
g822
sg64
(lp1463
g57
(g78
g59
NtRp1464
(dp1465
g62
(dp1466
g82
g83
ssg71
g1460
sg64
(lp1467
S'script_name'
p1468
asbag57
(g78
g59
NtRp1469
(dp1470
g62
(dp1471
g89
g90
ssg71
g1460
sg64
(lp1472
S':'
asbag57
(g78
g59
NtRp1473
(dp1474
g62
(dp1475
sg71
g1460
sg64
(lp1476
g57
(g58
g59
NtRp1477
(dp1478
g62
(dp1479
g70
I4
ssg71
g1473
sg64
(lp1480
S''
asbasbasbag57
(g73
g59
NtRp1481
(dp1482
g62
(dp1483
sg71
g822
sg64
(lp1484
g57
(g78
g59
NtRp1485
(dp1486
g62
(dp1487
g82
g83
ssg71
g1481
sg64
(lp1488
S'server_name'
p1489
asbag57
(g78
g59
NtRp1490
(dp1491
g62
(dp1492
g89
g90
ssg71
g1481
sg64
(lp1493
S':'
asbag57
(g78
g59
NtRp1494
(dp1495
g62
(dp1496
sg71
g1481
sg64
(lp1497
g57
(g58
g59
NtRp1498
(dp1499
g62
(dp1500
g70
I4
ssg71
g1494
sg64
(lp1501
S'Nathans-MacBook-Pro.local'
p1502
asbasbasbag57
(g73
g59
NtRp1503
(dp1504
g62
(dp1505
sg71
g822
sg64
(lp1506
g57
(g78
g59
NtRp1507
(dp1508
g62
(dp1509
g82
g83
ssg71
g1503
sg64
(lp1510
S'server_port'
p1511
asbag57
(g78
g59
NtRp1512
(dp1513
g62
(dp1514
g89
g90
ssg71
g1503
sg64
(lp1515
S':'
asbag57
(g78
g59
NtRp1516
(dp1517
g62
(dp1518
sg71
g1503
sg64
(lp1519
g57
(g58
g59
NtRp1520
(dp1521
g62
(dp1522
g70
I4
ssg71
g1516
sg64
(lp1523
S'8000'
p1524
asbasbasbag57
(g73
g59
NtRp1525
(dp1526
g62
(dp1527
sg71
g822
sg64
(lp1528
g57
(g78
g59
NtRp1529
(dp1530
g62
(dp1531
g82
g83
ssg71
g1525
sg64
(lp1532
S'server_protocol'
p1533
asbag57
(g78
g59
NtRp1534
(dp1535
g62
(dp1536
g89
g90
ssg71
g1525
sg64
(lp1537
S':'
asbag57
(g78
g59
NtRp1538
(dp1539
g62
(dp1540
sg71
g1525
sg64
(lp1541
g57
(g58
g59
NtRp1542
(dp1543
g62
(dp1544
g70
I4
ssg71
g1538
sg64
(lp1545
S'HTTP/1.1'
p1546
asbasbasbag57
(g73
g59
NtRp1547
(dp1548
g62
(dp1549
sg71
g822
sg64
(lp1550
g57
(g78
g59
NtRp1551
(dp1552
g62
(dp1553
g82
g83
ssg71
g1547
sg64
(lp1554
S'server_software'
p1555
asbag57
(g78
g59
NtRp1556
(dp1557
g62
(dp1558
g89
g90
ssg71
g1547
sg64
(lp1559
S':'
asbag57
(g78
g59
NtRp1560
(dp1561
g62
(dp1562
sg71
g1547
sg64
(lp1563
g57
(g58
g59
NtRp1564
(dp1565
g62
(dp1566
g70
I4
ssg71
g1560
sg64
(lp1567
S'Rocket 1.2.4'
p1568
asbasbasbag57
(g73
g59
NtRp1569
(dp1570
g62
(dp1571
sg71
g822
sg64
(lp1572
g57
(g78
g59
NtRp1573
(dp1574
g62
(dp1575
g82
g83
ssg71
g1569
sg64
(lp1576
S'web2py_crontype'
p1577
asbag57
(g78
g59
NtRp1578
(dp1579
g62
(dp1580
g89
g90
ssg71
g1569
sg64
(lp1581
S':'
asbag57
(g78
g59
NtRp1582
(dp1583
g62
(dp1584
sg71
g1569
sg64
(lp1585
g57
(g58
g59
NtRp1586
(dp1587
g62
(dp1588
g70
I4
ssg71
g1582
sg64
(lp1589
S'hard'
p1590
asbasbasbag57
(g73
g59
NtRp1591
(dp1592
g62
(dp1593
sg71
g822
sg64
(lp1594
g57
(g78
g59
NtRp1595
(dp1596
g62
(dp1597
g82
g83
ssg71
g1591
sg64
(lp1598
S'web2py_path'
p1599
asbag57
(g78
g59
NtRp1600
(dp1601
g62
(dp1602
g89
g90
ssg71
g1591
sg64
(lp1603
S':'
asbag57
(g78
g59
NtRp1604
(dp1605
g62
(dp1606
sg71
g1591
sg64
(lp1607
g57
(g58
g59
NtRp1608
(dp1609
g62
(dp1610
g70
I4
ssg71
g1604
sg64
(lp1611
g869
asbasbasbag57
(g73
g59
NtRp1612
(dp1613
g62
(dp1614
sg71
g822
sg64
(lp1615
g57
(g78
g59
NtRp1616
(dp1617
g62
(dp1618
g82
g83
ssg71
g1612
sg64
(lp1619
S'web2py_version'
p1620
asbag57
(g78
g59
NtRp1621
(dp1622
g62
(dp1623
g89
g90
ssg71
g1612
sg64
(lp1624
S':'
asbag57
(g78
g59
NtRp1625
(dp1626
g62
(dp1627
sg71
g1612
sg64
(lp1628
g57
(g58
g59
NtRp1629
(dp1630
g62
(dp1631
g70
I4
ssg71
g1625
sg64
(lp1632
g57
(g66
g59
NtRp1633
(dp1634
g62
(dp1635
g70
I3
ssg71
Nsg64
(lp1636
g57
(g73
g59
NtRp1637
(dp1638
g62
(dp1639
sg71
g1633
sg64
(lp1640
g57
(g78
g59
NtRp1641
(dp1642
g62
(dp1643
sg71
g1637
sg64
(lp1644
g57
(g58
g59
NtRp1645
(dp1646
g62
(dp1647
g70
I3
ssg71
g1641
sg64
(lp1648
S'1'
asbasbasbag57
(g73
g59
NtRp1649
(dp1650
g62
(dp1651
sg71
g1633
sg64
(lp1652
g57
(g78
g59
NtRp1653
(dp1654
g62
(dp1655
sg71
g1649
sg64
(lp1656
g57
(g58
g59
NtRp1657
(dp1658
g62
(dp1659
g70
I3
ssg71
g1653
sg64
(lp1660
S'99'
p1661
asbasbasbag57
(g73
g59
NtRp1662
(dp1663
g62
(dp1664
sg71
g1633
sg64
(lp1665
g57
(g78
g59
NtRp1666
(dp1667
g62
(dp1668
sg71
g1662
sg64
(lp1669
g57
(g58
g59
NtRp1670
(dp1671
g62
(dp1672
g70
I3
ssg71
g1666
sg64
(lp1673
S'7'
asbasbasbag57
(g73
g59
NtRp1674
(dp1675
g62
(dp1676
sg71
g1633
sg64
(lp1677
g57
(g78
g59
NtRp1678
(dp1679
g62
(dp1680
sg71
g1674
sg64
(lp1681
g57
(g58
g59
NtRp1682
(dp1683
g62
(dp1684
g70
I3
ssg71
g1678
sg64
(lp1685
S'datetime.datetime(2012, 3, 4, 22, 12, 8)'
p1686
asbasbasbag57
(g73
g59
NtRp1687
(dp1688
g62
(dp1689
sg71
g1633
sg64
(lp1690
g57
(g78
g59
NtRp1691
(dp1692
g62
(dp1693
sg71
g1687
sg64
(lp1694
g57
(g58
g59
NtRp1695
(dp1696
g62
(dp1697
g70
I3
ssg71
g1691
sg64
(lp1698
S'stable'
p1699
asbasbasbasbasbasbasbag57
(g73
g59
NtRp1700
(dp1701
g62
(dp1702
sg71
g822
sg64
(lp1703
g57
(g78
g59
NtRp1704
(dp1705
g62
(dp1706
g82
g83
ssg71
g1700
sg64
(lp1707
S'wsgi_errors'
p1708
asbag57
(g78
g59
NtRp1709
(dp1710
g62
(dp1711
g89
g90
ssg71
g1700
sg64
(lp1712
S':'
asbag57
(g78
g59
NtRp1713
(dp1714
g62
(dp1715
sg71
g1700
sg64
(lp1716
g57
(g58
g59
NtRp1717
(dp1718
g62
(dp1719
g70
I4
ssg71
g1713
sg64
(lp1720
S"<open file '<stderr>', mode 'w' at 0x100282270>"
p1721
asbasbasbag57
(g73
g59
NtRp1722
(dp1723
g62
(dp1724
sg71
g822
sg64
(lp1725
g57
(g78
g59
NtRp1726
(dp1727
g62
(dp1728
g82
g83
ssg71
g1722
sg64
(lp1729
S'wsgi_file_wrapper'
p1730
asbag57
(g78
g59
NtRp1731
(dp1732
g62
(dp1733
g89
g90
ssg71
g1722
sg64
(lp1734
S':'
asbag57
(g78
g59
NtRp1735
(dp1736
g62
(dp1737
sg71
g1722
sg64
(lp1738
g57
(g58
g59
NtRp1739
(dp1740
g62
(dp1741
g70
I4
ssg71
g1735
sg64
(lp1742
S'<class wsgiref.util.FileWrapper at 0x101766a78>'
p1743
asbasbasbag57
(g73
g59
NtRp1744
(dp1745
g62
(dp1746
sg71
g822
sg64
(lp1747
g57
(g78
g59
NtRp1748
(dp1749
g62
(dp1750
g82
g83
ssg71
g1744
sg64
(lp1751
S'wsgi_input'
p1752
asbag57
(g78
g59
NtRp1753
(dp1754
g62
(dp1755
g89
g90
ssg71
g1744
sg64
(lp1756
S':'
asbag57
(g78
g59
NtRp1757
(dp1758
g62
(dp1759
sg71
g1744
sg64
(lp1760
g57
(g58
g59
NtRp1761
(dp1762
g62
(dp1763
g70
I4
ssg71
g1757
sg64
(lp1764
S'<socket._fileobject object at 0x10c176150>'
p1765
asbasbasbag57
(g73
g59
NtRp1766
(dp1767
g62
(dp1768
sg71
g822
sg64
(lp1769
g57
(g78
g59
NtRp1770
(dp1771
g62
(dp1772
g82
g83
ssg71
g1766
sg64
(lp1773
S'wsgi_multiprocess'
p1774
asbag57
(g78
g59
NtRp1775
(dp1776
g62
(dp1777
g89
g90
ssg71
g1766
sg64
(lp1778
S':'
asbag57
(g78
g59
NtRp1779
(dp1780
g62
(dp1781
sg71
g1766
sg64
(lp1782
g57
(g58
g59
NtRp1783
(dp1784
g62
(dp1785
g70
I4
ssg71
g1779
sg64
(lp1786
g100
asbasbasbag57
(g73
g59
NtRp1787
(dp1788
g62
(dp1789
sg71
g822
sg64
(lp1790
g57
(g78
g59
NtRp1791
(dp1792
g62
(dp1793
g82
g83
ssg71
g1787
sg64
(lp1794
S'wsgi_multithread'
p1795
asbag57
(g78
g59
NtRp1796
(dp1797
g62
(dp1798
g89
g90
ssg71
g1787
sg64
(lp1799
S':'
asbag57
(g78
g59
NtRp1800
(dp1801
g62
(dp1802
sg71
g1787
sg64
(lp1803
g57
(g58
g59
NtRp1804
(dp1805
g62
(dp1806
g70
I4
ssg71
g1800
sg64
(lp1807
S'True'
p1808
asbasbasbag57
(g73
g59
NtRp1809
(dp1810
g62
(dp1811
sg71
g822
sg64
(lp1812
g57
(g78
g59
NtRp1813
(dp1814
g62
(dp1815
g82
g83
ssg71
g1809
sg64
(lp1816
S'wsgi_run_once'
p1817
asbag57
(g78
g59
NtRp1818
(dp1819
g62
(dp1820
g89
g90
ssg71
g1809
sg64
(lp1821
S':'
asbag57
(g78
g59
NtRp1822
(dp1823
g62
(dp1824
sg71
g1809
sg64
(lp1825
g57
(g58
g59
NtRp1826
(dp1827
g62
(dp1828
g70
I4
ssg71
g1822
sg64
(lp1829
g100
asbasbasbag57
(g73
g59
NtRp1830
(dp1831
g62
(dp1832
sg71
g822
sg64
(lp1833
g57
(g78
g59
NtRp1834
(dp1835
g62
(dp1836
g82
g83
ssg71
g1830
sg64
(lp1837
S'wsgi_url_scheme'
p1838
asbag57
(g78
g59
NtRp1839
(dp1840
g62
(dp1841
g89
g90
ssg71
g1830
sg64
(lp1842
S':'
asbag57
(g78
g59
NtRp1843
(dp1844
g62
(dp1845
sg71
g1830
sg64
(lp1846
g57
(g58
g59
NtRp1847
(dp1848
g62
(dp1849
g70
I4
ssg71
g1843
sg64
(lp1850
S'http'
p1851
asbasbasbag57
(g73
g59
NtRp1852
(dp1853
g62
(dp1854
sg71
g822
sg64
(lp1855
g57
(g78
g59
NtRp1856
(dp1857
g62
(dp1858
g82
g83
ssg71
g1852
sg64
(lp1859
S'wsgi_version'
p1860
asbag57
(g78
g59
NtRp1861
(dp1862
g62
(dp1863
g89
g90
ssg71
g1852
sg64
(lp1864
S':'
asbag57
(g78
g59
NtRp1865
(dp1866
g62
(dp1867
sg71
g1852
sg64
(lp1868
g57
(g58
g59
NtRp1869
(dp1870
g62
(dp1871
g70
I4
ssg71
g1865
sg64
(lp1872
g57
(g66
g59
NtRp1873
(dp1874
g62
(dp1875
g70
I3
ssg71
Nsg64
(lp1876
g57
(g73
g59
NtRp1877
(dp1878
g62
(dp1879
sg71
g1873
sg64
(lp1880
g57
(g78
g59
NtRp1881
(dp1882
g62
(dp1883
sg71
g1877
sg64
(lp1884
g57
(g58
g59
NtRp1885
(dp1886
g62
(dp1887
g70
I3
ssg71
g1881
sg64
(lp1888
S'1'
asbasbasbag57
(g73
g59
NtRp1889
(dp1890
g62
(dp1891
sg71
g1873
sg64
(lp1892
g57
(g78
g59
NtRp1893
(dp1894
g62
(dp1895
sg71
g1889
sg64
(lp1896
g57
(g58
g59
NtRp1897
(dp1898
g62
(dp1899
g70
I3
ssg71
g1893
sg64
(lp1900
S'0'
asbasbasbasbasbasbasbasbasbasbasbag57
(g73
g59
NtRp1901
(dp1902
g62
(dp1903
sg71
g67
sg64
(lp1904
g57
(g78
g59
NtRp1905
(dp1906
g62
(dp1907
g82
g83
ssg71
g1901
sg64
(lp1908
S'extension'
p1909
asbag57
(g78
g59
NtRp1910
(dp1911
g62
(dp1912
g89
g90
ssg71
g1901
sg64
(lp1913
S':'
asbag57
(g78
g59
NtRp1914
(dp1915
g62
(dp1916
sg71
g1901
sg64
(lp1917
g57
(g58
g59
NtRp1918
(dp1919
g62
(dp1920
g70
I5
ssg71
g1914
sg64
(lp1921
S'html'
p1922
asbasbasbag57
(g73
g59
NtRp1923
(dp1924
g62
(dp1925
sg71
g67
sg64
(lp1926
g57
(g78
g59
NtRp1927
(dp1928
g62
(dp1929
g82
g83
ssg71
g1923
sg64
(lp1930
S'folder'
p1931
asbag57
(g78
g59
NtRp1932
(dp1933
g62
(dp1934
g89
g90
ssg71
g1923
sg64
(lp1935
S':'
asbag57
(g78
g59
NtRp1936
(dp1937
g62
(dp1938
sg71
g1923
sg64
(lp1939
g57
(g58
g59
NtRp1940
(dp1941
g62
(dp1942
g70
I5
ssg71
g1936
sg64
(lp1943
S'/Users/hainna01/Downloads/web2py/applications/Starcraft2/'
p1944
asbasbasbag57
(g73
g59
NtRp1945
(dp1946
g62
(dp1947
sg71
g67
sg64
(lp1948
g57
(g78
g59
NtRp1949
(dp1950
g62
(dp1951
g82
g83
ssg71
g1945
sg64
(lp1952
S'function'
p1953
asbag57
(g78
g59
NtRp1954
(dp1955
g62
(dp1956
g89
g90
ssg71
g1945
sg64
(lp1957
S':'
asbag57
(g78
g59
NtRp1958
(dp1959
g62
(dp1960
sg71
g1945
sg64
(lp1961
g57
(g58
g59
NtRp1962
(dp1963
g62
(dp1964
g70
I5
ssg71
g1958
sg64
(lp1965
S'build'
p1966
asbasbasbag57
(g73
g59
NtRp1967
(dp1968
g62
(dp1969
sg71
g67
sg64
(lp1970
g57
(g78
g59
NtRp1971
(dp1972
g62
(dp1973
g82
g83
ssg71
g1967
sg64
(lp1974
S'get_vars'
p1975
asbag57
(g78
g59
NtRp1976
(dp1977
g62
(dp1978
g89
g90
ssg71
g1967
sg64
(lp1979
S':'
asbag57
(g78
g59
NtRp1980
(dp1981
g62
(dp1982
sg71
g1967
sg64
(lp1983
g57
(g58
g59
NtRp1984
(dp1985
g62
(dp1986
g70
I5
ssg71
g1980
sg64
(lp1987
g57
(g66
g59
NtRp1988
(dp1989
g62
(dp1990
g70
I4
ssg71
Nsg64
(lp1991
sbasbasbasbag57
(g73
g59
NtRp1992
(dp1993
g62
(dp1994
sg71
g67
sg64
(lp1995
g57
(g78
g59
NtRp1996
(dp1997
g62
(dp1998
g82
g83
ssg71
g1992
sg64
(lp1999
S'global_settings'
p2000
asbag57
(g78
g59
NtRp2001
(dp2002
g62
(dp2003
g89
g90
ssg71
g1992
sg64
(lp2004
S':'
asbag57
(g78
g59
NtRp2005
(dp2006
g62
(dp2007
sg71
g1992
sg64
(lp2008
g57
(g58
g59
NtRp2009
(dp2010
g62
(dp2011
g70
I5
ssg71
g2005
sg64
(lp2012
g57
(g66
g59
NtRp2013
(dp2014
g62
(dp2015
g70
I4
ssg71
Nsg64
(lp2016
g57
(g73
g59
NtRp2017
(dp2018
g62
(dp2019
sg71
g2013
sg64
(lp2020
g57
(g78
g59
NtRp2021
(dp2022
g62
(dp2023
g82
g83
ssg71
g2017
sg64
(lp2024
g834
asbag57
(g78
g59
NtRp2025
(dp2026
g62
(dp2027
g89
g90
ssg71
g2017
sg64
(lp2028
S':'
asbag57
(g78
g59
NtRp2029
(dp2030
g62
(dp2031
sg71
g2017
sg64
(lp2032
g57
(g58
g59
NtRp2033
(dp2034
g62
(dp2035
g70
I4
ssg71
g2029
sg64
(lp2036
S"set(['/Users/hainna01/Downloads/web2py/applications/welcome/', '/Users/hainna01/Downloads/web2py/applications/Starcraft2/', '/Users/hainna01/Downloads/web2py/applications/admin/'])"
p2037
asbasbasbag57
(g73
g59
NtRp2038
(dp2039
g62
(dp2040
sg71
g2013
sg64
(lp2041
g57
(g78
g59
NtRp2042
(dp2043
g62
(dp2044
g82
g83
ssg71
g2038
sg64
(lp2045
g856
asbag57
(g78
g59
NtRp2046
(dp2047
g62
(dp2048
g89
g90
ssg71
g2038
sg64
(lp2049
S':'
asbag57
(g78
g59
NtRp2050
(dp2051
g62
(dp2052
sg71
g2038
sg64
(lp2053
g57
(g58
g59
NtRp2054
(dp2055
g62
(dp2056
g70
I4
ssg71
g2050
sg64
(lp2057
g869
asbasbasbag57
(g73
g59
NtRp2058
(dp2059
g62
(dp2060
sg71
g2013
sg64
(lp2061
g57
(g78
g59
NtRp2062
(dp2063
g62
(dp2064
g82
g83
ssg71
g2058
sg64
(lp2065
g878
asbag57
(g78
g59
NtRp2066
(dp2067
g62
(dp2068
g89
g90
ssg71
g2058
sg64
(lp2069
S':'
asbag57
(g78
g59
NtRp2070
(dp2071
g62
(dp2072
sg71
g2058
sg64
(lp2073
g57
(g58
g59
NtRp2074
(dp2075
g62
(dp2076
g70
I4
ssg71
g2070
sg64
(lp2077
g57
(g66
g59
NtRp2078
(dp2079
g62
(dp2080
g70
I3
ssg71
Nsg64
(lp2081
sbasbasbasbag57
(g73
g59
NtRp2082
(dp2083
g62
(dp2084
sg71
g2013
sg64
(lp2085
g57
(g78
g59
NtRp2086
(dp2087
g62
(dp2088
g82
g83
ssg71
g2082
sg64
(lp2089
g903
asbag57
(g78
g59
NtRp2090
(dp2091
g62
(dp2092
g89
g90
ssg71
g2082
sg64
(lp2093
S':'
asbag57
(g78
g59
NtRp2094
(dp2095
g62
(dp2096
sg71
g2082
sg64
(lp2097
g57
(g58
g59
NtRp2098
(dp2099
g62
(dp2100
g70
I4
ssg71
g2094
sg64
(lp2101
S"<Values at 0x101860560: {'verbose': False, 'ip': '127.0.0.1', 'shutdown_timeout': 5, 'taskbar': False, 'nocron': False, 'pid_filename': 'httpserver.pid', 'maxthreads': None, 'softcron': False, 'server_name': 'Nathans-MacBook-Pro.local', 'bpython': False, 'nogui': False, 'port': 8000, 'extcron': False, 'debuglevel': 30, 'test': None, 'folder': '/Users/hainna01/Downloads/web2py', 'config': '', 'import_models': False, 'winservice': '', 'shell': None, 'run': '', 'log_filename': 'httpserver.log', 'args': [''], 'socket_timeout': 5, 'ssl_ca_certificate': None, 'scheduler': None, 'profiler_filename': None, 'ssl_private_key': '', 'password': '<ask>', 'request_queue_size': 5, 'ssl_certificate': '', 'cronjob': False, 'numthreads': None, 'quiet': False, 'interfaces': None, 'minthreads': None, 'timeout': 10, 'plain': False, 'nobanner': False}>"
p2102
asbasbasbag57
(g73
g59
NtRp2103
(dp2104
g62
(dp2105
sg71
g2013
sg64
(lp2106
g57
(g78
g59
NtRp2107
(dp2108
g62
(dp2109
g82
g83
ssg71
g2103
sg64
(lp2110
g969
asbag57
(g78
g59
NtRp2111
(dp2112
g62
(dp2113
g89
g90
ssg71
g2103
sg64
(lp2114
S':'
asbag57
(g78
g59
NtRp2115
(dp2116
g62
(dp2117
sg71
g2103
sg64
(lp2118
g57
(g58
g59
NtRp2119
(dp2120
g62
(dp2121
g70
I4
ssg71
g2115
sg64
(lp2122
S'set([])'
p2123
asbasbasbag57
(g73
g59
NtRp2124
(dp2125
g62
(dp2126
sg71
g2013
sg64
(lp2127
g57
(g78
g59
NtRp2128
(dp2129
g62
(dp2130
g82
g83
ssg71
g2124
sg64
(lp2131
g991
asbag57
(g78
g59
NtRp2132
(dp2133
g62
(dp2134
g89
g90
ssg71
g2124
sg64
(lp2135
S':'
asbag57
(g78
g59
NtRp2136
(dp2137
g62
(dp2138
sg71
g2124
sg64
(lp2139
g57
(g58
g59
NtRp2140
(dp2141
g62
(dp2142
g70
I4
ssg71
g2136
sg64
(lp2143
g100
asbasbasbag57
(g73
g59
NtRp2144
(dp2145
g62
(dp2146
sg71
g2013
sg64
(lp2147
g57
(g78
g59
NtRp2148
(dp2149
g62
(dp2150
g82
g83
ssg71
g2144
sg64
(lp2151
g1012
asbag57
(g78
g59
NtRp2152
(dp2153
g62
(dp2154
g89
g90
ssg71
g2144
sg64
(lp2155
S':'
asbag57
(g78
g59
NtRp2156
(dp2157
g62
(dp2158
sg71
g2144
sg64
(lp2159
g57
(g58
g59
NtRp2160
(dp2161
g62
(dp2162
g70
I4
ssg71
g2156
sg64
(lp2163
g1025
asbasbasbag57
(g73
g59
NtRp2164
(dp2165
g62
(dp2166
sg71
g2013
sg64
(lp2167
g57
(g78
g59
NtRp2168
(dp2169
g62
(dp2170
g82
g83
ssg71
g2164
sg64
(lp2171
g1318
asbag57
(g78
g59
NtRp2172
(dp2173
g62
(dp2174
g89
g90
ssg71
g2164
sg64
(lp2175
S':'
asbag57
(g78
g59
NtRp2176
(dp2177
g62
(dp2178
sg71
g2164
sg64
(lp2179
g57
(g58
g59
NtRp2180
(dp2181
g62
(dp2182
g70
I4
ssg71
g2176
sg64
(lp2183
g100
asbasbasbag57
(g73
g59
NtRp2184
(dp2185
g62
(dp2186
sg71
g2013
sg64
(lp2187
g57
(g78
g59
NtRp2188
(dp2189
g62
(dp2190
g82
g83
ssg71
g2184
sg64
(lp2191
g1339
asbag57
(g78
g59
NtRp2192
(dp2193
g62
(dp2194
g89
g90
ssg71
g2184
sg64
(lp2195
S':'
asbag57
(g78
g59
NtRp2196
(dp2197
g62
(dp2198
sg71
g2184
sg64
(lp2199
g57
(g58
g59
NtRp2200
(dp2201
g62
(dp2202
g70
I4
ssg71
g2196
sg64
(lp2203
g100
asbasbasbag57
(g73
g59
NtRp2204
(dp2205
g62
(dp2206
sg71
g2013
sg64
(lp2207
g57
(g78
g59
NtRp2208
(dp2209
g62
(dp2210
g82
g83
ssg71
g2204
sg64
(lp2211
g1577
asbag57
(g78
g59
NtRp2212
(dp2213
g62
(dp2214
g89
g90
ssg71
g2204
sg64
(lp2215
S':'
asbag57
(g78
g59
NtRp2216
(dp2217
g62
(dp2218
sg71
g2204
sg64
(lp2219
g57
(g58
g59
NtRp2220
(dp2221
g62
(dp2222
g70
I4
ssg71
g2216
sg64
(lp2223
g1590
asbasbasbag57
(g73
g59
NtRp2224
(dp2225
g62
(dp2226
sg71
g2013
sg64
(lp2227
g57
(g78
g59
NtRp2228
(dp2229
g62
(dp2230
g82
g83
ssg71
g2224
sg64
(lp2231
g1620
asbag57
(g78
g59
NtRp2232
(dp2233
g62
(dp2234
g89
g90
ssg71
g2224
sg64
(lp2235
S':'
asbag57
(g78
g59
NtRp2236
(dp2237
g62
(dp2238
sg71
g2224
sg64
(lp2239
g57
(g58
g59
NtRp2240
(dp2241
g62
(dp2242
g70
I4
ssg71
g2236
sg64
(lp2243
g57
(g66
g59
NtRp2244
(dp2245
g62
(dp2246
g70
I3
ssg71
Nsg64
(lp2247
g57
(g73
g59
NtRp2248
(dp2249
g62
(dp2250
sg71
g2244
sg64
(lp2251
g57
(g78
g59
NtRp2252
(dp2253
g62
(dp2254
sg71
g2248
sg64
(lp2255
g57
(g58
g59
NtRp2256
(dp2257
g62
(dp2258
g70
I3
ssg71
g2252
sg64
(lp2259
S'1'
asbasbasbag57
(g73
g59
NtRp2260
(dp2261
g62
(dp2262
sg71
g2244
sg64
(lp2263
g57
(g78
g59
NtRp2264
(dp2265
g62
(dp2266
sg71
g2260
sg64
(lp2267
g57
(g58
g59
NtRp2268
(dp2269
g62
(dp2270
g70
I3
ssg71
g2264
sg64
(lp2271
S'99'
p2272
asbasbasbag57
(g73
g59
NtRp2273
(dp2274
g62
(dp2275
sg71
g2244
sg64
(lp2276
g57
(g78
g59
NtRp2277
(dp2278
g62
(dp2279
sg71
g2273
sg64
(lp2280
g57
(g58
g59
NtRp2281
(dp2282
g62
(dp2283
g70
I3
ssg71
g2277
sg64
(lp2284
S'7'
asbasbasbag57
(g73
g59
NtRp2285
(dp2286
g62
(dp2287
sg71
g2244
sg64
(lp2288
g57
(g78
g59
NtRp2289
(dp2290
g62
(dp2291
sg71
g2285
sg64
(lp2292
g57
(g58
g59
NtRp2293
(dp2294
g62
(dp2295
g70
I3
ssg71
g2289
sg64
(lp2296
S'datetime.datetime(2012, 3, 4, 22, 12, 8)'
p2297
asbasbasbag57
(g73
g59
NtRp2298
(dp2299
g62
(dp2300
sg71
g2244
sg64
(lp2301
g57
(g78
g59
NtRp2302
(dp2303
g62
(dp2304
sg71
g2298
sg64
(lp2305
g57
(g58
g59
NtRp2306
(dp2307
g62
(dp2308
g70
I3
ssg71
g2302
sg64
(lp2309
g1699
asbasbasbasbasbasbasbasbasbasbasbag57
(g73
g59
NtRp2310
(dp2311
g62
(dp2312
sg71
g67
sg64
(lp2313
g57
(g78
g59
NtRp2314
(dp2315
g62
(dp2316
g82
g83
ssg71
g2310
sg64
(lp2317
S'is_https'
p2318
asbag57
(g78
g59
NtRp2319
(dp2320
g62
(dp2321
g89
g90
ssg71
g2310
sg64
(lp2322
S':'
asbag57
(g78
g59
NtRp2323
(dp2324
g62
(dp2325
sg71
g2310
sg64
(lp2326
g57
(g58
g59
NtRp2327
(dp2328
g62
(dp2329
g70
I5
ssg71
g2323
sg64
(lp2330
g100
asbasbasbag57
(g73
g59
NtRp2331
(dp2332
g62
(dp2333
sg71
g67
sg64
(lp2334
g57
(g78
g59
NtRp2335
(dp2336
g62
(dp2337
g82
g83
ssg71
g2331
sg64
(lp2338
S'is_local'
p2339
asbag57
(g78
g59
NtRp2340
(dp2341
g62
(dp2342
g89
g90
ssg71
g2331
sg64
(lp2343
S':'
asbag57
(g78
g59
NtRp2344
(dp2345
g62
(dp2346
sg71
g2331
sg64
(lp2347
g57
(g58
g59
NtRp2348
(dp2349
g62
(dp2350
g70
I5
ssg71
g2344
sg64
(lp2351
g1808
asbasbasbag57
(g73
g59
NtRp2352
(dp2353
g62
(dp2354
sg71
g67
sg64
(lp2355
g57
(g78
g59
NtRp2356
(dp2357
g62
(dp2358
g82
g83
ssg71
g2352
sg64
(lp2359
S'is_restful'
p2360
asbag57
(g78
g59
NtRp2361
(dp2362
g62
(dp2363
g89
g90
ssg71
g2352
sg64
(lp2364
S':'
asbag57
(g78
g59
NtRp2365
(dp2366
g62
(dp2367
sg71
g2352
sg64
(lp2368
g57
(g58
g59
NtRp2369
(dp2370
g62
(dp2371
g70
I5
ssg71
g2365
sg64
(lp2372
g100
asbasbasbag57
(g73
g59
NtRp2373
(dp2374
g62
(dp2375
sg71
g67
sg64
(lp2376
g57
(g78
g59
NtRp2377
(dp2378
g62
(dp2379
g82
g83
ssg71
g2373
sg64
(lp2380
S'now'
p2381
asbag57
(g78
g59
NtRp2382
(dp2383
g62
(dp2384
g89
g90
ssg71
g2373
sg64
(lp2385
S':'
asbag57
(g78
g59
NtRp2386
(dp2387
g62
(dp2388
sg71
g2373
sg64
(lp2389
g57
(g58
g59
NtRp2390
(dp2391
g62
(dp2392
g70
I5
ssg71
g2386
sg64
(lp2393
S'datetime.datetime(2012, 5, 13, 13, 21, 30, 224963)'
p2394
asbasbasbag57
(g73
g59
NtRp2395
(dp2396
g62
(dp2397
sg71
g67
sg64
(lp2398
g57
(g78
g59
NtRp2399
(dp2400
g62
(dp2401
g82
g83
ssg71
g2395
sg64
(lp2402
S'post_vars'
p2403
asbag57
(g78
g59
NtRp2404
(dp2405
g62
(dp2406
g89
g90
ssg71
g2395
sg64
(lp2407
S':'
asbag57
(g78
g59
NtRp2408
(dp2409
g62
(dp2410
sg71
g2395
sg64
(lp2411
g57
(g58
g59
NtRp2412
(dp2413
g62
(dp2414
g70
I5
ssg71
g2408
sg64
(lp2415
g57
(g66
g59
NtRp2416
(dp2417
g62
(dp2418
g70
I4
ssg71
Nsg64
(lp2419
g57
(g73
g59
NtRp2420
(dp2421
g62
(dp2422
sg71
g2416
sg64
(lp2423
g57
(g78
g59
NtRp2424
(dp2425
g62
(dp2426
g82
g83
ssg71
g2420
sg64
(lp2427
S'Supply'
p2428
asbag57
(g78
g59
NtRp2429
(dp2430
g62
(dp2431
g89
g90
ssg71
g2420
sg64
(lp2432
S':'
asbag57
(g78
g59
NtRp2433
(dp2434
g62
(dp2435
sg71
g2420
sg64
(lp2436
g57
(g58
g59
NtRp2437
(dp2438
g62
(dp2439
g70
I4
ssg71
g2433
sg64
(lp2440
S''
asbasbasbag57
(g73
g59
NtRp2441
(dp2442
g62
(dp2443
sg71
g2416
sg64
(lp2444
g57
(g78
g59
NtRp2445
(dp2446
g62
(dp2447
g82
g83
ssg71
g2441
sg64
(lp2448
S'Unit'
p2449
asbag57
(g78
g59
NtRp2450
(dp2451
g62
(dp2452
g89
g90
ssg71
g2441
sg64
(lp2453
S':'
asbag57
(g78
g59
NtRp2454
(dp2455
g62
(dp2456
sg71
g2441
sg64
(lp2457
g57
(g58
g59
NtRp2458
(dp2459
g62
(dp2460
g70
I4
ssg71
g2454
sg64
(lp2461
S'Probe'
p2462
asbasbasbag57
(g73
g59
NtRp2463
(dp2464
g62
(dp2465
sg71
g2416
sg64
(lp2466
g57
(g78
g59
NtRp2467
(dp2468
g62
(dp2469
g82
g83
ssg71
g2463
sg64
(lp2470
S'build'
p2471
asbag57
(g78
g59
NtRp2472
(dp2473
g62
(dp2474
g89
g90
ssg71
g2463
sg64
(lp2475
S':'
asbag57
(g78
g59
NtRp2476
(dp2477
g62
(dp2478
sg71
g2463
sg64
(lp2479
g57
(g58
g59
NtRp2480
(dp2481
g62
(dp2482
g70
I4
ssg71
g2476
sg64
(lp2483
S'81'
p2484
asbasbasbag57
(g73
g59
NtRp2485
(dp2486
g62
(dp2487
sg71
g2416
sg64
(lp2488
g57
(g78
g59
NtRp2489
(dp2490
g62
(dp2491
g82
g83
ssg71
g2485
sg64
(lp2492
S'buildname'
p2493
asbag57
(g78
g59
NtRp2494
(dp2495
g62
(dp2496
g89
g90
ssg71
g2485
sg64
(lp2497
S':'
asbag57
(g78
g59
NtRp2498
(dp2499
g62
(dp2500
sg71
g2485
sg64
(lp2501
g57
(g58
g59
NtRp2502
(dp2503
g62
(dp2504
g70
I4
ssg71
g2498
sg64
(lp2505
S'Type your build name here!'
p2506
asbasbasbag57
(g73
g59
NtRp2507
(dp2508
g62
(dp2509
sg71
g2416
sg64
(lp2510
g57
(g78
g59
NtRp2511
(dp2512
g62
(dp2513
g82
g83
ssg71
g2507
sg64
(lp2514
S'race'
p2515
asbag57
(g78
g59
NtRp2516
(dp2517
g62
(dp2518
g89
g90
ssg71
g2507
sg64
(lp2519
S':'
asbag57
(g78
g59
NtRp2520
(dp2521
g62
(dp2522
sg71
g2507
sg64
(lp2523
g57
(g58
g59
NtRp2524
(dp2525
g62
(dp2526
g70
I4
ssg71
g2520
sg64
(lp2527
S'protoss'
p2528
asbasbasbag57
(g73
g59
NtRp2529
(dp2530
g62
(dp2531
sg71
g2416
sg64
(lp2532
g57
(g78
g59
NtRp2533
(dp2534
g62
(dp2535
g82
g83
ssg71
g2529
sg64
(lp2536
S'supply'
p2537
asbag57
(g78
g59
NtRp2538
(dp2539
g62
(dp2540
g89
g90
ssg71
g2529
sg64
(lp2541
S':'
asbag57
(g78
g59
NtRp2542
(dp2543
g62
(dp2544
sg71
g2529
sg64
(lp2545
g57
(g58
g59
NtRp2546
(dp2547
g62
(dp2548
g70
I4
ssg71
g2542
sg64
(lp2549
S'5||'
p2550
asbasbasbag57
(g73
g59
NtRp2551
(dp2552
g62
(dp2553
sg71
g2416
sg64
(lp2554
g57
(g78
g59
NtRp2555
(dp2556
g62
(dp2557
g82
g83
ssg71
g2551
sg64
(lp2558
S'unit'
p2559
asbag57
(g78
g59
NtRp2560
(dp2561
g62
(dp2562
g89
g90
ssg71
g2551
sg64
(lp2563
S':'
asbag57
(g78
g59
NtRp2564
(dp2565
g62
(dp2566
sg71
g2551
sg64
(lp2567
g57
(g58
g59
NtRp2568
(dp2569
g62
(dp2570
g70
I4
ssg71
g2564
sg64
(lp2571
S'||Gateway||'
p2572
asbasbasbasbasbasbasbag57
(g73
g59
NtRp2573
(dp2574
g62
(dp2575
sg71
g67
sg64
(lp2576
g57
(g78
g59
NtRp2577
(dp2578
g62
(dp2579
g82
g83
ssg71
g2573
sg64
(lp2580
S'url'
p2581
asbag57
(g78
g59
NtRp2582
(dp2583
g62
(dp2584
g89
g90
ssg71
g2573
sg64
(lp2585
S':'
asbag57
(g78
g59
NtRp2586
(dp2587
g62
(dp2588
sg71
g2573
sg64
(lp2589
g57
(g58
g59
NtRp2590
(dp2591
g62
(dp2592
g70
I5
ssg71
g2586
sg64
(lp2593
S'/Starcraft2/default/build'
p2594
asbasbasbag57
(g73
g59
NtRp2595
(dp2596
g62
(dp2597
sg71
g67
sg64
(lp2598
g57
(g78
g59
NtRp2599
(dp2600
g62
(dp2601
g82
g83
ssg71
g2595
sg64
(lp2602
S'utcnow'
p2603
asbag57
(g78
g59
NtRp2604
(dp2605
g62
(dp2606
g89
g90
ssg71
g2595
sg64
(lp2607
S':'
asbag57
(g78
g59
NtRp2608
(dp2609
g62
(dp2610
sg71
g2595
sg64
(lp2611
g57
(g58
g59
NtRp2612
(dp2613
g62
(dp2614
g70
I5
ssg71
g2608
sg64
(lp2615
S'datetime.datetime(2012, 5, 13, 18, 21, 30, 224974)'
p2616
asbasbasbag57
(g73
g59
NtRp2617
(dp2618
g62
(dp2619
sg71
g67
sg64
(lp2620
g57
(g78
g59
NtRp2621
(dp2622
g62
(dp2623
g82
g83
ssg71
g2617
sg64
(lp2624
S'uuid'
p2625
asbag57
(g78
g59
NtRp2626
(dp2627
g62
(dp2628
g89
g90
ssg71
g2617
sg64
(lp2629
S':'
asbag57
(g78
g59
NtRp2630
(dp2631
g62
(dp2632
sg71
g2617
sg64
(lp2633
g57
(g58
g59
NtRp2634
(dp2635
g62
(dp2636
g70
I5
ssg71
g2630
sg64
(lp2637
S'Starcraft2/127.0.0.1.2012-05-13.13-21-30.c1aa3bd4-ae1e-46e7-8ba3-92fc0bd0fd48'
p2638
asbasbasbag57
(g73
g59
NtRp2639
(dp2640
g62
(dp2641
sg71
g67
sg64
(lp2642
g57
(g78
g59
NtRp2643
(dp2644
g62
(dp2645
g82
g83
ssg71
g2639
sg64
(lp2646
S'vars'
p2647
asbag57
(g78
g59
NtRp2648
(dp2649
g62
(dp2650
g89
g90
ssg71
g2639
sg64
(lp2651
S':'
asbag57
(g78
g59
NtRp2652
(dp2653
g62
(dp2654
sg71
g2639
sg64
(lp2655
g57
(g58
g59
NtRp2656
(dp2657
g62
(dp2658
g70
I5
ssg71
g2652
sg64
(lp2659
g57
(g66
g59
NtRp2660
(dp2661
g62
(dp2662
g70
I4
ssg71
Nsg64
(lp2663
g57
(g73
g59
NtRp2664
(dp2665
g62
(dp2666
sg71
g2660
sg64
(lp2667
g57
(g78
g59
NtRp2668
(dp2669
g62
(dp2670
g82
g83
ssg71
g2664
sg64
(lp2671
g2428
asbag57
(g78
g59
NtRp2672
(dp2673
g62
(dp2674
g89
g90
ssg71
g2664
sg64
(lp2675
S':'
asbag57
(g78
g59
NtRp2676
(dp2677
g62
(dp2678
sg71
g2664
sg64
(lp2679
g57
(g58
g59
NtRp2680
(dp2681
g62
(dp2682
g70
I4
ssg71
g2676
sg64
(lp2683
S''
asbasbasbag57
(g73
g59
NtRp2684
(dp2685
g62
(dp2686
sg71
g2660
sg64
(lp2687
g57
(g78
g59
NtRp2688
(dp2689
g62
(dp2690
g82
g83
ssg71
g2684
sg64
(lp2691
g2449
asbag57
(g78
g59
NtRp2692
(dp2693
g62
(dp2694
g89
g90
ssg71
g2684
sg64
(lp2695
S':'
asbag57
(g78
g59
NtRp2696
(dp2697
g62
(dp2698
sg71
g2684
sg64
(lp2699
g57
(g58
g59
NtRp2700
(dp2701
g62
(dp2702
g70
I4
ssg71
g2696
sg64
(lp2703
g2462
asbasbasbag57
(g73
g59
NtRp2704
(dp2705
g62
(dp2706
sg71
g2660
sg64
(lp2707
g57
(g78
g59
NtRp2708
(dp2709
g62
(dp2710
g82
g83
ssg71
g2704
sg64
(lp2711
g2471
asbag57
(g78
g59
NtRp2712
(dp2713
g62
(dp2714
g89
g90
ssg71
g2704
sg64
(lp2715
S':'
asbag57
(g78
g59
NtRp2716
(dp2717
g62
(dp2718
sg71
g2704
sg64
(lp2719
g57
(g58
g59
NtRp2720
(dp2721
g62
(dp2722
g70
I4
ssg71
g2716
sg64
(lp2723
g2484
asbasbasbag57
(g73
g59
NtRp2724
(dp2725
g62
(dp2726
sg71
g2660
sg64
(lp2727
g57
(g78
g59
NtRp2728
(dp2729
g62
(dp2730
g82
g83
ssg71
g2724
sg64
(lp2731
g2493
asbag57
(g78
g59
NtRp2732
(dp2733
g62
(dp2734
g89
g90
ssg71
g2724
sg64
(lp2735
S':'
asbag57
(g78
g59
NtRp2736
(dp2737
g62
(dp2738
sg71
g2724
sg64
(lp2739
g57
(g58
g59
NtRp2740
(dp2741
g62
(dp2742
g70
I4
ssg71
g2736
sg64
(lp2743
g2506
asbasbasbag57
(g73
g59
NtRp2744
(dp2745
g62
(dp2746
sg71
g2660
sg64
(lp2747
g57
(g78
g59
NtRp2748
(dp2749
g62
(dp2750
g82
g83
ssg71
g2744
sg64
(lp2751
g2515
asbag57
(g78
g59
NtRp2752
(dp2753
g62
(dp2754
g89
g90
ssg71
g2744
sg64
(lp2755
S':'
asbag57
(g78
g59
NtRp2756
(dp2757
g62
(dp2758
sg71
g2744
sg64
(lp2759
g57
(g58
g59
NtRp2760
(dp2761
g62
(dp2762
g70
I4
ssg71
g2756
sg64
(lp2763
g2528
asbasbasbag57
(g73
g59
NtRp2764
(dp2765
g62
(dp2766
sg71
g2660
sg64
(lp2767
g57
(g78
g59
NtRp2768
(dp2769
g62
(dp2770
g82
g83
ssg71
g2764
sg64
(lp2771
g2537
asbag57
(g78
g59
NtRp2772
(dp2773
g62
(dp2774
g89
g90
ssg71
g2764
sg64
(lp2775
S':'
asbag57
(g78
g59
NtRp2776
(dp2777
g62
(dp2778
sg71
g2764
sg64
(lp2779
g57
(g58
g59
NtRp2780
(dp2781
g62
(dp2782
g70
I4
ssg71
g2776
sg64
(lp2783
g2550
asbasbasbag57
(g73
g59
NtRp2784
(dp2785
g62
(dp2786
sg71
g2660
sg64
(lp2787
g57
(g78
g59
NtRp2788
(dp2789
g62
(dp2790
g82
g83
ssg71
g2784
sg64
(lp2791
g2559
asbag57
(g78
g59
NtRp2792
(dp2793
g62
(dp2794
g89
g90
ssg71
g2784
sg64
(lp2795
S':'
asbag57
(g78
g59
NtRp2796
(dp2797
g62
(dp2798
sg71
g2784
sg64
(lp2799
g57
(g58
g59
NtRp2800
(dp2801
g62
(dp2802
g70
I4
ssg71
g2796
sg64
(lp2803
g2572
asbasbasbasbasbasbasbag57
(g73
g59
NtRp2804
(dp2805
g62
(dp2806
sg71
g67
sg64
(lp2807
g57
(g78
g59
NtRp2808
(dp2809
g62
(dp2810
g82
g83
ssg71
g2804
sg64
(lp2811
S'wsgi'
p2812
asbag57
(g78
g59
NtRp2813
(dp2814
g62
(dp2815
g89
g90
ssg71
g2804
sg64
(lp2816
S':'
asbag57
(g78
g59
NtRp2817
(dp2818
g62
(dp2819
sg71
g2804
sg64
(lp2820
g57
(g58
g59
NtRp2821
(dp2822
g62
(dp2823
g70
I5
ssg71
g2817
sg64
(lp2824
g57
(g66
g59
NtRp2825
(dp2826
g62
(dp2827
g70
I4
ssg71
Nsg64
(lp2828
g57
(g73
g59
NtRp2829
(dp2830
g62
(dp2831
sg71
g2825
sg64
(lp2832
g57
(g78
g59
NtRp2833
(dp2834
g62
(dp2835
g82
g83
ssg71
g2829
sg64
(lp2836
S'environ'
p2837
asbag57
(g78
g59
NtRp2838
(dp2839
g62
(dp2840
g89
g90
ssg71
g2829
sg64
(lp2841
S':'
asbag57
(g78
g59
NtRp2842
(dp2843
g62
(dp2844
sg71
g2829
sg64
(lp2845
g57
(g58
g59
NtRp2846
(dp2847
g62
(dp2848
g70
I4
ssg71
g2842
sg64
(lp2849
g57
(g66
g59
NtRp2850
(dp2851
g62
(dp2852
g70
I3
ssg71
Nsg64
(lp2853
g57
(g73
g59
NtRp2854
(dp2855
g62
(dp2856
sg71
g2850
sg64
(lp2857
g57
(g78
g59
NtRp2858
(dp2859
g62
(dp2860
g82
g83
ssg71
g2854
sg64
(lp2861
S'CONTENT_LENGTH'
p2862
asbag57
(g78
g59
NtRp2863
(dp2864
g62
(dp2865
g89
g90
ssg71
g2854
sg64
(lp2866
S':'
asbag57
(g78
g59
NtRp2867
(dp2868
g62
(dp2869
sg71
g2854
sg64
(lp2870
g57
(g58
g59
NtRp2871
(dp2872
g62
(dp2873
g70
I3
ssg71
g2867
sg64
(lp2874
g938
asbasbasbag57
(g73
g59
NtRp2875
(dp2876
g62
(dp2877
sg71
g2850
sg64
(lp2878
g57
(g78
g59
NtRp2879
(dp2880
g62
(dp2881
g82
g83
ssg71
g2875
sg64
(lp2882
S'CONTENT_TYPE'
p2883
asbag57
(g78
g59
NtRp2884
(dp2885
g62
(dp2886
g89
g90
ssg71
g2875
sg64
(lp2887
S':'
asbag57
(g78
g59
NtRp2888
(dp2889
g62
(dp2890
sg71
g2875
sg64
(lp2891
g57
(g58
g59
NtRp2892
(dp2893
g62
(dp2894
g70
I3
ssg71
g2888
sg64
(lp2895
g960
asbasbasbag57
(g73
g59
NtRp2896
(dp2897
g62
(dp2898
sg71
g2850
sg64
(lp2899
g57
(g78
g59
NtRp2900
(dp2901
g62
(dp2902
g82
g83
ssg71
g2896
sg64
(lp2903
S'HTTP_ACCEPT'
p2904
asbag57
(g78
g59
NtRp2905
(dp2906
g62
(dp2907
g89
g90
ssg71
g2896
sg64
(lp2908
S':'
asbag57
(g78
g59
NtRp2909
(dp2910
g62
(dp2911
sg71
g2896
sg64
(lp2912
g57
(g58
g59
NtRp2913
(dp2914
g62
(dp2915
g70
I3
ssg71
g2909
sg64
(lp2916
g1047
asbasbasbag57
(g73
g59
NtRp2917
(dp2918
g62
(dp2919
sg71
g2850
sg64
(lp2920
g57
(g78
g59
NtRp2921
(dp2922
g62
(dp2923
g82
g83
ssg71
g2917
sg64
(lp2924
S'HTTP_ACCEPT_CHARSET'
p2925
asbag57
(g78
g59
NtRp2926
(dp2927
g62
(dp2928
g89
g90
ssg71
g2917
sg64
(lp2929
S':'
asbag57
(g78
g59
NtRp2930
(dp2931
g62
(dp2932
sg71
g2917
sg64
(lp2933
g57
(g58
g59
NtRp2934
(dp2935
g62
(dp2936
g70
I3
ssg71
g2930
sg64
(lp2937
g1069
asbasbasbag57
(g73
g59
NtRp2938
(dp2939
g62
(dp2940
sg71
g2850
sg64
(lp2941
g57
(g78
g59
NtRp2942
(dp2943
g62
(dp2944
g82
g83
ssg71
g2938
sg64
(lp2945
S'HTTP_ACCEPT_ENCODING'
p2946
asbag57
(g78
g59
NtRp2947
(dp2948
g62
(dp2949
g89
g90
ssg71
g2938
sg64
(lp2950
S':'
asbag57
(g78
g59
NtRp2951
(dp2952
g62
(dp2953
sg71
g2938
sg64
(lp2954
g57
(g58
g59
NtRp2955
(dp2956
g62
(dp2957
g70
I3
ssg71
g2951
sg64
(lp2958
g1091
asbasbasbag57
(g73
g59
NtRp2959
(dp2960
g62
(dp2961
sg71
g2850
sg64
(lp2962
g57
(g78
g59
NtRp2963
(dp2964
g62
(dp2965
g82
g83
ssg71
g2959
sg64
(lp2966
S'HTTP_ACCEPT_LANGUAGE'
p2967
asbag57
(g78
g59
NtRp2968
(dp2969
g62
(dp2970
g89
g90
ssg71
g2959
sg64
(lp2971
S':'
asbag57
(g78
g59
NtRp2972
(dp2973
g62
(dp2974
sg71
g2959
sg64
(lp2975
g57
(g58
g59
NtRp2976
(dp2977
g62
(dp2978
g70
I3
ssg71
g2972
sg64
(lp2979
g1113
asbasbasbag57
(g73
g59
NtRp2980
(dp2981
g62
(dp2982
sg71
g2850
sg64
(lp2983
g57
(g78
g59
NtRp2984
(dp2985
g62
(dp2986
g82
g83
ssg71
g2980
sg64
(lp2987
S'HTTP_CACHE_CONTROL'
p2988
asbag57
(g78
g59
NtRp2989
(dp2990
g62
(dp2991
g89
g90
ssg71
g2980
sg64
(lp2992
S':'
asbag57
(g78
g59
NtRp2993
(dp2994
g62
(dp2995
sg71
g2980
sg64
(lp2996
g57
(g58
g59
NtRp2997
(dp2998
g62
(dp2999
g70
I3
ssg71
g2993
sg64
(lp3000
g1135
asbasbasbag57
(g73
g59
NtRp3001
(dp3002
g62
(dp3003
sg71
g2850
sg64
(lp3004
g57
(g78
g59
NtRp3005
(dp3006
g62
(dp3007
g82
g83
ssg71
g3001
sg64
(lp3008
S'HTTP_CONNECTION'
p3009
asbag57
(g78
g59
NtRp3010
(dp3011
g62
(dp3012
g89
g90
ssg71
g3001
sg64
(lp3013
S':'
asbag57
(g78
g59
NtRp3014
(dp3015
g62
(dp3016
sg71
g3001
sg64
(lp3017
g57
(g58
g59
NtRp3018
(dp3019
g62
(dp3020
g70
I3
ssg71
g3014
sg64
(lp3021
g1157
asbasbasbag57
(g73
g59
NtRp3022
(dp3023
g62
(dp3024
sg71
g2850
sg64
(lp3025
g57
(g78
g59
NtRp3026
(dp3027
g62
(dp3028
g82
g83
ssg71
g3022
sg64
(lp3029
S'HTTP_CONTENT_LENGTH'
p3030
asbag57
(g78
g59
NtRp3031
(dp3032
g62
(dp3033
g89
g90
ssg71
g3022
sg64
(lp3034
S':'
asbag57
(g78
g59
NtRp3035
(dp3036
g62
(dp3037
sg71
g3022
sg64
(lp3038
g57
(g58
g59
NtRp3039
(dp3040
g62
(dp3041
g70
I3
ssg71
g3035
sg64
(lp3042
g938
asbasbasbag57
(g73
g59
NtRp3043
(dp3044
g62
(dp3045
sg71
g2850
sg64
(lp3046
g57
(g78
g59
NtRp3047
(dp3048
g62
(dp3049
g82
g83
ssg71
g3043
sg64
(lp3050
S'HTTP_CONTENT_TYPE'
p3051
asbag57
(g78
g59
NtRp3052
(dp3053
g62
(dp3054
g89
g90
ssg71
g3043
sg64
(lp3055
S':'
asbag57
(g78
g59
NtRp3056
(dp3057
g62
(dp3058
sg71
g3043
sg64
(lp3059
g57
(g58
g59
NtRp3060
(dp3061
g62
(dp3062
g70
I3
ssg71
g3056
sg64
(lp3063
g960
asbasbasbag57
(g73
g59
NtRp3064
(dp3065
g62
(dp3066
sg71
g2850
sg64
(lp3067
g57
(g78
g59
NtRp3068
(dp3069
g62
(dp3070
g82
g83
ssg71
g3064
sg64
(lp3071
S'HTTP_COOKIE'
p3072
asbag57
(g78
g59
NtRp3073
(dp3074
g62
(dp3075
g89
g90
ssg71
g3064
sg64
(lp3076
S':'
asbag57
(g78
g59
NtRp3077
(dp3078
g62
(dp3079
sg71
g3064
sg64
(lp3080
g57
(g58
g59
NtRp3081
(dp3082
g62
(dp3083
g70
I3
ssg71
g3077
sg64
(lp3084
g1221
asbasbasbag57
(g73
g59
NtRp3085
(dp3086
g62
(dp3087
sg71
g2850
sg64
(lp3088
g57
(g78
g59
NtRp3089
(dp3090
g62
(dp3091
g82
g83
ssg71
g3085
sg64
(lp3092
S'HTTP_HOST'
p3093
asbag57
(g78
g59
NtRp3094
(dp3095
g62
(dp3096
g89
g90
ssg71
g3085
sg64
(lp3097
S':'
asbag57
(g78
g59
NtRp3098
(dp3099
g62
(dp3100
sg71
g3085
sg64
(lp3101
g57
(g58
g59
NtRp3102
(dp3103
g62
(dp3104
g70
I3
ssg71
g3098
sg64
(lp3105
g1243
asbasbasbag57
(g73
g59
NtRp3106
(dp3107
g62
(dp3108
sg71
g2850
sg64
(lp3109
g57
(g78
g59
NtRp3110
(dp3111
g62
(dp3112
g82
g83
ssg71
g3106
sg64
(lp3113
S'HTTP_ORIGIN'
p3114
asbag57
(g78
g59
NtRp3115
(dp3116
g62
(dp3117
g89
g90
ssg71
g3106
sg64
(lp3118
S':'
asbag57
(g78
g59
NtRp3119
(dp3120
g62
(dp3121
sg71
g3106
sg64
(lp3122
g57
(g58
g59
NtRp3123
(dp3124
g62
(dp3125
g70
I3
ssg71
g3119
sg64
(lp3126
g1265
asbasbasbag57
(g73
g59
NtRp3127
(dp3128
g62
(dp3129
sg71
g2850
sg64
(lp3130
g57
(g78
g59
NtRp3131
(dp3132
g62
(dp3133
g82
g83
ssg71
g3127
sg64
(lp3134
S'HTTP_REFERER'
p3135
asbag57
(g78
g59
NtRp3136
(dp3137
g62
(dp3138
g89
g90
ssg71
g3127
sg64
(lp3139
S':'
asbag57
(g78
g59
NtRp3140
(dp3141
g62
(dp3142
sg71
g3127
sg64
(lp3143
g57
(g58
g59
NtRp3144
(dp3145
g62
(dp3146
g70
I3
ssg71
g3140
sg64
(lp3147
g1287
asbasbasbag57
(g73
g59
NtRp3148
(dp3149
g62
(dp3150
sg71
g2850
sg64
(lp3151
g57
(g78
g59
NtRp3152
(dp3153
g62
(dp3154
g82
g83
ssg71
g3148
sg64
(lp3155
S'HTTP_USER_AGENT'
p3156
asbag57
(g78
g59
NtRp3157
(dp3158
g62
(dp3159
g89
g90
ssg71
g3148
sg64
(lp3160
S':'
asbag57
(g78
g59
NtRp3161
(dp3162
g62
(dp3163
sg71
g3148
sg64
(lp3164
g57
(g58
g59
NtRp3165
(dp3166
g62
(dp3167
g70
I3
ssg71
g3161
sg64
(lp3168
g1309
asbasbasbag57
(g73
g59
NtRp3169
(dp3170
g62
(dp3171
sg71
g2850
sg64
(lp3172
g57
(g78
g59
NtRp3173
(dp3174
g62
(dp3175
g82
g83
ssg71
g3169
sg64
(lp3176
S'PATH_INFO'
p3177
asbag57
(g78
g59
NtRp3178
(dp3179
g62
(dp3180
g89
g90
ssg71
g3169
sg64
(lp3181
S':'
asbag57
(g78
g59
NtRp3182
(dp3183
g62
(dp3184
sg71
g3169
sg64
(lp3185
g57
(g58
g59
NtRp3186
(dp3187
g62
(dp3188
g70
I3
ssg71
g3182
sg64
(lp3189
g1373
asbasbasbag57
(g73
g59
NtRp3190
(dp3191
g62
(dp3192
sg71
g2850
sg64
(lp3193
g57
(g78
g59
NtRp3194
(dp3195
g62
(dp3196
g82
g83
ssg71
g3190
sg64
(lp3197
S'QUERY_STRING'
p3198
asbag57
(g78
g59
NtRp3199
(dp3200
g62
(dp3201
g89
g90
ssg71
g3190
sg64
(lp3202
S':'
asbag57
(g78
g59
NtRp3203
(dp3204
g62
(dp3205
sg71
g3190
sg64
(lp3206
g57
(g58
g59
NtRp3207
(dp3208
g62
(dp3209
g70
I3
ssg71
g3203
sg64
(lp3210
S''
asbasbasbag57
(g73
g59
NtRp3211
(dp3212
g62
(dp3213
sg71
g2850
sg64
(lp3214
g57
(g78
g59
NtRp3215
(dp3216
g62
(dp3217
g82
g83
ssg71
g3211
sg64
(lp3218
S'REMOTE_ADDR'
p3219
asbag57
(g78
g59
NtRp3220
(dp3221
g62
(dp3222
g89
g90
ssg71
g3211
sg64
(lp3223
S':'
asbag57
(g78
g59
NtRp3224
(dp3225
g62
(dp3226
sg71
g3211
sg64
(lp3227
g57
(g58
g59
NtRp3228
(dp3229
g62
(dp3230
g70
I3
ssg71
g3224
sg64
(lp3231
g190
asbasbasbag57
(g73
g59
NtRp3232
(dp3233
g62
(dp3234
sg71
g2850
sg64
(lp3235
g57
(g78
g59
NtRp3236
(dp3237
g62
(dp3238
g82
g83
ssg71
g3232
sg64
(lp3239
S'REMOTE_PORT'
p3240
asbag57
(g78
g59
NtRp3241
(dp3242
g62
(dp3243
g89
g90
ssg71
g3232
sg64
(lp3244
S':'
asbag57
(g78
g59
NtRp3245
(dp3246
g62
(dp3247
sg71
g3232
sg64
(lp3248
g57
(g58
g59
NtRp3249
(dp3250
g62
(dp3251
g70
I3
ssg71
g3245
sg64
(lp3252
g1437
asbasbasbag57
(g73
g59
NtRp3253
(dp3254
g62
(dp3255
sg71
g2850
sg64
(lp3256
g57
(g78
g59
NtRp3257
(dp3258
g62
(dp3259
g82
g83
ssg71
g3253
sg64
(lp3260
S'REQUEST_METHOD'
p3261
asbag57
(g78
g59
NtRp3262
(dp3263
g62
(dp3264
g89
g90
ssg71
g3253
sg64
(lp3265
S':'
asbag57
(g78
g59
NtRp3266
(dp3267
g62
(dp3268
sg71
g3253
sg64
(lp3269
g57
(g58
g59
NtRp3270
(dp3271
g62
(dp3272
g70
I3
ssg71
g3266
sg64
(lp3273
g1459
asbasbasbag57
(g73
g59
NtRp3274
(dp3275
g62
(dp3276
sg71
g2850
sg64
(lp3277
g57
(g78
g59
NtRp3278
(dp3279
g62
(dp3280
g82
g83
ssg71
g3274
sg64
(lp3281
S'SCRIPT_NAME'
p3282
asbag57
(g78
g59
NtRp3283
(dp3284
g62
(dp3285
g89
g90
ssg71
g3274
sg64
(lp3286
S':'
asbag57
(g78
g59
NtRp3287
(dp3288
g62
(dp3289
sg71
g3274
sg64
(lp3290
g57
(g58
g59
NtRp3291
(dp3292
g62
(dp3293
g70
I3
ssg71
g3287
sg64
(lp3294
S''
asbasbasbag57
(g73
g59
NtRp3295
(dp3296
g62
(dp3297
sg71
g2850
sg64
(lp3298
g57
(g78
g59
NtRp3299
(dp3300
g62
(dp3301
g82
g83
ssg71
g3295
sg64
(lp3302
S'SERVER_NAME'
p3303
asbag57
(g78
g59
NtRp3304
(dp3305
g62
(dp3306
g89
g90
ssg71
g3295
sg64
(lp3307
S':'
asbag57
(g78
g59
NtRp3308
(dp3309
g62
(dp3310
sg71
g3295
sg64
(lp3311
g57
(g58
g59
NtRp3312
(dp3313
g62
(dp3314
g70
I3
ssg71
g3308
sg64
(lp3315
g1502
asbasbasbag57
(g73
g59
NtRp3316
(dp3317
g62
(dp3318
sg71
g2850
sg64
(lp3319
g57
(g78
g59
NtRp3320
(dp3321
g62
(dp3322
g82
g83
ssg71
g3316
sg64
(lp3323
S'SERVER_PORT'
p3324
asbag57
(g78
g59
NtRp3325
(dp3326
g62
(dp3327
g89
g90
ssg71
g3316
sg64
(lp3328
S':'
asbag57
(g78
g59
NtRp3329
(dp3330
g62
(dp3331
sg71
g3316
sg64
(lp3332
g57
(g58
g59
NtRp3333
(dp3334
g62
(dp3335
g70
I3
ssg71
g3329
sg64
(lp3336
g1524
asbasbasbag57
(g73
g59
NtRp3337
(dp3338
g62
(dp3339
sg71
g2850
sg64
(lp3340
g57
(g78
g59
NtRp3341
(dp3342
g62
(dp3343
g82
g83
ssg71
g3337
sg64
(lp3344
S'SERVER_PROTOCOL'
p3345
asbag57
(g78
g59
NtRp3346
(dp3347
g62
(dp3348
g89
g90
ssg71
g3337
sg64
(lp3349
S':'
asbag57
(g78
g59
NtRp3350
(dp3351
g62
(dp3352
sg71
g3337
sg64
(lp3353
g57
(g58
g59
NtRp3354
(dp3355
g62
(dp3356
g70
I3
ssg71
g3350
sg64
(lp3357
g1546
asbasbasbag57
(g73
g59
NtRp3358
(dp3359
g62
(dp3360
sg71
g2850
sg64
(lp3361
g57
(g78
g59
NtRp3362
(dp3363
g62
(dp3364
g82
g83
ssg71
g3358
sg64
(lp3365
S'SERVER_SOFTWARE'
p3366
asbag57
(g78
g59
NtRp3367
(dp3368
g62
(dp3369
g89
g90
ssg71
g3358
sg64
(lp3370
S':'
asbag57
(g78
g59
NtRp3371
(dp3372
g62
(dp3373
sg71
g3358
sg64
(lp3374
g57
(g58
g59
NtRp3375
(dp3376
g62
(dp3377
g70
I3
ssg71
g3371
sg64
(lp3378
g1568
asbasbasbag57
(g73
g59
NtRp3379
(dp3380
g62
(dp3381
sg71
g2850
sg64
(lp3382
g57
(g78
g59
NtRp3383
(dp3384
g62
(dp3385
g82
g83
ssg71
g3379
sg64
(lp3386
S'wsgi.errors'
p3387
asbag57
(g78
g59
NtRp3388
(dp3389
g62
(dp3390
g89
g90
ssg71
g3379
sg64
(lp3391
S':'
asbag57
(g78
g59
NtRp3392
(dp3393
g62
(dp3394
sg71
g3379
sg64
(lp3395
g57
(g58
g59
NtRp3396
(dp3397
g62
(dp3398
g70
I3
ssg71
g3392
sg64
(lp3399
S"<open file '<stderr>', mode 'w' at 0x100282270>"
p3400
asbasbasbag57
(g73
g59
NtRp3401
(dp3402
g62
(dp3403
sg71
g2850
sg64
(lp3404
g57
(g78
g59
NtRp3405
(dp3406
g62
(dp3407
g82
g83
ssg71
g3401
sg64
(lp3408
S'wsgi.file_wrapper'
p3409
asbag57
(g78
g59
NtRp3410
(dp3411
g62
(dp3412
g89
g90
ssg71
g3401
sg64
(lp3413
S':'
asbag57
(g78
g59
NtRp3414
(dp3415
g62
(dp3416
sg71
g3401
sg64
(lp3417
g57
(g58
g59
NtRp3418
(dp3419
g62
(dp3420
g70
I3
ssg71
g3414
sg64
(lp3421
S'<class wsgiref.util.FileWrapper at 0x101766a78>'
p3422
asbasbasbag57
(g73
g59
NtRp3423
(dp3424
g62
(dp3425
sg71
g2850
sg64
(lp3426
g57
(g78
g59
NtRp3427
(dp3428
g62
(dp3429
g82
g83
ssg71
g3423
sg64
(lp3430
S'wsgi.input'
p3431
asbag57
(g78
g59
NtRp3432
(dp3433
g62
(dp3434
g89
g90
ssg71
g3423
sg64
(lp3435
S':'
asbag57
(g78
g59
NtRp3436
(dp3437
g62
(dp3438
sg71
g3423
sg64
(lp3439
g57
(g58
g59
NtRp3440
(dp3441
g62
(dp3442
g70
I3
ssg71
g3436
sg64
(lp3443
S"<open file '<fdopen>', mode 'w+b' at 0x10c304c90>"
p3444
asbasbasbag57
(g73
g59
NtRp3445
(dp3446
g62
(dp3447
sg71
g2850
sg64
(lp3448
g57
(g78
g59
NtRp3449
(dp3450
g62
(dp3451
g82
g83
ssg71
g3445
sg64
(lp3452
S'wsgi.multiprocess'
p3453
asbag57
(g78
g59
NtRp3454
(dp3455
g62
(dp3456
g89
g90
ssg71
g3445
sg64
(lp3457
S':'
asbag57
(g78
g59
NtRp3458
(dp3459
g62
(dp3460
sg71
g3445
sg64
(lp3461
g57
(g58
g59
NtRp3462
(dp3463
g62
(dp3464
g70
I3
ssg71
g3458
sg64
(lp3465
g100
asbasbasbag57
(g73
g59
NtRp3466
(dp3467
g62
(dp3468
sg71
g2850
sg64
(lp3469
g57
(g78
g59
NtRp3470
(dp3471
g62
(dp3472
g82
g83
ssg71
g3466
sg64
(lp3473
S'wsgi.multithread'
p3474
asbag57
(g78
g59
NtRp3475
(dp3476
g62
(dp3477
g89
g90
ssg71
g3466
sg64
(lp3478
S':'
asbag57
(g78
g59
NtRp3479
(dp3480
g62
(dp3481
sg71
g3466
sg64
(lp3482
g57
(g58
g59
NtRp3483
(dp3484
g62
(dp3485
g70
I3
ssg71
g3479
sg64
(lp3486
g1808
asbasbasbag57
(g73
g59
NtRp3487
(dp3488
g62
(dp3489
sg71
g2850
sg64
(lp3490
g57
(g78
g59
NtRp3491
(dp3492
g62
(dp3493
g82
g83
ssg71
g3487
sg64
(lp3494
S'wsgi.run_once'
p3495
asbag57
(g78
g59
NtRp3496
(dp3497
g62
(dp3498
g89
g90
ssg71
g3487
sg64
(lp3499
S':'
asbag57
(g78
g59
NtRp3500
(dp3501
g62
(dp3502
sg71
g3487
sg64
(lp3503
g57
(g58
g59
NtRp3504
(dp3505
g62
(dp3506
g70
I3
ssg71
g3500
sg64
(lp3507
g100
asbasbasbag57
(g73
g59
NtRp3508
(dp3509
g62
(dp3510
sg71
g2850
sg64
(lp3511
g57
(g78
g59
NtRp3512
(dp3513
g62
(dp3514
g82
g83
ssg71
g3508
sg64
(lp3515
S'wsgi.url_scheme'
p3516
asbag57
(g78
g59
NtRp3517
(dp3518
g62
(dp3519
g89
g90
ssg71
g3508
sg64
(lp3520
S':'
asbag57
(g78
g59
NtRp3521
(dp3522
g62
(dp3523
sg71
g3508
sg64
(lp3524
g57
(g58
g59
NtRp3525
(dp3526
g62
(dp3527
g70
I3
ssg71
g3521
sg64
(lp3528
g1851
asbasbasbag57
(g73
g59
NtRp3529
(dp3530
g62
(dp3531
sg71
g2850
sg64
(lp3532
g57
(g78
g59
NtRp3533
(dp3534
g62
(dp3535
g82
g83
ssg71
g3529
sg64
(lp3536
S'wsgi.version'
p3537
asbag57
(g78
g59
NtRp3538
(dp3539
g62
(dp3540
g89
g90
ssg71
g3529
sg64
(lp3541
S':'
asbag57
(g78
g59
NtRp3542
(dp3543
g62
(dp3544
sg71
g3529
sg64
(lp3545
g57
(g58
g59
NtRp3546
(dp3547
g62
(dp3548
g70
I3
ssg71
g3542
sg64
(lp3549
S'1'
asbasbasbasbasbasbasbasbasbasbasbasbasbsS'frames'
p3550
(lp3551
(dp3552
S'file'
p3553
S'/Users/hainna01/Downloads/web2py/gluon/restricted.py'
p3554
sS'dump'
p3555
(dp3556
S'environment'
p3557
S"{'A': <class 'gluon.html.A'>, 'Auth': <class 'gluon.tools.Auth'>, 'B': <class 'gluon.html.B'>, 'BEAUTIFY': <class 'gluon.html.BEAUTIFY'>, 'BODY': <class 'gluon.html.BODY'>, 'BR': <class 'gluon.html.BR'>, 'BUTTON': <class 'gluon.html.BUTTON'>, 'CAT': <class 'gluon.html.CAT'>, 'CENTER': <class 'gluon.html.CENTER'>, 'CLEANUP': <class 'gluon.validators.CLEANUP'>, ...}"
p3558
sS'ccode'
p3559
S'<code object <module> at 0x10cb92c30, file "/Use...ions/Starcraft2/controllers/default.py", line 11>'
p3560
ssS'lnum'
p3561
I205
sS'lines'
p3562
(dp3563
I200
S'    try:'
p3564
sI201
S'        if type(code) == types.CodeType:'
p3565
sI202
S'            ccode = code'
p3566
sI203
S'        else:'
p3567
sI204
S'            ccode = compile2(code,layer)'
p3568
sI205
S'        exec ccode in environment'
p3569
sI206
S'    except HTTP:'
p3570
sI207
S'        raise'
p3571
sI208
S'    except RestrictedError:'
p3572
sI209
S'        # do not encapsulate (obfuscate) the original RestrictedError'
p3573
ssS'call'
p3574
S"(code='# -*- coding: utf-8 -*-\\n# this file is released ...ponse \\n\\t\\n\\nresponse._vars=response._caller(build)\\n', environment={'A': <class 'gluon.html.A'>, 'Auth': <class 'gluon.tools.Auth'>, 'B': <class 'gluon.html.B'>, 'BEAUTIFY': <class 'gluon.html.BEAUTIFY'>, 'BODY': <class 'gluon.html.BODY'>, 'BR': <class 'gluon.html.BR'>, 'BUTTON': <class 'gluon.html.BUTTON'>, 'CAT': <class 'gluon.html.CAT'>, 'CENTER': <class 'gluon.html.CENTER'>, 'CLEANUP': <class 'gluon.validators.CLEANUP'>, ...}, layer='/Users/hainna01/Downloads/web2py/applications/Starcraft2/controllers/default.py')"
p3575
sS'func'
p3576
S'restricted'
p3577
sa(dp3578
g3553
S'/Users/hainna01/Downloads/web2py/applications/Starcraft2/controllers/default.py'
p3579
sg3555
(dp3580
sg3561
I301
sg3562
(dp3581
I290
S'\tunit = db(db.Unit.id==unitnum).select().first()'
p3582
sI291
S'\tif unit.name in unitList:'
p3583
sI292
S'\t\treturn True'
p3584
sI293
S'\telse:'
p3585
sI294
S'\t\treturn False'
p3586
sI295
S'\t#Get id number of proposed unit, and current units'
p3587
sI296
S'\t#Create hardcde requirement list'
p3588
sI297
S'\t#if fine, redirect to build, passing the same argruments'
p3589
sI298
S'\t#else, flash.response'
p3590
sI299
S''
ssg3574
S'()'
p3591
sg3576
S'<module>'
p3592
sa(dp3593
g3553
S'/Users/hainna01/Downloads/web2py/gluon/globals.py'
p3594
sg3555
(dp3595
S'self'
p3596
S'undefined'
p3597
sS'f'
S'<function build>'
p3598
ssg3561
I173
sg3562
(dp3599
I168
S'        self.menu = []             # used by the default view layout'
p3600
sI169
S'        self.files = []            # used by web2py_ajax.html'
p3601
sI170
S'        self.generic_patterns = [] # patterns to allow generic views'
p3602
sI171
S"        self.delimiters = ('{{','}}')"
p3603
sI172
S'        self._vars = None'
p3604
sI173
S'        self._caller = lambda f: f()'
p3605
sI174
S'        self._view_environment = None'
p3606
sI175
S'        self._custom_commit = None'
p3607
sI176
S'        self._custom_rollback = None'
p3608
sI177
S''
ssg3574
S'(f=<function build>)'
p3609
sg3576
S'<lambda>'
p3610
sa(dp3611
g3553
S'/Users/hainna01/Downloads/web2py/applications/Starcraft2/controllers/default.py'
p3612
sg3555
(dp3613
S'a'
g3597
sS'global request'
p3614
S"<Storage {'body': <open file '<fdopen>', mode 'w...'Type your build name here!', 'Unit': 'Probe'}>}>"
p3615
sS'builtinfilter'
p3616
S'<built-in function filter>'
p3617
sS'request.vars'
p3618
S"<Storage {'supply': '5||', 'Supply': '', 'unit':...: 'Type your build name here!', 'Unit': 'Probe'}>"
p3619
sS'builtinint'
p3620
S"<type 'int'>"
p3621
sS'request.vars.Supply'
p3622
S"''"
p3623
sS'numlist'
p3624
S'[5, 6, 7, 8, 9, 10, 11, 12, 13, 14, 15, 16, 17, 18, 19, 20, 21, 22, 23, 24, ...]'
p3625
ssg3561
I222
sg3562
(dp3626
I224
S'\t\tneededUnits=False'
p3627
sI225
S'\t\tfailUnit= None'
p3628
sI226
S'\t\treqUnits=0'
p3629
sI217
S'\talist= []'
p3630
sI218
S'\tfor unit in message:'
p3631
sI219
S"\t\talist.append(unit['name'])"
p3632
sI220
S'\talist.sort()'
p3633
sI221
S'\tif request.vars.Unit:'
p3634
sI222
S'\t\tnumlist = filter(lambda a:a>int(request.vars.Supply),numlist)'
p3635
sI223
S'\t\tmybuild = db(db.Build.id==request.vars.build).select().first()'
p3636
ssg3574
S'()'
p3637
sg3576
S'build'
p3638
sa(dp3639
g3553
S'/Users/hainna01/Downloads/web2py/applications/Starcraft2/controllers/default.py'
p3640
sg3555
(dp3641
S'a'
S'5'
sS'global request'
p3642
S"<Storage {'body': <open file '<fdopen>', mode 'w...'Type your build name here!', 'Unit': 'Probe'}>}>"
p3643
sS'builtinfilter'
p3644
S'<built-in function filter>'
p3645
sS'request.vars'
p3646
S"<Storage {'supply': '5||', 'Supply': '', 'unit':...: 'Type your build name here!', 'Unit': 'Probe'}>"
p3647
sS'builtinint'
p3648
S"<type 'int'>"
p3649
sS'request.vars.Supply'
p3650
S"''"
p3651
sS'numlist'
p3652
g3597
ssg3561
I222
sg3562
(dp3653
I224
S'\t\tneededUnits=False'
p3654
sI225
S'\t\tfailUnit= None'
p3655
sI226
S'\t\treqUnits=0'
p3656
sI217
S'\talist= []'
p3657
sI218
S'\tfor unit in message:'
p3658
sI219
S"\t\talist.append(unit['name'])"
p3659
sI220
S'\talist.sort()'
p3660
sI221
S'\tif request.vars.Unit:'
p3661
sI222
S'\t\tnumlist = filter(lambda a:a>int(request.vars.Supply),numlist)'
p3662
sI223
S'\t\tmybuild = db(db.Build.id==request.vars.build).select().first()'
p3663
ssg3574
S'(a=5)'
p3664
sg3576
g3610
sasS'pyver'
p3665
S'Python 2.7.2: /Library/Frameworks/Python.framework/Versions/2.7/Resources/Python.app/Contents/MacOS/Python'
p3666
sS'session'
p3667
g57
(g58
g59
NtRp3668
(dp3669
g62
(dp3670
sg64
(lp3671
g57
(g66
g59
NtRp3672
(dp3673
g62
(dp3674
g70
I5
ssg71
Nsg64
(lp3675
g57
(g73
g59
NtRp3676
(dp3677
g62
(dp3678
sg71
g3672
sg64
(lp3679
g57
(g78
g59
NtRp3680
(dp3681
g62
(dp3682
g82
g83
ssg71
g3676
sg64
(lp3683
S'auth'
p3684
asbag57
(g78
g59
NtRp3685
(dp3686
g62
(dp3687
g89
g90
ssg71
g3676
sg64
(lp3688
S':'
asbag57
(g78
g59
NtRp3689
(dp3690
g62
(dp3691
sg71
g3676
sg64
(lp3692
g57
(g58
g59
NtRp3693
(dp3694
g62
(dp3695
g70
I5
ssg71
g3689
sg64
(lp3696
g57
(g66
g59
NtRp3697
(dp3698
g62
(dp3699
g70
I4
ssg71
Nsg64
(lp3700
g57
(g73
g59
NtRp3701
(dp3702
g62
(dp3703
sg71
g3697
sg64
(lp3704
g57
(g78
g59
NtRp3705
(dp3706
g62
(dp3707
g82
g83
ssg71
g3701
sg64
(lp3708
S'expiration'
p3709
asbag57
(g78
g59
NtRp3710
(dp3711
g62
(dp3712
g89
g90
ssg71
g3701
sg64
(lp3713
S':'
asbag57
(g78
g59
NtRp3714
(dp3715
g62
(dp3716
sg71
g3701
sg64
(lp3717
g57
(g58
g59
NtRp3718
(dp3719
g62
(dp3720
g70
I4
ssg71
g3714
sg64
(lp3721
S'2592000'
p3722
asbasbasbag57
(g73
g59
NtRp3723
(dp3724
g62
(dp3725
sg71
g3697
sg64
(lp3726
g57
(g78
g59
NtRp3727
(dp3728
g62
(dp3729
g82
g83
ssg71
g3723
sg64
(lp3730
S'hmac_key'
p3731
asbag57
(g78
g59
NtRp3732
(dp3733
g62
(dp3734
g89
g90
ssg71
g3723
sg64
(lp3735
S':'
asbag57
(g78
g59
NtRp3736
(dp3737
g62
(dp3738
sg71
g3723
sg64
(lp3739
g57
(g58
g59
NtRp3740
(dp3741
g62
(dp3742
g70
I4
ssg71
g3736
sg64
(lp3743
S'39904297-420d-4e51-acba-4ea93c8410a5'
p3744
asbasbasbag57
(g73
g59
NtRp3745
(dp3746
g62
(dp3747
sg71
g3697
sg64
(lp3748
g57
(g78
g59
NtRp3749
(dp3750
g62
(dp3751
g82
g83
ssg71
g3745
sg64
(lp3752
S'last_visit'
p3753
asbag57
(g78
g59
NtRp3754
(dp3755
g62
(dp3756
g89
g90
ssg71
g3745
sg64
(lp3757
S':'
asbag57
(g78
g59
NtRp3758
(dp3759
g62
(dp3760
sg71
g3745
sg64
(lp3761
g57
(g58
g59
NtRp3762
(dp3763
g62
(dp3764
g70
I4
ssg71
g3758
sg64
(lp3765
S'datetime.datetime(2012, 5, 8, 10, 34, 24, 527939)'
p3766
asbasbasbag57
(g73
g59
NtRp3767
(dp3768
g62
(dp3769
sg71
g3697
sg64
(lp3770
g57
(g78
g59
NtRp3771
(dp3772
g62
(dp3773
g82
g83
ssg71
g3767
sg64
(lp3774
S'remember'
p3775
asbag57
(g78
g59
NtRp3776
(dp3777
g62
(dp3778
g89
g90
ssg71
g3767
sg64
(lp3779
S':'
asbag57
(g78
g59
NtRp3780
(dp3781
g62
(dp3782
sg71
g3767
sg64
(lp3783
g57
(g58
g59
NtRp3784
(dp3785
g62
(dp3786
g70
I4
ssg71
g3780
sg64
(lp3787
g1808
asbasbasbag57
(g73
g59
NtRp3788
(dp3789
g62
(dp3790
sg71
g3697
sg64
(lp3791
g57
(g78
g59
NtRp3792
(dp3793
g62
(dp3794
g82
g83
ssg71
g3788
sg64
(lp3795
S'user'
p3796
asbag57
(g78
g59
NtRp3797
(dp3798
g62
(dp3799
g89
g90
ssg71
g3788
sg64
(lp3800
S':'
asbag57
(g78
g59
NtRp3801
(dp3802
g62
(dp3803
sg71
g3788
sg64
(lp3804
g57
(g58
g59
NtRp3805
(dp3806
g62
(dp3807
g70
I4
ssg71
g3801
sg64
(lp3808
g57
(g66
g59
NtRp3809
(dp3810
g62
(dp3811
g70
I3
ssg71
Nsg64
(lp3812
g57
(g73
g59
NtRp3813
(dp3814
g62
(dp3815
sg71
g3809
sg64
(lp3816
g57
(g78
g59
NtRp3817
(dp3818
g62
(dp3819
g82
g83
ssg71
g3813
sg64
(lp3820
S'email'
p3821
asbag57
(g78
g59
NtRp3822
(dp3823
g62
(dp3824
g89
g90
ssg71
g3813
sg64
(lp3825
S':'
asbag57
(g78
g59
NtRp3826
(dp3827
g62
(dp3828
sg71
g3813
sg64
(lp3829
g57
(g58
g59
NtRp3830
(dp3831
g62
(dp3832
g70
I3
ssg71
g3826
sg64
(lp3833
S'hainna01@luther.edu'
p3834
asbasbasbag57
(g73
g59
NtRp3835
(dp3836
g62
(dp3837
sg71
g3809
sg64
(lp3838
g57
(g78
g59
NtRp3839
(dp3840
g62
(dp3841
g82
g83
ssg71
g3835
sg64
(lp3842
S'first_name'
p3843
asbag57
(g78
g59
NtRp3844
(dp3845
g62
(dp3846
g89
g90
ssg71
g3835
sg64
(lp3847
S':'
asbag57
(g78
g59
NtRp3848
(dp3849
g62
(dp3850
sg71
g3835
sg64
(lp3851
g57
(g58
g59
NtRp3852
(dp3853
g62
(dp3854
g70
I3
ssg71
g3848
sg64
(lp3855
S'Nathan'
p3856
asbasbasbag57
(g73
g59
NtRp3857
(dp3858
g62
(dp3859
sg71
g3809
sg64
(lp3860
g57
(g78
g59
NtRp3861
(dp3862
g62
(dp3863
g82
g83
ssg71
g3857
sg64
(lp3864
S'id'
p3865
asbag57
(g78
g59
NtRp3866
(dp3867
g62
(dp3868
g89
g90
ssg71
g3857
sg64
(lp3869
S':'
asbag57
(g78
g59
NtRp3870
(dp3871
g62
(dp3872
sg71
g3857
sg64
(lp3873
g57
(g58
g59
NtRp3874
(dp3875
g62
(dp3876
g70
I3
ssg71
g3870
sg64
(lp3877
S'1'
asbasbasbag57
(g73
g59
NtRp3878
(dp3879
g62
(dp3880
sg71
g3809
sg64
(lp3881
g57
(g78
g59
NtRp3882
(dp3883
g62
(dp3884
g82
g83
ssg71
g3878
sg64
(lp3885
S'last_name'
p3886
asbag57
(g78
g59
NtRp3887
(dp3888
g62
(dp3889
g89
g90
ssg71
g3878
sg64
(lp3890
S':'
asbag57
(g78
g59
NtRp3891
(dp3892
g62
(dp3893
sg71
g3878
sg64
(lp3894
g57
(g58
g59
NtRp3895
(dp3896
g62
(dp3897
g70
I3
ssg71
g3891
sg64
(lp3898
S'Haines'
p3899
asbasbasbag57
(g73
g59
NtRp3900
(dp3901
g62
(dp3902
sg71
g3809
sg64
(lp3903
g57
(g78
g59
NtRp3904
(dp3905
g62
(dp3906
g82
g83
ssg71
g3900
sg64
(lp3907
S'password'
p3908
asbag57
(g78
g59
NtRp3909
(dp3910
g62
(dp3911
g89
g90
ssg71
g3900
sg64
(lp3912
S':'
asbag57
(g78
g59
NtRp3913
(dp3914
g62
(dp3915
sg71
g3900
sg64
(lp3916
g57
(g58
g59
NtRp3917
(dp3918
g62
(dp3919
g70
I3
ssg71
g3913
sg64
(lp3920
S'69170c197bb10e8a02203b4713d1b379'
p3921
asbasbasbag57
(g73
g59
NtRp3922
(dp3923
g62
(dp3924
sg71
g3809
sg64
(lp3925
g57
(g78
g59
NtRp3926
(dp3927
g62
(dp3928
g82
g83
ssg71
g3922
sg64
(lp3929
S'registration_id'
p3930
asbag57
(g78
g59
NtRp3931
(dp3932
g62
(dp3933
g89
g90
ssg71
g3922
sg64
(lp3934
S':'
asbag57
(g78
g59
NtRp3935
(dp3936
g62
(dp3937
sg71
g3922
sg64
(lp3938
g57
(g58
g59
NtRp3939
(dp3940
g62
(dp3941
g70
I3
ssg71
g3935
sg64
(lp3942
S''
asbasbasbag57
(g73
g59
NtRp3943
(dp3944
g62
(dp3945
sg71
g3809
sg64
(lp3946
g57
(g78
g59
NtRp3947
(dp3948
g62
(dp3949
g82
g83
ssg71
g3943
sg64
(lp3950
S'registration_key'
p3951
asbag57
(g78
g59
NtRp3952
(dp3953
g62
(dp3954
g89
g90
ssg71
g3943
sg64
(lp3955
S':'
asbag57
(g78
g59
NtRp3956
(dp3957
g62
(dp3958
sg71
g3943
sg64
(lp3959
g57
(g58
g59
NtRp3960
(dp3961
g62
(dp3962
g70
I3
ssg71
g3956
sg64
(lp3963
S''
asbasbasbag57
(g73
g59
NtRp3964
(dp3965
g62
(dp3966
sg71
g3809
sg64
(lp3967
g57
(g78
g59
NtRp3968
(dp3969
g62
(dp3970
g82
g83
ssg71
g3964
sg64
(lp3971
S'reset_password_key'
p3972
asbag57
(g78
g59
NtRp3973
(dp3974
g62
(dp3975
g89
g90
ssg71
g3964
sg64
(lp3976
S':'
asbag57
(g78
g59
NtRp3977
(dp3978
g62
(dp3979
sg71
g3964
sg64
(lp3980
g57
(g58
g59
NtRp3981
(dp3982
g62
(dp3983
g70
I3
ssg71
g3977
sg64
(lp3984
S''
asbasbasbasbasbasbasbag57
(g73
g59
NtRp3985
(dp3986
g62
(dp3987
sg71
g3697
sg64
(lp3988
g57
(g78
g59
NtRp3989
(dp3990
g62
(dp3991
g82
g83
ssg71
g3985
sg64
(lp3992
S'user_groups'
p3993
asbag57
(g78
g59
NtRp3994
(dp3995
g62
(dp3996
g89
g90
ssg71
g3985
sg64
(lp3997
S':'
asbag57
(g78
g59
NtRp3998
(dp3999
g62
(dp4000
sg71
g3985
sg64
(lp4001
g57
(g58
g59
NtRp4002
(dp4003
g62
(dp4004
g70
I4
ssg71
g3998
sg64
(lp4005
g57
(g66
g59
NtRp4006
(dp4007
g62
(dp4008
g70
I3
ssg71
Nsg64
(lp4009
g57
(g73
g59
NtRp4010
(dp4011
g62
(dp4012
sg71
g4006
sg64
(lp4013
g57
(g78
g59
NtRp4014
(dp4015
g62
(dp4016
g82
g83
ssg71
g4010
sg64
(lp4017
S'1'
asbag57
(g78
g59
NtRp4018
(dp4019
g62
(dp4020
g89
g90
ssg71
g4010
sg64
(lp4021
S':'
asbag57
(g78
g59
NtRp4022
(dp4023
g62
(dp4024
sg71
g4010
sg64
(lp4025
g57
(g58
g59
NtRp4026
(dp4027
g62
(dp4028
g70
I3
ssg71
g4022
sg64
(lp4029
S'user_1'
p4030
asbasbasbasbasbasbasbasbasbasbasbag57
(g73
g59
NtRp4031
(dp4032
g62
(dp4033
sg71
g3672
sg64
(lp4034
g57
(g78
g59
NtRp4035
(dp4036
g62
(dp4037
g82
g83
ssg71
g4031
sg64
(lp4038
S'last_query'
p4039
asbag57
(g78
g59
NtRp4040
(dp4041
g62
(dp4042
g89
g90
ssg71
g4031
sg64
(lp4043
S':'
asbag57
(g78
g59
NtRp4044
(dp4045
g62
(dp4046
sg71
g4031
sg64
(lp4047
g57
(g58
g59
NtRp4048
(dp4049
g62
(dp4050
g70
I5
ssg71
g4044
sg64
(lp4051
S'db.Build.id>0'
p4052
asbasbasbasbasbsS'etype'
p4053
S"<type 'exceptions.ValueError'>"
p4054
sS'date'
p4055
S'Sun May 13 13:21:31 2012'
p4056
sS'response'
p4057
g57
(g58
g59
NtRp4058
(dp4059
g62
(dp4060
sg64
(lp4061
g57
(g66
g59
NtRp4062
(dp4063
g62
(dp4064
g70
I5
ssg71
Nsg64
(lp4065
g57
(g73
g59
NtRp4066
(dp4067
g62
(dp4068
sg71
g4062
sg64
(lp4069
g57
(g78
g59
NtRp4070
(dp4071
g62
(dp4072
g82
g83
ssg71
g4066
sg64
(lp4073
g155
asbag57
(g78
g59
NtRp4074
(dp4075
g62
(dp4076
g89
g90
ssg71
g4066
sg64
(lp4077
S':'
asbag57
(g78
g59
NtRp4078
(dp4079
g62
(dp4080
sg71
g4066
sg64
(lp4081
g57
(g58
g59
NtRp4082
(dp4083
g62
(dp4084
g70
I5
ssg71
g4078
sg64
(lp4085
S'<cStringIO.StringO object at 0x10c16bc00>'
p4086
asbasbasbag57
(g73
g59
NtRp4087
(dp4088
g62
(dp4089
sg71
g4062
sg64
(lp4090
g57
(g78
g59
NtRp4091
(dp4092
g62
(dp4093
g82
g83
ssg71
g4087
sg64
(lp4094
g221
asbag57
(g78
g59
NtRp4095
(dp4096
g62
(dp4097
g89
g90
ssg71
g4087
sg64
(lp4098
S':'
asbag57
(g78
g59
NtRp4099
(dp4100
g62
(dp4101
sg71
g4087
sg64
(lp4102
g57
(g58
g59
NtRp4103
(dp4104
g62
(dp4105
g70
I5
ssg71
g4099
sg64
(lp4106
g57
(g66
g59
NtRp4107
(dp4108
g62
(dp4109
g70
I4
ssg71
Nsg64
(lp4110
g57
(g73
g59
NtRp4111
(dp4112
g62
(dp4113
sg71
g4107
sg64
(lp4114
g57
(g78
g59
NtRp4115
(dp4116
g62
(dp4117
g82
g83
ssg71
g4111
sg64
(lp4118
S'session_id_starcraft2'
p4119
asbag57
(g78
g59
NtRp4120
(dp4121
g62
(dp4122
g89
g90
ssg71
g4111
sg64
(lp4123
S':'
asbag57
(g78
g59
NtRp4124
(dp4125
g62
(dp4126
sg71
g4111
sg64
(lp4127
g57
(g58
g59
NtRp4128
(dp4129
g62
(dp4130
g70
I4
ssg71
g4124
sg64
(lp4131
g57
(g66
g59
NtRp4132
(dp4133
g62
(dp4134
g70
I3
ssg71
Nsg64
(lp4135
g57
(g73
g59
NtRp4136
(dp4137
g62
(dp4138
sg71
g4132
sg64
(lp4139
g57
(g78
g59
NtRp4140
(dp4141
g62
(dp4142
g82
g83
ssg71
g4136
sg64
(lp4143
g271
asbag57
(g78
g59
NtRp4144
(dp4145
g62
(dp4146
g89
g90
ssg71
g4136
sg64
(lp4147
S':'
asbag57
(g78
g59
NtRp4148
(dp4149
g62
(dp4150
sg71
g4136
sg64
(lp4151
g57
(g58
g59
NtRp4152
(dp4153
g62
(dp4154
g70
I3
ssg71
g4148
sg64
(lp4155
S''
asbasbasbag57
(g73
g59
NtRp4156
(dp4157
g62
(dp4158
sg71
g4132
sg64
(lp4159
g57
(g78
g59
NtRp4160
(dp4161
g62
(dp4162
g82
g83
ssg71
g4156
sg64
(lp4163
g292
asbag57
(g78
g59
NtRp4164
(dp4165
g62
(dp4166
g89
g90
ssg71
g4156
sg64
(lp4167
S':'
asbag57
(g78
g59
NtRp4168
(dp4169
g62
(dp4170
sg71
g4156
sg64
(lp4171
g57
(g58
g59
NtRp4172
(dp4173
g62
(dp4174
g70
I3
ssg71
g4168
sg64
(lp4175
S''
asbasbasbag57
(g73
g59
NtRp4176
(dp4177
g62
(dp4178
sg71
g4132
sg64
(lp4179
g57
(g78
g59
NtRp4180
(dp4181
g62
(dp4182
g82
g83
ssg71
g4176
sg64
(lp4183
g313
asbag57
(g78
g59
NtRp4184
(dp4185
g62
(dp4186
g89
g90
ssg71
g4176
sg64
(lp4187
S':'
asbag57
(g78
g59
NtRp4188
(dp4189
g62
(dp4190
sg71
g4176
sg64
(lp4191
g57
(g58
g59
NtRp4192
(dp4193
g62
(dp4194
g70
I3
ssg71
g4188
sg64
(lp4195
S'2592000'
p4196
asbasbasbag57
(g73
g59
NtRp4197
(dp4198
g62
(dp4199
sg71
g4132
sg64
(lp4200
g57
(g78
g59
NtRp4201
(dp4202
g62
(dp4203
g82
g83
ssg71
g4197
sg64
(lp4204
g334
asbag57
(g78
g59
NtRp4205
(dp4206
g62
(dp4207
g89
g90
ssg71
g4197
sg64
(lp4208
S':'
asbag57
(g78
g59
NtRp4209
(dp4210
g62
(dp4211
sg71
g4197
sg64
(lp4212
g57
(g58
g59
NtRp4213
(dp4214
g62
(dp4215
g70
I3
ssg71
g4209
sg64
(lp4216
S''
asbasbasbag57
(g73
g59
NtRp4217
(dp4218
g62
(dp4219
sg71
g4132
sg64
(lp4220
g57
(g78
g59
NtRp4221
(dp4222
g62
(dp4223
g82
g83
ssg71
g4217
sg64
(lp4224
g355
asbag57
(g78
g59
NtRp4225
(dp4226
g62
(dp4227
g89
g90
ssg71
g4217
sg64
(lp4228
S':'
asbag57
(g78
g59
NtRp4229
(dp4230
g62
(dp4231
sg71
g4217
sg64
(lp4232
g57
(g58
g59
NtRp4233
(dp4234
g62
(dp4235
g70
I3
ssg71
g4229
sg64
(lp4236
S''
asbasbasbag57
(g73
g59
NtRp4237
(dp4238
g62
(dp4239
sg71
g4132
sg64
(lp4240
g57
(g78
g59
NtRp4241
(dp4242
g62
(dp4243
g82
g83
ssg71
g4237
sg64
(lp4244
g376
asbag57
(g78
g59
NtRp4245
(dp4246
g62
(dp4247
g89
g90
ssg71
g4237
sg64
(lp4248
S':'
asbag57
(g78
g59
NtRp4249
(dp4250
g62
(dp4251
sg71
g4237
sg64
(lp4252
g57
(g58
g59
NtRp4253
(dp4254
g62
(dp4255
g70
I3
ssg71
g4249
sg64
(lp4256
S'/'
asbasbasbag57
(g73
g59
NtRp4257
(dp4258
g62
(dp4259
sg71
g4132
sg64
(lp4260
g57
(g78
g59
NtRp4261
(dp4262
g62
(dp4263
g82
g83
ssg71
g4257
sg64
(lp4264
g397
asbag57
(g78
g59
NtRp4265
(dp4266
g62
(dp4267
g89
g90
ssg71
g4257
sg64
(lp4268
S':'
asbag57
(g78
g59
NtRp4269
(dp4270
g62
(dp4271
sg71
g4257
sg64
(lp4272
g57
(g58
g59
NtRp4273
(dp4274
g62
(dp4275
g70
I3
ssg71
g4269
sg64
(lp4276
S''
asbasbasbag57
(g73
g59
NtRp4277
(dp4278
g62
(dp4279
sg71
g4132
sg64
(lp4280
g57
(g78
g59
NtRp4281
(dp4282
g62
(dp4283
g82
g83
ssg71
g4277
sg64
(lp4284
g418
asbag57
(g78
g59
NtRp4285
(dp4286
g62
(dp4287
g89
g90
ssg71
g4277
sg64
(lp4288
S':'
asbag57
(g78
g59
NtRp4289
(dp4290
g62
(dp4291
sg71
g4277
sg64
(lp4292
g57
(g58
g59
NtRp4293
(dp4294
g62
(dp4295
g70
I3
ssg71
g4289
sg64
(lp4296
S''
asbasbasbasbasbasbasbasbasbasbasbag57
(g73
g59
NtRp4297
(dp4298
g62
(dp4299
sg71
g4062
sg64
(lp4300
g57
(g78
g59
NtRp4301
(dp4302
g62
(dp4303
g82
g83
ssg71
g4297
sg64
(lp4304
S'delimiters'
p4305
asbag57
(g78
g59
NtRp4306
(dp4307
g62
(dp4308
g89
g90
ssg71
g4297
sg64
(lp4309
S':'
asbag57
(g78
g59
NtRp4310
(dp4311
g62
(dp4312
sg71
g4297
sg64
(lp4313
g57
(g58
g59
NtRp4314
(dp4315
g62
(dp4316
g70
I5
ssg71
g4310
sg64
(lp4317
g57
(g66
g59
NtRp4318
(dp4319
g62
(dp4320
g70
I4
ssg71
Nsg64
(lp4321
g57
(g73
g59
NtRp4322
(dp4323
g62
(dp4324
sg71
g4318
sg64
(lp4325
g57
(g78
g59
NtRp4326
(dp4327
g62
(dp4328
sg71
g4322
sg64
(lp4329
g57
(g58
g59
NtRp4330
(dp4331
g62
(dp4332
g70
I4
ssg71
g4326
sg64
(lp4333
S'{{'
p4334
asbasbasbag57
(g73
g59
NtRp4335
(dp4336
g62
(dp4337
sg71
g4318
sg64
(lp4338
g57
(g78
g59
NtRp4339
(dp4340
g62
(dp4341
sg71
g4335
sg64
(lp4342
g57
(g58
g59
NtRp4343
(dp4344
g62
(dp4345
g70
I4
ssg71
g4339
sg64
(lp4346
S'}}'
p4347
asbasbasbasbasbasbasbag57
(g73
g59
NtRp4348
(dp4349
g62
(dp4350
sg71
g4062
sg64
(lp4351
g57
(g78
g59
NtRp4352
(dp4353
g62
(dp4354
g82
g83
ssg71
g4348
sg64
(lp4355
S'files'
p4356
asbag57
(g78
g59
NtRp4357
(dp4358
g62
(dp4359
g89
g90
ssg71
g4348
sg64
(lp4360
S':'
asbag57
(g78
g59
NtRp4361
(dp4362
g62
(dp4363
sg71
g4348
sg64
(lp4364
g57
(g58
g59
NtRp4365
(dp4366
g62
(dp4367
g70
I5
ssg71
g4361
sg64
(lp4368
g57
(g66
g59
NtRp4369
(dp4370
g62
(dp4371
g70
I4
ssg71
Nsg64
(lp4372
sbasbasbasbag57
(g73
g59
NtRp4373
(dp4374
g62
(dp4375
sg71
g4062
sg64
(lp4376
g57
(g78
g59
NtRp4377
(dp4378
g62
(dp4379
g82
g83
ssg71
g4373
sg64
(lp4380
S'flash'
p4381
asbag57
(g78
g59
NtRp4382
(dp4383
g62
(dp4384
g89
g90
ssg71
g4373
sg64
(lp4385
S':'
asbag57
(g78
g59
NtRp4386
(dp4387
g62
(dp4388
sg71
g4373
sg64
(lp4389
g57
(g58
g59
NtRp4390
(dp4391
g62
(dp4392
g70
I5
ssg71
g4386
sg64
(lp4393
S''
asbasbasbag57
(g73
g59
NtRp4394
(dp4395
g62
(dp4396
sg71
g4062
sg64
(lp4397
g57
(g78
g59
NtRp4398
(dp4399
g62
(dp4400
g82
g83
ssg71
g4394
sg64
(lp4401
S'generic_patterns'
p4402
asbag57
(g78
g59
NtRp4403
(dp4404
g62
(dp4405
g89
g90
ssg71
g4394
sg64
(lp4406
S':'
asbag57
(g78
g59
NtRp4407
(dp4408
g62
(dp4409
sg71
g4394
sg64
(lp4410
g57
(g58
g59
NtRp4411
(dp4412
g62
(dp4413
g70
I5
ssg71
g4407
sg64
(lp4414
g57
(g66
g59
NtRp4415
(dp4416
g62
(dp4417
g70
I4
ssg71
Nsg64
(lp4418
g57
(g73
g59
NtRp4419
(dp4420
g62
(dp4421
sg71
g4415
sg64
(lp4422
g57
(g78
g59
NtRp4423
(dp4424
g62
(dp4425
sg71
g4419
sg64
(lp4426
g57
(g58
g59
NtRp4427
(dp4428
g62
(dp4429
g70
I4
ssg71
g4423
sg64
(lp4430
S'*'
asbasbasbasbasbasbasbag57
(g73
g59
NtRp4431
(dp4432
g62
(dp4433
sg71
g4062
sg64
(lp4434
g57
(g78
g59
NtRp4435
(dp4436
g62
(dp4437
g82
g83
ssg71
g4431
sg64
(lp4438
S'headers'
p4439
asbag57
(g78
g59
NtRp4440
(dp4441
g62
(dp4442
g89
g90
ssg71
g4431
sg64
(lp4443
S':'
asbag57
(g78
g59
NtRp4444
(dp4445
g62
(dp4446
sg71
g4431
sg64
(lp4447
g57
(g58
g59
NtRp4448
(dp4449
g62
(dp4450
g70
I5
ssg71
g4444
sg64
(lp4451
g57
(g66
g59
NtRp4452
(dp4453
g62
(dp4454
g70
I4
ssg71
Nsg64
(lp4455
g57
(g73
g59
NtRp4456
(dp4457
g62
(dp4458
sg71
g4452
sg64
(lp4459
g57
(g78
g59
NtRp4460
(dp4461
g62
(dp4462
g82
g83
ssg71
g4456
sg64
(lp4463
S'Cache-Control'
p4464
asbag57
(g78
g59
NtRp4465
(dp4466
g62
(dp4467
g89
g90
ssg71
g4456
sg64
(lp4468
S':'
asbag57
(g78
g59
NtRp4469
(dp4470
g62
(dp4471
sg71
g4456
sg64
(lp4472
g57
(g58
g59
NtRp4473
(dp4474
g62
(dp4475
g70
I4
ssg71
g4469
sg64
(lp4476
S'no-store, no-cache, must-revalidate, post-check=0, pre-check=0'
p4477
asbasbasbag57
(g73
g59
NtRp4478
(dp4479
g62
(dp4480
sg71
g4452
sg64
(lp4481
g57
(g78
g59
NtRp4482
(dp4483
g62
(dp4484
g82
g83
ssg71
g4478
sg64
(lp4485
S'Content-Type'
p4486
asbag57
(g78
g59
NtRp4487
(dp4488
g62
(dp4489
g89
g90
ssg71
g4478
sg64
(lp4490
S':'
asbag57
(g78
g59
NtRp4491
(dp4492
g62
(dp4493
sg71
g4478
sg64
(lp4494
g57
(g58
g59
NtRp4495
(dp4496
g62
(dp4497
g70
I4
ssg71
g4491
sg64
(lp4498
S'text/html; charset=utf-8'
p4499
asbasbasbag57
(g73
g59
NtRp4500
(dp4501
g62
(dp4502
sg71
g4452
sg64
(lp4503
g57
(g78
g59
NtRp4504
(dp4505
g62
(dp4506
g82
g83
ssg71
g4500
sg64
(lp4507
S'Expires'
p4508
asbag57
(g78
g59
NtRp4509
(dp4510
g62
(dp4511
g89
g90
ssg71
g4500
sg64
(lp4512
S':'
asbag57
(g78
g59
NtRp4513
(dp4514
g62
(dp4515
sg71
g4500
sg64
(lp4516
g57
(g58
g59
NtRp4517
(dp4518
g62
(dp4519
g70
I4
ssg71
g4513
sg64
(lp4520
S'Sun, 13 May 2012 18:21:30 GMT'
p4521
asbasbasbag57
(g73
g59
NtRp4522
(dp4523
g62
(dp4524
sg71
g4452
sg64
(lp4525
g57
(g78
g59
NtRp4526
(dp4527
g62
(dp4528
g82
g83
ssg71
g4522
sg64
(lp4529
S'Pragma'
p4530
asbag57
(g78
g59
NtRp4531
(dp4532
g62
(dp4533
g89
g90
ssg71
g4522
sg64
(lp4534
S':'
asbag57
(g78
g59
NtRp4535
(dp4536
g62
(dp4537
sg71
g4522
sg64
(lp4538
g57
(g58
g59
NtRp4539
(dp4540
g62
(dp4541
g70
I4
ssg71
g4535
sg64
(lp4542
S'no-cache'
p4543
asbasbasbag57
(g73
g59
NtRp4544
(dp4545
g62
(dp4546
sg71
g4452
sg64
(lp4547
g57
(g78
g59
NtRp4548
(dp4549
g62
(dp4550
g82
g83
ssg71
g4544
sg64
(lp4551
S'X-Powered-By'
p4552
asbag57
(g78
g59
NtRp4553
(dp4554
g62
(dp4555
g89
g90
ssg71
g4544
sg64
(lp4556
S':'
asbag57
(g78
g59
NtRp4557
(dp4558
g62
(dp4559
sg71
g4544
sg64
(lp4560
g57
(g58
g59
NtRp4561
(dp4562
g62
(dp4563
g70
I4
ssg71
g4557
sg64
(lp4564
S'web2py'
p4565
asbasbasbasbasbasbasbag57
(g73
g59
NtRp4566
(dp4567
g62
(dp4568
sg71
g4062
sg64
(lp4569
g57
(g78
g59
NtRp4570
(dp4571
g62
(dp4572
g82
g83
ssg71
g4566
sg64
(lp4573
S'menu'
p4574
asbag57
(g78
g59
NtRp4575
(dp4576
g62
(dp4577
g89
g90
ssg71
g4566
sg64
(lp4578
S':'
asbag57
(g78
g59
NtRp4579
(dp4580
g62
(dp4581
sg71
g4566
sg64
(lp4582
g57
(g58
g59
NtRp4583
(dp4584
g62
(dp4585
g70
I5
ssg71
g4579
sg64
(lp4586
g57
(g66
g59
NtRp4587
(dp4588
g62
(dp4589
g70
I4
ssg71
Nsg64
(lp4590
g57
(g73
g59
NtRp4591
(dp4592
g62
(dp4593
sg71
g4587
sg64
(lp4594
g57
(g78
g59
NtRp4595
(dp4596
g62
(dp4597
sg71
g4591
sg64
(lp4598
g57
(g58
g59
NtRp4599
(dp4600
g62
(dp4601
g70
I4
ssg71
g4595
sg64
(lp4602
g57
(g66
g59
NtRp4603
(dp4604
g62
(dp4605
g70
I3
ssg71
Nsg64
(lp4606
g57
(g73
g59
NtRp4607
(dp4608
g62
(dp4609
sg71
g4603
sg64
(lp4610
g57
(g78
g59
NtRp4611
(dp4612
g62
(dp4613
sg71
g4607
sg64
(lp4614
g57
(g58
g59
NtRp4615
(dp4616
g62
(dp4617
g70
I3
ssg71
g4611
sg64
(lp4618
cgluon.languages
lazyT_unpickle
p4619
(S't\x04\x00\x00\x00Home'
tRp4620
asbasbasbag57
(g73
g59
NtRp4621
(dp4622
g62
(dp4623
sg71
g4603
sg64
(lp4624
g57
(g78
g59
NtRp4625
(dp4626
g62
(dp4627
sg71
g4621
sg64
(lp4628
g57
(g58
g59
NtRp4629
(dp4630
g62
(dp4631
g70
I3
ssg71
g4625
sg64
(lp4632
g100
asbasbasbag57
(g73
g59
NtRp4633
(dp4634
g62
(dp4635
sg71
g4603
sg64
(lp4636
g57
(g78
g59
NtRp4637
(dp4638
g62
(dp4639
sg71
g4633
sg64
(lp4640
g57
(g58
g59
NtRp4641
(dp4642
g62
(dp4643
g70
I3
ssg71
g4637
sg64
(lp4644
S'/Starcraft2/default/index'
p4645
asbasbasbag57
(g73
g59
NtRp4646
(dp4647
g62
(dp4648
sg71
g4603
sg64
(lp4649
g57
(g78
g59
NtRp4650
(dp4651
g62
(dp4652
sg71
g4646
sg64
(lp4653
g57
(g58
g59
NtRp4654
(dp4655
g62
(dp4656
g70
I3
ssg71
g4650
sg64
(lp4657
g57
(g66
g59
NtRp4658
(dp4659
g62
(dp4660
g70
I2
ssg71
Nsg64
(lp4661
sbasbasbasbasbasbasbasbag57
(g73
g59
NtRp4662
(dp4663
g62
(dp4664
sg71
g4587
sg64
(lp4665
g57
(g78
g59
NtRp4666
(dp4667
g62
(dp4668
sg71
g4662
sg64
(lp4669
g57
(g58
g59
NtRp4670
(dp4671
g62
(dp4672
g70
I4
ssg71
g4666
sg64
(lp4673
g57
(g66
g59
NtRp4674
(dp4675
g62
(dp4676
g70
I3
ssg71
Nsg64
(lp4677
g57
(g73
g59
NtRp4678
(dp4679
g62
(dp4680
sg71
g4674
sg64
(lp4681
g57
(g78
g59
NtRp4682
(dp4683
g62
(dp4684
sg71
g4678
sg64
(lp4685
g57
(g58
g59
NtRp4686
(dp4687
g62
(dp4688
g70
I3
ssg71
g4682
sg64
(lp4689
g57
(cgluon.html
SPAN
p4690
g59
NtRp4691
(dp4692
g62
(dp4693
g82
S'color:yellow'
p4694
ssg71
Nsg64
(lp4695
g4565
asbasbasbasbag57
(g73
g59
NtRp4696
(dp4697
g62
(dp4698
sg71
g4674
sg64
(lp4699
g57
(g78
g59
NtRp4700
(dp4701
g62
(dp4702
sg71
g4696
sg64
(lp4703
g57
(g58
g59
NtRp4704
(dp4705
g62
(dp4706
g70
I3
ssg71
g4700
sg64
(lp4707
g100
asbasbasbag57
(g73
g59
NtRp4708
(dp4709
g62
(dp4710
sg71
g4674
sg64
(lp4711
g57
(g78
g59
NtRp4712
(dp4713
g62
(dp4714
sg71
g4708
sg64
(lp4715
g57
(g58
g59
NtRp4716
(dp4717
g62
(dp4718
g70
I3
ssg71
g4712
sg64
(lp4719
S'None'
p4720
asbasbasbag57
(g73
g59
NtRp4721
(dp4722
g62
(dp4723
sg71
g4674
sg64
(lp4724
g57
(g78
g59
NtRp4725
(dp4726
g62
(dp4727
sg71
g4721
sg64
(lp4728
g57
(g58
g59
NtRp4729
(dp4730
g62
(dp4731
g70
I3
ssg71
g4725
sg64
(lp4732
g57
(g66
g59
NtRp4733
(dp4734
g62
(dp4735
g70
I2
ssg71
Nsg64
(lp4736
g57
(g73
g59
NtRp4737
(dp4738
g62
(dp4739
sg71
g4733
sg64
(lp4740
g57
(g78
g59
NtRp4741
(dp4742
g62
(dp4743
sg71
g4737
sg64
(lp4744
g57
(g58
g59
NtRp4745
(dp4746
g62
(dp4747
g70
I2
ssg71
g4741
sg64
(lp4748
g57
(g66
g59
NtRp4749
(dp4750
g62
(dp4751
g70
I1
ssg71
Nsg64
(lp4752
g57
(g73
g59
NtRp4753
(dp4754
g62
(dp4755
sg71
g4749
sg64
(lp4756
g57
(g78
g59
NtRp4757
(dp4758
g62
(dp4759
sg71
g4753
sg64
(lp4760
g57
(g58
g59
NtRp4761
(dp4762
g62
(dp4763
g70
I1
ssg71
g4757
sg64
(lp4764
g4619
(S's\x08\x00\x00\x00My Sites'
tRp4765
asbasbasbag57
(g73
g59
NtRp4766
(dp4767
g62
(dp4768
sg71
g4749
sg64
(lp4769
g57
(g78
g59
NtRp4770
(dp4771
g62
(dp4772
sg71
g4766
sg64
(lp4773
g57
(g58
g59
NtRp4774
(dp4775
g62
(dp4776
g70
I1
ssg71
g4770
sg64
(lp4777
I00
asbasbasbag57
(g73
g59
NtRp4778
(dp4779
g62
(dp4780
sg71
g4749
sg64
(lp4781
g57
(g78
g59
NtRp4782
(dp4783
g62
(dp4784
sg71
g4778
sg64
(lp4785
g57
(g58
g59
NtRp4786
(dp4787
g62
(dp4788
g70
I1
ssg71
g4782
sg64
(lp4789
S'/admin/default/site'
p4790
asbasbasbasbasbasbasbag57
(g73
g59
NtRp4791
(dp4792
g62
(dp4793
sg71
g4733
sg64
(lp4794
g57
(g78
g59
NtRp4795
(dp4796
g62
(dp4797
sg71
g4791
sg64
(lp4798
g57
(g58
g59
NtRp4799
(dp4800
g62
(dp4801
g70
I2
ssg71
g4795
sg64
(lp4802
g57
(g66
g59
NtRp4803
(dp4804
g62
(dp4805
g70
I1
ssg71
Nsg64
(lp4806
g57
(g73
g59
NtRp4807
(dp4808
g62
(dp4809
sg71
g4803
sg64
(lp4810
g57
(g78
g59
NtRp4811
(dp4812
g62
(dp4813
sg71
g4807
sg64
(lp4814
g57
(g58
g59
NtRp4815
(dp4816
g62
(dp4817
g70
I1
ssg71
g4811
sg64
(lp4818
g4619
(S's\x08\x00\x00\x00This App'
tRp4819
asbasbasbag57
(g73
g59
NtRp4820
(dp4821
g62
(dp4822
sg71
g4803
sg64
(lp4823
g57
(g78
g59
NtRp4824
(dp4825
g62
(dp4826
sg71
g4820
sg64
(lp4827
g57
(g58
g59
NtRp4828
(dp4829
g62
(dp4830
g70
I1
ssg71
g4824
sg64
(lp4831
I00
asbasbasbag57
(g73
g59
NtRp4832
(dp4833
g62
(dp4834
sg71
g4803
sg64
(lp4835
g57
(g78
g59
NtRp4836
(dp4837
g62
(dp4838
sg71
g4832
sg64
(lp4839
g57
(g58
g59
NtRp4840
(dp4841
g62
(dp4842
g70
I1
ssg71
g4836
sg64
(lp4843
S'/admin/default/design/Starcraft2'
p4844
asbasbasbag57
(g73
g59
NtRp4845
(dp4846
g62
(dp4847
sg71
g4803
sg64
(lp4848
g57
(g78
g59
NtRp4849
(dp4850
g62
(dp4851
sg71
g4845
sg64
(lp4852
g57
(g58
g59
NtRp4853
(dp4854
g62
(dp4855
g70
I1
ssg71
g4849
sg64
(lp4856
(lp4857
(g4619
(S't\n\x00\x00\x00Controller'
tRp4858
I00
S'/admin/default/edit/Starcraft2/controllers/default.py'
tp4859
a(g4619
(S't\x04\x00\x00\x00View'
tRp4860
I00
S'/admin/default/edit/Starcraft2/views/default/build.html'
tp4861
a(g4619
(S't\x06\x00\x00\x00Layout'
tRp4862
I00
S'/admin/default/edit/Starcraft2/views/layout.html'
tp4863
a(g4619
(S't\n\x00\x00\x00Stylesheet'
tRp4864
I00
S'/admin/default/edit/Starcraft2/static/css/web2py.css'
tp4865
a(g4619
(S's\x08\x00\x00\x00DB Model'
tRp4866
I00
S'/admin/default/edit/Starcraft2/models/db.py'
tp4867
a(g4619
(S's\n\x00\x00\x00Menu Model'
tRp4868
I00
S'/admin/default/edit/Starcraft2/models/menu.py'
tp4869
a(g4619
(S't\x08\x00\x00\x00Database'
tRp4870
I00
S'/Starcraft2/appadmin/index'
tp4871
a(g4619
(S't\x06\x00\x00\x00Errors'
tRp4872
I00
S'/admin/default/errors/Starcraft2'
tp4873
a(g4619
(S't\x05\x00\x00\x00About'
tRp4874
I00
S'/admin/default/about/Starcraft2'
tp4875
aasbasbasbasbasbasbasbag57
(g73
g59
NtRp4876
(dp4877
g62
(dp4878
sg71
g4733
sg64
(lp4879
g57
(g78
g59
NtRp4880
(dp4881
g62
(dp4882
sg71
g4876
sg64
(lp4883
g57
(g58
g59
NtRp4884
(dp4885
g62
(dp4886
g70
I2
ssg71
g4880
sg64
(lp4887
g57
(g66
g59
NtRp4888
(dp4889
g62
(dp4890
g70
I1
ssg71
Nsg64
(lp4891
g57
(g73
g59
NtRp4892
(dp4893
g62
(dp4894
sg71
g4888
sg64
(lp4895
g57
(g78
g59
NtRp4896
(dp4897
g62
(dp4898
sg71
g4892
sg64
(lp4899
g57
(g58
g59
NtRp4900
(dp4901
g62
(dp4902
g70
I1
ssg71
g4896
sg64
(lp4903
S'web2py.com'
p4904
asbasbasbag57
(g73
g59
NtRp4905
(dp4906
g62
(dp4907
sg71
g4888
sg64
(lp4908
g57
(g78
g59
NtRp4909
(dp4910
g62
(dp4911
sg71
g4905
sg64
(lp4912
g57
(g58
g59
NtRp4913
(dp4914
g62
(dp4915
g70
I1
ssg71
g4909
sg64
(lp4916
I00
asbasbasbag57
(g73
g59
NtRp4917
(dp4918
g62
(dp4919
sg71
g4888
sg64
(lp4920
g57
(g78
g59
NtRp4921
(dp4922
g62
(dp4923
sg71
g4917
sg64
(lp4924
g57
(g58
g59
NtRp4925
(dp4926
g62
(dp4927
g70
I1
ssg71
g4921
sg64
(lp4928
S'http://www.web2py.com'
p4929
asbasbasbag57
(g73
g59
NtRp4930
(dp4931
g62
(dp4932
sg71
g4888
sg64
(lp4933
g57
(g78
g59
NtRp4934
(dp4935
g62
(dp4936
sg71
g4930
sg64
(lp4937
g57
(g58
g59
NtRp4938
(dp4939
g62
(dp4940
g70
I1
ssg71
g4934
sg64
(lp4941
(lp4942
(g4619
(S't\x08\x00\x00\x00Download'
tRp4943
I00
S'http://www.web2py.com/examples/default/download'
p4944
tp4945
a(g4619
(S't\x07\x00\x00\x00Support'
tRp4946
I00
S'http://www.web2py.com/examples/default/support'
p4947
tp4948
a(g4619
(S't\x04\x00\x00\x00Demo'
tRp4949
I00
S'http://web2py.com/demo_admin'
p4950
tp4951
a(g4619
(S's\x0e\x00\x00\x00Quick Examples'
tRp4952
I00
S'http://web2py.com/examples/default/examples'
p4953
tp4954
a(g4619
(S't\x03\x00\x00\x00FAQ'
tRp4955
I00
S'http://web2py.com/AlterEgo'
p4956
tp4957
a(g4619
(S't\x06\x00\x00\x00Videos'
tRp4958
I00
S'http://www.web2py.com/examples/default/videos/'
p4959
tp4960
a(g4619
(S's\x11\x00\x00\x00Free Applications'
tRp4961
I00
S'http://web2py.com/appliances'
p4962
tp4963
a(g4619
(S't\x07\x00\x00\x00Plugins'
tRp4964
I00
S'http://web2py.com/plugins'
p4965
tp4966
a(g4619
(S't\x07\x00\x00\x00Layouts'
tRp4967
I00
S'http://web2py.com/layouts'
p4968
tp4969
a(g4619
(S't\x07\x00\x00\x00Recipes'
tRp4970
I00
S'http://web2pyslices.com/'
p4971
tp4972
a(g4619
(S't\x08\x00\x00\x00Semantic'
tRp4973
I00
S'http://web2py.com/semantic'
p4974
tp4975
aasbasbasbasbasbasbasbag57
(g73
g59
NtRp4976
(dp4977
g62
(dp4978
sg71
g4733
sg64
(lp4979
g57
(g78
g59
NtRp4980
(dp4981
g62
(dp4982
sg71
g4976
sg64
(lp4983
g57
(g58
g59
NtRp4984
(dp4985
g62
(dp4986
g70
I2
ssg71
g4980
sg64
(lp4987
g57
(g66
g59
NtRp4988
(dp4989
g62
(dp4990
g70
I1
ssg71
Nsg64
(lp4991
g57
(g73
g59
NtRp4992
(dp4993
g62
(dp4994
sg71
g4988
sg64
(lp4995
g57
(g78
g59
NtRp4996
(dp4997
g62
(dp4998
sg71
g4992
sg64
(lp4999
g57
(g58
g59
NtRp5000
(dp5001
g62
(dp5002
g70
I1
ssg71
g4996
sg64
(lp5003
g4619
(S't\r\x00\x00\x00Documentation'
tRp5004
asbasbasbag57
(g73
g59
NtRp5005
(dp5006
g62
(dp5007
sg71
g4988
sg64
(lp5008
g57
(g78
g59
NtRp5009
(dp5010
g62
(dp5011
sg71
g5005
sg64
(lp5012
g57
(g58
g59
NtRp5013
(dp5014
g62
(dp5015
g70
I1
ssg71
g5009
sg64
(lp5016
I00
asbasbasbag57
(g73
g59
NtRp5017
(dp5018
g62
(dp5019
sg71
g4988
sg64
(lp5020
g57
(g78
g59
NtRp5021
(dp5022
g62
(dp5023
sg71
g5017
sg64
(lp5024
g57
(g58
g59
NtRp5025
(dp5026
g62
(dp5027
g70
I1
ssg71
g5021
sg64
(lp5028
S'http://www.web2py.com/book'
p5029
asbasbasbag57
(g73
g59
NtRp5030
(dp5031
g62
(dp5032
sg71
g4988
sg64
(lp5033
g57
(g78
g59
NtRp5034
(dp5035
g62
(dp5036
sg71
g5030
sg64
(lp5037
g57
(g58
g59
NtRp5038
(dp5039
g62
(dp5040
g70
I1
ssg71
g5034
sg64
(lp5041
(lp5042
(g4619
(S't\x07\x00\x00\x00Preface'
tRp5043
I00
S'http://www.web2py.com/book/default/chapter/00'
p5044
tp5045
a(g4619
(S't\x0c\x00\x00\x00Introduction'
tRp5046
I00
S'http://www.web2py.com/book/default/chapter/01'
p5047
tp5048
a(g4619
(S't\x06\x00\x00\x00Python'
tRp5049
I00
S'http://www.web2py.com/book/default/chapter/02'
p5050
tp5051
a(g4619
(S't\x08\x00\x00\x00Overview'
tRp5052
I00
S'http://www.web2py.com/book/default/chapter/03'
p5053
tp5054
a(g4619
(S's\x08\x00\x00\x00The Core'
tRp5055
I00
S'http://www.web2py.com/book/default/chapter/04'
p5056
tp5057
a(g4619
(S's\t\x00\x00\x00The Views'
tRp5058
I00
S'http://www.web2py.com/book/default/chapter/05'
p5059
tp5060
a(g4619
(S't\x08\x00\x00\x00Database'
tRp5061
I00
S'http://www.web2py.com/book/default/chapter/06'
p5062
tp5063
a(g4619
(S's\x14\x00\x00\x00Forms and Validators'
tRp5064
I00
S'http://www.web2py.com/book/default/chapter/07'
p5065
tp5066
a(g4619
(S's\r\x00\x00\x00Email and SMS'
tRp5067
I00
S'http://www.web2py.com/book/default/chapter/08'
p5068
tp5069
a(g4619
(S's\x0e\x00\x00\x00Access Control'
tRp5070
I00
S'http://www.web2py.com/book/default/chapter/09'
p5071
tp5072
a(g4619
(S't\x08\x00\x00\x00Services'
tRp5073
I00
S'http://www.web2py.com/book/default/chapter/10'
p5074
tp5075
a(g4619
(S's\x0c\x00\x00\x00Ajax Recipes'
tRp5076
I00
S'http://www.web2py.com/book/default/chapter/11'
p5077
tp5078
a(g4619
(S's\x16\x00\x00\x00Components and Plugins'
tRp5079
I00
S'http://www.web2py.com/book/default/chapter/12'
p5080
tp5081
a(g4619
(S's\x12\x00\x00\x00Deployment Recipes'
tRp5082
I00
S'http://www.web2py.com/book/default/chapter/13'
p5083
tp5084
a(g4619
(S's\r\x00\x00\x00Other Recipes'
tRp5085
I00
S'http://www.web2py.com/book/default/chapter/14'
p5086
tp5087
a(g4619
(S's\r\x00\x00\x00Buy this book'
tRp5088
I00
S'http://stores.lulu.com/web2py'
p5089
tp5090
aasbasbasbasbasbasbasbag57
(g73
g59
NtRp5091
(dp5092
g62
(dp5093
sg71
g4733
sg64
(lp5094
g57
(g78
g59
NtRp5095
(dp5096
g62
(dp5097
sg71
g5091
sg64
(lp5098
g57
(g58
g59
NtRp5099
(dp5100
g62
(dp5101
g70
I2
ssg71
g5095
sg64
(lp5102
g57
(g66
g59
NtRp5103
(dp5104
g62
(dp5105
g70
I1
ssg71
Nsg64
(lp5106
g57
(g73
g59
NtRp5107
(dp5108
g62
(dp5109
sg71
g5103
sg64
(lp5110
g57
(g78
g59
NtRp5111
(dp5112
g62
(dp5113
sg71
g5107
sg64
(lp5114
g57
(g58
g59
NtRp5115
(dp5116
g62
(dp5117
g70
I1
ssg71
g5111
sg64
(lp5118
g4619
(S't\t\x00\x00\x00Community'
tRp5119
asbasbasbag57
(g73
g59
NtRp5120
(dp5121
g62
(dp5122
sg71
g5103
sg64
(lp5123
g57
(g78
g59
NtRp5124
(dp5125
g62
(dp5126
sg71
g5120
sg64
(lp5127
g57
(g58
g59
NtRp5128
(dp5129
g62
(dp5130
g70
I1
ssg71
g5124
sg64
(lp5131
I00
asbasbasbag57
(g73
g59
NtRp5132
(dp5133
g62
(dp5134
sg71
g5103
sg64
(lp5135
g57
(g78
g59
NtRp5136
(dp5137
g62
(dp5138
sg71
g5132
sg64
(lp5139
g57
(g58
g59
NtRp5140
(dp5141
g62
(dp5142
g70
I1
ssg71
g5136
sg64
(lp5143
Nasbasbasbag57
(g73
g59
NtRp5144
(dp5145
g62
(dp5146
sg71
g5103
sg64
(lp5147
g57
(g78
g59
NtRp5148
(dp5149
g62
(dp5150
sg71
g5144
sg64
(lp5151
g57
(g58
g59
NtRp5152
(dp5153
g62
(dp5154
g70
I1
ssg71
g5148
sg64
(lp5155
(lp5156
(g4619
(S't\x06\x00\x00\x00Groups'
tRp5157
I00
S'http://www.web2py.com/examples/default/usergroups'
p5158
tp5159
a(g4619
(S't\x07\x00\x00\x00Twitter'
tRp5160
I00
S'http://twitter.com/web2py'
p5161
tp5162
a(g4619
(S's\t\x00\x00\x00Live Chat'
tRp5163
I00
S'http://webchat.freenode.net/?channels=web2py'
p5164
tp5165
aasbasbasbasbasbasbasbag57
(g73
g59
NtRp5166
(dp5167
g62
(dp5168
sg71
g4733
sg64
(lp5169
g57
(g78
g59
NtRp5170
(dp5171
g62
(dp5172
sg71
g5166
sg64
(lp5173
g57
(g58
g59
NtRp5174
(dp5175
g62
(dp5176
g70
I2
ssg71
g5170
sg64
(lp5177
g57
(g66
g59
NtRp5178
(dp5179
g62
(dp5180
g70
I1
ssg71
Nsg64
(lp5181
g57
(g73
g59
NtRp5182
(dp5183
g62
(dp5184
sg71
g5178
sg64
(lp5185
g57
(g78
g59
NtRp5186
(dp5187
g62
(dp5188
sg71
g5182
sg64
(lp5189
g57
(g58
g59
NtRp5190
(dp5191
g62
(dp5192
g70
I1
ssg71
g5186
sg64
(lp5193
g4619
(S't\x07\x00\x00\x00Plugins'
tRp5194
asbasbasbag57
(g73
g59
NtRp5195
(dp5196
g62
(dp5197
sg71
g5178
sg64
(lp5198
g57
(g78
g59
NtRp5199
(dp5200
g62
(dp5201
sg71
g5195
sg64
(lp5202
g57
(g58
g59
NtRp5203
(dp5204
g62
(dp5205
g70
I1
ssg71
g5199
sg64
(lp5206
I00
asbasbasbag57
(g73
g59
NtRp5207
(dp5208
g62
(dp5209
sg71
g5178
sg64
(lp5210
g57
(g78
g59
NtRp5211
(dp5212
g62
(dp5213
sg71
g5207
sg64
(lp5214
g57
(g58
g59
NtRp5215
(dp5216
g62
(dp5217
g70
I1
ssg71
g5211
sg64
(lp5218
Nasbasbasbag57
(g73
g59
NtRp5219
(dp5220
g62
(dp5221
sg71
g5178
sg64
(lp5222
g57
(g78
g59
NtRp5223
(dp5224
g62
(dp5225
sg71
g5219
sg64
(lp5226
g57
(g58
g59
NtRp5227
(dp5228
g62
(dp5229
g70
I1
ssg71
g5223
sg64
(lp5230
(lp5231
(S'plugin_wiki'
p5232
I00
S'http://web2py.com/examples/default/download'
p5233
tp5234
a(g4619
(S's\r\x00\x00\x00Other Plugins'
tRp5235
I00
g4965
tp5236
a(g4619
(S's\x0e\x00\x00\x00Layout Plugins'
tRp5237
I00
g4968
tp5238
aasbasbasbasbasbasbasbasbasbasbasbasbasbasbasbasbasbasbasbag57
(g73
g59
NtRp5239
(dp5240
g62
(dp5241
sg71
g4062
sg64
(lp5242
g57
(g78
g59
NtRp5243
(dp5244
g62
(dp5245
g82
g83
ssg71
g5239
sg64
(lp5246
S'meta'
p5247
asbag57
(g78
g59
NtRp5248
(dp5249
g62
(dp5250
g89
g90
ssg71
g5239
sg64
(lp5251
S':'
asbag57
(g78
g59
NtRp5252
(dp5253
g62
(dp5254
sg71
g5239
sg64
(lp5255
g57
(g58
g59
NtRp5256
(dp5257
g62
(dp5258
g70
I5
ssg71
g5252
sg64
(lp5259
g57
(g66
g59
NtRp5260
(dp5261
g62
(dp5262
g70
I4
ssg71
Nsg64
(lp5263
g57
(g73
g59
NtRp5264
(dp5265
g62
(dp5266
sg71
g5260
sg64
(lp5267
g57
(g78
g59
NtRp5268
(dp5269
g62
(dp5270
g82
g83
ssg71
g5264
sg64
(lp5271
S'author'
p5272
asbag57
(g78
g59
NtRp5273
(dp5274
g62
(dp5275
g89
g90
ssg71
g5264
sg64
(lp5276
S':'
asbag57
(g78
g59
NtRp5277
(dp5278
g62
(dp5279
sg71
g5264
sg64
(lp5280
g57
(g58
g59
NtRp5281
(dp5282
g62
(dp5283
g70
I4
ssg71
g5277
sg64
(lp5284
S'Your Name <you@example.com>'
p5285
asbasbasbag57
(g73
g59
NtRp5286
(dp5287
g62
(dp5288
sg71
g5260
sg64
(lp5289
g57
(g78
g59
NtRp5290
(dp5291
g62
(dp5292
g82
g83
ssg71
g5286
sg64
(lp5293
S'copyright'
p5294
asbag57
(g78
g59
NtRp5295
(dp5296
g62
(dp5297
g89
g90
ssg71
g5286
sg64
(lp5298
S':'
asbag57
(g78
g59
NtRp5299
(dp5300
g62
(dp5301
sg71
g5286
sg64
(lp5302
g57
(g58
g59
NtRp5303
(dp5304
g62
(dp5305
g70
I4
ssg71
g5299
sg64
(lp5306
S'Copyright 2011'
p5307
asbasbasbag57
(g73
g59
NtRp5308
(dp5309
g62
(dp5310
sg71
g5260
sg64
(lp5311
g57
(g78
g59
NtRp5312
(dp5313
g62
(dp5314
g82
g83
ssg71
g5308
sg64
(lp5315
S'description'
p5316
asbag57
(g78
g59
NtRp5317
(dp5318
g62
(dp5319
g89
g90
ssg71
g5308
sg64
(lp5320
S':'
asbag57
(g78
g59
NtRp5321
(dp5322
g62
(dp5323
sg71
g5308
sg64
(lp5324
g57
(g58
g59
NtRp5325
(dp5326
g62
(dp5327
g70
I4
ssg71
g5321
sg64
(lp5328
S'a cool new app'
p5329
asbasbasbag57
(g73
g59
NtRp5330
(dp5331
g62
(dp5332
sg71
g5260
sg64
(lp5333
g57
(g78
g59
NtRp5334
(dp5335
g62
(dp5336
g82
g83
ssg71
g5330
sg64
(lp5337
S'generator'
p5338
asbag57
(g78
g59
NtRp5339
(dp5340
g62
(dp5341
g89
g90
ssg71
g5330
sg64
(lp5342
S':'
asbag57
(g78
g59
NtRp5343
(dp5344
g62
(dp5345
sg71
g5330
sg64
(lp5346
g57
(g58
g59
NtRp5347
(dp5348
g62
(dp5349
g70
I4
ssg71
g5343
sg64
(lp5350
S'Web2py Web Framework'
p5351
asbasbasbag57
(g73
g59
NtRp5352
(dp5353
g62
(dp5354
sg71
g5260
sg64
(lp5355
g57
(g78
g59
NtRp5356
(dp5357
g62
(dp5358
g82
g83
ssg71
g5352
sg64
(lp5359
S'keywords'
p5360
asbag57
(g78
g59
NtRp5361
(dp5362
g62
(dp5363
g89
g90
ssg71
g5352
sg64
(lp5364
S':'
asbag57
(g78
g59
NtRp5365
(dp5366
g62
(dp5367
sg71
g5352
sg64
(lp5368
g57
(g58
g59
NtRp5369
(dp5370
g62
(dp5371
g70
I4
ssg71
g5365
sg64
(lp5372
S'web2py, python, framework'
p5373
asbasbasbasbasbasbasbag57
(g73
g59
NtRp5374
(dp5375
g62
(dp5376
sg71
g4062
sg64
(lp5377
g57
(g78
g59
NtRp5378
(dp5379
g62
(dp5380
g82
g83
ssg71
g5374
sg64
(lp5381
S'postprocessing'
p5382
asbag57
(g78
g59
NtRp5383
(dp5384
g62
(dp5385
g89
g90
ssg71
g5374
sg64
(lp5386
S':'
asbag57
(g78
g59
NtRp5387
(dp5388
g62
(dp5389
sg71
g5374
sg64
(lp5390
g57
(g58
g59
NtRp5391
(dp5392
g62
(dp5393
g70
I5
ssg71
g5387
sg64
(lp5394
g57
(g66
g59
NtRp5395
(dp5396
g62
(dp5397
g70
I4
ssg71
Nsg64
(lp5398
sbasbasbasbag57
(g73
g59
NtRp5399
(dp5400
g62
(dp5401
sg71
g4062
sg64
(lp5402
g57
(g78
g59
NtRp5403
(dp5404
g62
(dp5405
g82
g83
ssg71
g5399
sg64
(lp5406
S'session_file'
p5407
asbag57
(g78
g59
NtRp5408
(dp5409
g62
(dp5410
g89
g90
ssg71
g5399
sg64
(lp5411
S':'
asbag57
(g78
g59
NtRp5412
(dp5413
g62
(dp5414
sg71
g5399
sg64
(lp5415
g57
(g58
g59
NtRp5416
(dp5417
g62
(dp5418
g70
I5
ssg71
g5412
sg64
(lp5419
S"<open file '/Users/hainna01/Downloads/web2py/applications/Starcraft2/sessions/127.0.0.1-ab0c6fa2-79d9-46c1-ab68-7df9589f9e17', mode 'rb+' at 0x10cbab030>"
p5420
asbasbasbag57
(g73
g59
NtRp5421
(dp5422
g62
(dp5423
sg71
g4062
sg64
(lp5424
g57
(g78
g59
NtRp5425
(dp5426
g62
(dp5427
g82
g83
ssg71
g5421
sg64
(lp5428
S'session_filename'
p5429
asbag57
(g78
g59
NtRp5430
(dp5431
g62
(dp5432
g89
g90
ssg71
g5421
sg64
(lp5433
S':'
asbag57
(g78
g59
NtRp5434
(dp5435
g62
(dp5436
sg71
g5421
sg64
(lp5437
g57
(g58
g59
NtRp5438
(dp5439
g62
(dp5440
g70
I5
ssg71
g5434
sg64
(lp5441
S'/Users/hainna01/Downloads/web2py/applications/Starcraft2/sessions/127.0.0.1-ab0c6fa2-79d9-46c1-ab68-7df9589f9e17'
p5442
asbasbasbag57
(g73
g59
NtRp5443
(dp5444
g62
(dp5445
sg71
g4062
sg64
(lp5446
g57
(g78
g59
NtRp5447
(dp5448
g62
(dp5449
g82
g83
ssg71
g5443
sg64
(lp5450
S'session_id'
p5451
asbag57
(g78
g59
NtRp5452
(dp5453
g62
(dp5454
g89
g90
ssg71
g5443
sg64
(lp5455
S':'
asbag57
(g78
g59
NtRp5456
(dp5457
g62
(dp5458
sg71
g5443
sg64
(lp5459
g57
(g58
g59
NtRp5460
(dp5461
g62
(dp5462
g70
I5
ssg71
g5456
sg64
(lp5463
S'127.0.0.1-ab0c6fa2-79d9-46c1-ab68-7df9589f9e17'
p5464
asbasbasbag57
(g73
g59
NtRp5465
(dp5466
g62
(dp5467
sg71
g4062
sg64
(lp5468
g57
(g78
g59
NtRp5469
(dp5470
g62
(dp5471
g82
g83
ssg71
g5465
sg64
(lp5472
S'session_id_name'
p5473
asbag57
(g78
g59
NtRp5474
(dp5475
g62
(dp5476
g89
g90
ssg71
g5465
sg64
(lp5477
S':'
asbag57
(g78
g59
NtRp5478
(dp5479
g62
(dp5480
sg71
g5465
sg64
(lp5481
g57
(g58
g59
NtRp5482
(dp5483
g62
(dp5484
g70
I5
ssg71
g5478
sg64
(lp5485
g4119
asbasbasbag57
(g73
g59
NtRp5486
(dp5487
g62
(dp5488
sg71
g4062
sg64
(lp5489
g57
(g78
g59
NtRp5490
(dp5491
g62
(dp5492
g82
g83
ssg71
g5486
sg64
(lp5493
S'session_locked'
p5494
asbag57
(g78
g59
NtRp5495
(dp5496
g62
(dp5497
g89
g90
ssg71
g5486
sg64
(lp5498
S':'
asbag57
(g78
g59
NtRp5499
(dp5500
g62
(dp5501
sg71
g5486
sg64
(lp5502
g57
(g58
g59
NtRp5503
(dp5504
g62
(dp5505
g70
I5
ssg71
g5499
sg64
(lp5506
g1808
asbasbasbag57
(g73
g59
NtRp5507
(dp5508
g62
(dp5509
sg71
g4062
sg64
(lp5510
g57
(g78
g59
NtRp5511
(dp5512
g62
(dp5513
g82
g83
ssg71
g5507
sg64
(lp5514
S'session_new'
p5515
asbag57
(g78
g59
NtRp5516
(dp5517
g62
(dp5518
g89
g90
ssg71
g5507
sg64
(lp5519
S':'
asbag57
(g78
g59
NtRp5520
(dp5521
g62
(dp5522
sg71
g5507
sg64
(lp5523
g57
(g58
g59
NtRp5524
(dp5525
g62
(dp5526
g70
I5
ssg71
g5520
sg64
(lp5527
g100
asbasbasbag57
(g73
g59
NtRp5528
(dp5529
g62
(dp5530
sg71
g4062
sg64
(lp5531
g57
(g78
g59
NtRp5532
(dp5533
g62
(dp5534
g82
g83
ssg71
g5528
sg64
(lp5535
S'status'
p5536
asbag57
(g78
g59
NtRp5537
(dp5538
g62
(dp5539
g89
g90
ssg71
g5528
sg64
(lp5540
S':'
asbag57
(g78
g59
NtRp5541
(dp5542
g62
(dp5543
sg71
g5528
sg64
(lp5544
g57
(g58
g59
NtRp5545
(dp5546
g62
(dp5547
g70
I5
ssg71
g5541
sg64
(lp5548
S'200'
p5549
asbasbasbag57
(g73
g59
NtRp5550
(dp5551
g62
(dp5552
sg71
g4062
sg64
(lp5553
g57
(g78
g59
NtRp5554
(dp5555
g62
(dp5556
g82
g83
ssg71
g5550
sg64
(lp5557
S'subtitle'
p5558
asbag57
(g78
g59
NtRp5559
(dp5560
g62
(dp5561
g89
g90
ssg71
g5550
sg64
(lp5562
S':'
asbag57
(g78
g59
NtRp5563
(dp5564
g62
(dp5565
sg71
g5550
sg64
(lp5566
g57
(g58
g59
NtRp5567
(dp5568
g62
(dp5569
g70
I5
ssg71
g5563
sg64
(lp5570
g4619
(S's\r\x00\x00\x00customize me!'
tRp5571
asbasbasbag57
(g73
g59
NtRp5572
(dp5573
g62
(dp5574
sg71
g4062
sg64
(lp5575
g57
(g78
g59
NtRp5576
(dp5577
g62
(dp5578
g82
g83
ssg71
g5572
sg64
(lp5579
S'title'
p5580
asbag57
(g78
g59
NtRp5581
(dp5582
g62
(dp5583
g89
g90
ssg71
g5572
sg64
(lp5584
S':'
asbag57
(g78
g59
NtRp5585
(dp5586
g62
(dp5587
sg71
g5572
sg64
(lp5588
g57
(g58
g59
NtRp5589
(dp5590
g62
(dp5591
g70
I5
ssg71
g5585
sg64
(lp5592
S'Starcraft2'
p5593
asbasbasbag57
(g73
g59
NtRp5594
(dp5595
g62
(dp5596
sg71
g4062
sg64
(lp5597
g57
(g78
g59
NtRp5598
(dp5599
g62
(dp5600
g82
g83
ssg71
g5594
sg64
(lp5601
g2625
asbag57
(g78
g59
NtRp5602
(dp5603
g62
(dp5604
g89
g90
ssg71
g5594
sg64
(lp5605
S':'
asbag57
(g78
g59
NtRp5606
(dp5607
g62
(dp5608
sg71
g5594
sg64
(lp5609
g57
(g58
g59
NtRp5610
(dp5611
g62
(dp5612
g70
I5
ssg71
g5606
sg64
(lp5613
g2638
asbasbasbag57
(g73
g59
NtRp5614
(dp5615
g62
(dp5616
sg71
g4062
sg64
(lp5617
g57
(g78
g59
NtRp5618
(dp5619
g62
(dp5620
g82
g83
ssg71
g5614
sg64
(lp5621
S'view'
p5622
asbag57
(g78
g59
NtRp5623
(dp5624
g62
(dp5625
g89
g90
ssg71
g5614
sg64
(lp5626
S':'
asbag57
(g78
g59
NtRp5627
(dp5628
g62
(dp5629
sg71
g5614
sg64
(lp5630
g57
(g58
g59
NtRp5631
(dp5632
g62
(dp5633
g70
I5
ssg71
g5627
sg64
(lp5634
S'default/build.html'
p5635
asbasbasbasbasbsS'locals'
p5636
(dp5637
S'a'
S'5'
sssS'traceback'
p5638
S'Traceback (most recent call last):\n  File "/Users/hainna01/Downloads/web2py/gluon/restricted.py", line 205, in restricted\n    exec ccode in environment\n  File "/Users/hainna01/Downloads/web2py/applications/Starcraft2/controllers/default.py", line 301, in <module>\n  File "/Users/hainna01/Downloads/web2py/gluon/globals.py", line 173, in <lambda>\n    self._caller = lambda f: f()\n  File "/Users/hainna01/Downloads/web2py/applications/Starcraft2/controllers/default.py", line 222, in build\n    numlist = filter(lambda a:a>int(request.vars.Supply),numlist)\n  File "/Users/hainna01/Downloads/web2py/applications/Starcraft2/controllers/default.py", line 222, in <lambda>\n    numlist = filter(lambda a:a>int(request.vars.Supply),numlist)\nValueError: invalid literal for int() with base 10: \'\'\n'
p5639
s.