(dp1
S'output'
p2
S"<type 'exceptions.SyntaxError'> invalid syntax (index.html, line 99)"
p3
sS'layer'
p4
S'/Users/hainna01/Downloads/web2py/applications/Starcraft2/views/default/index.html'
p5
sS'code'
p6
S'left_sidebar_enabled,right_sidebar_enabled=False,True\nresponse.write(\'\\n\', escape=False)\nresponse.write(\'<!DOCTYPE html>\\n<!-- paulirish.com/2008/conditional-stylesheets-vs-css-hacks-answer-neither/ -->\\n<!--[if lt IE 7]><html class="ie ie6 ie-lte9 ie-lte8 ie-lte7 no-js" lang="\', escape=False)\nresponse.write(T.accepted_language or \'en\')\nresponse.write(\'"> <![endif]-->\\n<!--[if IE 7]><html class="ie ie7 ie-lte9 ie-lte8 ie-lte7 no-js" lang="\', escape=False)\nresponse.write(T.accepted_language or \'en\')\nresponse.write(\'"> <![endif]-->\\n<!--[if IE 8]><html class="ie ie8 ie-lte9 ie-lte8 no-js" lang="\', escape=False)\nresponse.write(T.accepted_language or \'en\')\nresponse.write(\'"> <![endif]-->\\n<!--[if IE 9]><html class="ie9 ie-lte9 no-js" lang="\', escape=False)\nresponse.write(T.accepted_language or \'en\')\nresponse.write(\'"> <![endif]-->\\n<!--[if (gt IE 9)|!(IE)]><!--> <html class="no-js" lang="\', escape=False)\nresponse.write(T.accepted_language or \'en\')\nresponse.write(\'"> <!--<![endif]-->\\n<head>\\n  <meta charset="utf-8" />\\n  <!-- www.phpied.com/conditional-comments-block-downloads/ -->\\n  <!-- Always force latest IE rendering engine\\n\\t   (even in intranet) & Chrome Frame\\n\\t   Remove this if you use the .htaccess -->\\n  <!--[if IE]>\\n    <meta http-equiv="X-UA-Compatible" content="IE=edge\', escape=False)\nresponse.write(not request.is_local and \',chrome=1\' or \'\')\nresponse.write(\'">\\n  <![endif]-->\\n  \\n  <title>\', escape=False)\nresponse.write(response.title or request.application)\nresponse.write(\'</title>\\n  \\n  <!-- http://dev.w3.org/html5/markup/meta.name.html -->\\n  <meta name="application-name" content="\', escape=False)\nresponse.write(request.application)\nresponse.write(\'" />\\n  \\n  <!-- Speaking of Google, don\\\'t forget to set your site up:\\n\\t   http://google.com/webmasters -->\\n  <meta name="google-site-verification" content="" />\\n\\n  <!--  Mobile Viewport Fix\\n\\t  j.mp/mobileviewport & davidbcalhoun.com/2010/viewport-metatag\\n\\t  device-width: Occupy full width of the screen in its current orientation\\n\\t  initial-scale = 1.0 retains dimensions instead of zooming out if page height > device height\\n\\t  user-scalable = yes allows the user to zoom in -->\\n  <meta name="viewport" content="width=device-width, initial-scale=1.0, user-scalable=yes">\\n  \\n  <!-- Place favicon.ico and apple-touch-icon.png in the root of your domain and delete these references -->\\n  <link rel="shortcut icon" href="\', escape=False)\nresponse.write(URL(\'static\',\'favicon.ico\'))\nresponse.write(\'" type="image/x-icon">\\n  <link rel="apple-touch-icon" href="\', escape=False)\nresponse.write(URL(\'static\',\'favicon.png\'))\nresponse.write(\'">\\n\\n  <!-- All JavaScript at the bottom, except for Modernizr which enables \\n\\t   HTML5 elements & feature detects -->\\n  <script src="\', escape=False)\nresponse.write(URL(\'static\',\'js/modernizr.custom.js\'))\nresponse.write(\'"></script>  \\n\\n  <!-- include stylesheets -->\\n  \', escape=False)\nresponse.files.append(URL(\'static\',\'css/skeleton.css\'))\nresponse.files.append(URL(\'static\',\'css/web2py.css\'))\nif response.menu:\n    response.files.append(URL(\'static\',\'css/superfish.css\'))\n    response.files.append(URL(\'static\',\'js/superfish.js\'))\n    pass\nresponse.write(\'\\n\\n  \', escape=False)\nresponse.write(\'<script type="text/javascript"><!--\\n    // These variables are used by the web2py_ajax_init function in web2py_ajax.js (which is loaded below).\\n    var w2p_ajax_confirm_message = "\', escape=False)\nresponse.write(T(\'Are you sure you want to delete this object?\'))\nresponse.write(\'";\\n    var w2p_ajax_date_format = "\', escape=False)\nresponse.write(T(\'%Y-%m-%d\'))\nresponse.write(\'";\\n    var w2p_ajax_datetime_format = "\', escape=False)\nresponse.write(T(\'%Y-%m-%d %H:%M:%S\'))\nresponse.write(\'";\\n    //--></script>\\n\', escape=False)\nresponse.files.insert(0,URL(\'static\',\'js/jquery.js\'))\nresponse.files.insert(1,URL(\'static\',\'css/calendar.css\'))\nresponse.files.insert(2,URL(\'static\',\'js/calendar.js\'))\nresponse.files.insert(3,URL(\'static\',\'js/web2py.js\'))\nresponse.include_meta()\nresponse.include_files()\nresponse.write(\'\\n\', escape=False)\nresponse.write(\'\\n\\n  \', escape=False)\nif response.menu:\n    response.write(\'\\n  <script type="text/javascript">\\n    jQuery(function(){ jQuery(\\\'ul.sf-menu\\\').supersubs({minWidth:12,maxWidth:30,extraWidth:3}).superfish(); });\\n  </script>\\n  \', escape=False)\n    pass\nresponse.write(\'\\n\\n  \', escape=False)\n# using sidebars need to know what sidebar you want to use\nleft_sidebar_enabled = globals().get(\'left_sidebar_enabled\',False)\nright_sidebar_enabled = globals().get(\'right_sidebar_enabled\',False)\nmiddle_columns = {0:\'sixteen\',1:\'twelve\',2:\'eight\'}[\n(left_sidebar_enabled and 1 or 0)+(right_sidebar_enabled and 1 or 0)]\nresponse.write(\'\\n\\n  <!-- uncomment here to load jquery-ui\\n  <link rel="stylesheet" href="http://ajax.googleapis.com/ajax/libs/jqueryui/1.8.16/themes/base/jquery-ui.css" type="text/css" media="all" />\\n  <script src="http://ajax.googleapis.com/ajax/libs/jqueryui/1.8.16/jquery-ui.min.js" type="text/javascript"></script>\\n  uncomment to load jquery-ui //-->\\n</head>\\n<body>\\n  <div class="wrapper"><!-- for sticky footer -->\\n  \\n    <div class="topbar">\\n      <div class="container">    \\n        <div class="sixteen columns">\\n          <div id="navbar">\', escape=False)\nresponse.write(\'auth\' in globals() and auth.navbar(separators=(\' \',\' | \',\'\')))\nresponse.write(\'</div>\\n          \', escape=False)\nis_mobile=request.user_agent().is_mobile\nresponse.write(\'\\n\\t  \', escape=False)\nif response.menu:\n    response.write(\'\\n          <div id="menu">\\n             \', escape=False)\n    response.write(MENU(response.menu, _class=\'mobile-menu\' if is_mobile else \'sf-menu\',mobile=is_mobile))\n    response.write(\'\\n          </div>\\n          \', escape=False)\n    pass\nresponse.write(\'\\n        </div>\\n      </div>\\n    </div><!-- topbar -->\\n    \\n    <div class="flash">\', escape=False)\nresponse.write(response.flash or \'\')\nresponse.write(\'</div>\\n    \\n    <div class="header">\\n      <div class="container">         \\n        <div class="sixteen columns">\\n          <h1 class="remove-bottom" style="margin-top: .5em;">\\n          \', escape=False)\nresponse.write(response.title or request.application)\nresponse.write(\'\\n          </h1>\\n          <h5>\', escape=False)\nresponse.write(response.subtitle or \'\')\nresponse.write(\'</h5>\\n        </div>\\n        <div class="sixteen columns">\\n          <div class="statusbar clearfix">\\n            \', escape=False)\nresponse.write(\'\\n            <div class="breadcrumbs">\', escape=False)\nresponse.write(request.function.replace(\'_\', \' \').title())\nresponse.write(\'</div>\\n            \', escape=False)\nresponse.write(\'\\n            <!-- AddToAny BEGIN -->\\n            <div style="float:right; padding-top: .25em;" class="a2a_kit a2a_default_style">\\n            <a class="a2a_dd" href="http://www.addtoany.com/share_save">Share</a></div>\\n            <script type="text/javascript" src="http://static.addtoany.com/menu/page.js"></script>\\n            <!-- AddToAny END -->\\n          </div>\\n        </div>\\n      </div>\\n    </div>\\n\\n    <div class="main">\\n      <div class="container">                 \\n        \', escape=False)\nif left_sidebar_enabled:\n    response.write(\'\\n        <div class="four columns left-sidebar">\\n          \', escape=False)\n    response.write(\'\\n          <h3>Left Sidebar</h3>\\n          <p></p>\\n          \', escape=False)\n    response.write(\'\\n        </div>\\n        \', escape=False)\n    pass\nresponse.write(\'\\n        \\n        <div class="\', escape=False)\nresponse.write(middle_columns)\nresponse.write(\' columns center">\\n          \', escape=False)\nresponse.write(\'\\n          \', escape=False)\nresponse.write(\'\\n\\n\', escape=False)\nresponse.write(FORM(\'Pick a Race\', INPUT(_type=\'radio\', _name=\'race\', _value=\'terran\',value=\'terran\'),INPUT(_type=\'radio\', _name=\'race\', _value=\'zerg\'),INPUT(_type=\'radio\', _name=\'race\', _value=\'protoss\'),INPUT(_type=\'submit\')))\nresponse.write(\'\\n\\n\', escape=False)\nfor v in [\'terran\', \'protoss\', \'zerg\']:\n    response.write(\'\\n\', escape=False)\n    response.write(INPUT(_type=\'radio\', _name=\'race\', _value=v))\n    response.write(v)\n    response.write(\'\\n\', escape=False)\n    pass\nresponse.write("\\n\\n<form id=\'pickrace\'>\\n\\t<input type=\'radio\' name=\'race\' value=\'terran\'>Terran\\n\\t<input type=\'radio\' name=\'race\' value=\'zerg\'>Zerg\\n\\t<input type=\'radio\' name=\'race\' value=\'protoss\'>Protoss\\n\\t<input type=\'submit\'>\\n</form>\\n\\n", escape=False)\nif \'race\' in globals():\n    response.write(\'\\n\', escape=False)\n    print(=race)\n    response.write(\'\\n\', escape=False)\n    pass\nresponse.write("\\n\\n<table id=\'unittable\'>\\n", escape=False)\nif \'message\' in globals():\n    response.write(\'\\n\', escape=False)\n    for object in message:\n        response.write(\'\\n<tr>\\n<td><img src=\', escape=False)\n        response.write(object.link)\n        response.write(\'></td>\\n<td> \', escape=False)\n        response.write(object.name)\n        response.write(\'</td>>\\n<td>\', escape=False)\n        response.write(object.race)\n        response.write(\'</td>\\n</tr>\\n\', escape=False)\n        pass\n    response.write(\'\\n</table>\\n\', escape=False)\n    pass\nresponse.write(\'\\n\\n\', escape=False)\nresponse.write(\'\\n\\n\', escape=False)\nresponse.write(\'\\n          \', escape=False)\nresponse.write(\'\\n        </div>\\n        \\n        \', escape=False)\nif right_sidebar_enabled:\n    response.write(\'\\n        <div class="four columns">\\n          \', escape=False)\n    response.write(\'\\n\', escape=False)\n    response.write(A(T("Administrative Interface"), _href=URL(\'admin\',\'default\',\'index\'), _class=\'button\',\n    _style=\'margin-top: 1em;\'))\n    response.write(\'\\n<h6>\', escape=False)\n    response.write(T("Don\'t know what to do?"))\n    response.write(\'</h6>\\n<ul>\\n  <li>\', escape=False)\n    response.write(A(T("Online examples"), _href=URL(\'examples\',\'default\',\'index\')))\n    response.write(\'</li>\\n  <li><a href="http://web2py.com">web2py.com</a></li>\\n  <li><a href="http://web2py.com/book">\', escape=False)\n    response.write(T(\'Documentation\'))\n    response.write(\'</a></li>\\n</ul>\\n\', escape=False)\n    response.write(\'\\n        </div>    \\n        \', escape=False)\n    pass\nresponse.write(\'\\n        \\n      </div><!-- container -->\\n    </div><!-- main -->\\n    \\n    <div class="push"></div>\\n  </div><!-- wrapper -->\\n\\n  <div class="footer">\\n    <div class="container">    \\n      <div class="sixteen columns">\\n        \', escape=False)\nresponse.write(\' <!-- this is default footer -->\\n        <div class="footer-content clearfix">\\n          <div class="copyright">\', escape=False)\nresponse.write(T(\'Copyright\'))\nresponse.write(\' &#169; 2011</div>\\n          <div style="float: right;">\\n            <a href="http://www.web2py.com/">\\n            <img style="padding-bottom: 0;" src="\', escape=False)\nresponse.write(URL(\'static\',\'images/poweredby.png\'))\nresponse.write(\'"/>\\n            </a>\\n          </div>\\n        </div>\\n        \', escape=False)\nresponse.write(\'\\t\\n      </div>\\n    </div><!-- container -->\\n  </div><!-- footer -->\\n  \\n  <!--[if lt IE 7 ]>\\n\\t<script src="\', escape=False)\nresponse.write(URL(\'static\',\'js/dd_belatedpng.js\'))\nresponse.write(\'"></script>\\n\\t<script> DD_belatedPNG.fix(\\\'img, .png_bg\\\'); //fix any <img> or .png_bg background-images </script>\\n\\t<![endif]-->\\n  \', escape=False)\nif response.google_analytics_id:\n    response.write(\'<script type="text/javascript"> var _gaq = _gaq || []; _gaq.push([\\\'_setAccount\\\', \\\'\', escape=False)\n    response.write(response.google_analytics_id)\n    response.write("\']); _gaq.push([\'_trackPageview\']); (function() { var ga = document.createElement(\'script\'); ga.type = \'text/javascript\'; ga.async = true; ga.src = (\'https:\' == document.location.protocol ? \'https://ssl\' : \'http://www\') + \'.google-analytics.com/ga.js\'; var s = document.getElementsByTagName(\'script\')[0]; s.parentNode.insertBefore(ga, s); })(); </script> ", escape=False)\n    pass\nresponse.write(\'\\n</body>\\n</html>\\n\', escape=False)'
p7
sS'snapshot'
p8
(dp9
S'exception'
p10
(dp11
S'__getslice__'
p12
S"<method-wrapper '__getslice__' of exceptions.SyntaxError object>"
p13
sS'text'
p14
S"'    print(=race)\\n'"
p15
sS'__str__'
p16
S"<method-wrapper '__str__' of exceptions.SyntaxError object>"
p17
sS'__reduce__'
p18
S'<built-in method __reduce__ of exceptions.SyntaxError object>'
p19
sS'__dict__'
p20
S'{}'
p21
sS'__sizeof__'
p22
S'<built-in method __sizeof__ of exceptions.SyntaxError object>'
p23
sS'__init__'
p24
S"<method-wrapper '__init__' of exceptions.SyntaxError object>"
p25
sS'__setattr__'
p26
S"<method-wrapper '__setattr__' of exceptions.SyntaxError object>"
p27
sS'__reduce_ex__'
p28
S'<built-in method __reduce_ex__ of exceptions.SyntaxError object>'
p29
sS'__new__'
p30
S'<built-in method __new__ of type object>'
p31
sS'__format__'
p32
S'<built-in method __format__ of exceptions.SyntaxError object>'
p33
sS'__class__'
p34
S"<type 'exceptions.SyntaxError'>"
p35
sS'filename'
p36
S"'/Users/hainna01/Downloads/web2py/applications/Starcraft2/views/default/index.html'"
p37
sS'lineno'
p38
S'99'
p39
sS'msg'
p40
S"'invalid syntax'"
p41
sS'__doc__'
p42
S"'Invalid syntax.'"
p43
sS'__getitem__'
p44
S"<method-wrapper '__getitem__' of exceptions.SyntaxError object>"
p45
sS'__setstate__'
p46
S'<built-in method __setstate__ of exceptions.SyntaxError object>'
p47
sS'__getattribute__'
p48
S"<method-wrapper '__getattribute__' of exceptions.SyntaxError object>"
p49
sS'print_file_and_line'
p50
S'None'
p51
sS'args'
p52
S"('invalid syntax', ('/Users/hainna01/Downloads/web2py/applications/Starcraft2/views/default/index.html', 99, 11, '    print(=race)\\n'))"
p53
sS'__subclasshook__'
p54
S'<built-in method __subclasshook__ of type object>'
p55
sS'offset'
p56
S'11'
p57
sS'__unicode__'
p58
S'<built-in method __unicode__ of exceptions.SyntaxError object>'
p59
sS'__delattr__'
p60
S"<method-wrapper '__delattr__' of exceptions.SyntaxError object>"
p61
sS'__repr__'
p62
S"<method-wrapper '__repr__' of exceptions.SyntaxError object>"
p63
sS'__hash__'
p64
S"<method-wrapper '__hash__' of exceptions.SyntaxError object>"
p65
ssS'evalue'
p66
S'invalid syntax (index.html, line 99)'
p67
sS'request'
p68
ccopy_reg
_reconstructor
p69
(cgluon.html
BEAUTIFY
p70
c__builtin__
object
p71
NtRp72
(dp73
S'attributes'
p74
(dp75
sS'components'
p76
(lp77
g69
(cgluon.html
TABLE
p78
g71
NtRp79
(dp80
g74
(dp81
S'level'
p82
I5
ssS'parent'
p83
Nsg76
(lp84
g69
(cgluon.html
TR
p85
g71
NtRp86
(dp87
g74
(dp88
sg83
g79
sg76
(lp89
g69
(cgluon.html
TD
p90
g71
NtRp91
(dp92
g74
(dp93
S'_style'
p94
S'font-weight:bold;vertical-align:top'
p95
ssg83
g86
sg76
(lp96
S'ajax'
p97
asbag69
(g90
g71
NtRp98
(dp99
g74
(dp100
S'_valign'
p101
S'top'
p102
ssg83
g86
sg76
(lp103
S':'
asbag69
(g90
g71
NtRp104
(dp105
g74
(dp106
sg83
g86
sg76
(lp107
g69
(g70
g71
NtRp108
(dp109
g74
(dp110
g82
I5
ssg83
g104
sg76
(lp111
S'False'
p112
asbasbasbag69
(g85
g71
NtRp113
(dp114
g74
(dp115
sg83
g79
sg76
(lp116
g69
(g90
g71
NtRp117
(dp118
g74
(dp119
g94
g95
ssg83
g113
sg76
(lp120
S'application'
p121
asbag69
(g90
g71
NtRp122
(dp123
g74
(dp124
g101
g102
ssg83
g113
sg76
(lp125
S':'
asbag69
(g90
g71
NtRp126
(dp127
g74
(dp128
sg83
g113
sg76
(lp129
g69
(g70
g71
NtRp130
(dp131
g74
(dp132
g82
I5
ssg83
g126
sg76
(lp133
S'Starcraft2'
p134
asbasbasbag69
(g85
g71
NtRp135
(dp136
g74
(dp137
sg83
g79
sg76
(lp138
g69
(g90
g71
NtRp139
(dp140
g74
(dp141
g94
g95
ssg83
g135
sg76
(lp142
g52
asbag69
(g90
g71
NtRp143
(dp144
g74
(dp145
g101
g102
ssg83
g135
sg76
(lp146
S':'
asbag69
(g90
g71
NtRp147
(dp148
g74
(dp149
sg83
g135
sg76
(lp150
g69
(g70
g71
NtRp151
(dp152
g74
(dp153
g82
I5
ssg83
g147
sg76
(lp154
g69
(g78
g71
NtRp155
(dp156
g74
(dp157
g82
I4
ssg83
Nsg76
(lp158
sbasbasbasbag69
(g85
g71
NtRp159
(dp160
g74
(dp161
sg83
g79
sg76
(lp162
g69
(g90
g71
NtRp163
(dp164
g74
(dp165
g94
g95
ssg83
g159
sg76
(lp166
S'body'
p167
asbag69
(g90
g71
NtRp168
(dp169
g74
(dp170
g101
g102
ssg83
g159
sg76
(lp171
S':'
asbag69
(g90
g71
NtRp172
(dp173
g74
(dp174
sg83
g159
sg76
(lp175
g69
(g70
g71
NtRp176
(dp177
g74
(dp178
g82
I5
ssg83
g172
sg76
(lp179
S"<open file '<fdopen>', mode 'w+b' at 0x10bcb39c0>"
p180
asbasbasbag69
(g85
g71
NtRp181
(dp182
g74
(dp183
sg83
g79
sg76
(lp184
g69
(g90
g71
NtRp185
(dp186
g74
(dp187
g94
g95
ssg83
g181
sg76
(lp188
S'client'
p189
asbag69
(g90
g71
NtRp190
(dp191
g74
(dp192
g101
g102
ssg83
g181
sg76
(lp193
S':'
asbag69
(g90
g71
NtRp194
(dp195
g74
(dp196
sg83
g181
sg76
(lp197
g69
(g70
g71
NtRp198
(dp199
g74
(dp200
g82
I5
ssg83
g194
sg76
(lp201
S'127.0.0.1'
p202
asbasbasbag69
(g85
g71
NtRp203
(dp204
g74
(dp205
sg83
g79
sg76
(lp206
g69
(g90
g71
NtRp207
(dp208
g74
(dp209
g94
g95
ssg83
g203
sg76
(lp210
S'controller'
p211
asbag69
(g90
g71
NtRp212
(dp213
g74
(dp214
g101
g102
ssg83
g203
sg76
(lp215
S':'
asbag69
(g90
g71
NtRp216
(dp217
g74
(dp218
sg83
g203
sg76
(lp219
g69
(g70
g71
NtRp220
(dp221
g74
(dp222
g82
I5
ssg83
g216
sg76
(lp223
S'default'
p224
asbasbasbag69
(g85
g71
NtRp225
(dp226
g74
(dp227
sg83
g79
sg76
(lp228
g69
(g90
g71
NtRp229
(dp230
g74
(dp231
g94
g95
ssg83
g225
sg76
(lp232
S'cookies'
p233
asbag69
(g90
g71
NtRp234
(dp235
g74
(dp236
g101
g102
ssg83
g225
sg76
(lp237
S':'
asbag69
(g90
g71
NtRp238
(dp239
g74
(dp240
sg83
g225
sg76
(lp241
g69
(g70
g71
NtRp242
(dp243
g74
(dp244
g82
I5
ssg83
g238
sg76
(lp245
g69
(g78
g71
NtRp246
(dp247
g74
(dp248
g82
I4
ssg83
Nsg76
(lp249
g69
(g85
g71
NtRp250
(dp251
g74
(dp252
sg83
g246
sg76
(lp253
g69
(g90
g71
NtRp254
(dp255
g74
(dp256
g94
g95
ssg83
g250
sg76
(lp257
S'session_id_admin'
p258
asbag69
(g90
g71
NtRp259
(dp260
g74
(dp261
g101
g102
ssg83
g250
sg76
(lp262
S':'
asbag69
(g90
g71
NtRp263
(dp264
g74
(dp265
sg83
g250
sg76
(lp266
g69
(g70
g71
NtRp267
(dp268
g74
(dp269
g82
I4
ssg83
g263
sg76
(lp270
g69
(g78
g71
NtRp271
(dp272
g74
(dp273
g82
I3
ssg83
Nsg76
(lp274
g69
(g85
g71
NtRp275
(dp276
g74
(dp277
sg83
g271
sg76
(lp278
g69
(g90
g71
NtRp279
(dp280
g74
(dp281
g94
g95
ssg83
g275
sg76
(lp282
S'comment'
p283
asbag69
(g90
g71
NtRp284
(dp285
g74
(dp286
g101
g102
ssg83
g275
sg76
(lp287
S':'
asbag69
(g90
g71
NtRp288
(dp289
g74
(dp290
sg83
g275
sg76
(lp291
g69
(g70
g71
NtRp292
(dp293
g74
(dp294
g82
I3
ssg83
g288
sg76
(lp295
S''
asbasbasbag69
(g85
g71
NtRp296
(dp297
g74
(dp298
sg83
g271
sg76
(lp299
g69
(g90
g71
NtRp300
(dp301
g74
(dp302
g94
g95
ssg83
g296
sg76
(lp303
S'domain'
p304
asbag69
(g90
g71
NtRp305
(dp306
g74
(dp307
g101
g102
ssg83
g296
sg76
(lp308
S':'
asbag69
(g90
g71
NtRp309
(dp310
g74
(dp311
sg83
g296
sg76
(lp312
g69
(g70
g71
NtRp313
(dp314
g74
(dp315
g82
I3
ssg83
g309
sg76
(lp316
S''
asbasbasbag69
(g85
g71
NtRp317
(dp318
g74
(dp319
sg83
g271
sg76
(lp320
g69
(g90
g71
NtRp321
(dp322
g74
(dp323
g94
g95
ssg83
g317
sg76
(lp324
S'expires'
p325
asbag69
(g90
g71
NtRp326
(dp327
g74
(dp328
g101
g102
ssg83
g317
sg76
(lp329
S':'
asbag69
(g90
g71
NtRp330
(dp331
g74
(dp332
sg83
g317
sg76
(lp333
g69
(g70
g71
NtRp334
(dp335
g74
(dp336
g82
I3
ssg83
g330
sg76
(lp337
S''
asbasbasbag69
(g85
g71
NtRp338
(dp339
g74
(dp340
sg83
g271
sg76
(lp341
g69
(g90
g71
NtRp342
(dp343
g74
(dp344
g94
g95
ssg83
g338
sg76
(lp345
S'httponly'
p346
asbag69
(g90
g71
NtRp347
(dp348
g74
(dp349
g101
g102
ssg83
g338
sg76
(lp350
S':'
asbag69
(g90
g71
NtRp351
(dp352
g74
(dp353
sg83
g338
sg76
(lp354
g69
(g70
g71
NtRp355
(dp356
g74
(dp357
g82
I3
ssg83
g351
sg76
(lp358
S''
asbasbasbag69
(g85
g71
NtRp359
(dp360
g74
(dp361
sg83
g271
sg76
(lp362
g69
(g90
g71
NtRp363
(dp364
g74
(dp365
g94
g95
ssg83
g359
sg76
(lp366
S'max-age'
p367
asbag69
(g90
g71
NtRp368
(dp369
g74
(dp370
g101
g102
ssg83
g359
sg76
(lp371
S':'
asbag69
(g90
g71
NtRp372
(dp373
g74
(dp374
sg83
g359
sg76
(lp375
g69
(g70
g71
NtRp376
(dp377
g74
(dp378
g82
I3
ssg83
g372
sg76
(lp379
S''
asbasbasbag69
(g85
g71
NtRp380
(dp381
g74
(dp382
sg83
g271
sg76
(lp383
g69
(g90
g71
NtRp384
(dp385
g74
(dp386
g94
g95
ssg83
g380
sg76
(lp387
S'path'
p388
asbag69
(g90
g71
NtRp389
(dp390
g74
(dp391
g101
g102
ssg83
g380
sg76
(lp392
S':'
asbag69
(g90
g71
NtRp393
(dp394
g74
(dp395
sg83
g380
sg76
(lp396
g69
(g70
g71
NtRp397
(dp398
g74
(dp399
g82
I3
ssg83
g393
sg76
(lp400
S''
asbasbasbag69
(g85
g71
NtRp401
(dp402
g74
(dp403
sg83
g271
sg76
(lp404
g69
(g90
g71
NtRp405
(dp406
g74
(dp407
g94
g95
ssg83
g401
sg76
(lp408
S'secure'
p409
asbag69
(g90
g71
NtRp410
(dp411
g74
(dp412
g101
g102
ssg83
g401
sg76
(lp413
S':'
asbag69
(g90
g71
NtRp414
(dp415
g74
(dp416
sg83
g401
sg76
(lp417
g69
(g70
g71
NtRp418
(dp419
g74
(dp420
g82
I3
ssg83
g414
sg76
(lp421
S''
asbasbasbag69
(g85
g71
NtRp422
(dp423
g74
(dp424
sg83
g271
sg76
(lp425
g69
(g90
g71
NtRp426
(dp427
g74
(dp428
g94
g95
ssg83
g422
sg76
(lp429
S'version'
p430
asbag69
(g90
g71
NtRp431
(dp432
g74
(dp433
g101
g102
ssg83
g422
sg76
(lp434
S':'
asbag69
(g90
g71
NtRp435
(dp436
g74
(dp437
sg83
g422
sg76
(lp438
g69
(g70
g71
NtRp439
(dp440
g74
(dp441
g82
I3
ssg83
g435
sg76
(lp442
S''
asbasbasbasbasbasbasbag69
(g85
g71
NtRp443
(dp444
g74
(dp445
sg83
g246
sg76
(lp446
g69
(g90
g71
NtRp447
(dp448
g74
(dp449
g94
g95
ssg83
g443
sg76
(lp450
S'session_id_starcraft2'
p451
asbag69
(g90
g71
NtRp452
(dp453
g74
(dp454
g101
g102
ssg83
g443
sg76
(lp455
S':'
asbag69
(g90
g71
NtRp456
(dp457
g74
(dp458
sg83
g443
sg76
(lp459
g69
(g70
g71
NtRp460
(dp461
g74
(dp462
g82
I4
ssg83
g456
sg76
(lp463
g69
(g78
g71
NtRp464
(dp465
g74
(dp466
g82
I3
ssg83
Nsg76
(lp467
g69
(g85
g71
NtRp468
(dp469
g74
(dp470
sg83
g464
sg76
(lp471
g69
(g90
g71
NtRp472
(dp473
g74
(dp474
g94
g95
ssg83
g468
sg76
(lp475
g283
asbag69
(g90
g71
NtRp476
(dp477
g74
(dp478
g101
g102
ssg83
g468
sg76
(lp479
S':'
asbag69
(g90
g71
NtRp480
(dp481
g74
(dp482
sg83
g468
sg76
(lp483
g69
(g70
g71
NtRp484
(dp485
g74
(dp486
g82
I3
ssg83
g480
sg76
(lp487
S''
asbasbasbag69
(g85
g71
NtRp488
(dp489
g74
(dp490
sg83
g464
sg76
(lp491
g69
(g90
g71
NtRp492
(dp493
g74
(dp494
g94
g95
ssg83
g488
sg76
(lp495
g304
asbag69
(g90
g71
NtRp496
(dp497
g74
(dp498
g101
g102
ssg83
g488
sg76
(lp499
S':'
asbag69
(g90
g71
NtRp500
(dp501
g74
(dp502
sg83
g488
sg76
(lp503
g69
(g70
g71
NtRp504
(dp505
g74
(dp506
g82
I3
ssg83
g500
sg76
(lp507
S''
asbasbasbag69
(g85
g71
NtRp508
(dp509
g74
(dp510
sg83
g464
sg76
(lp511
g69
(g90
g71
NtRp512
(dp513
g74
(dp514
g94
g95
ssg83
g508
sg76
(lp515
g325
asbag69
(g90
g71
NtRp516
(dp517
g74
(dp518
g101
g102
ssg83
g508
sg76
(lp519
S':'
asbag69
(g90
g71
NtRp520
(dp521
g74
(dp522
sg83
g508
sg76
(lp523
g69
(g70
g71
NtRp524
(dp525
g74
(dp526
g82
I3
ssg83
g520
sg76
(lp527
S''
asbasbasbag69
(g85
g71
NtRp528
(dp529
g74
(dp530
sg83
g464
sg76
(lp531
g69
(g90
g71
NtRp532
(dp533
g74
(dp534
g94
g95
ssg83
g528
sg76
(lp535
g346
asbag69
(g90
g71
NtRp536
(dp537
g74
(dp538
g101
g102
ssg83
g528
sg76
(lp539
S':'
asbag69
(g90
g71
NtRp540
(dp541
g74
(dp542
sg83
g528
sg76
(lp543
g69
(g70
g71
NtRp544
(dp545
g74
(dp546
g82
I3
ssg83
g540
sg76
(lp547
S''
asbasbasbag69
(g85
g71
NtRp548
(dp549
g74
(dp550
sg83
g464
sg76
(lp551
g69
(g90
g71
NtRp552
(dp553
g74
(dp554
g94
g95
ssg83
g548
sg76
(lp555
g367
asbag69
(g90
g71
NtRp556
(dp557
g74
(dp558
g101
g102
ssg83
g548
sg76
(lp559
S':'
asbag69
(g90
g71
NtRp560
(dp561
g74
(dp562
sg83
g548
sg76
(lp563
g69
(g70
g71
NtRp564
(dp565
g74
(dp566
g82
I3
ssg83
g560
sg76
(lp567
S''
asbasbasbag69
(g85
g71
NtRp568
(dp569
g74
(dp570
sg83
g464
sg76
(lp571
g69
(g90
g71
NtRp572
(dp573
g74
(dp574
g94
g95
ssg83
g568
sg76
(lp575
g388
asbag69
(g90
g71
NtRp576
(dp577
g74
(dp578
g101
g102
ssg83
g568
sg76
(lp579
S':'
asbag69
(g90
g71
NtRp580
(dp581
g74
(dp582
sg83
g568
sg76
(lp583
g69
(g70
g71
NtRp584
(dp585
g74
(dp586
g82
I3
ssg83
g580
sg76
(lp587
S''
asbasbasbag69
(g85
g71
NtRp588
(dp589
g74
(dp590
sg83
g464
sg76
(lp591
g69
(g90
g71
NtRp592
(dp593
g74
(dp594
g94
g95
ssg83
g588
sg76
(lp595
g409
asbag69
(g90
g71
NtRp596
(dp597
g74
(dp598
g101
g102
ssg83
g588
sg76
(lp599
S':'
asbag69
(g90
g71
NtRp600
(dp601
g74
(dp602
sg83
g588
sg76
(lp603
g69
(g70
g71
NtRp604
(dp605
g74
(dp606
g82
I3
ssg83
g600
sg76
(lp607
S''
asbasbasbag69
(g85
g71
NtRp608
(dp609
g74
(dp610
sg83
g464
sg76
(lp611
g69
(g90
g71
NtRp612
(dp613
g74
(dp614
g94
g95
ssg83
g608
sg76
(lp615
g430
asbag69
(g90
g71
NtRp616
(dp617
g74
(dp618
g101
g102
ssg83
g608
sg76
(lp619
S':'
asbag69
(g90
g71
NtRp620
(dp621
g74
(dp622
sg83
g608
sg76
(lp623
g69
(g70
g71
NtRp624
(dp625
g74
(dp626
g82
I3
ssg83
g620
sg76
(lp627
S''
asbasbasbasbasbasbasbag69
(g85
g71
NtRp628
(dp629
g74
(dp630
sg83
g246
sg76
(lp631
g69
(g90
g71
NtRp632
(dp633
g74
(dp634
g94
g95
ssg83
g628
sg76
(lp635
S'session_id_welcome'
p636
asbag69
(g90
g71
NtRp637
(dp638
g74
(dp639
g101
g102
ssg83
g628
sg76
(lp640
S':'
asbag69
(g90
g71
NtRp641
(dp642
g74
(dp643
sg83
g628
sg76
(lp644
g69
(g70
g71
NtRp645
(dp646
g74
(dp647
g82
I4
ssg83
g641
sg76
(lp648
g69
(g78
g71
NtRp649
(dp650
g74
(dp651
g82
I3
ssg83
Nsg76
(lp652
g69
(g85
g71
NtRp653
(dp654
g74
(dp655
sg83
g649
sg76
(lp656
g69
(g90
g71
NtRp657
(dp658
g74
(dp659
g94
g95
ssg83
g653
sg76
(lp660
g283
asbag69
(g90
g71
NtRp661
(dp662
g74
(dp663
g101
g102
ssg83
g653
sg76
(lp664
S':'
asbag69
(g90
g71
NtRp665
(dp666
g74
(dp667
sg83
g653
sg76
(lp668
g69
(g70
g71
NtRp669
(dp670
g74
(dp671
g82
I3
ssg83
g665
sg76
(lp672
S''
asbasbasbag69
(g85
g71
NtRp673
(dp674
g74
(dp675
sg83
g649
sg76
(lp676
g69
(g90
g71
NtRp677
(dp678
g74
(dp679
g94
g95
ssg83
g673
sg76
(lp680
g304
asbag69
(g90
g71
NtRp681
(dp682
g74
(dp683
g101
g102
ssg83
g673
sg76
(lp684
S':'
asbag69
(g90
g71
NtRp685
(dp686
g74
(dp687
sg83
g673
sg76
(lp688
g69
(g70
g71
NtRp689
(dp690
g74
(dp691
g82
I3
ssg83
g685
sg76
(lp692
S''
asbasbasbag69
(g85
g71
NtRp693
(dp694
g74
(dp695
sg83
g649
sg76
(lp696
g69
(g90
g71
NtRp697
(dp698
g74
(dp699
g94
g95
ssg83
g693
sg76
(lp700
g325
asbag69
(g90
g71
NtRp701
(dp702
g74
(dp703
g101
g102
ssg83
g693
sg76
(lp704
S':'
asbag69
(g90
g71
NtRp705
(dp706
g74
(dp707
sg83
g693
sg76
(lp708
g69
(g70
g71
NtRp709
(dp710
g74
(dp711
g82
I3
ssg83
g705
sg76
(lp712
S''
asbasbasbag69
(g85
g71
NtRp713
(dp714
g74
(dp715
sg83
g649
sg76
(lp716
g69
(g90
g71
NtRp717
(dp718
g74
(dp719
g94
g95
ssg83
g713
sg76
(lp720
g346
asbag69
(g90
g71
NtRp721
(dp722
g74
(dp723
g101
g102
ssg83
g713
sg76
(lp724
S':'
asbag69
(g90
g71
NtRp725
(dp726
g74
(dp727
sg83
g713
sg76
(lp728
g69
(g70
g71
NtRp729
(dp730
g74
(dp731
g82
I3
ssg83
g725
sg76
(lp732
S''
asbasbasbag69
(g85
g71
NtRp733
(dp734
g74
(dp735
sg83
g649
sg76
(lp736
g69
(g90
g71
NtRp737
(dp738
g74
(dp739
g94
g95
ssg83
g733
sg76
(lp740
g367
asbag69
(g90
g71
NtRp741
(dp742
g74
(dp743
g101
g102
ssg83
g733
sg76
(lp744
S':'
asbag69
(g90
g71
NtRp745
(dp746
g74
(dp747
sg83
g733
sg76
(lp748
g69
(g70
g71
NtRp749
(dp750
g74
(dp751
g82
I3
ssg83
g745
sg76
(lp752
S''
asbasbasbag69
(g85
g71
NtRp753
(dp754
g74
(dp755
sg83
g649
sg76
(lp756
g69
(g90
g71
NtRp757
(dp758
g74
(dp759
g94
g95
ssg83
g753
sg76
(lp760
g388
asbag69
(g90
g71
NtRp761
(dp762
g74
(dp763
g101
g102
ssg83
g753
sg76
(lp764
S':'
asbag69
(g90
g71
NtRp765
(dp766
g74
(dp767
sg83
g753
sg76
(lp768
g69
(g70
g71
NtRp769
(dp770
g74
(dp771
g82
I3
ssg83
g765
sg76
(lp772
S''
asbasbasbag69
(g85
g71
NtRp773
(dp774
g74
(dp775
sg83
g649
sg76
(lp776
g69
(g90
g71
NtRp777
(dp778
g74
(dp779
g94
g95
ssg83
g773
sg76
(lp780
g409
asbag69
(g90
g71
NtRp781
(dp782
g74
(dp783
g101
g102
ssg83
g773
sg76
(lp784
S':'
asbag69
(g90
g71
NtRp785
(dp786
g74
(dp787
sg83
g773
sg76
(lp788
g69
(g70
g71
NtRp789
(dp790
g74
(dp791
g82
I3
ssg83
g785
sg76
(lp792
S''
asbasbasbag69
(g85
g71
NtRp793
(dp794
g74
(dp795
sg83
g649
sg76
(lp796
g69
(g90
g71
NtRp797
(dp798
g74
(dp799
g94
g95
ssg83
g793
sg76
(lp800
g430
asbag69
(g90
g71
NtRp801
(dp802
g74
(dp803
g101
g102
ssg83
g793
sg76
(lp804
S':'
asbag69
(g90
g71
NtRp805
(dp806
g74
(dp807
sg83
g793
sg76
(lp808
g69
(g70
g71
NtRp809
(dp810
g74
(dp811
g82
I3
ssg83
g805
sg76
(lp812
S''
asbasbasbasbasbasbasbasbasbasbasbag69
(g85
g71
NtRp813
(dp814
g74
(dp815
sg83
g79
sg76
(lp816
g69
(g90
g71
NtRp817
(dp818
g74
(dp819
g94
g95
ssg83
g813
sg76
(lp820
S'env'
p821
asbag69
(g90
g71
NtRp822
(dp823
g74
(dp824
g101
g102
ssg83
g813
sg76
(lp825
S':'
asbag69
(g90
g71
NtRp826
(dp827
g74
(dp828
sg83
g813
sg76
(lp829
g69
(g70
g71
NtRp830
(dp831
g74
(dp832
g82
I5
ssg83
g826
sg76
(lp833
g69
(g78
g71
NtRp834
(dp835
g74
(dp836
g82
I4
ssg83
Nsg76
(lp837
g69
(g85
g71
NtRp838
(dp839
g74
(dp840
sg83
g834
sg76
(lp841
g69
(g90
g71
NtRp842
(dp843
g74
(dp844
g94
g95
ssg83
g838
sg76
(lp845
S'app_folders'
p846
asbag69
(g90
g71
NtRp847
(dp848
g74
(dp849
g101
g102
ssg83
g838
sg76
(lp850
S':'
asbag69
(g90
g71
NtRp851
(dp852
g74
(dp853
sg83
g838
sg76
(lp854
g69
(g70
g71
NtRp855
(dp856
g74
(dp857
g82
I4
ssg83
g851
sg76
(lp858
S"set(['/Users/hainna01/Downloads/web2py/applications/welcome/', '/Users/hainna01/Downloads/web2py/applications/Starcraft2/', '/Users/hainna01/Downloads/web2py/applications/examples/', '/Users/hainna01/Downloads/web2py/applications/admin/'])"
p859
asbasbasbag69
(g85
g71
NtRp860
(dp861
g74
(dp862
sg83
g834
sg76
(lp863
g69
(g90
g71
NtRp864
(dp865
g74
(dp866
g94
g95
ssg83
g860
sg76
(lp867
S'applications_parent'
p868
asbag69
(g90
g71
NtRp869
(dp870
g74
(dp871
g101
g102
ssg83
g860
sg76
(lp872
S':'
asbag69
(g90
g71
NtRp873
(dp874
g74
(dp875
sg83
g860
sg76
(lp876
g69
(g70
g71
NtRp877
(dp878
g74
(dp879
g82
I4
ssg83
g873
sg76
(lp880
S'/Users/hainna01/Downloads/web2py'
p881
asbasbasbag69
(g85
g71
NtRp882
(dp883
g74
(dp884
sg83
g834
sg76
(lp885
g69
(g90
g71
NtRp886
(dp887
g74
(dp888
g94
g95
ssg83
g882
sg76
(lp889
S'cmd_args'
p890
asbag69
(g90
g71
NtRp891
(dp892
g74
(dp893
g101
g102
ssg83
g882
sg76
(lp894
S':'
asbag69
(g90
g71
NtRp895
(dp896
g74
(dp897
sg83
g882
sg76
(lp898
g69
(g70
g71
NtRp899
(dp900
g74
(dp901
g82
I4
ssg83
g895
sg76
(lp902
g69
(g78
g71
NtRp903
(dp904
g74
(dp905
g82
I3
ssg83
Nsg76
(lp906
sbasbasbasbag69
(g85
g71
NtRp907
(dp908
g74
(dp909
sg83
g834
sg76
(lp910
g69
(g90
g71
NtRp911
(dp912
g74
(dp913
g94
g95
ssg83
g907
sg76
(lp914
S'cmd_options'
p915
asbag69
(g90
g71
NtRp916
(dp917
g74
(dp918
g101
g102
ssg83
g907
sg76
(lp919
S':'
asbag69
(g90
g71
NtRp920
(dp921
g74
(dp922
sg83
g907
sg76
(lp923
g69
(g70
g71
NtRp924
(dp925
g74
(dp926
g82
I4
ssg83
g920
sg76
(lp927
S"<Values at 0x1014e2710: {'verbose': False, 'ip': '127.0.0.1', 'shutdown_timeout': 5, 'taskbar': False, 'nocron': False, 'pid_filename': 'httpserver.pid', 'maxthreads': None, 'softcron': False, 'server_name': 'Nathans-MacBook-Pro.local', 'bpython': False, 'nogui': False, 'port': 8000, 'extcron': False, 'debuglevel': 30, 'test': None, 'folder': '/Users/hainna01/Downloads/web2py', 'config': '', 'import_models': False, 'winservice': '', 'shell': None, 'run': '', 'log_filename': 'httpserver.log', 'args': [''], 'socket_timeout': 5, 'ssl_ca_certificate': None, 'scheduler': None, 'profiler_filename': None, 'ssl_private_key': '', 'password': '<ask>', 'request_queue_size': 5, 'ssl_certificate': '', 'cronjob': False, 'numthreads': None, 'quiet': False, 'interfaces': None, 'minthreads': None, 'timeout': 10, 'plain': False, 'nobanner': False}>"
p928
asbasbasbag69
(g85
g71
NtRp929
(dp930
g74
(dp931
sg83
g834
sg76
(lp932
g69
(g90
g71
NtRp933
(dp934
g74
(dp935
g94
g95
ssg83
g929
sg76
(lp936
S'content_length'
p937
asbag69
(g90
g71
NtRp938
(dp939
g74
(dp940
g101
g102
ssg83
g929
sg76
(lp941
S':'
asbag69
(g90
g71
NtRp942
(dp943
g74
(dp944
sg83
g929
sg76
(lp945
g69
(g70
g71
NtRp946
(dp947
g74
(dp948
g82
I4
ssg83
g942
sg76
(lp949
S'142'
p950
asbasbasbag69
(g85
g71
NtRp951
(dp952
g74
(dp953
sg83
g834
sg76
(lp954
g69
(g90
g71
NtRp955
(dp956
g74
(dp957
g94
g95
ssg83
g951
sg76
(lp958
S'content_type'
p959
asbag69
(g90
g71
NtRp960
(dp961
g74
(dp962
g101
g102
ssg83
g951
sg76
(lp963
S':'
asbag69
(g90
g71
NtRp964
(dp965
g74
(dp966
sg83
g951
sg76
(lp967
g69
(g70
g71
NtRp968
(dp969
g74
(dp970
g82
I4
ssg83
g964
sg76
(lp971
S'multipart/form-data; boundary=----WebKitFormBoundary6dfK9KlZHhXLxoBu'
p972
asbasbasbag69
(g85
g71
NtRp973
(dp974
g74
(dp975
sg83
g834
sg76
(lp976
g69
(g90
g71
NtRp977
(dp978
g74
(dp979
g94
g95
ssg83
g973
sg76
(lp980
S'db_sessions'
p981
asbag69
(g90
g71
NtRp982
(dp983
g74
(dp984
g101
g102
ssg83
g973
sg76
(lp985
S':'
asbag69
(g90
g71
NtRp986
(dp987
g74
(dp988
sg83
g973
sg76
(lp989
g69
(g70
g71
NtRp990
(dp991
g74
(dp992
g82
I4
ssg83
g986
sg76
(lp993
S'set([])'
p994
asbasbasbag69
(g85
g71
NtRp995
(dp996
g74
(dp997
sg83
g834
sg76
(lp998
g69
(g90
g71
NtRp999
(dp1000
g74
(dp1001
g94
g95
ssg83
g995
sg76
(lp1002
S'debugging'
p1003
asbag69
(g90
g71
NtRp1004
(dp1005
g74
(dp1006
g101
g102
ssg83
g995
sg76
(lp1007
S':'
asbag69
(g90
g71
NtRp1008
(dp1009
g74
(dp1010
sg83
g995
sg76
(lp1011
g69
(g70
g71
NtRp1012
(dp1013
g74
(dp1014
g82
I4
ssg83
g1008
sg76
(lp1015
g112
asbasbasbag69
(g85
g71
NtRp1016
(dp1017
g74
(dp1018
sg83
g834
sg76
(lp1019
g69
(g90
g71
NtRp1020
(dp1021
g74
(dp1022
g94
g95
ssg83
g1016
sg76
(lp1023
S'gluon_parent'
p1024
asbag69
(g90
g71
NtRp1025
(dp1026
g74
(dp1027
g101
g102
ssg83
g1016
sg76
(lp1028
S':'
asbag69
(g90
g71
NtRp1029
(dp1030
g74
(dp1031
sg83
g1016
sg76
(lp1032
g69
(g70
g71
NtRp1033
(dp1034
g74
(dp1035
g82
I4
ssg83
g1029
sg76
(lp1036
S'/Users/hainna01/Downloads/web2py'
p1037
asbasbasbag69
(g85
g71
NtRp1038
(dp1039
g74
(dp1040
sg83
g834
sg76
(lp1041
g69
(g90
g71
NtRp1042
(dp1043
g74
(dp1044
g94
g95
ssg83
g1038
sg76
(lp1045
S'http_accept'
p1046
asbag69
(g90
g71
NtRp1047
(dp1048
g74
(dp1049
g101
g102
ssg83
g1038
sg76
(lp1050
S':'
asbag69
(g90
g71
NtRp1051
(dp1052
g74
(dp1053
sg83
g1038
sg76
(lp1054
g69
(g70
g71
NtRp1055
(dp1056
g74
(dp1057
g82
I4
ssg83
g1051
sg76
(lp1058
S'text/html,application/xhtml+xml,application/xml;q=0.9,*/*;q=0.8'
p1059
asbasbasbag69
(g85
g71
NtRp1060
(dp1061
g74
(dp1062
sg83
g834
sg76
(lp1063
g69
(g90
g71
NtRp1064
(dp1065
g74
(dp1066
g94
g95
ssg83
g1060
sg76
(lp1067
S'http_accept_charset'
p1068
asbag69
(g90
g71
NtRp1069
(dp1070
g74
(dp1071
g101
g102
ssg83
g1060
sg76
(lp1072
S':'
asbag69
(g90
g71
NtRp1073
(dp1074
g74
(dp1075
sg83
g1060
sg76
(lp1076
g69
(g70
g71
NtRp1077
(dp1078
g74
(dp1079
g82
I4
ssg83
g1073
sg76
(lp1080
S'ISO-8859-1,utf-8;q=0.7,*;q=0.3'
p1081
asbasbasbag69
(g85
g71
NtRp1082
(dp1083
g74
(dp1084
sg83
g834
sg76
(lp1085
g69
(g90
g71
NtRp1086
(dp1087
g74
(dp1088
g94
g95
ssg83
g1082
sg76
(lp1089
S'http_accept_encoding'
p1090
asbag69
(g90
g71
NtRp1091
(dp1092
g74
(dp1093
g101
g102
ssg83
g1082
sg76
(lp1094
S':'
asbag69
(g90
g71
NtRp1095
(dp1096
g74
(dp1097
sg83
g1082
sg76
(lp1098
g69
(g70
g71
NtRp1099
(dp1100
g74
(dp1101
g82
I4
ssg83
g1095
sg76
(lp1102
S'gzip,deflate,sdch'
p1103
asbasbasbag69
(g85
g71
NtRp1104
(dp1105
g74
(dp1106
sg83
g834
sg76
(lp1107
g69
(g90
g71
NtRp1108
(dp1109
g74
(dp1110
g94
g95
ssg83
g1104
sg76
(lp1111
S'http_accept_language'
p1112
asbag69
(g90
g71
NtRp1113
(dp1114
g74
(dp1115
g101
g102
ssg83
g1104
sg76
(lp1116
S':'
asbag69
(g90
g71
NtRp1117
(dp1118
g74
(dp1119
sg83
g1104
sg76
(lp1120
g69
(g70
g71
NtRp1121
(dp1122
g74
(dp1123
g82
I4
ssg83
g1117
sg76
(lp1124
S'en-US,en;q=0.8'
p1125
asbasbasbag69
(g85
g71
NtRp1126
(dp1127
g74
(dp1128
sg83
g834
sg76
(lp1129
g69
(g90
g71
NtRp1130
(dp1131
g74
(dp1132
g94
g95
ssg83
g1126
sg76
(lp1133
S'http_cache_control'
p1134
asbag69
(g90
g71
NtRp1135
(dp1136
g74
(dp1137
g101
g102
ssg83
g1126
sg76
(lp1138
S':'
asbag69
(g90
g71
NtRp1139
(dp1140
g74
(dp1141
sg83
g1126
sg76
(lp1142
g69
(g70
g71
NtRp1143
(dp1144
g74
(dp1145
g82
I4
ssg83
g1139
sg76
(lp1146
S'max-age=0'
p1147
asbasbasbag69
(g85
g71
NtRp1148
(dp1149
g74
(dp1150
sg83
g834
sg76
(lp1151
g69
(g90
g71
NtRp1152
(dp1153
g74
(dp1154
g94
g95
ssg83
g1148
sg76
(lp1155
S'http_connection'
p1156
asbag69
(g90
g71
NtRp1157
(dp1158
g74
(dp1159
g101
g102
ssg83
g1148
sg76
(lp1160
S':'
asbag69
(g90
g71
NtRp1161
(dp1162
g74
(dp1163
sg83
g1148
sg76
(lp1164
g69
(g70
g71
NtRp1165
(dp1166
g74
(dp1167
g82
I4
ssg83
g1161
sg76
(lp1168
S'keep-alive'
p1169
asbasbasbag69
(g85
g71
NtRp1170
(dp1171
g74
(dp1172
sg83
g834
sg76
(lp1173
g69
(g90
g71
NtRp1174
(dp1175
g74
(dp1176
g94
g95
ssg83
g1170
sg76
(lp1177
S'http_content_length'
p1178
asbag69
(g90
g71
NtRp1179
(dp1180
g74
(dp1181
g101
g102
ssg83
g1170
sg76
(lp1182
S':'
asbag69
(g90
g71
NtRp1183
(dp1184
g74
(dp1185
sg83
g1170
sg76
(lp1186
g69
(g70
g71
NtRp1187
(dp1188
g74
(dp1189
g82
I4
ssg83
g1183
sg76
(lp1190
g950
asbasbasbag69
(g85
g71
NtRp1191
(dp1192
g74
(dp1193
sg83
g834
sg76
(lp1194
g69
(g90
g71
NtRp1195
(dp1196
g74
(dp1197
g94
g95
ssg83
g1191
sg76
(lp1198
S'http_content_type'
p1199
asbag69
(g90
g71
NtRp1200
(dp1201
g74
(dp1202
g101
g102
ssg83
g1191
sg76
(lp1203
S':'
asbag69
(g90
g71
NtRp1204
(dp1205
g74
(dp1206
sg83
g1191
sg76
(lp1207
g69
(g70
g71
NtRp1208
(dp1209
g74
(dp1210
g82
I4
ssg83
g1204
sg76
(lp1211
g972
asbasbasbag69
(g85
g71
NtRp1212
(dp1213
g74
(dp1214
sg83
g834
sg76
(lp1215
g69
(g90
g71
NtRp1216
(dp1217
g74
(dp1218
g94
g95
ssg83
g1212
sg76
(lp1219
S'http_cookie'
p1220
asbag69
(g90
g71
NtRp1221
(dp1222
g74
(dp1223
g101
g102
ssg83
g1212
sg76
(lp1224
S':'
asbag69
(g90
g71
NtRp1225
(dp1226
g74
(dp1227
sg83
g1212
sg76
(lp1228
g69
(g70
g71
NtRp1229
(dp1230
g74
(dp1231
g82
I4
ssg83
g1225
sg76
(lp1232
S'session_id_welcome=127.0.0.1-e0d9ef4a-1bde-4498-ae05-2fb015154a48; session_id_admin=127.0.0.1-29d031ec-a7fe-44ed-b64f-1423840096c8; session_id_starcraft2=127.0.0.1-ab0c6fa2-79d9-46c1-ab68-7df9589f9e17'
p1233
asbasbasbag69
(g85
g71
NtRp1234
(dp1235
g74
(dp1236
sg83
g834
sg76
(lp1237
g69
(g90
g71
NtRp1238
(dp1239
g74
(dp1240
g94
g95
ssg83
g1234
sg76
(lp1241
S'http_host'
p1242
asbag69
(g90
g71
NtRp1243
(dp1244
g74
(dp1245
g101
g102
ssg83
g1234
sg76
(lp1246
S':'
asbag69
(g90
g71
NtRp1247
(dp1248
g74
(dp1249
sg83
g1234
sg76
(lp1250
g69
(g70
g71
NtRp1251
(dp1252
g74
(dp1253
g82
I4
ssg83
g1247
sg76
(lp1254
S'127.0.0.1:8000'
p1255
asbasbasbag69
(g85
g71
NtRp1256
(dp1257
g74
(dp1258
sg83
g834
sg76
(lp1259
g69
(g90
g71
NtRp1260
(dp1261
g74
(dp1262
g94
g95
ssg83
g1256
sg76
(lp1263
S'http_origin'
p1264
asbag69
(g90
g71
NtRp1265
(dp1266
g74
(dp1267
g101
g102
ssg83
g1256
sg76
(lp1268
S':'
asbag69
(g90
g71
NtRp1269
(dp1270
g74
(dp1271
sg83
g1256
sg76
(lp1272
g69
(g70
g71
NtRp1273
(dp1274
g74
(dp1275
g82
I4
ssg83
g1269
sg76
(lp1276
S'http://127.0.0.1:8000'
p1277
asbasbasbag69
(g85
g71
NtRp1278
(dp1279
g74
(dp1280
sg83
g834
sg76
(lp1281
g69
(g90
g71
NtRp1282
(dp1283
g74
(dp1284
g94
g95
ssg83
g1278
sg76
(lp1285
S'http_referer'
p1286
asbag69
(g90
g71
NtRp1287
(dp1288
g74
(dp1289
g101
g102
ssg83
g1278
sg76
(lp1290
S':'
asbag69
(g90
g71
NtRp1291
(dp1292
g74
(dp1293
sg83
g1278
sg76
(lp1294
g69
(g70
g71
NtRp1295
(dp1296
g74
(dp1297
g82
I4
ssg83
g1291
sg76
(lp1298
S'http://127.0.0.1:8000/Starcraft2?race=protoss'
p1299
asbasbasbag69
(g85
g71
NtRp1300
(dp1301
g74
(dp1302
sg83
g834
sg76
(lp1303
g69
(g90
g71
NtRp1304
(dp1305
g74
(dp1306
g94
g95
ssg83
g1300
sg76
(lp1307
S'http_user_agent'
p1308
asbag69
(g90
g71
NtRp1309
(dp1310
g74
(dp1311
g101
g102
ssg83
g1300
sg76
(lp1312
S':'
asbag69
(g90
g71
NtRp1313
(dp1314
g74
(dp1315
sg83
g1300
sg76
(lp1316
g69
(g70
g71
NtRp1317
(dp1318
g74
(dp1319
g82
I4
ssg83
g1313
sg76
(lp1320
S'Mozilla/5.0 (Macintosh; Intel Mac OS X 10_7_3) AppleWebKit/535.19 (KHTML, like Gecko) Chrome/18.0.1025.165 Safari/535.19'
p1321
asbasbasbag69
(g85
g71
NtRp1322
(dp1323
g74
(dp1324
sg83
g834
sg76
(lp1325
g69
(g90
g71
NtRp1326
(dp1327
g74
(dp1328
g94
g95
ssg83
g1322
sg76
(lp1329
S'is_jython'
p1330
asbag69
(g90
g71
NtRp1331
(dp1332
g74
(dp1333
g101
g102
ssg83
g1322
sg76
(lp1334
S':'
asbag69
(g90
g71
NtRp1335
(dp1336
g74
(dp1337
sg83
g1322
sg76
(lp1338
g69
(g70
g71
NtRp1339
(dp1340
g74
(dp1341
g82
I4
ssg83
g1335
sg76
(lp1342
g112
asbasbasbag69
(g85
g71
NtRp1343
(dp1344
g74
(dp1345
sg83
g834
sg76
(lp1346
g69
(g90
g71
NtRp1347
(dp1348
g74
(dp1349
g94
g95
ssg83
g1343
sg76
(lp1350
S'is_pypy'
p1351
asbag69
(g90
g71
NtRp1352
(dp1353
g74
(dp1354
g101
g102
ssg83
g1343
sg76
(lp1355
S':'
asbag69
(g90
g71
NtRp1356
(dp1357
g74
(dp1358
sg83
g1343
sg76
(lp1359
g69
(g70
g71
NtRp1360
(dp1361
g74
(dp1362
g82
I4
ssg83
g1356
sg76
(lp1363
g112
asbasbasbag69
(g85
g71
NtRp1364
(dp1365
g74
(dp1366
sg83
g834
sg76
(lp1367
g69
(g90
g71
NtRp1368
(dp1369
g74
(dp1370
g94
g95
ssg83
g1364
sg76
(lp1371
S'path_info'
p1372
asbag69
(g90
g71
NtRp1373
(dp1374
g74
(dp1375
g101
g102
ssg83
g1364
sg76
(lp1376
S':'
asbag69
(g90
g71
NtRp1377
(dp1378
g74
(dp1379
sg83
g1364
sg76
(lp1380
g69
(g70
g71
NtRp1381
(dp1382
g74
(dp1383
g82
I4
ssg83
g1377
sg76
(lp1384
S'/Starcraft2'
p1385
asbasbasbag69
(g85
g71
NtRp1386
(dp1387
g74
(dp1388
sg83
g834
sg76
(lp1389
g69
(g90
g71
NtRp1390
(dp1391
g74
(dp1392
g94
g95
ssg83
g1386
sg76
(lp1393
S'query_string'
p1394
asbag69
(g90
g71
NtRp1395
(dp1396
g74
(dp1397
g101
g102
ssg83
g1386
sg76
(lp1398
S':'
asbag69
(g90
g71
NtRp1399
(dp1400
g74
(dp1401
sg83
g1386
sg76
(lp1402
g69
(g70
g71
NtRp1403
(dp1404
g74
(dp1405
g82
I4
ssg83
g1399
sg76
(lp1406
S'race=protoss'
p1407
asbasbasbag69
(g85
g71
NtRp1408
(dp1409
g74
(dp1410
sg83
g834
sg76
(lp1411
g69
(g90
g71
NtRp1412
(dp1413
g74
(dp1414
g94
g95
ssg83
g1408
sg76
(lp1415
S'remote_addr'
p1416
asbag69
(g90
g71
NtRp1417
(dp1418
g74
(dp1419
g101
g102
ssg83
g1408
sg76
(lp1420
S':'
asbag69
(g90
g71
NtRp1421
(dp1422
g74
(dp1423
sg83
g1408
sg76
(lp1424
g69
(g70
g71
NtRp1425
(dp1426
g74
(dp1427
g82
I4
ssg83
g1421
sg76
(lp1428
g202
asbasbasbag69
(g85
g71
NtRp1429
(dp1430
g74
(dp1431
sg83
g834
sg76
(lp1432
g69
(g90
g71
NtRp1433
(dp1434
g74
(dp1435
g94
g95
ssg83
g1429
sg76
(lp1436
S'remote_port'
p1437
asbag69
(g90
g71
NtRp1438
(dp1439
g74
(dp1440
g101
g102
ssg83
g1429
sg76
(lp1441
S':'
asbag69
(g90
g71
NtRp1442
(dp1443
g74
(dp1444
sg83
g1429
sg76
(lp1445
g69
(g70
g71
NtRp1446
(dp1447
g74
(dp1448
g82
I4
ssg83
g1442
sg76
(lp1449
S'60928'
p1450
asbasbasbag69
(g85
g71
NtRp1451
(dp1452
g74
(dp1453
sg83
g834
sg76
(lp1454
g69
(g90
g71
NtRp1455
(dp1456
g74
(dp1457
g94
g95
ssg83
g1451
sg76
(lp1458
S'request_method'
p1459
asbag69
(g90
g71
NtRp1460
(dp1461
g74
(dp1462
g101
g102
ssg83
g1451
sg76
(lp1463
S':'
asbag69
(g90
g71
NtRp1464
(dp1465
g74
(dp1466
sg83
g1451
sg76
(lp1467
g69
(g70
g71
NtRp1468
(dp1469
g74
(dp1470
g82
I4
ssg83
g1464
sg76
(lp1471
S'POST'
p1472
asbasbasbag69
(g85
g71
NtRp1473
(dp1474
g74
(dp1475
sg83
g834
sg76
(lp1476
g69
(g90
g71
NtRp1477
(dp1478
g74
(dp1479
g94
g95
ssg83
g1473
sg76
(lp1480
S'script_name'
p1481
asbag69
(g90
g71
NtRp1482
(dp1483
g74
(dp1484
g101
g102
ssg83
g1473
sg76
(lp1485
S':'
asbag69
(g90
g71
NtRp1486
(dp1487
g74
(dp1488
sg83
g1473
sg76
(lp1489
g69
(g70
g71
NtRp1490
(dp1491
g74
(dp1492
g82
I4
ssg83
g1486
sg76
(lp1493
S''
asbasbasbag69
(g85
g71
NtRp1494
(dp1495
g74
(dp1496
sg83
g834
sg76
(lp1497
g69
(g90
g71
NtRp1498
(dp1499
g74
(dp1500
g94
g95
ssg83
g1494
sg76
(lp1501
S'server_name'
p1502
asbag69
(g90
g71
NtRp1503
(dp1504
g74
(dp1505
g101
g102
ssg83
g1494
sg76
(lp1506
S':'
asbag69
(g90
g71
NtRp1507
(dp1508
g74
(dp1509
sg83
g1494
sg76
(lp1510
g69
(g70
g71
NtRp1511
(dp1512
g74
(dp1513
g82
I4
ssg83
g1507
sg76
(lp1514
S'Nathans-MacBook-Pro.local'
p1515
asbasbasbag69
(g85
g71
NtRp1516
(dp1517
g74
(dp1518
sg83
g834
sg76
(lp1519
g69
(g90
g71
NtRp1520
(dp1521
g74
(dp1522
g94
g95
ssg83
g1516
sg76
(lp1523
S'server_port'
p1524
asbag69
(g90
g71
NtRp1525
(dp1526
g74
(dp1527
g101
g102
ssg83
g1516
sg76
(lp1528
S':'
asbag69
(g90
g71
NtRp1529
(dp1530
g74
(dp1531
sg83
g1516
sg76
(lp1532
g69
(g70
g71
NtRp1533
(dp1534
g74
(dp1535
g82
I4
ssg83
g1529
sg76
(lp1536
S'8000'
p1537
asbasbasbag69
(g85
g71
NtRp1538
(dp1539
g74
(dp1540
sg83
g834
sg76
(lp1541
g69
(g90
g71
NtRp1542
(dp1543
g74
(dp1544
g94
g95
ssg83
g1538
sg76
(lp1545
S'server_protocol'
p1546
asbag69
(g90
g71
NtRp1547
(dp1548
g74
(dp1549
g101
g102
ssg83
g1538
sg76
(lp1550
S':'
asbag69
(g90
g71
NtRp1551
(dp1552
g74
(dp1553
sg83
g1538
sg76
(lp1554
g69
(g70
g71
NtRp1555
(dp1556
g74
(dp1557
g82
I4
ssg83
g1551
sg76
(lp1558
S'HTTP/1.1'
p1559
asbasbasbag69
(g85
g71
NtRp1560
(dp1561
g74
(dp1562
sg83
g834
sg76
(lp1563
g69
(g90
g71
NtRp1564
(dp1565
g74
(dp1566
g94
g95
ssg83
g1560
sg76
(lp1567
S'server_software'
p1568
asbag69
(g90
g71
NtRp1569
(dp1570
g74
(dp1571
g101
g102
ssg83
g1560
sg76
(lp1572
S':'
asbag69
(g90
g71
NtRp1573
(dp1574
g74
(dp1575
sg83
g1560
sg76
(lp1576
g69
(g70
g71
NtRp1577
(dp1578
g74
(dp1579
g82
I4
ssg83
g1573
sg76
(lp1580
S'Rocket 1.2.4'
p1581
asbasbasbag69
(g85
g71
NtRp1582
(dp1583
g74
(dp1584
sg83
g834
sg76
(lp1585
g69
(g90
g71
NtRp1586
(dp1587
g74
(dp1588
g94
g95
ssg83
g1582
sg76
(lp1589
S'web2py_crontype'
p1590
asbag69
(g90
g71
NtRp1591
(dp1592
g74
(dp1593
g101
g102
ssg83
g1582
sg76
(lp1594
S':'
asbag69
(g90
g71
NtRp1595
(dp1596
g74
(dp1597
sg83
g1582
sg76
(lp1598
g69
(g70
g71
NtRp1599
(dp1600
g74
(dp1601
g82
I4
ssg83
g1595
sg76
(lp1602
S'hard'
p1603
asbasbasbag69
(g85
g71
NtRp1604
(dp1605
g74
(dp1606
sg83
g834
sg76
(lp1607
g69
(g90
g71
NtRp1608
(dp1609
g74
(dp1610
g94
g95
ssg83
g1604
sg76
(lp1611
S'web2py_path'
p1612
asbag69
(g90
g71
NtRp1613
(dp1614
g74
(dp1615
g101
g102
ssg83
g1604
sg76
(lp1616
S':'
asbag69
(g90
g71
NtRp1617
(dp1618
g74
(dp1619
sg83
g1604
sg76
(lp1620
g69
(g70
g71
NtRp1621
(dp1622
g74
(dp1623
g82
I4
ssg83
g1617
sg76
(lp1624
g881
asbasbasbag69
(g85
g71
NtRp1625
(dp1626
g74
(dp1627
sg83
g834
sg76
(lp1628
g69
(g90
g71
NtRp1629
(dp1630
g74
(dp1631
g94
g95
ssg83
g1625
sg76
(lp1632
S'web2py_version'
p1633
asbag69
(g90
g71
NtRp1634
(dp1635
g74
(dp1636
g101
g102
ssg83
g1625
sg76
(lp1637
S':'
asbag69
(g90
g71
NtRp1638
(dp1639
g74
(dp1640
sg83
g1625
sg76
(lp1641
g69
(g70
g71
NtRp1642
(dp1643
g74
(dp1644
g82
I4
ssg83
g1638
sg76
(lp1645
g69
(g78
g71
NtRp1646
(dp1647
g74
(dp1648
g82
I3
ssg83
Nsg76
(lp1649
g69
(g85
g71
NtRp1650
(dp1651
g74
(dp1652
sg83
g1646
sg76
(lp1653
g69
(g90
g71
NtRp1654
(dp1655
g74
(dp1656
sg83
g1650
sg76
(lp1657
g69
(g70
g71
NtRp1658
(dp1659
g74
(dp1660
g82
I3
ssg83
g1654
sg76
(lp1661
S'1'
asbasbasbag69
(g85
g71
NtRp1662
(dp1663
g74
(dp1664
sg83
g1646
sg76
(lp1665
g69
(g90
g71
NtRp1666
(dp1667
g74
(dp1668
sg83
g1662
sg76
(lp1669
g69
(g70
g71
NtRp1670
(dp1671
g74
(dp1672
g82
I3
ssg83
g1666
sg76
(lp1673
S'99'
p1674
asbasbasbag69
(g85
g71
NtRp1675
(dp1676
g74
(dp1677
sg83
g1646
sg76
(lp1678
g69
(g90
g71
NtRp1679
(dp1680
g74
(dp1681
sg83
g1675
sg76
(lp1682
g69
(g70
g71
NtRp1683
(dp1684
g74
(dp1685
g82
I3
ssg83
g1679
sg76
(lp1686
S'7'
asbasbasbag69
(g85
g71
NtRp1687
(dp1688
g74
(dp1689
sg83
g1646
sg76
(lp1690
g69
(g90
g71
NtRp1691
(dp1692
g74
(dp1693
sg83
g1687
sg76
(lp1694
g69
(g70
g71
NtRp1695
(dp1696
g74
(dp1697
g82
I3
ssg83
g1691
sg76
(lp1698
S'datetime.datetime(2012, 3, 4, 22, 12, 8)'
p1699
asbasbasbag69
(g85
g71
NtRp1700
(dp1701
g74
(dp1702
sg83
g1646
sg76
(lp1703
g69
(g90
g71
NtRp1704
(dp1705
g74
(dp1706
sg83
g1700
sg76
(lp1707
g69
(g70
g71
NtRp1708
(dp1709
g74
(dp1710
g82
I3
ssg83
g1704
sg76
(lp1711
S'stable'
p1712
asbasbasbasbasbasbasbag69
(g85
g71
NtRp1713
(dp1714
g74
(dp1715
sg83
g834
sg76
(lp1716
g69
(g90
g71
NtRp1717
(dp1718
g74
(dp1719
g94
g95
ssg83
g1713
sg76
(lp1720
S'wsgi_errors'
p1721
asbag69
(g90
g71
NtRp1722
(dp1723
g74
(dp1724
g101
g102
ssg83
g1713
sg76
(lp1725
S':'
asbag69
(g90
g71
NtRp1726
(dp1727
g74
(dp1728
sg83
g1713
sg76
(lp1729
g69
(g70
g71
NtRp1730
(dp1731
g74
(dp1732
g82
I4
ssg83
g1726
sg76
(lp1733
S"<open file '<stderr>', mode 'w' at 0x100282270>"
p1734
asbasbasbag69
(g85
g71
NtRp1735
(dp1736
g74
(dp1737
sg83
g834
sg76
(lp1738
g69
(g90
g71
NtRp1739
(dp1740
g74
(dp1741
g94
g95
ssg83
g1735
sg76
(lp1742
S'wsgi_file_wrapper'
p1743
asbag69
(g90
g71
NtRp1744
(dp1745
g74
(dp1746
g101
g102
ssg83
g1735
sg76
(lp1747
S':'
asbag69
(g90
g71
NtRp1748
(dp1749
g74
(dp1750
sg83
g1735
sg76
(lp1751
g69
(g70
g71
NtRp1752
(dp1753
g74
(dp1754
g82
I4
ssg83
g1748
sg76
(lp1755
S'<class wsgiref.util.FileWrapper at 0x1012b4d50>'
p1756
asbasbasbag69
(g85
g71
NtRp1757
(dp1758
g74
(dp1759
sg83
g834
sg76
(lp1760
g69
(g90
g71
NtRp1761
(dp1762
g74
(dp1763
g94
g95
ssg83
g1757
sg76
(lp1764
S'wsgi_input'
p1765
asbag69
(g90
g71
NtRp1766
(dp1767
g74
(dp1768
g101
g102
ssg83
g1757
sg76
(lp1769
S':'
asbag69
(g90
g71
NtRp1770
(dp1771
g74
(dp1772
sg83
g1757
sg76
(lp1773
g69
(g70
g71
NtRp1774
(dp1775
g74
(dp1776
g82
I4
ssg83
g1770
sg76
(lp1777
S'<socket._fileobject object at 0x108770550>'
p1778
asbasbasbag69
(g85
g71
NtRp1779
(dp1780
g74
(dp1781
sg83
g834
sg76
(lp1782
g69
(g90
g71
NtRp1783
(dp1784
g74
(dp1785
g94
g95
ssg83
g1779
sg76
(lp1786
S'wsgi_multiprocess'
p1787
asbag69
(g90
g71
NtRp1788
(dp1789
g74
(dp1790
g101
g102
ssg83
g1779
sg76
(lp1791
S':'
asbag69
(g90
g71
NtRp1792
(dp1793
g74
(dp1794
sg83
g1779
sg76
(lp1795
g69
(g70
g71
NtRp1796
(dp1797
g74
(dp1798
g82
I4
ssg83
g1792
sg76
(lp1799
g112
asbasbasbag69
(g85
g71
NtRp1800
(dp1801
g74
(dp1802
sg83
g834
sg76
(lp1803
g69
(g90
g71
NtRp1804
(dp1805
g74
(dp1806
g94
g95
ssg83
g1800
sg76
(lp1807
S'wsgi_multithread'
p1808
asbag69
(g90
g71
NtRp1809
(dp1810
g74
(dp1811
g101
g102
ssg83
g1800
sg76
(lp1812
S':'
asbag69
(g90
g71
NtRp1813
(dp1814
g74
(dp1815
sg83
g1800
sg76
(lp1816
g69
(g70
g71
NtRp1817
(dp1818
g74
(dp1819
g82
I4
ssg83
g1813
sg76
(lp1820
S'True'
p1821
asbasbasbag69
(g85
g71
NtRp1822
(dp1823
g74
(dp1824
sg83
g834
sg76
(lp1825
g69
(g90
g71
NtRp1826
(dp1827
g74
(dp1828
g94
g95
ssg83
g1822
sg76
(lp1829
S'wsgi_run_once'
p1830
asbag69
(g90
g71
NtRp1831
(dp1832
g74
(dp1833
g101
g102
ssg83
g1822
sg76
(lp1834
S':'
asbag69
(g90
g71
NtRp1835
(dp1836
g74
(dp1837
sg83
g1822
sg76
(lp1838
g69
(g70
g71
NtRp1839
(dp1840
g74
(dp1841
g82
I4
ssg83
g1835
sg76
(lp1842
g112
asbasbasbag69
(g85
g71
NtRp1843
(dp1844
g74
(dp1845
sg83
g834
sg76
(lp1846
g69
(g90
g71
NtRp1847
(dp1848
g74
(dp1849
g94
g95
ssg83
g1843
sg76
(lp1850
S'wsgi_url_scheme'
p1851
asbag69
(g90
g71
NtRp1852
(dp1853
g74
(dp1854
g101
g102
ssg83
g1843
sg76
(lp1855
S':'
asbag69
(g90
g71
NtRp1856
(dp1857
g74
(dp1858
sg83
g1843
sg76
(lp1859
g69
(g70
g71
NtRp1860
(dp1861
g74
(dp1862
g82
I4
ssg83
g1856
sg76
(lp1863
S'http'
p1864
asbasbasbag69
(g85
g71
NtRp1865
(dp1866
g74
(dp1867
sg83
g834
sg76
(lp1868
g69
(g90
g71
NtRp1869
(dp1870
g74
(dp1871
g94
g95
ssg83
g1865
sg76
(lp1872
S'wsgi_version'
p1873
asbag69
(g90
g71
NtRp1874
(dp1875
g74
(dp1876
g101
g102
ssg83
g1865
sg76
(lp1877
S':'
asbag69
(g90
g71
NtRp1878
(dp1879
g74
(dp1880
sg83
g1865
sg76
(lp1881
g69
(g70
g71
NtRp1882
(dp1883
g74
(dp1884
g82
I4
ssg83
g1878
sg76
(lp1885
g69
(g78
g71
NtRp1886
(dp1887
g74
(dp1888
g82
I3
ssg83
Nsg76
(lp1889
g69
(g85
g71
NtRp1890
(dp1891
g74
(dp1892
sg83
g1886
sg76
(lp1893
g69
(g90
g71
NtRp1894
(dp1895
g74
(dp1896
sg83
g1890
sg76
(lp1897
g69
(g70
g71
NtRp1898
(dp1899
g74
(dp1900
g82
I3
ssg83
g1894
sg76
(lp1901
S'1'
asbasbasbag69
(g85
g71
NtRp1902
(dp1903
g74
(dp1904
sg83
g1886
sg76
(lp1905
g69
(g90
g71
NtRp1906
(dp1907
g74
(dp1908
sg83
g1902
sg76
(lp1909
g69
(g70
g71
NtRp1910
(dp1911
g74
(dp1912
g82
I3
ssg83
g1906
sg76
(lp1913
S'0'
asbasbasbasbasbasbasbasbasbasbasbag69
(g85
g71
NtRp1914
(dp1915
g74
(dp1916
sg83
g79
sg76
(lp1917
g69
(g90
g71
NtRp1918
(dp1919
g74
(dp1920
g94
g95
ssg83
g1914
sg76
(lp1921
S'extension'
p1922
asbag69
(g90
g71
NtRp1923
(dp1924
g74
(dp1925
g101
g102
ssg83
g1914
sg76
(lp1926
S':'
asbag69
(g90
g71
NtRp1927
(dp1928
g74
(dp1929
sg83
g1914
sg76
(lp1930
g69
(g70
g71
NtRp1931
(dp1932
g74
(dp1933
g82
I5
ssg83
g1927
sg76
(lp1934
S'html'
p1935
asbasbasbag69
(g85
g71
NtRp1936
(dp1937
g74
(dp1938
sg83
g79
sg76
(lp1939
g69
(g90
g71
NtRp1940
(dp1941
g74
(dp1942
g94
g95
ssg83
g1936
sg76
(lp1943
S'folder'
p1944
asbag69
(g90
g71
NtRp1945
(dp1946
g74
(dp1947
g101
g102
ssg83
g1936
sg76
(lp1948
S':'
asbag69
(g90
g71
NtRp1949
(dp1950
g74
(dp1951
sg83
g1936
sg76
(lp1952
g69
(g70
g71
NtRp1953
(dp1954
g74
(dp1955
g82
I5
ssg83
g1949
sg76
(lp1956
S'/Users/hainna01/Downloads/web2py/applications/Starcraft2/'
p1957
asbasbasbag69
(g85
g71
NtRp1958
(dp1959
g74
(dp1960
sg83
g79
sg76
(lp1961
g69
(g90
g71
NtRp1962
(dp1963
g74
(dp1964
g94
g95
ssg83
g1958
sg76
(lp1965
S'function'
p1966
asbag69
(g90
g71
NtRp1967
(dp1968
g74
(dp1969
g101
g102
ssg83
g1958
sg76
(lp1970
S':'
asbag69
(g90
g71
NtRp1971
(dp1972
g74
(dp1973
sg83
g1958
sg76
(lp1974
g69
(g70
g71
NtRp1975
(dp1976
g74
(dp1977
g82
I5
ssg83
g1971
sg76
(lp1978
S'index'
p1979
asbasbasbag69
(g85
g71
NtRp1980
(dp1981
g74
(dp1982
sg83
g79
sg76
(lp1983
g69
(g90
g71
NtRp1984
(dp1985
g74
(dp1986
g94
g95
ssg83
g1980
sg76
(lp1987
S'get_vars'
p1988
asbag69
(g90
g71
NtRp1989
(dp1990
g74
(dp1991
g101
g102
ssg83
g1980
sg76
(lp1992
S':'
asbag69
(g90
g71
NtRp1993
(dp1994
g74
(dp1995
sg83
g1980
sg76
(lp1996
g69
(g70
g71
NtRp1997
(dp1998
g74
(dp1999
g82
I5
ssg83
g1993
sg76
(lp2000
g69
(g78
g71
NtRp2001
(dp2002
g74
(dp2003
g82
I4
ssg83
Nsg76
(lp2004
g69
(g85
g71
NtRp2005
(dp2006
g74
(dp2007
sg83
g2001
sg76
(lp2008
g69
(g90
g71
NtRp2009
(dp2010
g74
(dp2011
g94
g95
ssg83
g2005
sg76
(lp2012
S'race'
p2013
asbag69
(g90
g71
NtRp2014
(dp2015
g74
(dp2016
g101
g102
ssg83
g2005
sg76
(lp2017
S':'
asbag69
(g90
g71
NtRp2018
(dp2019
g74
(dp2020
sg83
g2005
sg76
(lp2021
g69
(g70
g71
NtRp2022
(dp2023
g74
(dp2024
g82
I4
ssg83
g2018
sg76
(lp2025
S'protoss'
p2026
asbasbasbasbasbasbasbag69
(g85
g71
NtRp2027
(dp2028
g74
(dp2029
sg83
g79
sg76
(lp2030
g69
(g90
g71
NtRp2031
(dp2032
g74
(dp2033
g94
g95
ssg83
g2027
sg76
(lp2034
S'global_settings'
p2035
asbag69
(g90
g71
NtRp2036
(dp2037
g74
(dp2038
g101
g102
ssg83
g2027
sg76
(lp2039
S':'
asbag69
(g90
g71
NtRp2040
(dp2041
g74
(dp2042
sg83
g2027
sg76
(lp2043
g69
(g70
g71
NtRp2044
(dp2045
g74
(dp2046
g82
I5
ssg83
g2040
sg76
(lp2047
g69
(g78
g71
NtRp2048
(dp2049
g74
(dp2050
g82
I4
ssg83
Nsg76
(lp2051
g69
(g85
g71
NtRp2052
(dp2053
g74
(dp2054
sg83
g2048
sg76
(lp2055
g69
(g90
g71
NtRp2056
(dp2057
g74
(dp2058
g94
g95
ssg83
g2052
sg76
(lp2059
g846
asbag69
(g90
g71
NtRp2060
(dp2061
g74
(dp2062
g101
g102
ssg83
g2052
sg76
(lp2063
S':'
asbag69
(g90
g71
NtRp2064
(dp2065
g74
(dp2066
sg83
g2052
sg76
(lp2067
g69
(g70
g71
NtRp2068
(dp2069
g74
(dp2070
g82
I4
ssg83
g2064
sg76
(lp2071
S"set(['/Users/hainna01/Downloads/web2py/applications/welcome/', '/Users/hainna01/Downloads/web2py/applications/Starcraft2/', '/Users/hainna01/Downloads/web2py/applications/examples/', '/Users/hainna01/Downloads/web2py/applications/admin/'])"
p2072
asbasbasbag69
(g85
g71
NtRp2073
(dp2074
g74
(dp2075
sg83
g2048
sg76
(lp2076
g69
(g90
g71
NtRp2077
(dp2078
g74
(dp2079
g94
g95
ssg83
g2073
sg76
(lp2080
g868
asbag69
(g90
g71
NtRp2081
(dp2082
g74
(dp2083
g101
g102
ssg83
g2073
sg76
(lp2084
S':'
asbag69
(g90
g71
NtRp2085
(dp2086
g74
(dp2087
sg83
g2073
sg76
(lp2088
g69
(g70
g71
NtRp2089
(dp2090
g74
(dp2091
g82
I4
ssg83
g2085
sg76
(lp2092
g881
asbasbasbag69
(g85
g71
NtRp2093
(dp2094
g74
(dp2095
sg83
g2048
sg76
(lp2096
g69
(g90
g71
NtRp2097
(dp2098
g74
(dp2099
g94
g95
ssg83
g2093
sg76
(lp2100
g890
asbag69
(g90
g71
NtRp2101
(dp2102
g74
(dp2103
g101
g102
ssg83
g2093
sg76
(lp2104
S':'
asbag69
(g90
g71
NtRp2105
(dp2106
g74
(dp2107
sg83
g2093
sg76
(lp2108
g69
(g70
g71
NtRp2109
(dp2110
g74
(dp2111
g82
I4
ssg83
g2105
sg76
(lp2112
g69
(g78
g71
NtRp2113
(dp2114
g74
(dp2115
g82
I3
ssg83
Nsg76
(lp2116
sbasbasbasbag69
(g85
g71
NtRp2117
(dp2118
g74
(dp2119
sg83
g2048
sg76
(lp2120
g69
(g90
g71
NtRp2121
(dp2122
g74
(dp2123
g94
g95
ssg83
g2117
sg76
(lp2124
g915
asbag69
(g90
g71
NtRp2125
(dp2126
g74
(dp2127
g101
g102
ssg83
g2117
sg76
(lp2128
S':'
asbag69
(g90
g71
NtRp2129
(dp2130
g74
(dp2131
sg83
g2117
sg76
(lp2132
g69
(g70
g71
NtRp2133
(dp2134
g74
(dp2135
g82
I4
ssg83
g2129
sg76
(lp2136
S"<Values at 0x1014e2710: {'verbose': False, 'ip': '127.0.0.1', 'shutdown_timeout': 5, 'taskbar': False, 'nocron': False, 'pid_filename': 'httpserver.pid', 'maxthreads': None, 'softcron': False, 'server_name': 'Nathans-MacBook-Pro.local', 'bpython': False, 'nogui': False, 'port': 8000, 'extcron': False, 'debuglevel': 30, 'test': None, 'folder': '/Users/hainna01/Downloads/web2py', 'config': '', 'import_models': False, 'winservice': '', 'shell': None, 'run': '', 'log_filename': 'httpserver.log', 'args': [''], 'socket_timeout': 5, 'ssl_ca_certificate': None, 'scheduler': None, 'profiler_filename': None, 'ssl_private_key': '', 'password': '<ask>', 'request_queue_size': 5, 'ssl_certificate': '', 'cronjob': False, 'numthreads': None, 'quiet': False, 'interfaces': None, 'minthreads': None, 'timeout': 10, 'plain': False, 'nobanner': False}>"
p2137
asbasbasbag69
(g85
g71
NtRp2138
(dp2139
g74
(dp2140
sg83
g2048
sg76
(lp2141
g69
(g90
g71
NtRp2142
(dp2143
g74
(dp2144
g94
g95
ssg83
g2138
sg76
(lp2145
g981
asbag69
(g90
g71
NtRp2146
(dp2147
g74
(dp2148
g101
g102
ssg83
g2138
sg76
(lp2149
S':'
asbag69
(g90
g71
NtRp2150
(dp2151
g74
(dp2152
sg83
g2138
sg76
(lp2153
g69
(g70
g71
NtRp2154
(dp2155
g74
(dp2156
g82
I4
ssg83
g2150
sg76
(lp2157
S'set([])'
p2158
asbasbasbag69
(g85
g71
NtRp2159
(dp2160
g74
(dp2161
sg83
g2048
sg76
(lp2162
g69
(g90
g71
NtRp2163
(dp2164
g74
(dp2165
g94
g95
ssg83
g2159
sg76
(lp2166
g1003
asbag69
(g90
g71
NtRp2167
(dp2168
g74
(dp2169
g101
g102
ssg83
g2159
sg76
(lp2170
S':'
asbag69
(g90
g71
NtRp2171
(dp2172
g74
(dp2173
sg83
g2159
sg76
(lp2174
g69
(g70
g71
NtRp2175
(dp2176
g74
(dp2177
g82
I4
ssg83
g2171
sg76
(lp2178
g112
asbasbasbag69
(g85
g71
NtRp2179
(dp2180
g74
(dp2181
sg83
g2048
sg76
(lp2182
g69
(g90
g71
NtRp2183
(dp2184
g74
(dp2185
g94
g95
ssg83
g2179
sg76
(lp2186
g1024
asbag69
(g90
g71
NtRp2187
(dp2188
g74
(dp2189
g101
g102
ssg83
g2179
sg76
(lp2190
S':'
asbag69
(g90
g71
NtRp2191
(dp2192
g74
(dp2193
sg83
g2179
sg76
(lp2194
g69
(g70
g71
NtRp2195
(dp2196
g74
(dp2197
g82
I4
ssg83
g2191
sg76
(lp2198
g1037
asbasbasbag69
(g85
g71
NtRp2199
(dp2200
g74
(dp2201
sg83
g2048
sg76
(lp2202
g69
(g90
g71
NtRp2203
(dp2204
g74
(dp2205
g94
g95
ssg83
g2199
sg76
(lp2206
g1330
asbag69
(g90
g71
NtRp2207
(dp2208
g74
(dp2209
g101
g102
ssg83
g2199
sg76
(lp2210
S':'
asbag69
(g90
g71
NtRp2211
(dp2212
g74
(dp2213
sg83
g2199
sg76
(lp2214
g69
(g70
g71
NtRp2215
(dp2216
g74
(dp2217
g82
I4
ssg83
g2211
sg76
(lp2218
g112
asbasbasbag69
(g85
g71
NtRp2219
(dp2220
g74
(dp2221
sg83
g2048
sg76
(lp2222
g69
(g90
g71
NtRp2223
(dp2224
g74
(dp2225
g94
g95
ssg83
g2219
sg76
(lp2226
g1351
asbag69
(g90
g71
NtRp2227
(dp2228
g74
(dp2229
g101
g102
ssg83
g2219
sg76
(lp2230
S':'
asbag69
(g90
g71
NtRp2231
(dp2232
g74
(dp2233
sg83
g2219
sg76
(lp2234
g69
(g70
g71
NtRp2235
(dp2236
g74
(dp2237
g82
I4
ssg83
g2231
sg76
(lp2238
g112
asbasbasbag69
(g85
g71
NtRp2239
(dp2240
g74
(dp2241
sg83
g2048
sg76
(lp2242
g69
(g90
g71
NtRp2243
(dp2244
g74
(dp2245
g94
g95
ssg83
g2239
sg76
(lp2246
g1590
asbag69
(g90
g71
NtRp2247
(dp2248
g74
(dp2249
g101
g102
ssg83
g2239
sg76
(lp2250
S':'
asbag69
(g90
g71
NtRp2251
(dp2252
g74
(dp2253
sg83
g2239
sg76
(lp2254
g69
(g70
g71
NtRp2255
(dp2256
g74
(dp2257
g82
I4
ssg83
g2251
sg76
(lp2258
g1603
asbasbasbag69
(g85
g71
NtRp2259
(dp2260
g74
(dp2261
sg83
g2048
sg76
(lp2262
g69
(g90
g71
NtRp2263
(dp2264
g74
(dp2265
g94
g95
ssg83
g2259
sg76
(lp2266
g1633
asbag69
(g90
g71
NtRp2267
(dp2268
g74
(dp2269
g101
g102
ssg83
g2259
sg76
(lp2270
S':'
asbag69
(g90
g71
NtRp2271
(dp2272
g74
(dp2273
sg83
g2259
sg76
(lp2274
g69
(g70
g71
NtRp2275
(dp2276
g74
(dp2277
g82
I4
ssg83
g2271
sg76
(lp2278
g69
(g78
g71
NtRp2279
(dp2280
g74
(dp2281
g82
I3
ssg83
Nsg76
(lp2282
g69
(g85
g71
NtRp2283
(dp2284
g74
(dp2285
sg83
g2279
sg76
(lp2286
g69
(g90
g71
NtRp2287
(dp2288
g74
(dp2289
sg83
g2283
sg76
(lp2290
g69
(g70
g71
NtRp2291
(dp2292
g74
(dp2293
g82
I3
ssg83
g2287
sg76
(lp2294
S'1'
asbasbasbag69
(g85
g71
NtRp2295
(dp2296
g74
(dp2297
sg83
g2279
sg76
(lp2298
g69
(g90
g71
NtRp2299
(dp2300
g74
(dp2301
sg83
g2295
sg76
(lp2302
g69
(g70
g71
NtRp2303
(dp2304
g74
(dp2305
g82
I3
ssg83
g2299
sg76
(lp2306
S'99'
p2307
asbasbasbag69
(g85
g71
NtRp2308
(dp2309
g74
(dp2310
sg83
g2279
sg76
(lp2311
g69
(g90
g71
NtRp2312
(dp2313
g74
(dp2314
sg83
g2308
sg76
(lp2315
g69
(g70
g71
NtRp2316
(dp2317
g74
(dp2318
g82
I3
ssg83
g2312
sg76
(lp2319
S'7'
asbasbasbag69
(g85
g71
NtRp2320
(dp2321
g74
(dp2322
sg83
g2279
sg76
(lp2323
g69
(g90
g71
NtRp2324
(dp2325
g74
(dp2326
sg83
g2320
sg76
(lp2327
g69
(g70
g71
NtRp2328
(dp2329
g74
(dp2330
g82
I3
ssg83
g2324
sg76
(lp2331
S'datetime.datetime(2012, 3, 4, 22, 12, 8)'
p2332
asbasbasbag69
(g85
g71
NtRp2333
(dp2334
g74
(dp2335
sg83
g2279
sg76
(lp2336
g69
(g90
g71
NtRp2337
(dp2338
g74
(dp2339
sg83
g2333
sg76
(lp2340
g69
(g70
g71
NtRp2341
(dp2342
g74
(dp2343
g82
I3
ssg83
g2337
sg76
(lp2344
g1712
asbasbasbasbasbasbasbasbasbasbasbag69
(g85
g71
NtRp2345
(dp2346
g74
(dp2347
sg83
g79
sg76
(lp2348
g69
(g90
g71
NtRp2349
(dp2350
g74
(dp2351
g94
g95
ssg83
g2345
sg76
(lp2352
S'is_https'
p2353
asbag69
(g90
g71
NtRp2354
(dp2355
g74
(dp2356
g101
g102
ssg83
g2345
sg76
(lp2357
S':'
asbag69
(g90
g71
NtRp2358
(dp2359
g74
(dp2360
sg83
g2345
sg76
(lp2361
g69
(g70
g71
NtRp2362
(dp2363
g74
(dp2364
g82
I5
ssg83
g2358
sg76
(lp2365
g112
asbasbasbag69
(g85
g71
NtRp2366
(dp2367
g74
(dp2368
sg83
g79
sg76
(lp2369
g69
(g90
g71
NtRp2370
(dp2371
g74
(dp2372
g94
g95
ssg83
g2366
sg76
(lp2373
S'is_local'
p2374
asbag69
(g90
g71
NtRp2375
(dp2376
g74
(dp2377
g101
g102
ssg83
g2366
sg76
(lp2378
S':'
asbag69
(g90
g71
NtRp2379
(dp2380
g74
(dp2381
sg83
g2366
sg76
(lp2382
g69
(g70
g71
NtRp2383
(dp2384
g74
(dp2385
g82
I5
ssg83
g2379
sg76
(lp2386
g1821
asbasbasbag69
(g85
g71
NtRp2387
(dp2388
g74
(dp2389
sg83
g79
sg76
(lp2390
g69
(g90
g71
NtRp2391
(dp2392
g74
(dp2393
g94
g95
ssg83
g2387
sg76
(lp2394
S'is_restful'
p2395
asbag69
(g90
g71
NtRp2396
(dp2397
g74
(dp2398
g101
g102
ssg83
g2387
sg76
(lp2399
S':'
asbag69
(g90
g71
NtRp2400
(dp2401
g74
(dp2402
sg83
g2387
sg76
(lp2403
g69
(g70
g71
NtRp2404
(dp2405
g74
(dp2406
g82
I5
ssg83
g2400
sg76
(lp2407
g112
asbasbasbag69
(g85
g71
NtRp2408
(dp2409
g74
(dp2410
sg83
g79
sg76
(lp2411
g69
(g90
g71
NtRp2412
(dp2413
g74
(dp2414
g94
g95
ssg83
g2408
sg76
(lp2415
S'now'
p2416
asbag69
(g90
g71
NtRp2417
(dp2418
g74
(dp2419
g101
g102
ssg83
g2408
sg76
(lp2420
S':'
asbag69
(g90
g71
NtRp2421
(dp2422
g74
(dp2423
sg83
g2408
sg76
(lp2424
g69
(g70
g71
NtRp2425
(dp2426
g74
(dp2427
g82
I5
ssg83
g2421
sg76
(lp2428
S'datetime.datetime(2012, 5, 6, 21, 5, 14, 843924)'
p2429
asbasbasbag69
(g85
g71
NtRp2430
(dp2431
g74
(dp2432
sg83
g79
sg76
(lp2433
g69
(g90
g71
NtRp2434
(dp2435
g74
(dp2436
g94
g95
ssg83
g2430
sg76
(lp2437
S'post_vars'
p2438
asbag69
(g90
g71
NtRp2439
(dp2440
g74
(dp2441
g101
g102
ssg83
g2430
sg76
(lp2442
S':'
asbag69
(g90
g71
NtRp2443
(dp2444
g74
(dp2445
sg83
g2430
sg76
(lp2446
g69
(g70
g71
NtRp2447
(dp2448
g74
(dp2449
g82
I5
ssg83
g2443
sg76
(lp2450
g69
(g78
g71
NtRp2451
(dp2452
g74
(dp2453
g82
I4
ssg83
Nsg76
(lp2454
g69
(g85
g71
NtRp2455
(dp2456
g74
(dp2457
sg83
g2451
sg76
(lp2458
g69
(g90
g71
NtRp2459
(dp2460
g74
(dp2461
g94
g95
ssg83
g2455
sg76
(lp2462
S'race'
p2463
asbag69
(g90
g71
NtRp2464
(dp2465
g74
(dp2466
g101
g102
ssg83
g2455
sg76
(lp2467
S':'
asbag69
(g90
g71
NtRp2468
(dp2469
g74
(dp2470
sg83
g2455
sg76
(lp2471
g69
(g70
g71
NtRp2472
(dp2473
g74
(dp2474
g82
I4
ssg83
g2468
sg76
(lp2475
S'protoss'
p2476
asbasbasbasbasbasbasbag69
(g85
g71
NtRp2477
(dp2478
g74
(dp2479
sg83
g79
sg76
(lp2480
g69
(g90
g71
NtRp2481
(dp2482
g74
(dp2483
g94
g95
ssg83
g2477
sg76
(lp2484
S'url'
p2485
asbag69
(g90
g71
NtRp2486
(dp2487
g74
(dp2488
g101
g102
ssg83
g2477
sg76
(lp2489
S':'
asbag69
(g90
g71
NtRp2490
(dp2491
g74
(dp2492
sg83
g2477
sg76
(lp2493
g69
(g70
g71
NtRp2494
(dp2495
g74
(dp2496
g82
I5
ssg83
g2490
sg76
(lp2497
S'/Starcraft2/default/index'
p2498
asbasbasbag69
(g85
g71
NtRp2499
(dp2500
g74
(dp2501
sg83
g79
sg76
(lp2502
g69
(g90
g71
NtRp2503
(dp2504
g74
(dp2505
g94
g95
ssg83
g2499
sg76
(lp2506
S'utcnow'
p2507
asbag69
(g90
g71
NtRp2508
(dp2509
g74
(dp2510
g101
g102
ssg83
g2499
sg76
(lp2511
S':'
asbag69
(g90
g71
NtRp2512
(dp2513
g74
(dp2514
sg83
g2499
sg76
(lp2515
g69
(g70
g71
NtRp2516
(dp2517
g74
(dp2518
g82
I5
ssg83
g2512
sg76
(lp2519
S'datetime.datetime(2012, 5, 7, 2, 5, 14, 843940)'
p2520
asbasbasbag69
(g85
g71
NtRp2521
(dp2522
g74
(dp2523
sg83
g79
sg76
(lp2524
g69
(g90
g71
NtRp2525
(dp2526
g74
(dp2527
g94
g95
ssg83
g2521
sg76
(lp2528
S'uuid'
p2529
asbag69
(g90
g71
NtRp2530
(dp2531
g74
(dp2532
g101
g102
ssg83
g2521
sg76
(lp2533
S':'
asbag69
(g90
g71
NtRp2534
(dp2535
g74
(dp2536
sg83
g2521
sg76
(lp2537
g69
(g70
g71
NtRp2538
(dp2539
g74
(dp2540
g82
I5
ssg83
g2534
sg76
(lp2541
S'Starcraft2/127.0.0.1.2012-05-06.21-05-14.ba11ff25-f9a2-4f0c-8aa1-66721bc6928d'
p2542
asbasbasbag69
(g85
g71
NtRp2543
(dp2544
g74
(dp2545
sg83
g79
sg76
(lp2546
g69
(g90
g71
NtRp2547
(dp2548
g74
(dp2549
g94
g95
ssg83
g2543
sg76
(lp2550
S'vars'
p2551
asbag69
(g90
g71
NtRp2552
(dp2553
g74
(dp2554
g101
g102
ssg83
g2543
sg76
(lp2555
S':'
asbag69
(g90
g71
NtRp2556
(dp2557
g74
(dp2558
sg83
g2543
sg76
(lp2559
g69
(g70
g71
NtRp2560
(dp2561
g74
(dp2562
g82
I5
ssg83
g2556
sg76
(lp2563
g69
(g78
g71
NtRp2564
(dp2565
g74
(dp2566
g82
I4
ssg83
Nsg76
(lp2567
g69
(g85
g71
NtRp2568
(dp2569
g74
(dp2570
sg83
g2564
sg76
(lp2571
g69
(g90
g71
NtRp2572
(dp2573
g74
(dp2574
g94
g95
ssg83
g2568
sg76
(lp2575
g2013
asbag69
(g90
g71
NtRp2576
(dp2577
g74
(dp2578
g101
g102
ssg83
g2568
sg76
(lp2579
S':'
asbag69
(g90
g71
NtRp2580
(dp2581
g74
(dp2582
sg83
g2568
sg76
(lp2583
g69
(g70
g71
NtRp2584
(dp2585
g74
(dp2586
g82
I4
ssg83
g2580
sg76
(lp2587
g69
(g78
g71
NtRp2588
(dp2589
g74
(dp2590
g82
I3
ssg83
Nsg76
(lp2591
g69
(g85
g71
NtRp2592
(dp2593
g74
(dp2594
sg83
g2588
sg76
(lp2595
g69
(g90
g71
NtRp2596
(dp2597
g74
(dp2598
sg83
g2592
sg76
(lp2599
g69
(g70
g71
NtRp2600
(dp2601
g74
(dp2602
g82
I3
ssg83
g2596
sg76
(lp2603
S'protoss'
p2604
asbasbasbag69
(g85
g71
NtRp2605
(dp2606
g74
(dp2607
sg83
g2588
sg76
(lp2608
g69
(g90
g71
NtRp2609
(dp2610
g74
(dp2611
sg83
g2605
sg76
(lp2612
g69
(g70
g71
NtRp2613
(dp2614
g74
(dp2615
g82
I3
ssg83
g2609
sg76
(lp2616
g2476
asbasbasbasbasbasbasbasbasbasbasbag69
(g85
g71
NtRp2617
(dp2618
g74
(dp2619
sg83
g79
sg76
(lp2620
g69
(g90
g71
NtRp2621
(dp2622
g74
(dp2623
g94
g95
ssg83
g2617
sg76
(lp2624
S'wsgi'
p2625
asbag69
(g90
g71
NtRp2626
(dp2627
g74
(dp2628
g101
g102
ssg83
g2617
sg76
(lp2629
S':'
asbag69
(g90
g71
NtRp2630
(dp2631
g74
(dp2632
sg83
g2617
sg76
(lp2633
g69
(g70
g71
NtRp2634
(dp2635
g74
(dp2636
g82
I5
ssg83
g2630
sg76
(lp2637
g69
(g78
g71
NtRp2638
(dp2639
g74
(dp2640
g82
I4
ssg83
Nsg76
(lp2641
g69
(g85
g71
NtRp2642
(dp2643
g74
(dp2644
sg83
g2638
sg76
(lp2645
g69
(g90
g71
NtRp2646
(dp2647
g74
(dp2648
g94
g95
ssg83
g2642
sg76
(lp2649
S'environ'
p2650
asbag69
(g90
g71
NtRp2651
(dp2652
g74
(dp2653
g101
g102
ssg83
g2642
sg76
(lp2654
S':'
asbag69
(g90
g71
NtRp2655
(dp2656
g74
(dp2657
sg83
g2642
sg76
(lp2658
g69
(g70
g71
NtRp2659
(dp2660
g74
(dp2661
g82
I4
ssg83
g2655
sg76
(lp2662
g69
(g78
g71
NtRp2663
(dp2664
g74
(dp2665
g82
I3
ssg83
Nsg76
(lp2666
g69
(g85
g71
NtRp2667
(dp2668
g74
(dp2669
sg83
g2663
sg76
(lp2670
g69
(g90
g71
NtRp2671
(dp2672
g74
(dp2673
g94
g95
ssg83
g2667
sg76
(lp2674
S'CONTENT_LENGTH'
p2675
asbag69
(g90
g71
NtRp2676
(dp2677
g74
(dp2678
g101
g102
ssg83
g2667
sg76
(lp2679
S':'
asbag69
(g90
g71
NtRp2680
(dp2681
g74
(dp2682
sg83
g2667
sg76
(lp2683
g69
(g70
g71
NtRp2684
(dp2685
g74
(dp2686
g82
I3
ssg83
g2680
sg76
(lp2687
g950
asbasbasbag69
(g85
g71
NtRp2688
(dp2689
g74
(dp2690
sg83
g2663
sg76
(lp2691
g69
(g90
g71
NtRp2692
(dp2693
g74
(dp2694
g94
g95
ssg83
g2688
sg76
(lp2695
S'CONTENT_TYPE'
p2696
asbag69
(g90
g71
NtRp2697
(dp2698
g74
(dp2699
g101
g102
ssg83
g2688
sg76
(lp2700
S':'
asbag69
(g90
g71
NtRp2701
(dp2702
g74
(dp2703
sg83
g2688
sg76
(lp2704
g69
(g70
g71
NtRp2705
(dp2706
g74
(dp2707
g82
I3
ssg83
g2701
sg76
(lp2708
g972
asbasbasbag69
(g85
g71
NtRp2709
(dp2710
g74
(dp2711
sg83
g2663
sg76
(lp2712
g69
(g90
g71
NtRp2713
(dp2714
g74
(dp2715
g94
g95
ssg83
g2709
sg76
(lp2716
S'HTTP_ACCEPT'
p2717
asbag69
(g90
g71
NtRp2718
(dp2719
g74
(dp2720
g101
g102
ssg83
g2709
sg76
(lp2721
S':'
asbag69
(g90
g71
NtRp2722
(dp2723
g74
(dp2724
sg83
g2709
sg76
(lp2725
g69
(g70
g71
NtRp2726
(dp2727
g74
(dp2728
g82
I3
ssg83
g2722
sg76
(lp2729
g1059
asbasbasbag69
(g85
g71
NtRp2730
(dp2731
g74
(dp2732
sg83
g2663
sg76
(lp2733
g69
(g90
g71
NtRp2734
(dp2735
g74
(dp2736
g94
g95
ssg83
g2730
sg76
(lp2737
S'HTTP_ACCEPT_CHARSET'
p2738
asbag69
(g90
g71
NtRp2739
(dp2740
g74
(dp2741
g101
g102
ssg83
g2730
sg76
(lp2742
S':'
asbag69
(g90
g71
NtRp2743
(dp2744
g74
(dp2745
sg83
g2730
sg76
(lp2746
g69
(g70
g71
NtRp2747
(dp2748
g74
(dp2749
g82
I3
ssg83
g2743
sg76
(lp2750
g1081
asbasbasbag69
(g85
g71
NtRp2751
(dp2752
g74
(dp2753
sg83
g2663
sg76
(lp2754
g69
(g90
g71
NtRp2755
(dp2756
g74
(dp2757
g94
g95
ssg83
g2751
sg76
(lp2758
S'HTTP_ACCEPT_ENCODING'
p2759
asbag69
(g90
g71
NtRp2760
(dp2761
g74
(dp2762
g101
g102
ssg83
g2751
sg76
(lp2763
S':'
asbag69
(g90
g71
NtRp2764
(dp2765
g74
(dp2766
sg83
g2751
sg76
(lp2767
g69
(g70
g71
NtRp2768
(dp2769
g74
(dp2770
g82
I3
ssg83
g2764
sg76
(lp2771
g1103
asbasbasbag69
(g85
g71
NtRp2772
(dp2773
g74
(dp2774
sg83
g2663
sg76
(lp2775
g69
(g90
g71
NtRp2776
(dp2777
g74
(dp2778
g94
g95
ssg83
g2772
sg76
(lp2779
S'HTTP_ACCEPT_LANGUAGE'
p2780
asbag69
(g90
g71
NtRp2781
(dp2782
g74
(dp2783
g101
g102
ssg83
g2772
sg76
(lp2784
S':'
asbag69
(g90
g71
NtRp2785
(dp2786
g74
(dp2787
sg83
g2772
sg76
(lp2788
g69
(g70
g71
NtRp2789
(dp2790
g74
(dp2791
g82
I3
ssg83
g2785
sg76
(lp2792
g1125
asbasbasbag69
(g85
g71
NtRp2793
(dp2794
g74
(dp2795
sg83
g2663
sg76
(lp2796
g69
(g90
g71
NtRp2797
(dp2798
g74
(dp2799
g94
g95
ssg83
g2793
sg76
(lp2800
S'HTTP_CACHE_CONTROL'
p2801
asbag69
(g90
g71
NtRp2802
(dp2803
g74
(dp2804
g101
g102
ssg83
g2793
sg76
(lp2805
S':'
asbag69
(g90
g71
NtRp2806
(dp2807
g74
(dp2808
sg83
g2793
sg76
(lp2809
g69
(g70
g71
NtRp2810
(dp2811
g74
(dp2812
g82
I3
ssg83
g2806
sg76
(lp2813
g1147
asbasbasbag69
(g85
g71
NtRp2814
(dp2815
g74
(dp2816
sg83
g2663
sg76
(lp2817
g69
(g90
g71
NtRp2818
(dp2819
g74
(dp2820
g94
g95
ssg83
g2814
sg76
(lp2821
S'HTTP_CONNECTION'
p2822
asbag69
(g90
g71
NtRp2823
(dp2824
g74
(dp2825
g101
g102
ssg83
g2814
sg76
(lp2826
S':'
asbag69
(g90
g71
NtRp2827
(dp2828
g74
(dp2829
sg83
g2814
sg76
(lp2830
g69
(g70
g71
NtRp2831
(dp2832
g74
(dp2833
g82
I3
ssg83
g2827
sg76
(lp2834
g1169
asbasbasbag69
(g85
g71
NtRp2835
(dp2836
g74
(dp2837
sg83
g2663
sg76
(lp2838
g69
(g90
g71
NtRp2839
(dp2840
g74
(dp2841
g94
g95
ssg83
g2835
sg76
(lp2842
S'HTTP_CONTENT_LENGTH'
p2843
asbag69
(g90
g71
NtRp2844
(dp2845
g74
(dp2846
g101
g102
ssg83
g2835
sg76
(lp2847
S':'
asbag69
(g90
g71
NtRp2848
(dp2849
g74
(dp2850
sg83
g2835
sg76
(lp2851
g69
(g70
g71
NtRp2852
(dp2853
g74
(dp2854
g82
I3
ssg83
g2848
sg76
(lp2855
g950
asbasbasbag69
(g85
g71
NtRp2856
(dp2857
g74
(dp2858
sg83
g2663
sg76
(lp2859
g69
(g90
g71
NtRp2860
(dp2861
g74
(dp2862
g94
g95
ssg83
g2856
sg76
(lp2863
S'HTTP_CONTENT_TYPE'
p2864
asbag69
(g90
g71
NtRp2865
(dp2866
g74
(dp2867
g101
g102
ssg83
g2856
sg76
(lp2868
S':'
asbag69
(g90
g71
NtRp2869
(dp2870
g74
(dp2871
sg83
g2856
sg76
(lp2872
g69
(g70
g71
NtRp2873
(dp2874
g74
(dp2875
g82
I3
ssg83
g2869
sg76
(lp2876
g972
asbasbasbag69
(g85
g71
NtRp2877
(dp2878
g74
(dp2879
sg83
g2663
sg76
(lp2880
g69
(g90
g71
NtRp2881
(dp2882
g74
(dp2883
g94
g95
ssg83
g2877
sg76
(lp2884
S'HTTP_COOKIE'
p2885
asbag69
(g90
g71
NtRp2886
(dp2887
g74
(dp2888
g101
g102
ssg83
g2877
sg76
(lp2889
S':'
asbag69
(g90
g71
NtRp2890
(dp2891
g74
(dp2892
sg83
g2877
sg76
(lp2893
g69
(g70
g71
NtRp2894
(dp2895
g74
(dp2896
g82
I3
ssg83
g2890
sg76
(lp2897
g1233
asbasbasbag69
(g85
g71
NtRp2898
(dp2899
g74
(dp2900
sg83
g2663
sg76
(lp2901
g69
(g90
g71
NtRp2902
(dp2903
g74
(dp2904
g94
g95
ssg83
g2898
sg76
(lp2905
S'HTTP_HOST'
p2906
asbag69
(g90
g71
NtRp2907
(dp2908
g74
(dp2909
g101
g102
ssg83
g2898
sg76
(lp2910
S':'
asbag69
(g90
g71
NtRp2911
(dp2912
g74
(dp2913
sg83
g2898
sg76
(lp2914
g69
(g70
g71
NtRp2915
(dp2916
g74
(dp2917
g82
I3
ssg83
g2911
sg76
(lp2918
g1255
asbasbasbag69
(g85
g71
NtRp2919
(dp2920
g74
(dp2921
sg83
g2663
sg76
(lp2922
g69
(g90
g71
NtRp2923
(dp2924
g74
(dp2925
g94
g95
ssg83
g2919
sg76
(lp2926
S'HTTP_ORIGIN'
p2927
asbag69
(g90
g71
NtRp2928
(dp2929
g74
(dp2930
g101
g102
ssg83
g2919
sg76
(lp2931
S':'
asbag69
(g90
g71
NtRp2932
(dp2933
g74
(dp2934
sg83
g2919
sg76
(lp2935
g69
(g70
g71
NtRp2936
(dp2937
g74
(dp2938
g82
I3
ssg83
g2932
sg76
(lp2939
g1277
asbasbasbag69
(g85
g71
NtRp2940
(dp2941
g74
(dp2942
sg83
g2663
sg76
(lp2943
g69
(g90
g71
NtRp2944
(dp2945
g74
(dp2946
g94
g95
ssg83
g2940
sg76
(lp2947
S'HTTP_REFERER'
p2948
asbag69
(g90
g71
NtRp2949
(dp2950
g74
(dp2951
g101
g102
ssg83
g2940
sg76
(lp2952
S':'
asbag69
(g90
g71
NtRp2953
(dp2954
g74
(dp2955
sg83
g2940
sg76
(lp2956
g69
(g70
g71
NtRp2957
(dp2958
g74
(dp2959
g82
I3
ssg83
g2953
sg76
(lp2960
g1299
asbasbasbag69
(g85
g71
NtRp2961
(dp2962
g74
(dp2963
sg83
g2663
sg76
(lp2964
g69
(g90
g71
NtRp2965
(dp2966
g74
(dp2967
g94
g95
ssg83
g2961
sg76
(lp2968
S'HTTP_USER_AGENT'
p2969
asbag69
(g90
g71
NtRp2970
(dp2971
g74
(dp2972
g101
g102
ssg83
g2961
sg76
(lp2973
S':'
asbag69
(g90
g71
NtRp2974
(dp2975
g74
(dp2976
sg83
g2961
sg76
(lp2977
g69
(g70
g71
NtRp2978
(dp2979
g74
(dp2980
g82
I3
ssg83
g2974
sg76
(lp2981
g1321
asbasbasbag69
(g85
g71
NtRp2982
(dp2983
g74
(dp2984
sg83
g2663
sg76
(lp2985
g69
(g90
g71
NtRp2986
(dp2987
g74
(dp2988
g94
g95
ssg83
g2982
sg76
(lp2989
S'PATH_INFO'
p2990
asbag69
(g90
g71
NtRp2991
(dp2992
g74
(dp2993
g101
g102
ssg83
g2982
sg76
(lp2994
S':'
asbag69
(g90
g71
NtRp2995
(dp2996
g74
(dp2997
sg83
g2982
sg76
(lp2998
g69
(g70
g71
NtRp2999
(dp3000
g74
(dp3001
g82
I3
ssg83
g2995
sg76
(lp3002
g1385
asbasbasbag69
(g85
g71
NtRp3003
(dp3004
g74
(dp3005
sg83
g2663
sg76
(lp3006
g69
(g90
g71
NtRp3007
(dp3008
g74
(dp3009
g94
g95
ssg83
g3003
sg76
(lp3010
S'QUERY_STRING'
p3011
asbag69
(g90
g71
NtRp3012
(dp3013
g74
(dp3014
g101
g102
ssg83
g3003
sg76
(lp3015
S':'
asbag69
(g90
g71
NtRp3016
(dp3017
g74
(dp3018
sg83
g3003
sg76
(lp3019
g69
(g70
g71
NtRp3020
(dp3021
g74
(dp3022
g82
I3
ssg83
g3016
sg76
(lp3023
g1407
asbasbasbag69
(g85
g71
NtRp3024
(dp3025
g74
(dp3026
sg83
g2663
sg76
(lp3027
g69
(g90
g71
NtRp3028
(dp3029
g74
(dp3030
g94
g95
ssg83
g3024
sg76
(lp3031
S'REMOTE_ADDR'
p3032
asbag69
(g90
g71
NtRp3033
(dp3034
g74
(dp3035
g101
g102
ssg83
g3024
sg76
(lp3036
S':'
asbag69
(g90
g71
NtRp3037
(dp3038
g74
(dp3039
sg83
g3024
sg76
(lp3040
g69
(g70
g71
NtRp3041
(dp3042
g74
(dp3043
g82
I3
ssg83
g3037
sg76
(lp3044
g202
asbasbasbag69
(g85
g71
NtRp3045
(dp3046
g74
(dp3047
sg83
g2663
sg76
(lp3048
g69
(g90
g71
NtRp3049
(dp3050
g74
(dp3051
g94
g95
ssg83
g3045
sg76
(lp3052
S'REMOTE_PORT'
p3053
asbag69
(g90
g71
NtRp3054
(dp3055
g74
(dp3056
g101
g102
ssg83
g3045
sg76
(lp3057
S':'
asbag69
(g90
g71
NtRp3058
(dp3059
g74
(dp3060
sg83
g3045
sg76
(lp3061
g69
(g70
g71
NtRp3062
(dp3063
g74
(dp3064
g82
I3
ssg83
g3058
sg76
(lp3065
g1450
asbasbasbag69
(g85
g71
NtRp3066
(dp3067
g74
(dp3068
sg83
g2663
sg76
(lp3069
g69
(g90
g71
NtRp3070
(dp3071
g74
(dp3072
g94
g95
ssg83
g3066
sg76
(lp3073
S'REQUEST_METHOD'
p3074
asbag69
(g90
g71
NtRp3075
(dp3076
g74
(dp3077
g101
g102
ssg83
g3066
sg76
(lp3078
S':'
asbag69
(g90
g71
NtRp3079
(dp3080
g74
(dp3081
sg83
g3066
sg76
(lp3082
g69
(g70
g71
NtRp3083
(dp3084
g74
(dp3085
g82
I3
ssg83
g3079
sg76
(lp3086
g1472
asbasbasbag69
(g85
g71
NtRp3087
(dp3088
g74
(dp3089
sg83
g2663
sg76
(lp3090
g69
(g90
g71
NtRp3091
(dp3092
g74
(dp3093
g94
g95
ssg83
g3087
sg76
(lp3094
S'SCRIPT_NAME'
p3095
asbag69
(g90
g71
NtRp3096
(dp3097
g74
(dp3098
g101
g102
ssg83
g3087
sg76
(lp3099
S':'
asbag69
(g90
g71
NtRp3100
(dp3101
g74
(dp3102
sg83
g3087
sg76
(lp3103
g69
(g70
g71
NtRp3104
(dp3105
g74
(dp3106
g82
I3
ssg83
g3100
sg76
(lp3107
S''
asbasbasbag69
(g85
g71
NtRp3108
(dp3109
g74
(dp3110
sg83
g2663
sg76
(lp3111
g69
(g90
g71
NtRp3112
(dp3113
g74
(dp3114
g94
g95
ssg83
g3108
sg76
(lp3115
S'SERVER_NAME'
p3116
asbag69
(g90
g71
NtRp3117
(dp3118
g74
(dp3119
g101
g102
ssg83
g3108
sg76
(lp3120
S':'
asbag69
(g90
g71
NtRp3121
(dp3122
g74
(dp3123
sg83
g3108
sg76
(lp3124
g69
(g70
g71
NtRp3125
(dp3126
g74
(dp3127
g82
I3
ssg83
g3121
sg76
(lp3128
g1515
asbasbasbag69
(g85
g71
NtRp3129
(dp3130
g74
(dp3131
sg83
g2663
sg76
(lp3132
g69
(g90
g71
NtRp3133
(dp3134
g74
(dp3135
g94
g95
ssg83
g3129
sg76
(lp3136
S'SERVER_PORT'
p3137
asbag69
(g90
g71
NtRp3138
(dp3139
g74
(dp3140
g101
g102
ssg83
g3129
sg76
(lp3141
S':'
asbag69
(g90
g71
NtRp3142
(dp3143
g74
(dp3144
sg83
g3129
sg76
(lp3145
g69
(g70
g71
NtRp3146
(dp3147
g74
(dp3148
g82
I3
ssg83
g3142
sg76
(lp3149
g1537
asbasbasbag69
(g85
g71
NtRp3150
(dp3151
g74
(dp3152
sg83
g2663
sg76
(lp3153
g69
(g90
g71
NtRp3154
(dp3155
g74
(dp3156
g94
g95
ssg83
g3150
sg76
(lp3157
S'SERVER_PROTOCOL'
p3158
asbag69
(g90
g71
NtRp3159
(dp3160
g74
(dp3161
g101
g102
ssg83
g3150
sg76
(lp3162
S':'
asbag69
(g90
g71
NtRp3163
(dp3164
g74
(dp3165
sg83
g3150
sg76
(lp3166
g69
(g70
g71
NtRp3167
(dp3168
g74
(dp3169
g82
I3
ssg83
g3163
sg76
(lp3170
g1559
asbasbasbag69
(g85
g71
NtRp3171
(dp3172
g74
(dp3173
sg83
g2663
sg76
(lp3174
g69
(g90
g71
NtRp3175
(dp3176
g74
(dp3177
g94
g95
ssg83
g3171
sg76
(lp3178
S'SERVER_SOFTWARE'
p3179
asbag69
(g90
g71
NtRp3180
(dp3181
g74
(dp3182
g101
g102
ssg83
g3171
sg76
(lp3183
S':'
asbag69
(g90
g71
NtRp3184
(dp3185
g74
(dp3186
sg83
g3171
sg76
(lp3187
g69
(g70
g71
NtRp3188
(dp3189
g74
(dp3190
g82
I3
ssg83
g3184
sg76
(lp3191
g1581
asbasbasbag69
(g85
g71
NtRp3192
(dp3193
g74
(dp3194
sg83
g2663
sg76
(lp3195
g69
(g90
g71
NtRp3196
(dp3197
g74
(dp3198
g94
g95
ssg83
g3192
sg76
(lp3199
S'wsgi.errors'
p3200
asbag69
(g90
g71
NtRp3201
(dp3202
g74
(dp3203
g101
g102
ssg83
g3192
sg76
(lp3204
S':'
asbag69
(g90
g71
NtRp3205
(dp3206
g74
(dp3207
sg83
g3192
sg76
(lp3208
g69
(g70
g71
NtRp3209
(dp3210
g74
(dp3211
g82
I3
ssg83
g3205
sg76
(lp3212
S"<open file '<stderr>', mode 'w' at 0x100282270>"
p3213
asbasbasbag69
(g85
g71
NtRp3214
(dp3215
g74
(dp3216
sg83
g2663
sg76
(lp3217
g69
(g90
g71
NtRp3218
(dp3219
g74
(dp3220
g94
g95
ssg83
g3214
sg76
(lp3221
S'wsgi.file_wrapper'
p3222
asbag69
(g90
g71
NtRp3223
(dp3224
g74
(dp3225
g101
g102
ssg83
g3214
sg76
(lp3226
S':'
asbag69
(g90
g71
NtRp3227
(dp3228
g74
(dp3229
sg83
g3214
sg76
(lp3230
g69
(g70
g71
NtRp3231
(dp3232
g74
(dp3233
g82
I3
ssg83
g3227
sg76
(lp3234
S'<class wsgiref.util.FileWrapper at 0x1012b4d50>'
p3235
asbasbasbag69
(g85
g71
NtRp3236
(dp3237
g74
(dp3238
sg83
g2663
sg76
(lp3239
g69
(g90
g71
NtRp3240
(dp3241
g74
(dp3242
g94
g95
ssg83
g3236
sg76
(lp3243
S'wsgi.input'
p3244
asbag69
(g90
g71
NtRp3245
(dp3246
g74
(dp3247
g101
g102
ssg83
g3236
sg76
(lp3248
S':'
asbag69
(g90
g71
NtRp3249
(dp3250
g74
(dp3251
sg83
g3236
sg76
(lp3252
g69
(g70
g71
NtRp3253
(dp3254
g74
(dp3255
g82
I3
ssg83
g3249
sg76
(lp3256
S"<open file '<fdopen>', mode 'w+b' at 0x10bcb39c0>"
p3257
asbasbasbag69
(g85
g71
NtRp3258
(dp3259
g74
(dp3260
sg83
g2663
sg76
(lp3261
g69
(g90
g71
NtRp3262
(dp3263
g74
(dp3264
g94
g95
ssg83
g3258
sg76
(lp3265
S'wsgi.multiprocess'
p3266
asbag69
(g90
g71
NtRp3267
(dp3268
g74
(dp3269
g101
g102
ssg83
g3258
sg76
(lp3270
S':'
asbag69
(g90
g71
NtRp3271
(dp3272
g74
(dp3273
sg83
g3258
sg76
(lp3274
g69
(g70
g71
NtRp3275
(dp3276
g74
(dp3277
g82
I3
ssg83
g3271
sg76
(lp3278
g112
asbasbasbag69
(g85
g71
NtRp3279
(dp3280
g74
(dp3281
sg83
g2663
sg76
(lp3282
g69
(g90
g71
NtRp3283
(dp3284
g74
(dp3285
g94
g95
ssg83
g3279
sg76
(lp3286
S'wsgi.multithread'
p3287
asbag69
(g90
g71
NtRp3288
(dp3289
g74
(dp3290
g101
g102
ssg83
g3279
sg76
(lp3291
S':'
asbag69
(g90
g71
NtRp3292
(dp3293
g74
(dp3294
sg83
g3279
sg76
(lp3295
g69
(g70
g71
NtRp3296
(dp3297
g74
(dp3298
g82
I3
ssg83
g3292
sg76
(lp3299
g1821
asbasbasbag69
(g85
g71
NtRp3300
(dp3301
g74
(dp3302
sg83
g2663
sg76
(lp3303
g69
(g90
g71
NtRp3304
(dp3305
g74
(dp3306
g94
g95
ssg83
g3300
sg76
(lp3307
S'wsgi.run_once'
p3308
asbag69
(g90
g71
NtRp3309
(dp3310
g74
(dp3311
g101
g102
ssg83
g3300
sg76
(lp3312
S':'
asbag69
(g90
g71
NtRp3313
(dp3314
g74
(dp3315
sg83
g3300
sg76
(lp3316
g69
(g70
g71
NtRp3317
(dp3318
g74
(dp3319
g82
I3
ssg83
g3313
sg76
(lp3320
g112
asbasbasbag69
(g85
g71
NtRp3321
(dp3322
g74
(dp3323
sg83
g2663
sg76
(lp3324
g69
(g90
g71
NtRp3325
(dp3326
g74
(dp3327
g94
g95
ssg83
g3321
sg76
(lp3328
S'wsgi.url_scheme'
p3329
asbag69
(g90
g71
NtRp3330
(dp3331
g74
(dp3332
g101
g102
ssg83
g3321
sg76
(lp3333
S':'
asbag69
(g90
g71
NtRp3334
(dp3335
g74
(dp3336
sg83
g3321
sg76
(lp3337
g69
(g70
g71
NtRp3338
(dp3339
g74
(dp3340
g82
I3
ssg83
g3334
sg76
(lp3341
g1864
asbasbasbag69
(g85
g71
NtRp3342
(dp3343
g74
(dp3344
sg83
g2663
sg76
(lp3345
g69
(g90
g71
NtRp3346
(dp3347
g74
(dp3348
g94
g95
ssg83
g3342
sg76
(lp3349
S'wsgi.version'
p3350
asbag69
(g90
g71
NtRp3351
(dp3352
g74
(dp3353
g101
g102
ssg83
g3342
sg76
(lp3354
S':'
asbag69
(g90
g71
NtRp3355
(dp3356
g74
(dp3357
sg83
g3342
sg76
(lp3358
g69
(g70
g71
NtRp3359
(dp3360
g74
(dp3361
g82
I3
ssg83
g3355
sg76
(lp3362
S'1'
asbasbasbasbasbasbasbasbasbasbasbasbasbsS'frames'
p3363
(lp3364
(dp3365
S'file'
p3366
S'/Users/hainna01/Downloads/web2py/gluon/restricted.py'
p3367
sS'dump'
p3368
(dp3369
S'code'
p3370
S'r"left_sidebar_enabled,right_sidebar_enabled=False...ponse.write(\'\\n</body>\\n</html>\\n\', escape=False)"'
p3371
sS'layer'
p3372
S"'/Users/hainna01/Downloads/web2py/applications/Starcraft2/views/default/index.html'"
p3373
sS'global compile2'
p3374
S'<function compile2>'
p3375
sS'ccode'
p3376
S'undefined'
p3377
ssS'lnum'
p3378
I204
sS'lines'
p3379
(dp3380
I199
S"    environment['__name__'] = '__restricted__'"
p3381
sI200
S'    try:'
p3382
sI201
S'        if type(code) == types.CodeType:'
p3383
sI202
S'            ccode = code'
p3384
sI203
S'        else:'
p3385
sI204
S'            ccode = compile2(code,layer)'
p3386
sI205
S'        exec ccode in environment'
p3387
sI206
S'    except HTTP:'
p3388
sI207
S'        raise'
p3389
sI208
S'    except RestrictedError:'
p3390
ssS'call'
p3391
S'(code=r"left_sidebar_enabled,right_sidebar_enabled=False...ponse.write(\'\\n</body>\\n</html>\\n\', escape=False)", environment={\'A\': <class \'gluon.html.A\'>, \'Auth\': <class \'gluon.tools.Auth\'>, \'B\': <class \'gluon.html.B\'>, \'BEAUTIFY\': <class \'gluon.html.BEAUTIFY\'>, \'BODY\': <class \'gluon.html.BODY\'>, \'BR\': <class \'gluon.html.BR\'>, \'BUTTON\': <class \'gluon.html.BUTTON\'>, \'CAT\': <class \'gluon.html.CAT\'>, \'CENTER\': <class \'gluon.html.CENTER\'>, \'CLEANUP\': <class \'gluon.validators.CLEANUP\'>, ...}, layer=\'/Users/hainna01/Downloads/web2py/applications/Starcraft2/views/default/index.html\')'
p3392
sS'func'
p3393
S'restricted'
p3394
sa(dp3395
g3366
S'/Users/hainna01/Downloads/web2py/gluon/restricted.py'
p3396
sg3368
(dp3397
S'builtincompile'
p3398
S'<built-in function compile>'
p3399
sS'code'
p3400
S'r"left_sidebar_enabled,right_sidebar_enabled=False...ponse.write(\'\\n</body>\\n</html>\\n\', escape=False)"'
p3401
sS'code.rstrip'
p3402
S'<built-in method rstrip of str object>'
p3403
sS').replace'
p3404
g3377
sS'layer'
p3405
S"'/Users/hainna01/Downloads/web2py/applications/Starcraft2/views/default/index.html'"
p3406
ssg3378
I189
sg3379
(dp3407
I192
S'    """'
p3408
sI193
S'    runs code in environment and returns the output. if an exception occurs'
p3409
sI184
S''
sI185
S'def compile2(code,layer):'
p3410
sI186
S'    """'
p3411
sI187
S"    The +'\\n' is necessary else compile fails when code ends in a comment."
p3412
sI188
S'    """'
p3413
sI189
S"    return compile(code.rstrip().replace('\\r\\n','\\n')+'\\n', layer, 'exec')"
p3414
sI190
S''
sI191
S"def restricted(code, environment=None, layer='Unknown'):"
p3415
ssg3391
S'(code=r"left_sidebar_enabled,right_sidebar_enabled=False...ponse.write(\'\\n</body>\\n</html>\\n\', escape=False)", layer=\'/Users/hainna01/Downloads/web2py/applications/Starcraft2/views/default/index.html\')'
p3416
sg3393
S'compile2'
p3417
sasS'pyver'
p3418
S'Python 2.7.2: /Library/Frameworks/Python.framework/Versions/2.7/Resources/Python.app/Contents/MacOS/Python'
p3419
sS'session'
p3420
g69
(g70
g71
NtRp3421
(dp3422
g74
(dp3423
sg76
(lp3424
g69
(g78
g71
NtRp3425
(dp3426
g74
(dp3427
g82
I5
ssg83
Nsg76
(lp3428
g69
(g85
g71
NtRp3429
(dp3430
g74
(dp3431
sg83
g3425
sg76
(lp3432
g69
(g90
g71
NtRp3433
(dp3434
g74
(dp3435
g94
g95
ssg83
g3429
sg76
(lp3436
S'auth'
p3437
asbag69
(g90
g71
NtRp3438
(dp3439
g74
(dp3440
g101
g102
ssg83
g3429
sg76
(lp3441
S':'
asbag69
(g90
g71
NtRp3442
(dp3443
g74
(dp3444
sg83
g3429
sg76
(lp3445
g69
(g70
g71
NtRp3446
(dp3447
g74
(dp3448
g82
I5
ssg83
g3442
sg76
(lp3449
g69
(g78
g71
NtRp3450
(dp3451
g74
(dp3452
g82
I4
ssg83
Nsg76
(lp3453
g69
(g85
g71
NtRp3454
(dp3455
g74
(dp3456
sg83
g3450
sg76
(lp3457
g69
(g90
g71
NtRp3458
(dp3459
g74
(dp3460
g94
g95
ssg83
g3454
sg76
(lp3461
S'expiration'
p3462
asbag69
(g90
g71
NtRp3463
(dp3464
g74
(dp3465
g101
g102
ssg83
g3454
sg76
(lp3466
S':'
asbag69
(g90
g71
NtRp3467
(dp3468
g74
(dp3469
sg83
g3454
sg76
(lp3470
g69
(g70
g71
NtRp3471
(dp3472
g74
(dp3473
g82
I4
ssg83
g3467
sg76
(lp3474
S'3600'
p3475
asbasbasbag69
(g85
g71
NtRp3476
(dp3477
g74
(dp3478
sg83
g3450
sg76
(lp3479
g69
(g90
g71
NtRp3480
(dp3481
g74
(dp3482
g94
g95
ssg83
g3476
sg76
(lp3483
S'hmac_key'
p3484
asbag69
(g90
g71
NtRp3485
(dp3486
g74
(dp3487
g101
g102
ssg83
g3476
sg76
(lp3488
S':'
asbag69
(g90
g71
NtRp3489
(dp3490
g74
(dp3491
sg83
g3476
sg76
(lp3492
g69
(g70
g71
NtRp3493
(dp3494
g74
(dp3495
g82
I4
ssg83
g3489
sg76
(lp3496
S'b7ac3f6b-b1df-4e75-a37e-638313918385'
p3497
asbasbasbag69
(g85
g71
NtRp3498
(dp3499
g74
(dp3500
sg83
g3450
sg76
(lp3501
g69
(g90
g71
NtRp3502
(dp3503
g74
(dp3504
g94
g95
ssg83
g3498
sg76
(lp3505
S'last_visit'
p3506
asbag69
(g90
g71
NtRp3507
(dp3508
g74
(dp3509
g101
g102
ssg83
g3498
sg76
(lp3510
S':'
asbag69
(g90
g71
NtRp3511
(dp3512
g74
(dp3513
sg83
g3498
sg76
(lp3514
g69
(g70
g71
NtRp3515
(dp3516
g74
(dp3517
g82
I4
ssg83
g3511
sg76
(lp3518
S'datetime.datetime(2012, 5, 6, 21, 3, 34, 64232)'
p3519
asbasbasbag69
(g85
g71
NtRp3520
(dp3521
g74
(dp3522
sg83
g3450
sg76
(lp3523
g69
(g90
g71
NtRp3524
(dp3525
g74
(dp3526
g94
g95
ssg83
g3520
sg76
(lp3527
S'remember'
p3528
asbag69
(g90
g71
NtRp3529
(dp3530
g74
(dp3531
g101
g102
ssg83
g3520
sg76
(lp3532
S':'
asbag69
(g90
g71
NtRp3533
(dp3534
g74
(dp3535
sg83
g3520
sg76
(lp3536
g69
(g70
g71
NtRp3537
(dp3538
g74
(dp3539
g82
I4
ssg83
g3533
sg76
(lp3540
g112
asbasbasbag69
(g85
g71
NtRp3541
(dp3542
g74
(dp3543
sg83
g3450
sg76
(lp3544
g69
(g90
g71
NtRp3545
(dp3546
g74
(dp3547
g94
g95
ssg83
g3541
sg76
(lp3548
S'user'
p3549
asbag69
(g90
g71
NtRp3550
(dp3551
g74
(dp3552
g101
g102
ssg83
g3541
sg76
(lp3553
S':'
asbag69
(g90
g71
NtRp3554
(dp3555
g74
(dp3556
sg83
g3541
sg76
(lp3557
g69
(g70
g71
NtRp3558
(dp3559
g74
(dp3560
g82
I4
ssg83
g3554
sg76
(lp3561
g69
(g78
g71
NtRp3562
(dp3563
g74
(dp3564
g82
I3
ssg83
Nsg76
(lp3565
g69
(g85
g71
NtRp3566
(dp3567
g74
(dp3568
sg83
g3562
sg76
(lp3569
g69
(g90
g71
NtRp3570
(dp3571
g74
(dp3572
g94
g95
ssg83
g3566
sg76
(lp3573
S'email'
p3574
asbag69
(g90
g71
NtRp3575
(dp3576
g74
(dp3577
g101
g102
ssg83
g3566
sg76
(lp3578
S':'
asbag69
(g90
g71
NtRp3579
(dp3580
g74
(dp3581
sg83
g3566
sg76
(lp3582
g69
(g70
g71
NtRp3583
(dp3584
g74
(dp3585
g82
I3
ssg83
g3579
sg76
(lp3586
S'hainna01@luther.edu'
p3587
asbasbasbag69
(g85
g71
NtRp3588
(dp3589
g74
(dp3590
sg83
g3562
sg76
(lp3591
g69
(g90
g71
NtRp3592
(dp3593
g74
(dp3594
g94
g95
ssg83
g3588
sg76
(lp3595
S'first_name'
p3596
asbag69
(g90
g71
NtRp3597
(dp3598
g74
(dp3599
g101
g102
ssg83
g3588
sg76
(lp3600
S':'
asbag69
(g90
g71
NtRp3601
(dp3602
g74
(dp3603
sg83
g3588
sg76
(lp3604
g69
(g70
g71
NtRp3605
(dp3606
g74
(dp3607
g82
I3
ssg83
g3601
sg76
(lp3608
S'Nathan'
p3609
asbasbasbag69
(g85
g71
NtRp3610
(dp3611
g74
(dp3612
sg83
g3562
sg76
(lp3613
g69
(g90
g71
NtRp3614
(dp3615
g74
(dp3616
g94
g95
ssg83
g3610
sg76
(lp3617
S'id'
p3618
asbag69
(g90
g71
NtRp3619
(dp3620
g74
(dp3621
g101
g102
ssg83
g3610
sg76
(lp3622
S':'
asbag69
(g90
g71
NtRp3623
(dp3624
g74
(dp3625
sg83
g3610
sg76
(lp3626
g69
(g70
g71
NtRp3627
(dp3628
g74
(dp3629
g82
I3
ssg83
g3623
sg76
(lp3630
S'1'
asbasbasbag69
(g85
g71
NtRp3631
(dp3632
g74
(dp3633
sg83
g3562
sg76
(lp3634
g69
(g90
g71
NtRp3635
(dp3636
g74
(dp3637
g94
g95
ssg83
g3631
sg76
(lp3638
S'last_name'
p3639
asbag69
(g90
g71
NtRp3640
(dp3641
g74
(dp3642
g101
g102
ssg83
g3631
sg76
(lp3643
S':'
asbag69
(g90
g71
NtRp3644
(dp3645
g74
(dp3646
sg83
g3631
sg76
(lp3647
g69
(g70
g71
NtRp3648
(dp3649
g74
(dp3650
g82
I3
ssg83
g3644
sg76
(lp3651
S'Haines'
p3652
asbasbasbag69
(g85
g71
NtRp3653
(dp3654
g74
(dp3655
sg83
g3562
sg76
(lp3656
g69
(g90
g71
NtRp3657
(dp3658
g74
(dp3659
g94
g95
ssg83
g3653
sg76
(lp3660
S'password'
p3661
asbag69
(g90
g71
NtRp3662
(dp3663
g74
(dp3664
g101
g102
ssg83
g3653
sg76
(lp3665
S':'
asbag69
(g90
g71
NtRp3666
(dp3667
g74
(dp3668
sg83
g3653
sg76
(lp3669
g69
(g70
g71
NtRp3670
(dp3671
g74
(dp3672
g82
I3
ssg83
g3666
sg76
(lp3673
S'69170c197bb10e8a02203b4713d1b379'
p3674
asbasbasbag69
(g85
g71
NtRp3675
(dp3676
g74
(dp3677
sg83
g3562
sg76
(lp3678
g69
(g90
g71
NtRp3679
(dp3680
g74
(dp3681
g94
g95
ssg83
g3675
sg76
(lp3682
S'registration_id'
p3683
asbag69
(g90
g71
NtRp3684
(dp3685
g74
(dp3686
g101
g102
ssg83
g3675
sg76
(lp3687
S':'
asbag69
(g90
g71
NtRp3688
(dp3689
g74
(dp3690
sg83
g3675
sg76
(lp3691
g69
(g70
g71
NtRp3692
(dp3693
g74
(dp3694
g82
I3
ssg83
g3688
sg76
(lp3695
S''
asbasbasbag69
(g85
g71
NtRp3696
(dp3697
g74
(dp3698
sg83
g3562
sg76
(lp3699
g69
(g90
g71
NtRp3700
(dp3701
g74
(dp3702
g94
g95
ssg83
g3696
sg76
(lp3703
S'registration_key'
p3704
asbag69
(g90
g71
NtRp3705
(dp3706
g74
(dp3707
g101
g102
ssg83
g3696
sg76
(lp3708
S':'
asbag69
(g90
g71
NtRp3709
(dp3710
g74
(dp3711
sg83
g3696
sg76
(lp3712
g69
(g70
g71
NtRp3713
(dp3714
g74
(dp3715
g82
I3
ssg83
g3709
sg76
(lp3716
S''
asbasbasbag69
(g85
g71
NtRp3717
(dp3718
g74
(dp3719
sg83
g3562
sg76
(lp3720
g69
(g90
g71
NtRp3721
(dp3722
g74
(dp3723
g94
g95
ssg83
g3717
sg76
(lp3724
S'reset_password_key'
p3725
asbag69
(g90
g71
NtRp3726
(dp3727
g74
(dp3728
g101
g102
ssg83
g3717
sg76
(lp3729
S':'
asbag69
(g90
g71
NtRp3730
(dp3731
g74
(dp3732
sg83
g3717
sg76
(lp3733
g69
(g70
g71
NtRp3734
(dp3735
g74
(dp3736
g82
I3
ssg83
g3730
sg76
(lp3737
S''
asbasbasbasbasbasbasbag69
(g85
g71
NtRp3738
(dp3739
g74
(dp3740
sg83
g3450
sg76
(lp3741
g69
(g90
g71
NtRp3742
(dp3743
g74
(dp3744
g94
g95
ssg83
g3738
sg76
(lp3745
S'user_groups'
p3746
asbag69
(g90
g71
NtRp3747
(dp3748
g74
(dp3749
g101
g102
ssg83
g3738
sg76
(lp3750
S':'
asbag69
(g90
g71
NtRp3751
(dp3752
g74
(dp3753
sg83
g3738
sg76
(lp3754
g69
(g70
g71
NtRp3755
(dp3756
g74
(dp3757
g82
I4
ssg83
g3751
sg76
(lp3758
g69
(g78
g71
NtRp3759
(dp3760
g74
(dp3761
g82
I3
ssg83
Nsg76
(lp3762
g69
(g85
g71
NtRp3763
(dp3764
g74
(dp3765
sg83
g3759
sg76
(lp3766
g69
(g90
g71
NtRp3767
(dp3768
g74
(dp3769
g94
g95
ssg83
g3763
sg76
(lp3770
S'1'
asbag69
(g90
g71
NtRp3771
(dp3772
g74
(dp3773
g101
g102
ssg83
g3763
sg76
(lp3774
S':'
asbag69
(g90
g71
NtRp3775
(dp3776
g74
(dp3777
sg83
g3763
sg76
(lp3778
g69
(g70
g71
NtRp3779
(dp3780
g74
(dp3781
g82
I3
ssg83
g3775
sg76
(lp3782
S'user_1'
p3783
asbasbasbasbasbasbasbasbasbasbasbasbasbsS'etype'
p3784
S"<type 'exceptions.SyntaxError'>"
p3785
sS'date'
p3786
S'Sun May  6 21:05:14 2012'
p3787
sS'response'
p3788
g69
(g70
g71
NtRp3789
(dp3790
g74
(dp3791
sg76
(lp3792
g69
(g78
g71
NtRp3793
(dp3794
g74
(dp3795
g82
I5
ssg83
Nsg76
(lp3796
g69
(g85
g71
NtRp3797
(dp3798
g74
(dp3799
sg83
g3793
sg76
(lp3800
g69
(g90
g71
NtRp3801
(dp3802
g74
(dp3803
g94
g95
ssg83
g3797
sg76
(lp3804
g167
asbag69
(g90
g71
NtRp3805
(dp3806
g74
(dp3807
g101
g102
ssg83
g3797
sg76
(lp3808
S':'
asbag69
(g90
g71
NtRp3809
(dp3810
g74
(dp3811
sg83
g3797
sg76
(lp3812
g69
(g70
g71
NtRp3813
(dp3814
g74
(dp3815
g82
I5
ssg83
g3809
sg76
(lp3816
S'<cStringIO.StringO object at 0x10bc908b8>'
p3817
asbasbasbag69
(g85
g71
NtRp3818
(dp3819
g74
(dp3820
sg83
g3793
sg76
(lp3821
g69
(g90
g71
NtRp3822
(dp3823
g74
(dp3824
g94
g95
ssg83
g3818
sg76
(lp3825
g233
asbag69
(g90
g71
NtRp3826
(dp3827
g74
(dp3828
g101
g102
ssg83
g3818
sg76
(lp3829
S':'
asbag69
(g90
g71
NtRp3830
(dp3831
g74
(dp3832
sg83
g3818
sg76
(lp3833
g69
(g70
g71
NtRp3834
(dp3835
g74
(dp3836
g82
I5
ssg83
g3830
sg76
(lp3837
g69
(g78
g71
NtRp3838
(dp3839
g74
(dp3840
g82
I4
ssg83
Nsg76
(lp3841
g69
(g85
g71
NtRp3842
(dp3843
g74
(dp3844
sg83
g3838
sg76
(lp3845
g69
(g90
g71
NtRp3846
(dp3847
g74
(dp3848
g94
g95
ssg83
g3842
sg76
(lp3849
S'session_id_starcraft2'
p3850
asbag69
(g90
g71
NtRp3851
(dp3852
g74
(dp3853
g101
g102
ssg83
g3842
sg76
(lp3854
S':'
asbag69
(g90
g71
NtRp3855
(dp3856
g74
(dp3857
sg83
g3842
sg76
(lp3858
g69
(g70
g71
NtRp3859
(dp3860
g74
(dp3861
g82
I4
ssg83
g3855
sg76
(lp3862
g69
(g78
g71
NtRp3863
(dp3864
g74
(dp3865
g82
I3
ssg83
Nsg76
(lp3866
g69
(g85
g71
NtRp3867
(dp3868
g74
(dp3869
sg83
g3863
sg76
(lp3870
g69
(g90
g71
NtRp3871
(dp3872
g74
(dp3873
g94
g95
ssg83
g3867
sg76
(lp3874
g283
asbag69
(g90
g71
NtRp3875
(dp3876
g74
(dp3877
g101
g102
ssg83
g3867
sg76
(lp3878
S':'
asbag69
(g90
g71
NtRp3879
(dp3880
g74
(dp3881
sg83
g3867
sg76
(lp3882
g69
(g70
g71
NtRp3883
(dp3884
g74
(dp3885
g82
I3
ssg83
g3879
sg76
(lp3886
S''
asbasbasbag69
(g85
g71
NtRp3887
(dp3888
g74
(dp3889
sg83
g3863
sg76
(lp3890
g69
(g90
g71
NtRp3891
(dp3892
g74
(dp3893
g94
g95
ssg83
g3887
sg76
(lp3894
g304
asbag69
(g90
g71
NtRp3895
(dp3896
g74
(dp3897
g101
g102
ssg83
g3887
sg76
(lp3898
S':'
asbag69
(g90
g71
NtRp3899
(dp3900
g74
(dp3901
sg83
g3887
sg76
(lp3902
g69
(g70
g71
NtRp3903
(dp3904
g74
(dp3905
g82
I3
ssg83
g3899
sg76
(lp3906
S''
asbasbasbag69
(g85
g71
NtRp3907
(dp3908
g74
(dp3909
sg83
g3863
sg76
(lp3910
g69
(g90
g71
NtRp3911
(dp3912
g74
(dp3913
g94
g95
ssg83
g3907
sg76
(lp3914
g325
asbag69
(g90
g71
NtRp3915
(dp3916
g74
(dp3917
g101
g102
ssg83
g3907
sg76
(lp3918
S':'
asbag69
(g90
g71
NtRp3919
(dp3920
g74
(dp3921
sg83
g3907
sg76
(lp3922
g69
(g70
g71
NtRp3923
(dp3924
g74
(dp3925
g82
I3
ssg83
g3919
sg76
(lp3926
S''
asbasbasbag69
(g85
g71
NtRp3927
(dp3928
g74
(dp3929
sg83
g3863
sg76
(lp3930
g69
(g90
g71
NtRp3931
(dp3932
g74
(dp3933
g94
g95
ssg83
g3927
sg76
(lp3934
g346
asbag69
(g90
g71
NtRp3935
(dp3936
g74
(dp3937
g101
g102
ssg83
g3927
sg76
(lp3938
S':'
asbag69
(g90
g71
NtRp3939
(dp3940
g74
(dp3941
sg83
g3927
sg76
(lp3942
g69
(g70
g71
NtRp3943
(dp3944
g74
(dp3945
g82
I3
ssg83
g3939
sg76
(lp3946
S''
asbasbasbag69
(g85
g71
NtRp3947
(dp3948
g74
(dp3949
sg83
g3863
sg76
(lp3950
g69
(g90
g71
NtRp3951
(dp3952
g74
(dp3953
g94
g95
ssg83
g3947
sg76
(lp3954
g367
asbag69
(g90
g71
NtRp3955
(dp3956
g74
(dp3957
g101
g102
ssg83
g3947
sg76
(lp3958
S':'
asbag69
(g90
g71
NtRp3959
(dp3960
g74
(dp3961
sg83
g3947
sg76
(lp3962
g69
(g70
g71
NtRp3963
(dp3964
g74
(dp3965
g82
I3
ssg83
g3959
sg76
(lp3966
S''
asbasbasbag69
(g85
g71
NtRp3967
(dp3968
g74
(dp3969
sg83
g3863
sg76
(lp3970
g69
(g90
g71
NtRp3971
(dp3972
g74
(dp3973
g94
g95
ssg83
g3967
sg76
(lp3974
g388
asbag69
(g90
g71
NtRp3975
(dp3976
g74
(dp3977
g101
g102
ssg83
g3967
sg76
(lp3978
S':'
asbag69
(g90
g71
NtRp3979
(dp3980
g74
(dp3981
sg83
g3967
sg76
(lp3982
g69
(g70
g71
NtRp3983
(dp3984
g74
(dp3985
g82
I3
ssg83
g3979
sg76
(lp3986
S'/'
asbasbasbag69
(g85
g71
NtRp3987
(dp3988
g74
(dp3989
sg83
g3863
sg76
(lp3990
g69
(g90
g71
NtRp3991
(dp3992
g74
(dp3993
g94
g95
ssg83
g3987
sg76
(lp3994
g409
asbag69
(g90
g71
NtRp3995
(dp3996
g74
(dp3997
g101
g102
ssg83
g3987
sg76
(lp3998
S':'
asbag69
(g90
g71
NtRp3999
(dp4000
g74
(dp4001
sg83
g3987
sg76
(lp4002
g69
(g70
g71
NtRp4003
(dp4004
g74
(dp4005
g82
I3
ssg83
g3999
sg76
(lp4006
S''
asbasbasbag69
(g85
g71
NtRp4007
(dp4008
g74
(dp4009
sg83
g3863
sg76
(lp4010
g69
(g90
g71
NtRp4011
(dp4012
g74
(dp4013
g94
g95
ssg83
g4007
sg76
(lp4014
g430
asbag69
(g90
g71
NtRp4015
(dp4016
g74
(dp4017
g101
g102
ssg83
g4007
sg76
(lp4018
S':'
asbag69
(g90
g71
NtRp4019
(dp4020
g74
(dp4021
sg83
g4007
sg76
(lp4022
g69
(g70
g71
NtRp4023
(dp4024
g74
(dp4025
g82
I3
ssg83
g4019
sg76
(lp4026
S''
asbasbasbasbasbasbasbasbasbasbasbag69
(g85
g71
NtRp4027
(dp4028
g74
(dp4029
sg83
g3793
sg76
(lp4030
g69
(g90
g71
NtRp4031
(dp4032
g74
(dp4033
g94
g95
ssg83
g4027
sg76
(lp4034
S'delimiters'
p4035
asbag69
(g90
g71
NtRp4036
(dp4037
g74
(dp4038
g101
g102
ssg83
g4027
sg76
(lp4039
S':'
asbag69
(g90
g71
NtRp4040
(dp4041
g74
(dp4042
sg83
g4027
sg76
(lp4043
g69
(g70
g71
NtRp4044
(dp4045
g74
(dp4046
g82
I5
ssg83
g4040
sg76
(lp4047
g69
(g78
g71
NtRp4048
(dp4049
g74
(dp4050
g82
I4
ssg83
Nsg76
(lp4051
g69
(g85
g71
NtRp4052
(dp4053
g74
(dp4054
sg83
g4048
sg76
(lp4055
g69
(g90
g71
NtRp4056
(dp4057
g74
(dp4058
sg83
g4052
sg76
(lp4059
g69
(g70
g71
NtRp4060
(dp4061
g74
(dp4062
g82
I4
ssg83
g4056
sg76
(lp4063
S'{{'
p4064
asbasbasbag69
(g85
g71
NtRp4065
(dp4066
g74
(dp4067
sg83
g4048
sg76
(lp4068
g69
(g90
g71
NtRp4069
(dp4070
g74
(dp4071
sg83
g4065
sg76
(lp4072
g69
(g70
g71
NtRp4073
(dp4074
g74
(dp4075
g82
I4
ssg83
g4069
sg76
(lp4076
S'}}'
p4077
asbasbasbasbasbasbasbag69
(g85
g71
NtRp4078
(dp4079
g74
(dp4080
sg83
g3793
sg76
(lp4081
g69
(g90
g71
NtRp4082
(dp4083
g74
(dp4084
g94
g95
ssg83
g4078
sg76
(lp4085
S'files'
p4086
asbag69
(g90
g71
NtRp4087
(dp4088
g74
(dp4089
g101
g102
ssg83
g4078
sg76
(lp4090
S':'
asbag69
(g90
g71
NtRp4091
(dp4092
g74
(dp4093
sg83
g4078
sg76
(lp4094
g69
(g70
g71
NtRp4095
(dp4096
g74
(dp4097
g82
I5
ssg83
g4091
sg76
(lp4098
g69
(g78
g71
NtRp4099
(dp4100
g74
(dp4101
g82
I4
ssg83
Nsg76
(lp4102
sbasbasbasbag69
(g85
g71
NtRp4103
(dp4104
g74
(dp4105
sg83
g3793
sg76
(lp4106
g69
(g90
g71
NtRp4107
(dp4108
g74
(dp4109
g94
g95
ssg83
g4103
sg76
(lp4110
S'flash'
p4111
asbag69
(g90
g71
NtRp4112
(dp4113
g74
(dp4114
g101
g102
ssg83
g4103
sg76
(lp4115
S':'
asbag69
(g90
g71
NtRp4116
(dp4117
g74
(dp4118
sg83
g4103
sg76
(lp4119
g69
(g70
g71
NtRp4120
(dp4121
g74
(dp4122
g82
I5
ssg83
g4116
sg76
(lp4123
S''
asbasbasbag69
(g85
g71
NtRp4124
(dp4125
g74
(dp4126
sg83
g3793
sg76
(lp4127
g69
(g90
g71
NtRp4128
(dp4129
g74
(dp4130
g94
g95
ssg83
g4124
sg76
(lp4131
S'generic_patterns'
p4132
asbag69
(g90
g71
NtRp4133
(dp4134
g74
(dp4135
g101
g102
ssg83
g4124
sg76
(lp4136
S':'
asbag69
(g90
g71
NtRp4137
(dp4138
g74
(dp4139
sg83
g4124
sg76
(lp4140
g69
(g70
g71
NtRp4141
(dp4142
g74
(dp4143
g82
I5
ssg83
g4137
sg76
(lp4144
g69
(g78
g71
NtRp4145
(dp4146
g74
(dp4147
g82
I4
ssg83
Nsg76
(lp4148
g69
(g85
g71
NtRp4149
(dp4150
g74
(dp4151
sg83
g4145
sg76
(lp4152
g69
(g90
g71
NtRp4153
(dp4154
g74
(dp4155
sg83
g4149
sg76
(lp4156
g69
(g70
g71
NtRp4157
(dp4158
g74
(dp4159
g82
I4
ssg83
g4153
sg76
(lp4160
S'*'
asbasbasbasbasbasbasbag69
(g85
g71
NtRp4161
(dp4162
g74
(dp4163
sg83
g3793
sg76
(lp4164
g69
(g90
g71
NtRp4165
(dp4166
g74
(dp4167
g94
g95
ssg83
g4161
sg76
(lp4168
S'headers'
p4169
asbag69
(g90
g71
NtRp4170
(dp4171
g74
(dp4172
g101
g102
ssg83
g4161
sg76
(lp4173
S':'
asbag69
(g90
g71
NtRp4174
(dp4175
g74
(dp4176
sg83
g4161
sg76
(lp4177
g69
(g70
g71
NtRp4178
(dp4179
g74
(dp4180
g82
I5
ssg83
g4174
sg76
(lp4181
g69
(g78
g71
NtRp4182
(dp4183
g74
(dp4184
g82
I4
ssg83
Nsg76
(lp4185
g69
(g85
g71
NtRp4186
(dp4187
g74
(dp4188
sg83
g4182
sg76
(lp4189
g69
(g90
g71
NtRp4190
(dp4191
g74
(dp4192
g94
g95
ssg83
g4186
sg76
(lp4193
S'Cache-Control'
p4194
asbag69
(g90
g71
NtRp4195
(dp4196
g74
(dp4197
g101
g102
ssg83
g4186
sg76
(lp4198
S':'
asbag69
(g90
g71
NtRp4199
(dp4200
g74
(dp4201
sg83
g4186
sg76
(lp4202
g69
(g70
g71
NtRp4203
(dp4204
g74
(dp4205
g82
I4
ssg83
g4199
sg76
(lp4206
S'no-store, no-cache, must-revalidate, post-check=0, pre-check=0'
p4207
asbasbasbag69
(g85
g71
NtRp4208
(dp4209
g74
(dp4210
sg83
g4182
sg76
(lp4211
g69
(g90
g71
NtRp4212
(dp4213
g74
(dp4214
g94
g95
ssg83
g4208
sg76
(lp4215
S'Content-Type'
p4216
asbag69
(g90
g71
NtRp4217
(dp4218
g74
(dp4219
g101
g102
ssg83
g4208
sg76
(lp4220
S':'
asbag69
(g90
g71
NtRp4221
(dp4222
g74
(dp4223
sg83
g4208
sg76
(lp4224
g69
(g70
g71
NtRp4225
(dp4226
g74
(dp4227
g82
I4
ssg83
g4221
sg76
(lp4228
S'text/html; charset=utf-8'
p4229
asbasbasbag69
(g85
g71
NtRp4230
(dp4231
g74
(dp4232
sg83
g4182
sg76
(lp4233
g69
(g90
g71
NtRp4234
(dp4235
g74
(dp4236
g94
g95
ssg83
g4230
sg76
(lp4237
S'Expires'
p4238
asbag69
(g90
g71
NtRp4239
(dp4240
g74
(dp4241
g101
g102
ssg83
g4230
sg76
(lp4242
S':'
asbag69
(g90
g71
NtRp4243
(dp4244
g74
(dp4245
sg83
g4230
sg76
(lp4246
g69
(g70
g71
NtRp4247
(dp4248
g74
(dp4249
g82
I4
ssg83
g4243
sg76
(lp4250
S'Mon, 07 May 2012 02:05:14 GMT'
p4251
asbasbasbag69
(g85
g71
NtRp4252
(dp4253
g74
(dp4254
sg83
g4182
sg76
(lp4255
g69
(g90
g71
NtRp4256
(dp4257
g74
(dp4258
g94
g95
ssg83
g4252
sg76
(lp4259
S'Pragma'
p4260
asbag69
(g90
g71
NtRp4261
(dp4262
g74
(dp4263
g101
g102
ssg83
g4252
sg76
(lp4264
S':'
asbag69
(g90
g71
NtRp4265
(dp4266
g74
(dp4267
sg83
g4252
sg76
(lp4268
g69
(g70
g71
NtRp4269
(dp4270
g74
(dp4271
g82
I4
ssg83
g4265
sg76
(lp4272
S'no-cache'
p4273
asbasbasbag69
(g85
g71
NtRp4274
(dp4275
g74
(dp4276
sg83
g4182
sg76
(lp4277
g69
(g90
g71
NtRp4278
(dp4279
g74
(dp4280
g94
g95
ssg83
g4274
sg76
(lp4281
S'X-Powered-By'
p4282
asbag69
(g90
g71
NtRp4283
(dp4284
g74
(dp4285
g101
g102
ssg83
g4274
sg76
(lp4286
S':'
asbag69
(g90
g71
NtRp4287
(dp4288
g74
(dp4289
sg83
g4274
sg76
(lp4290
g69
(g70
g71
NtRp4291
(dp4292
g74
(dp4293
g82
I4
ssg83
g4287
sg76
(lp4294
S'web2py'
p4295
asbasbasbasbasbasbasbag69
(g85
g71
NtRp4296
(dp4297
g74
(dp4298
sg83
g3793
sg76
(lp4299
g69
(g90
g71
NtRp4300
(dp4301
g74
(dp4302
g94
g95
ssg83
g4296
sg76
(lp4303
S'menu'
p4304
asbag69
(g90
g71
NtRp4305
(dp4306
g74
(dp4307
g101
g102
ssg83
g4296
sg76
(lp4308
S':'
asbag69
(g90
g71
NtRp4309
(dp4310
g74
(dp4311
sg83
g4296
sg76
(lp4312
g69
(g70
g71
NtRp4313
(dp4314
g74
(dp4315
g82
I5
ssg83
g4309
sg76
(lp4316
g69
(g78
g71
NtRp4317
(dp4318
g74
(dp4319
g82
I4
ssg83
Nsg76
(lp4320
g69
(g85
g71
NtRp4321
(dp4322
g74
(dp4323
sg83
g4317
sg76
(lp4324
g69
(g90
g71
NtRp4325
(dp4326
g74
(dp4327
sg83
g4321
sg76
(lp4328
g69
(g70
g71
NtRp4329
(dp4330
g74
(dp4331
g82
I4
ssg83
g4325
sg76
(lp4332
g69
(g78
g71
NtRp4333
(dp4334
g74
(dp4335
g82
I3
ssg83
Nsg76
(lp4336
g69
(g85
g71
NtRp4337
(dp4338
g74
(dp4339
sg83
g4333
sg76
(lp4340
g69
(g90
g71
NtRp4341
(dp4342
g74
(dp4343
sg83
g4337
sg76
(lp4344
g69
(g70
g71
NtRp4345
(dp4346
g74
(dp4347
g82
I3
ssg83
g4341
sg76
(lp4348
cgluon.languages
lazyT_unpickle
p4349
(S't\x04\x00\x00\x00Home'
tRp4350
asbasbasbag69
(g85
g71
NtRp4351
(dp4352
g74
(dp4353
sg83
g4333
sg76
(lp4354
g69
(g90
g71
NtRp4355
(dp4356
g74
(dp4357
sg83
g4351
sg76
(lp4358
g69
(g70
g71
NtRp4359
(dp4360
g74
(dp4361
g82
I3
ssg83
g4355
sg76
(lp4362
g112
asbasbasbag69
(g85
g71
NtRp4363
(dp4364
g74
(dp4365
sg83
g4333
sg76
(lp4366
g69
(g90
g71
NtRp4367
(dp4368
g74
(dp4369
sg83
g4363
sg76
(lp4370
g69
(g70
g71
NtRp4371
(dp4372
g74
(dp4373
g82
I3
ssg83
g4367
sg76
(lp4374
S'/Starcraft2/default/index'
p4375
asbasbasbag69
(g85
g71
NtRp4376
(dp4377
g74
(dp4378
sg83
g4333
sg76
(lp4379
g69
(g90
g71
NtRp4380
(dp4381
g74
(dp4382
sg83
g4376
sg76
(lp4383
g69
(g70
g71
NtRp4384
(dp4385
g74
(dp4386
g82
I3
ssg83
g4380
sg76
(lp4387
g69
(g78
g71
NtRp4388
(dp4389
g74
(dp4390
g82
I2
ssg83
Nsg76
(lp4391
sbasbasbasbasbasbasbasbag69
(g85
g71
NtRp4392
(dp4393
g74
(dp4394
sg83
g4317
sg76
(lp4395
g69
(g90
g71
NtRp4396
(dp4397
g74
(dp4398
sg83
g4392
sg76
(lp4399
g69
(g70
g71
NtRp4400
(dp4401
g74
(dp4402
g82
I4
ssg83
g4396
sg76
(lp4403
g69
(g78
g71
NtRp4404
(dp4405
g74
(dp4406
g82
I3
ssg83
Nsg76
(lp4407
g69
(g85
g71
NtRp4408
(dp4409
g74
(dp4410
sg83
g4404
sg76
(lp4411
g69
(g90
g71
NtRp4412
(dp4413
g74
(dp4414
sg83
g4408
sg76
(lp4415
g69
(g70
g71
NtRp4416
(dp4417
g74
(dp4418
g82
I3
ssg83
g4412
sg76
(lp4419
g69
(cgluon.html
SPAN
p4420
g71
NtRp4421
(dp4422
g74
(dp4423
g94
S'color:yellow'
p4424
ssg83
Nsg76
(lp4425
g4295
asbasbasbasbag69
(g85
g71
NtRp4426
(dp4427
g74
(dp4428
sg83
g4404
sg76
(lp4429
g69
(g90
g71
NtRp4430
(dp4431
g74
(dp4432
sg83
g4426
sg76
(lp4433
g69
(g70
g71
NtRp4434
(dp4435
g74
(dp4436
g82
I3
ssg83
g4430
sg76
(lp4437
g112
asbasbasbag69
(g85
g71
NtRp4438
(dp4439
g74
(dp4440
sg83
g4404
sg76
(lp4441
g69
(g90
g71
NtRp4442
(dp4443
g74
(dp4444
sg83
g4438
sg76
(lp4445
g69
(g70
g71
NtRp4446
(dp4447
g74
(dp4448
g82
I3
ssg83
g4442
sg76
(lp4449
S'None'
p4450
asbasbasbag69
(g85
g71
NtRp4451
(dp4452
g74
(dp4453
sg83
g4404
sg76
(lp4454
g69
(g90
g71
NtRp4455
(dp4456
g74
(dp4457
sg83
g4451
sg76
(lp4458
g69
(g70
g71
NtRp4459
(dp4460
g74
(dp4461
g82
I3
ssg83
g4455
sg76
(lp4462
g69
(g78
g71
NtRp4463
(dp4464
g74
(dp4465
g82
I2
ssg83
Nsg76
(lp4466
g69
(g85
g71
NtRp4467
(dp4468
g74
(dp4469
sg83
g4463
sg76
(lp4470
g69
(g90
g71
NtRp4471
(dp4472
g74
(dp4473
sg83
g4467
sg76
(lp4474
g69
(g70
g71
NtRp4475
(dp4476
g74
(dp4477
g82
I2
ssg83
g4471
sg76
(lp4478
g69
(g78
g71
NtRp4479
(dp4480
g74
(dp4481
g82
I1
ssg83
Nsg76
(lp4482
g69
(g85
g71
NtRp4483
(dp4484
g74
(dp4485
sg83
g4479
sg76
(lp4486
g69
(g90
g71
NtRp4487
(dp4488
g74
(dp4489
sg83
g4483
sg76
(lp4490
g69
(g70
g71
NtRp4491
(dp4492
g74
(dp4493
g82
I1
ssg83
g4487
sg76
(lp4494
g4349
(S's\x08\x00\x00\x00My Sites'
tRp4495
asbasbasbag69
(g85
g71
NtRp4496
(dp4497
g74
(dp4498
sg83
g4479
sg76
(lp4499
g69
(g90
g71
NtRp4500
(dp4501
g74
(dp4502
sg83
g4496
sg76
(lp4503
g69
(g70
g71
NtRp4504
(dp4505
g74
(dp4506
g82
I1
ssg83
g4500
sg76
(lp4507
I00
asbasbasbag69
(g85
g71
NtRp4508
(dp4509
g74
(dp4510
sg83
g4479
sg76
(lp4511
g69
(g90
g71
NtRp4512
(dp4513
g74
(dp4514
sg83
g4508
sg76
(lp4515
g69
(g70
g71
NtRp4516
(dp4517
g74
(dp4518
g82
I1
ssg83
g4512
sg76
(lp4519
S'/admin/default/site'
p4520
asbasbasbasbasbasbasbag69
(g85
g71
NtRp4521
(dp4522
g74
(dp4523
sg83
g4463
sg76
(lp4524
g69
(g90
g71
NtRp4525
(dp4526
g74
(dp4527
sg83
g4521
sg76
(lp4528
g69
(g70
g71
NtRp4529
(dp4530
g74
(dp4531
g82
I2
ssg83
g4525
sg76
(lp4532
g69
(g78
g71
NtRp4533
(dp4534
g74
(dp4535
g82
I1
ssg83
Nsg76
(lp4536
g69
(g85
g71
NtRp4537
(dp4538
g74
(dp4539
sg83
g4533
sg76
(lp4540
g69
(g90
g71
NtRp4541
(dp4542
g74
(dp4543
sg83
g4537
sg76
(lp4544
g69
(g70
g71
NtRp4545
(dp4546
g74
(dp4547
g82
I1
ssg83
g4541
sg76
(lp4548
g4349
(S's\x08\x00\x00\x00This App'
tRp4549
asbasbasbag69
(g85
g71
NtRp4550
(dp4551
g74
(dp4552
sg83
g4533
sg76
(lp4553
g69
(g90
g71
NtRp4554
(dp4555
g74
(dp4556
sg83
g4550
sg76
(lp4557
g69
(g70
g71
NtRp4558
(dp4559
g74
(dp4560
g82
I1
ssg83
g4554
sg76
(lp4561
I00
asbasbasbag69
(g85
g71
NtRp4562
(dp4563
g74
(dp4564
sg83
g4533
sg76
(lp4565
g69
(g90
g71
NtRp4566
(dp4567
g74
(dp4568
sg83
g4562
sg76
(lp4569
g69
(g70
g71
NtRp4570
(dp4571
g74
(dp4572
g82
I1
ssg83
g4566
sg76
(lp4573
S'/admin/default/design/Starcraft2'
p4574
asbasbasbag69
(g85
g71
NtRp4575
(dp4576
g74
(dp4577
sg83
g4533
sg76
(lp4578
g69
(g90
g71
NtRp4579
(dp4580
g74
(dp4581
sg83
g4575
sg76
(lp4582
g69
(g70
g71
NtRp4583
(dp4584
g74
(dp4585
g82
I1
ssg83
g4579
sg76
(lp4586
(lp4587
(g4349
(S't\n\x00\x00\x00Controller'
tRp4588
I00
S'/admin/default/edit/Starcraft2/controllers/default.py'
tp4589
a(g4349
(S't\x04\x00\x00\x00View'
tRp4590
I00
S'/admin/default/edit/Starcraft2/views/default/index.html'
tp4591
a(g4349
(S't\x06\x00\x00\x00Layout'
tRp4592
I00
S'/admin/default/edit/Starcraft2/views/layout.html'
tp4593
a(g4349
(S't\n\x00\x00\x00Stylesheet'
tRp4594
I00
S'/admin/default/edit/Starcraft2/static/css/web2py.css'
tp4595
a(g4349
(S's\x08\x00\x00\x00DB Model'
tRp4596
I00
S'/admin/default/edit/Starcraft2/models/db.py'
tp4597
a(g4349
(S's\n\x00\x00\x00Menu Model'
tRp4598
I00
S'/admin/default/edit/Starcraft2/models/menu.py'
tp4599
a(g4349
(S't\x08\x00\x00\x00Database'
tRp4600
I00
S'/Starcraft2/appadmin/index'
tp4601
a(g4349
(S't\x06\x00\x00\x00Errors'
tRp4602
I00
S'/admin/default/errors/Starcraft2'
tp4603
a(g4349
(S't\x05\x00\x00\x00About'
tRp4604
I00
S'/admin/default/about/Starcraft2'
tp4605
aasbasbasbasbasbasbasbag69
(g85
g71
NtRp4606
(dp4607
g74
(dp4608
sg83
g4463
sg76
(lp4609
g69
(g90
g71
NtRp4610
(dp4611
g74
(dp4612
sg83
g4606
sg76
(lp4613
g69
(g70
g71
NtRp4614
(dp4615
g74
(dp4616
g82
I2
ssg83
g4610
sg76
(lp4617
g69
(g78
g71
NtRp4618
(dp4619
g74
(dp4620
g82
I1
ssg83
Nsg76
(lp4621
g69
(g85
g71
NtRp4622
(dp4623
g74
(dp4624
sg83
g4618
sg76
(lp4625
g69
(g90
g71
NtRp4626
(dp4627
g74
(dp4628
sg83
g4622
sg76
(lp4629
g69
(g70
g71
NtRp4630
(dp4631
g74
(dp4632
g82
I1
ssg83
g4626
sg76
(lp4633
S'web2py.com'
p4634
asbasbasbag69
(g85
g71
NtRp4635
(dp4636
g74
(dp4637
sg83
g4618
sg76
(lp4638
g69
(g90
g71
NtRp4639
(dp4640
g74
(dp4641
sg83
g4635
sg76
(lp4642
g69
(g70
g71
NtRp4643
(dp4644
g74
(dp4645
g82
I1
ssg83
g4639
sg76
(lp4646
I00
asbasbasbag69
(g85
g71
NtRp4647
(dp4648
g74
(dp4649
sg83
g4618
sg76
(lp4650
g69
(g90
g71
NtRp4651
(dp4652
g74
(dp4653
sg83
g4647
sg76
(lp4654
g69
(g70
g71
NtRp4655
(dp4656
g74
(dp4657
g82
I1
ssg83
g4651
sg76
(lp4658
S'http://www.web2py.com'
p4659
asbasbasbag69
(g85
g71
NtRp4660
(dp4661
g74
(dp4662
sg83
g4618
sg76
(lp4663
g69
(g90
g71
NtRp4664
(dp4665
g74
(dp4666
sg83
g4660
sg76
(lp4667
g69
(g70
g71
NtRp4668
(dp4669
g74
(dp4670
g82
I1
ssg83
g4664
sg76
(lp4671
(lp4672
(g4349
(S't\x08\x00\x00\x00Download'
tRp4673
I00
S'http://www.web2py.com/examples/default/download'
p4674
tp4675
a(g4349
(S't\x07\x00\x00\x00Support'
tRp4676
I00
S'http://www.web2py.com/examples/default/support'
p4677
tp4678
a(g4349
(S't\x04\x00\x00\x00Demo'
tRp4679
I00
S'http://web2py.com/demo_admin'
p4680
tp4681
a(g4349
(S's\x0e\x00\x00\x00Quick Examples'
tRp4682
I00
S'http://web2py.com/examples/default/examples'
p4683
tp4684
a(g4349
(S't\x03\x00\x00\x00FAQ'
tRp4685
I00
S'http://web2py.com/AlterEgo'
p4686
tp4687
a(g4349
(S't\x06\x00\x00\x00Videos'
tRp4688
I00
S'http://www.web2py.com/examples/default/videos/'
p4689
tp4690
a(g4349
(S's\x11\x00\x00\x00Free Applications'
tRp4691
I00
S'http://web2py.com/appliances'
p4692
tp4693
a(g4349
(S't\x07\x00\x00\x00Plugins'
tRp4694
I00
S'http://web2py.com/plugins'
p4695
tp4696
a(g4349
(S't\x07\x00\x00\x00Layouts'
tRp4697
I00
S'http://web2py.com/layouts'
p4698
tp4699
a(g4349
(S't\x07\x00\x00\x00Recipes'
tRp4700
I00
S'http://web2pyslices.com/'
p4701
tp4702
a(g4349
(S't\x08\x00\x00\x00Semantic'
tRp4703
I00
S'http://web2py.com/semantic'
p4704
tp4705
aasbasbasbasbasbasbasbag69
(g85
g71
NtRp4706
(dp4707
g74
(dp4708
sg83
g4463
sg76
(lp4709
g69
(g90
g71
NtRp4710
(dp4711
g74
(dp4712
sg83
g4706
sg76
(lp4713
g69
(g70
g71
NtRp4714
(dp4715
g74
(dp4716
g82
I2
ssg83
g4710
sg76
(lp4717
g69
(g78
g71
NtRp4718
(dp4719
g74
(dp4720
g82
I1
ssg83
Nsg76
(lp4721
g69
(g85
g71
NtRp4722
(dp4723
g74
(dp4724
sg83
g4718
sg76
(lp4725
g69
(g90
g71
NtRp4726
(dp4727
g74
(dp4728
sg83
g4722
sg76
(lp4729
g69
(g70
g71
NtRp4730
(dp4731
g74
(dp4732
g82
I1
ssg83
g4726
sg76
(lp4733
g4349
(S't\r\x00\x00\x00Documentation'
tRp4734
asbasbasbag69
(g85
g71
NtRp4735
(dp4736
g74
(dp4737
sg83
g4718
sg76
(lp4738
g69
(g90
g71
NtRp4739
(dp4740
g74
(dp4741
sg83
g4735
sg76
(lp4742
g69
(g70
g71
NtRp4743
(dp4744
g74
(dp4745
g82
I1
ssg83
g4739
sg76
(lp4746
I00
asbasbasbag69
(g85
g71
NtRp4747
(dp4748
g74
(dp4749
sg83
g4718
sg76
(lp4750
g69
(g90
g71
NtRp4751
(dp4752
g74
(dp4753
sg83
g4747
sg76
(lp4754
g69
(g70
g71
NtRp4755
(dp4756
g74
(dp4757
g82
I1
ssg83
g4751
sg76
(lp4758
S'http://www.web2py.com/book'
p4759
asbasbasbag69
(g85
g71
NtRp4760
(dp4761
g74
(dp4762
sg83
g4718
sg76
(lp4763
g69
(g90
g71
NtRp4764
(dp4765
g74
(dp4766
sg83
g4760
sg76
(lp4767
g69
(g70
g71
NtRp4768
(dp4769
g74
(dp4770
g82
I1
ssg83
g4764
sg76
(lp4771
(lp4772
(g4349
(S't\x07\x00\x00\x00Preface'
tRp4773
I00
S'http://www.web2py.com/book/default/chapter/00'
p4774
tp4775
a(g4349
(S't\x0c\x00\x00\x00Introduction'
tRp4776
I00
S'http://www.web2py.com/book/default/chapter/01'
p4777
tp4778
a(g4349
(S't\x06\x00\x00\x00Python'
tRp4779
I00
S'http://www.web2py.com/book/default/chapter/02'
p4780
tp4781
a(g4349
(S't\x08\x00\x00\x00Overview'
tRp4782
I00
S'http://www.web2py.com/book/default/chapter/03'
p4783
tp4784
a(g4349
(S's\x08\x00\x00\x00The Core'
tRp4785
I00
S'http://www.web2py.com/book/default/chapter/04'
p4786
tp4787
a(g4349
(S's\t\x00\x00\x00The Views'
tRp4788
I00
S'http://www.web2py.com/book/default/chapter/05'
p4789
tp4790
a(g4349
(S't\x08\x00\x00\x00Database'
tRp4791
I00
S'http://www.web2py.com/book/default/chapter/06'
p4792
tp4793
a(g4349
(S's\x14\x00\x00\x00Forms and Validators'
tRp4794
I00
S'http://www.web2py.com/book/default/chapter/07'
p4795
tp4796
a(g4349
(S's\r\x00\x00\x00Email and SMS'
tRp4797
I00
S'http://www.web2py.com/book/default/chapter/08'
p4798
tp4799
a(g4349
(S's\x0e\x00\x00\x00Access Control'
tRp4800
I00
S'http://www.web2py.com/book/default/chapter/09'
p4801
tp4802
a(g4349
(S't\x08\x00\x00\x00Services'
tRp4803
I00
S'http://www.web2py.com/book/default/chapter/10'
p4804
tp4805
a(g4349
(S's\x0c\x00\x00\x00Ajax Recipes'
tRp4806
I00
S'http://www.web2py.com/book/default/chapter/11'
p4807
tp4808
a(g4349
(S's\x16\x00\x00\x00Components and Plugins'
tRp4809
I00
S'http://www.web2py.com/book/default/chapter/12'
p4810
tp4811
a(g4349
(S's\x12\x00\x00\x00Deployment Recipes'
tRp4812
I00
S'http://www.web2py.com/book/default/chapter/13'
p4813
tp4814
a(g4349
(S's\r\x00\x00\x00Other Recipes'
tRp4815
I00
S'http://www.web2py.com/book/default/chapter/14'
p4816
tp4817
a(g4349
(S's\r\x00\x00\x00Buy this book'
tRp4818
I00
S'http://stores.lulu.com/web2py'
p4819
tp4820
aasbasbasbasbasbasbasbag69
(g85
g71
NtRp4821
(dp4822
g74
(dp4823
sg83
g4463
sg76
(lp4824
g69
(g90
g71
NtRp4825
(dp4826
g74
(dp4827
sg83
g4821
sg76
(lp4828
g69
(g70
g71
NtRp4829
(dp4830
g74
(dp4831
g82
I2
ssg83
g4825
sg76
(lp4832
g69
(g78
g71
NtRp4833
(dp4834
g74
(dp4835
g82
I1
ssg83
Nsg76
(lp4836
g69
(g85
g71
NtRp4837
(dp4838
g74
(dp4839
sg83
g4833
sg76
(lp4840
g69
(g90
g71
NtRp4841
(dp4842
g74
(dp4843
sg83
g4837
sg76
(lp4844
g69
(g70
g71
NtRp4845
(dp4846
g74
(dp4847
g82
I1
ssg83
g4841
sg76
(lp4848
g4349
(S't\t\x00\x00\x00Community'
tRp4849
asbasbasbag69
(g85
g71
NtRp4850
(dp4851
g74
(dp4852
sg83
g4833
sg76
(lp4853
g69
(g90
g71
NtRp4854
(dp4855
g74
(dp4856
sg83
g4850
sg76
(lp4857
g69
(g70
g71
NtRp4858
(dp4859
g74
(dp4860
g82
I1
ssg83
g4854
sg76
(lp4861
I00
asbasbasbag69
(g85
g71
NtRp4862
(dp4863
g74
(dp4864
sg83
g4833
sg76
(lp4865
g69
(g90
g71
NtRp4866
(dp4867
g74
(dp4868
sg83
g4862
sg76
(lp4869
g69
(g70
g71
NtRp4870
(dp4871
g74
(dp4872
g82
I1
ssg83
g4866
sg76
(lp4873
Nasbasbasbag69
(g85
g71
NtRp4874
(dp4875
g74
(dp4876
sg83
g4833
sg76
(lp4877
g69
(g90
g71
NtRp4878
(dp4879
g74
(dp4880
sg83
g4874
sg76
(lp4881
g69
(g70
g71
NtRp4882
(dp4883
g74
(dp4884
g82
I1
ssg83
g4878
sg76
(lp4885
(lp4886
(g4349
(S't\x06\x00\x00\x00Groups'
tRp4887
I00
S'http://www.web2py.com/examples/default/usergroups'
p4888
tp4889
a(g4349
(S't\x07\x00\x00\x00Twitter'
tRp4890
I00
S'http://twitter.com/web2py'
p4891
tp4892
a(g4349
(S's\t\x00\x00\x00Live Chat'
tRp4893
I00
S'http://webchat.freenode.net/?channels=web2py'
p4894
tp4895
aasbasbasbasbasbasbasbag69
(g85
g71
NtRp4896
(dp4897
g74
(dp4898
sg83
g4463
sg76
(lp4899
g69
(g90
g71
NtRp4900
(dp4901
g74
(dp4902
sg83
g4896
sg76
(lp4903
g69
(g70
g71
NtRp4904
(dp4905
g74
(dp4906
g82
I2
ssg83
g4900
sg76
(lp4907
g69
(g78
g71
NtRp4908
(dp4909
g74
(dp4910
g82
I1
ssg83
Nsg76
(lp4911
g69
(g85
g71
NtRp4912
(dp4913
g74
(dp4914
sg83
g4908
sg76
(lp4915
g69
(g90
g71
NtRp4916
(dp4917
g74
(dp4918
sg83
g4912
sg76
(lp4919
g69
(g70
g71
NtRp4920
(dp4921
g74
(dp4922
g82
I1
ssg83
g4916
sg76
(lp4923
g4349
(S't\x07\x00\x00\x00Plugins'
tRp4924
asbasbasbag69
(g85
g71
NtRp4925
(dp4926
g74
(dp4927
sg83
g4908
sg76
(lp4928
g69
(g90
g71
NtRp4929
(dp4930
g74
(dp4931
sg83
g4925
sg76
(lp4932
g69
(g70
g71
NtRp4933
(dp4934
g74
(dp4935
g82
I1
ssg83
g4929
sg76
(lp4936
I00
asbasbasbag69
(g85
g71
NtRp4937
(dp4938
g74
(dp4939
sg83
g4908
sg76
(lp4940
g69
(g90
g71
NtRp4941
(dp4942
g74
(dp4943
sg83
g4937
sg76
(lp4944
g69
(g70
g71
NtRp4945
(dp4946
g74
(dp4947
g82
I1
ssg83
g4941
sg76
(lp4948
Nasbasbasbag69
(g85
g71
NtRp4949
(dp4950
g74
(dp4951
sg83
g4908
sg76
(lp4952
g69
(g90
g71
NtRp4953
(dp4954
g74
(dp4955
sg83
g4949
sg76
(lp4956
g69
(g70
g71
NtRp4957
(dp4958
g74
(dp4959
g82
I1
ssg83
g4953
sg76
(lp4960
(lp4961
(S'plugin_wiki'
p4962
I00
S'http://web2py.com/examples/default/download'
p4963
tp4964
a(g4349
(S's\r\x00\x00\x00Other Plugins'
tRp4965
I00
g4695
tp4966
a(g4349
(S's\x0e\x00\x00\x00Layout Plugins'
tRp4967
I00
g4698
tp4968
aasbasbasbasbasbasbasbasbasbasbasbasbasbasbasbasbasbasbasbag69
(g85
g71
NtRp4969
(dp4970
g74
(dp4971
sg83
g3793
sg76
(lp4972
g69
(g90
g71
NtRp4973
(dp4974
g74
(dp4975
g94
g95
ssg83
g4969
sg76
(lp4976
S'meta'
p4977
asbag69
(g90
g71
NtRp4978
(dp4979
g74
(dp4980
g101
g102
ssg83
g4969
sg76
(lp4981
S':'
asbag69
(g90
g71
NtRp4982
(dp4983
g74
(dp4984
sg83
g4969
sg76
(lp4985
g69
(g70
g71
NtRp4986
(dp4987
g74
(dp4988
g82
I5
ssg83
g4982
sg76
(lp4989
g69
(g78
g71
NtRp4990
(dp4991
g74
(dp4992
g82
I4
ssg83
Nsg76
(lp4993
g69
(g85
g71
NtRp4994
(dp4995
g74
(dp4996
sg83
g4990
sg76
(lp4997
g69
(g90
g71
NtRp4998
(dp4999
g74
(dp5000
g94
g95
ssg83
g4994
sg76
(lp5001
S'author'
p5002
asbag69
(g90
g71
NtRp5003
(dp5004
g74
(dp5005
g101
g102
ssg83
g4994
sg76
(lp5006
S':'
asbag69
(g90
g71
NtRp5007
(dp5008
g74
(dp5009
sg83
g4994
sg76
(lp5010
g69
(g70
g71
NtRp5011
(dp5012
g74
(dp5013
g82
I4
ssg83
g5007
sg76
(lp5014
S'Your Name <you@example.com>'
p5015
asbasbasbag69
(g85
g71
NtRp5016
(dp5017
g74
(dp5018
sg83
g4990
sg76
(lp5019
g69
(g90
g71
NtRp5020
(dp5021
g74
(dp5022
g94
g95
ssg83
g5016
sg76
(lp5023
S'copyright'
p5024
asbag69
(g90
g71
NtRp5025
(dp5026
g74
(dp5027
g101
g102
ssg83
g5016
sg76
(lp5028
S':'
asbag69
(g90
g71
NtRp5029
(dp5030
g74
(dp5031
sg83
g5016
sg76
(lp5032
g69
(g70
g71
NtRp5033
(dp5034
g74
(dp5035
g82
I4
ssg83
g5029
sg76
(lp5036
S'Copyright 2011'
p5037
asbasbasbag69
(g85
g71
NtRp5038
(dp5039
g74
(dp5040
sg83
g4990
sg76
(lp5041
g69
(g90
g71
NtRp5042
(dp5043
g74
(dp5044
g94
g95
ssg83
g5038
sg76
(lp5045
S'description'
p5046
asbag69
(g90
g71
NtRp5047
(dp5048
g74
(dp5049
g101
g102
ssg83
g5038
sg76
(lp5050
S':'
asbag69
(g90
g71
NtRp5051
(dp5052
g74
(dp5053
sg83
g5038
sg76
(lp5054
g69
(g70
g71
NtRp5055
(dp5056
g74
(dp5057
g82
I4
ssg83
g5051
sg76
(lp5058
S'a cool new app'
p5059
asbasbasbag69
(g85
g71
NtRp5060
(dp5061
g74
(dp5062
sg83
g4990
sg76
(lp5063
g69
(g90
g71
NtRp5064
(dp5065
g74
(dp5066
g94
g95
ssg83
g5060
sg76
(lp5067
S'generator'
p5068
asbag69
(g90
g71
NtRp5069
(dp5070
g74
(dp5071
g101
g102
ssg83
g5060
sg76
(lp5072
S':'
asbag69
(g90
g71
NtRp5073
(dp5074
g74
(dp5075
sg83
g5060
sg76
(lp5076
g69
(g70
g71
NtRp5077
(dp5078
g74
(dp5079
g82
I4
ssg83
g5073
sg76
(lp5080
S'Web2py Web Framework'
p5081
asbasbasbag69
(g85
g71
NtRp5082
(dp5083
g74
(dp5084
sg83
g4990
sg76
(lp5085
g69
(g90
g71
NtRp5086
(dp5087
g74
(dp5088
g94
g95
ssg83
g5082
sg76
(lp5089
S'keywords'
p5090
asbag69
(g90
g71
NtRp5091
(dp5092
g74
(dp5093
g101
g102
ssg83
g5082
sg76
(lp5094
S':'
asbag69
(g90
g71
NtRp5095
(dp5096
g74
(dp5097
sg83
g5082
sg76
(lp5098
g69
(g70
g71
NtRp5099
(dp5100
g74
(dp5101
g82
I4
ssg83
g5095
sg76
(lp5102
S'web2py, python, framework'
p5103
asbasbasbasbasbasbasbag69
(g85
g71
NtRp5104
(dp5105
g74
(dp5106
sg83
g3793
sg76
(lp5107
g69
(g90
g71
NtRp5108
(dp5109
g74
(dp5110
g94
g95
ssg83
g5104
sg76
(lp5111
S'postprocessing'
p5112
asbag69
(g90
g71
NtRp5113
(dp5114
g74
(dp5115
g101
g102
ssg83
g5104
sg76
(lp5116
S':'
asbag69
(g90
g71
NtRp5117
(dp5118
g74
(dp5119
sg83
g5104
sg76
(lp5120
g69
(g70
g71
NtRp5121
(dp5122
g74
(dp5123
g82
I5
ssg83
g5117
sg76
(lp5124
g69
(g78
g71
NtRp5125
(dp5126
g74
(dp5127
g82
I4
ssg83
Nsg76
(lp5128
sbasbasbasbag69
(g85
g71
NtRp5129
(dp5130
g74
(dp5131
sg83
g3793
sg76
(lp5132
g69
(g90
g71
NtRp5133
(dp5134
g74
(dp5135
g94
g95
ssg83
g5129
sg76
(lp5136
S'session_file'
p5137
asbag69
(g90
g71
NtRp5138
(dp5139
g74
(dp5140
g101
g102
ssg83
g5129
sg76
(lp5141
S':'
asbag69
(g90
g71
NtRp5142
(dp5143
g74
(dp5144
sg83
g5129
sg76
(lp5145
g69
(g70
g71
NtRp5146
(dp5147
g74
(dp5148
g82
I5
ssg83
g5142
sg76
(lp5149
S"<open file '/Users/hainna01/Downloads/web2py/applications/Starcraft2/sessions/127.0.0.1-ab0c6fa2-79d9-46c1-ab68-7df9589f9e17', mode 'rb+' at 0x10bcb3f60>"
p5150
asbasbasbag69
(g85
g71
NtRp5151
(dp5152
g74
(dp5153
sg83
g3793
sg76
(lp5154
g69
(g90
g71
NtRp5155
(dp5156
g74
(dp5157
g94
g95
ssg83
g5151
sg76
(lp5158
S'session_filename'
p5159
asbag69
(g90
g71
NtRp5160
(dp5161
g74
(dp5162
g101
g102
ssg83
g5151
sg76
(lp5163
S':'
asbag69
(g90
g71
NtRp5164
(dp5165
g74
(dp5166
sg83
g5151
sg76
(lp5167
g69
(g70
g71
NtRp5168
(dp5169
g74
(dp5170
g82
I5
ssg83
g5164
sg76
(lp5171
S'/Users/hainna01/Downloads/web2py/applications/Starcraft2/sessions/127.0.0.1-ab0c6fa2-79d9-46c1-ab68-7df9589f9e17'
p5172
asbasbasbag69
(g85
g71
NtRp5173
(dp5174
g74
(dp5175
sg83
g3793
sg76
(lp5176
g69
(g90
g71
NtRp5177
(dp5178
g74
(dp5179
g94
g95
ssg83
g5173
sg76
(lp5180
S'session_id'
p5181
asbag69
(g90
g71
NtRp5182
(dp5183
g74
(dp5184
g101
g102
ssg83
g5173
sg76
(lp5185
S':'
asbag69
(g90
g71
NtRp5186
(dp5187
g74
(dp5188
sg83
g5173
sg76
(lp5189
g69
(g70
g71
NtRp5190
(dp5191
g74
(dp5192
g82
I5
ssg83
g5186
sg76
(lp5193
S'127.0.0.1-ab0c6fa2-79d9-46c1-ab68-7df9589f9e17'
p5194
asbasbasbag69
(g85
g71
NtRp5195
(dp5196
g74
(dp5197
sg83
g3793
sg76
(lp5198
g69
(g90
g71
NtRp5199
(dp5200
g74
(dp5201
g94
g95
ssg83
g5195
sg76
(lp5202
S'session_id_name'
p5203
asbag69
(g90
g71
NtRp5204
(dp5205
g74
(dp5206
g101
g102
ssg83
g5195
sg76
(lp5207
S':'
asbag69
(g90
g71
NtRp5208
(dp5209
g74
(dp5210
sg83
g5195
sg76
(lp5211
g69
(g70
g71
NtRp5212
(dp5213
g74
(dp5214
g82
I5
ssg83
g5208
sg76
(lp5215
g3850
asbasbasbag69
(g85
g71
NtRp5216
(dp5217
g74
(dp5218
sg83
g3793
sg76
(lp5219
g69
(g90
g71
NtRp5220
(dp5221
g74
(dp5222
g94
g95
ssg83
g5216
sg76
(lp5223
S'session_locked'
p5224
asbag69
(g90
g71
NtRp5225
(dp5226
g74
(dp5227
g101
g102
ssg83
g5216
sg76
(lp5228
S':'
asbag69
(g90
g71
NtRp5229
(dp5230
g74
(dp5231
sg83
g5216
sg76
(lp5232
g69
(g70
g71
NtRp5233
(dp5234
g74
(dp5235
g82
I5
ssg83
g5229
sg76
(lp5236
g1821
asbasbasbag69
(g85
g71
NtRp5237
(dp5238
g74
(dp5239
sg83
g3793
sg76
(lp5240
g69
(g90
g71
NtRp5241
(dp5242
g74
(dp5243
g94
g95
ssg83
g5237
sg76
(lp5244
S'session_new'
p5245
asbag69
(g90
g71
NtRp5246
(dp5247
g74
(dp5248
g101
g102
ssg83
g5237
sg76
(lp5249
S':'
asbag69
(g90
g71
NtRp5250
(dp5251
g74
(dp5252
sg83
g5237
sg76
(lp5253
g69
(g70
g71
NtRp5254
(dp5255
g74
(dp5256
g82
I5
ssg83
g5250
sg76
(lp5257
g112
asbasbasbag69
(g85
g71
NtRp5258
(dp5259
g74
(dp5260
sg83
g3793
sg76
(lp5261
g69
(g90
g71
NtRp5262
(dp5263
g74
(dp5264
g94
g95
ssg83
g5258
sg76
(lp5265
S'status'
p5266
asbag69
(g90
g71
NtRp5267
(dp5268
g74
(dp5269
g101
g102
ssg83
g5258
sg76
(lp5270
S':'
asbag69
(g90
g71
NtRp5271
(dp5272
g74
(dp5273
sg83
g5258
sg76
(lp5274
g69
(g70
g71
NtRp5275
(dp5276
g74
(dp5277
g82
I5
ssg83
g5271
sg76
(lp5278
S'200'
p5279
asbasbasbag69
(g85
g71
NtRp5280
(dp5281
g74
(dp5282
sg83
g3793
sg76
(lp5283
g69
(g90
g71
NtRp5284
(dp5285
g74
(dp5286
g94
g95
ssg83
g5280
sg76
(lp5287
S'subtitle'
p5288
asbag69
(g90
g71
NtRp5289
(dp5290
g74
(dp5291
g101
g102
ssg83
g5280
sg76
(lp5292
S':'
asbag69
(g90
g71
NtRp5293
(dp5294
g74
(dp5295
sg83
g5280
sg76
(lp5296
g69
(g70
g71
NtRp5297
(dp5298
g74
(dp5299
g82
I5
ssg83
g5293
sg76
(lp5300
g4349
(S's\r\x00\x00\x00customize me!'
tRp5301
asbasbasbag69
(g85
g71
NtRp5302
(dp5303
g74
(dp5304
sg83
g3793
sg76
(lp5305
g69
(g90
g71
NtRp5306
(dp5307
g74
(dp5308
g94
g95
ssg83
g5302
sg76
(lp5309
S'title'
p5310
asbag69
(g90
g71
NtRp5311
(dp5312
g74
(dp5313
g101
g102
ssg83
g5302
sg76
(lp5314
S':'
asbag69
(g90
g71
NtRp5315
(dp5316
g74
(dp5317
sg83
g5302
sg76
(lp5318
g69
(g70
g71
NtRp5319
(dp5320
g74
(dp5321
g82
I5
ssg83
g5315
sg76
(lp5322
S'Starcraft2'
p5323
asbasbasbag69
(g85
g71
NtRp5324
(dp5325
g74
(dp5326
sg83
g3793
sg76
(lp5327
g69
(g90
g71
NtRp5328
(dp5329
g74
(dp5330
g94
g95
ssg83
g5324
sg76
(lp5331
g2529
asbag69
(g90
g71
NtRp5332
(dp5333
g74
(dp5334
g101
g102
ssg83
g5324
sg76
(lp5335
S':'
asbag69
(g90
g71
NtRp5336
(dp5337
g74
(dp5338
sg83
g5324
sg76
(lp5339
g69
(g70
g71
NtRp5340
(dp5341
g74
(dp5342
g82
I5
ssg83
g5336
sg76
(lp5343
g2542
asbasbasbag69
(g85
g71
NtRp5344
(dp5345
g74
(dp5346
sg83
g3793
sg76
(lp5347
g69
(g90
g71
NtRp5348
(dp5349
g74
(dp5350
g94
g95
ssg83
g5344
sg76
(lp5351
S'view'
p5352
asbag69
(g90
g71
NtRp5353
(dp5354
g74
(dp5355
g101
g102
ssg83
g5344
sg76
(lp5356
S':'
asbag69
(g90
g71
NtRp5357
(dp5358
g74
(dp5359
sg83
g5344
sg76
(lp5360
g69
(g70
g71
NtRp5361
(dp5362
g74
(dp5363
g82
I5
ssg83
g5357
sg76
(lp5364
S'default/index.html'
p5365
asbasbasbasbasbsS'locals'
p5366
(dp5367
g4
S"'/Users/hainna01/Downloads/web2py/applications/Starcraft2/views/default/index.html'"
p5368
sg6
S'r"left_sidebar_enabled,right_sidebar_enabled=False...ponse.write(\'\\n</body>\\n</html>\\n\', escape=False)"'
p5369
sssS'traceback'
p5370
S'Traceback (most recent call last):\n  File "/Users/hainna01/Downloads/web2py/gluon/restricted.py", line 204, in restricted\n    ccode = compile2(code,layer)\n  File "/Users/hainna01/Downloads/web2py/gluon/restricted.py", line 189, in compile2\n    return compile(code.rstrip().replace(\'\\r\\n\',\'\\n\')+\'\\n\', layer, \'exec\')\n  File "/Users/hainna01/Downloads/web2py/applications/Starcraft2/views/default/index.html", line 99\n    print(=race)\n          ^\nSyntaxError: invalid syntax\n'
p5371
s.