(dp1
S'output'
p2
S"<type 'exceptions.SyntaxError'> keyword can't be an expression (mybuild.html, line 84)"
p3
sS'layer'
p4
S'/Users/hainna01/Downloads/web2py/applications/Starcraft2/views/default/mybuild.html'
p5
sS'code'
p6
S'response.write(\'<!DOCTYPE html>\\n<!-- paulirish.com/2008/conditional-stylesheets-vs-css-hacks-answer-neither/ -->\\n<!--[if lt IE 7]><html class="ie ie6 ie-lte9 ie-lte8 ie-lte7 no-js" lang="\', escape=False)\nresponse.write(T.accepted_language or \'en\')\nresponse.write(\'"> <![endif]-->\\n<!--[if IE 7]><html class="ie ie7 ie-lte9 ie-lte8 ie-lte7 no-js" lang="\', escape=False)\nresponse.write(T.accepted_language or \'en\')\nresponse.write(\'"> <![endif]-->\\n<!--[if IE 8]><html class="ie ie8 ie-lte9 ie-lte8 no-js" lang="\', escape=False)\nresponse.write(T.accepted_language or \'en\')\nresponse.write(\'"> <![endif]-->\\n<!--[if IE 9]><html class="ie9 ie-lte9 no-js" lang="\', escape=False)\nresponse.write(T.accepted_language or \'en\')\nresponse.write(\'"> <![endif]-->\\n<!--[if (gt IE 9)|!(IE)]><!--> <html class="no-js" lang="\', escape=False)\nresponse.write(T.accepted_language or \'en\')\nresponse.write(\'"> <!--<![endif]-->\\n<head>\\n  <meta charset="utf-8" />\\n  <!-- www.phpied.com/conditional-comments-block-downloads/ -->\\n  <!-- Always force latest IE rendering engine\\n\\t   (even in intranet) & Chrome Frame\\n\\t   Remove this if you use the .htaccess -->\\n  <!--[if IE]>\\n    <meta http-equiv="X-UA-Compatible" content="IE=edge\', escape=False)\nresponse.write(not request.is_local and \',chrome=1\' or \'\')\nresponse.write(\'">\\n  <![endif]-->\\n  \\n  <title>\', escape=False)\nresponse.write(response.title or request.application)\nresponse.write(\'</title>\\n  \\n  <!-- http://dev.w3.org/html5/markup/meta.name.html -->\\n  <meta name="application-name" content="\', escape=False)\nresponse.write(request.application)\nresponse.write(\'" />\\n  \\n  <!-- Speaking of Google, don\\\'t forget to set your site up:\\n\\t   http://google.com/webmasters -->\\n  <meta name="google-site-verification" content="" />\\n\\n  <!--  Mobile Viewport Fix\\n\\t  j.mp/mobileviewport & davidbcalhoun.com/2010/viewport-metatag\\n\\t  device-width: Occupy full width of the screen in its current orientation\\n\\t  initial-scale = 1.0 retains dimensions instead of zooming out if page height > device height\\n\\t  user-scalable = yes allows the user to zoom in -->\\n  <meta name="viewport" content="width=device-width, initial-scale=1.0, user-scalable=yes">\\n  \\n  <!-- Place favicon.ico and apple-touch-icon.png in the root of your domain and delete these references -->\\n  <link rel="shortcut icon" href="\', escape=False)\nresponse.write(URL(\'static\',\'favicon.ico\'))\nresponse.write(\'" type="image/x-icon">\\n  <link rel="apple-touch-icon" href="\', escape=False)\nresponse.write(URL(\'static\',\'favicon.png\'))\nresponse.write(\'">\\n\\n  <!-- All JavaScript at the bottom, except for Modernizr which enables \\n\\t   HTML5 elements & feature detects -->\\n  <script src="\', escape=False)\nresponse.write(URL(\'static\',\'js/modernizr.custom.js\'))\nresponse.write(\'"></script>  \\n\\n  <!-- include stylesheets -->\\n  \', escape=False)\nresponse.files.append(URL(\'static\',\'css/skeleton.css\'))\nresponse.files.append(URL(\'static\',\'css/web2py.css\'))\nif response.menu:\n    response.files.append(URL(\'static\',\'css/superfish.css\'))\n    response.files.append(URL(\'static\',\'js/superfish.js\'))\n    pass\nresponse.write(\'\\n\\n  \', escape=False)\nresponse.write(\'<script type="text/javascript"><!--\\n    // These variables are used by the web2py_ajax_init function in web2py_ajax.js (which is loaded below).\\n    var w2p_ajax_confirm_message = "\', escape=False)\nresponse.write(T(\'Are you sure you want to delete this object?\'))\nresponse.write(\'";\\n    var w2p_ajax_date_format = "\', escape=False)\nresponse.write(T(\'%Y-%m-%d\'))\nresponse.write(\'";\\n    var w2p_ajax_datetime_format = "\', escape=False)\nresponse.write(T(\'%Y-%m-%d %H:%M:%S\'))\nresponse.write(\'";\\n    //--></script>\\n\', escape=False)\nresponse.files.insert(0,URL(\'static\',\'js/jquery.js\'))\nresponse.files.insert(1,URL(\'static\',\'css/calendar.css\'))\nresponse.files.insert(2,URL(\'static\',\'js/calendar.js\'))\nresponse.files.insert(3,URL(\'static\',\'js/web2py.js\'))\nresponse.include_meta()\nresponse.include_files()\nresponse.write(\'\\n\', escape=False)\nresponse.write(\'\\n\\n  \', escape=False)\nif response.menu:\n    response.write(\'\\n  <script type="text/javascript">\\n    jQuery(function(){ jQuery(\\\'ul.sf-menu\\\').supersubs({minWidth:12,maxWidth:30,extraWidth:3}).superfish(); });\\n  </script>\\n  \', escape=False)\n    pass\nresponse.write(\'\\n\\n  \', escape=False)\n# using sidebars need to know what sidebar you want to use\nleft_sidebar_enabled = globals().get(\'left_sidebar_enabled\',False)\nright_sidebar_enabled = globals().get(\'right_sidebar_enabled\',False)\nmiddle_columns = {0:\'sixteen\',1:\'twelve\',2:\'eight\'}[\n(left_sidebar_enabled and 1 or 0)+(right_sidebar_enabled and 1 or 0)]\nresponse.write(\'\\n\\n  <!-- uncomment here to load jquery-ui\\n  <link rel="stylesheet" href="http://ajax.googleapis.com/ajax/libs/jqueryui/1.8.16/themes/base/jquery-ui.css" type="text/css" media="all" />\\n  <script src="http://ajax.googleapis.com/ajax/libs/jqueryui/1.8.16/jquery-ui.min.js" type="text/javascript"></script>\\n  uncomment to load jquery-ui //-->\\n</head>\\n<body>\\n  <div class="wrapper"><!-- for sticky footer -->\\n  \\n    <div class="topbar">\\n      <div class="container">    \\n        <div class="sixteen columns">\\n          <div id="navbar">\', escape=False)\nresponse.write(\'auth\' in globals() and auth.navbar(separators=(\' \',\' | \',\'\')))\nresponse.write(\'</div>\\n          \', escape=False)\nis_mobile=request.user_agent().is_mobile\nresponse.write(\'\\n\\t  \', escape=False)\nif response.menu:\n    response.write(\'\\n          <div id="menu">\\n             \', escape=False)\n    response.write(MENU(response.menu, _class=\'mobile-menu\' if is_mobile else \'sf-menu\',mobile=is_mobile))\n    response.write(\'\\n          </div>\\n          \', escape=False)\n    pass\nresponse.write(\'\\n        </div>\\n      </div>\\n    </div><!-- topbar -->\\n    \\n    <div class="flash">\', escape=False)\nresponse.write(response.flash or \'\')\nresponse.write(\'</div>\\n    \\n    <div class="header">\\n      <div class="container">         \\n        <div class="sixteen columns">\\n          <h1 class="remove-bottom" style="margin-top: .5em;">\\n          \', escape=False)\nresponse.write(response.title or request.application)\nresponse.write(\'\\n          </h1>\\n          <h5>Custom Build Interface</h5>\\n        </div>\\n        <div class="sixteen columns">\\n          \\n        </div>\\n      </div>\\n    </div>\\n\\n    <div class="main">\\n      <div class="container">                 \\n        \', escape=False)\nif left_sidebar_enabled:\n    response.write(\'\\n        <div class="four columns left-sidebar">\\n          \', escape=False)\n    response.write(\'\\n          <h3>Left Sidebar</h3>\\n          <p></p>\\n          \', escape=False)\n    response.write(\'\\n        </div>\\n        \', escape=False)\n    pass\nresponse.write(\'\\n        \\n        <div class="\', escape=False)\nresponse.write(middle_columns)\nresponse.write(\' columns center">\\n          \', escape=False)\nresponse.write(\'\\n          \', escape=False)\nresponse.write("\\n\\n\\n\\n<table id=\'unittable\' border=\'1\'>\\n", escape=False)\nfor index in range(len(buildUnits)):\n    response.write(\'\\n\', escape=False)\n    for index2 in range(len(buildUnits[index])):\n        response.write(\'\\n<tr>\\n<td><img src=\', escape=False)\n        response.write(T(db(db.Unit.name=buildUnits[index][index2]).select().link))\n        response.write(\'></td>\\n<td><p>\', escape=False)\n        response.write(T(buildUnits[index][index2]))\n        response.write(\'</p></td>\\n<td>\', escape=False)\n        response.write(T(buildSupplies[index][index2]))\n        response.write(\'</td>\\n\\t\\n\\t\\n</tr>\\n\', escape=False)\n        pass\n    response.write(\'\\n\', escape=False)\n    pass\nresponse.write(\'\\n</table>\', escape=False)\nresponse.write(\'\\n          \', escape=False)\nresponse.write(\'\\n        </div>\\n        \\n        \', escape=False)\nif right_sidebar_enabled:\n    response.write(\'\\n        <div class="four columns">\\n          \', escape=False)\n    response.write(\'\\n          <h3>Right Sidebar</h3>\\n          <p></p>\\n          \', escape=False)\n    response.write(\'\\n        </div>    \\n        \', escape=False)\n    pass\nresponse.write(\'\\n        \\n      </div><!-- container -->\\n    </div><!-- main -->\\n    \\n    <div class="push"></div>\\n  </div><!-- wrapper -->\\n\\n  <div class="footer">\\n    <div class="container">    \\n      <div class="sixteen columns">\\n        \', escape=False)\nresponse.write(\' <!-- this is default footer -->\\n        <div class="footer-content clearfix">\\n          <div class="copyright">\', escape=False)\nresponse.write(T(\'Copyright\'))\nresponse.write(\' &#169; 2011</div>\\n          <div style="float: right;">\\n            <a href="http://www.web2py.com/">\\n            <img style="padding-bottom: 0;" src="\', escape=False)\nresponse.write(URL(\'static\',\'images/poweredby.png\'))\nresponse.write(\'"/>\\n            </a>\\n          </div>\\n        </div>\\n        \', escape=False)\nresponse.write(\'\\t\\n      </div>\\n    </div><!-- container -->\\n  </div><!-- footer -->\\n  \\n  <!--[if lt IE 7 ]>\\n\\t<script src="\', escape=False)\nresponse.write(URL(\'static\',\'js/dd_belatedpng.js\'))\nresponse.write(\'"></script>\\n\\t<script> DD_belatedPNG.fix(\\\'img, .png_bg\\\'); //fix any <img> or .png_bg background-images </script>\\n\\t<![endif]-->\\n  \', escape=False)\nif response.google_analytics_id:\n    response.write(\'<script type="text/javascript"> var _gaq = _gaq || []; _gaq.push([\\\'_setAccount\\\', \\\'\', escape=False)\n    response.write(response.google_analytics_id)\n    response.write("\']); _gaq.push([\'_trackPageview\']); (function() { var ga = document.createElement(\'script\'); ga.type = \'text/javascript\'; ga.async = true; ga.src = (\'https:\' == document.location.protocol ? \'https://ssl\' : \'http://www\') + \'.google-analytics.com/ga.js\'; var s = document.getElementsByTagName(\'script\')[0]; s.parentNode.insertBefore(ga, s); })(); </script> ", escape=False)\n    pass\nresponse.write(\'\\n</body>\\n</html>\\n\', escape=False)'
p7
sS'snapshot'
p8
(dp9
S'exception'
p10
(dp11
S'__getslice__'
p12
S"<method-wrapper '__getslice__' of exceptions.SyntaxError object>"
p13
sS'text'
p14
S"''"
p15
sS'__str__'
p16
S"<method-wrapper '__str__' of exceptions.SyntaxError object>"
p17
sS'__reduce__'
p18
S'<built-in method __reduce__ of exceptions.SyntaxError object>'
p19
sS'__dict__'
p20
S'{}'
p21
sS'__sizeof__'
p22
S'<built-in method __sizeof__ of exceptions.SyntaxError object>'
p23
sS'__init__'
p24
S"<method-wrapper '__init__' of exceptions.SyntaxError object>"
p25
sS'__setattr__'
p26
S"<method-wrapper '__setattr__' of exceptions.SyntaxError object>"
p27
sS'__reduce_ex__'
p28
S'<built-in method __reduce_ex__ of exceptions.SyntaxError object>'
p29
sS'__new__'
p30
S'<built-in method __new__ of type object>'
p31
sS'__format__'
p32
S'<built-in method __format__ of exceptions.SyntaxError object>'
p33
sS'__class__'
p34
S"<type 'exceptions.SyntaxError'>"
p35
sS'filename'
p36
S"'/Users/hainna01/Downloads/web2py/applications/Starcraft2/views/default/mybuild.html'"
p37
sS'lineno'
p38
S'84'
p39
sS'msg'
p40
S'"keyword can\'t be an expression"'
p41
sS'__doc__'
p42
S"'Invalid syntax.'"
p43
sS'__getitem__'
p44
S"<method-wrapper '__getitem__' of exceptions.SyntaxError object>"
p45
sS'__setstate__'
p46
S'<built-in method __setstate__ of exceptions.SyntaxError object>'
p47
sS'__getattribute__'
p48
S"<method-wrapper '__getattribute__' of exceptions.SyntaxError object>"
p49
sS'print_file_and_line'
p50
S'None'
p51
sS'args'
p52
S'("keyword can\'t be an expression", (\'/Users/hainna01/Downloads/web2py/applications/Starcraft2/views/default/mybuild.html\', 84, None, \'\'))'
p53
sS'__subclasshook__'
p54
S'<built-in method __subclasshook__ of type object>'
p55
sS'offset'
p56
S'None'
p57
sS'__unicode__'
p58
S'<built-in method __unicode__ of exceptions.SyntaxError object>'
p59
sS'__delattr__'
p60
S"<method-wrapper '__delattr__' of exceptions.SyntaxError object>"
p61
sS'__repr__'
p62
S"<method-wrapper '__repr__' of exceptions.SyntaxError object>"
p63
sS'__hash__'
p64
S"<method-wrapper '__hash__' of exceptions.SyntaxError object>"
p65
ssS'evalue'
p66
S"keyword can't be an expression (mybuild.html, line 84)"
p67
sS'request'
p68
ccopy_reg
_reconstructor
p69
(cgluon.html
BEAUTIFY
p70
c__builtin__
object
p71
NtRp72
(dp73
S'attributes'
p74
(dp75
sS'components'
p76
(lp77
g69
(cgluon.html
TABLE
p78
g71
NtRp79
(dp80
g74
(dp81
S'level'
p82
I5
ssS'parent'
p83
Nsg76
(lp84
g69
(cgluon.html
TR
p85
g71
NtRp86
(dp87
g74
(dp88
sg83
g79
sg76
(lp89
g69
(cgluon.html
TD
p90
g71
NtRp91
(dp92
g74
(dp93
S'_style'
p94
S'font-weight:bold;vertical-align:top'
p95
ssg83
g86
sg76
(lp96
S'ajax'
p97
asbag69
(g90
g71
NtRp98
(dp99
g74
(dp100
S'_valign'
p101
S'top'
p102
ssg83
g86
sg76
(lp103
S':'
asbag69
(g90
g71
NtRp104
(dp105
g74
(dp106
sg83
g86
sg76
(lp107
g69
(g70
g71
NtRp108
(dp109
g74
(dp110
g82
I5
ssg83
g104
sg76
(lp111
S'False'
p112
asbasbasbag69
(g85
g71
NtRp113
(dp114
g74
(dp115
sg83
g79
sg76
(lp116
g69
(g90
g71
NtRp117
(dp118
g74
(dp119
g94
g95
ssg83
g113
sg76
(lp120
S'application'
p121
asbag69
(g90
g71
NtRp122
(dp123
g74
(dp124
g101
g102
ssg83
g113
sg76
(lp125
S':'
asbag69
(g90
g71
NtRp126
(dp127
g74
(dp128
sg83
g113
sg76
(lp129
g69
(g70
g71
NtRp130
(dp131
g74
(dp132
g82
I5
ssg83
g126
sg76
(lp133
S'Starcraft2'
p134
asbasbasbag69
(g85
g71
NtRp135
(dp136
g74
(dp137
sg83
g79
sg76
(lp138
g69
(g90
g71
NtRp139
(dp140
g74
(dp141
g94
g95
ssg83
g135
sg76
(lp142
g52
asbag69
(g90
g71
NtRp143
(dp144
g74
(dp145
g101
g102
ssg83
g135
sg76
(lp146
S':'
asbag69
(g90
g71
NtRp147
(dp148
g74
(dp149
sg83
g135
sg76
(lp150
g69
(g70
g71
NtRp151
(dp152
g74
(dp153
g82
I5
ssg83
g147
sg76
(lp154
g69
(g78
g71
NtRp155
(dp156
g74
(dp157
g82
I4
ssg83
Nsg76
(lp158
sbasbasbasbag69
(g85
g71
NtRp159
(dp160
g74
(dp161
sg83
g79
sg76
(lp162
g69
(g90
g71
NtRp163
(dp164
g74
(dp165
g94
g95
ssg83
g159
sg76
(lp166
S'body'
p167
asbag69
(g90
g71
NtRp168
(dp169
g74
(dp170
g101
g102
ssg83
g159
sg76
(lp171
S':'
asbag69
(g90
g71
NtRp172
(dp173
g74
(dp174
sg83
g159
sg76
(lp175
g69
(g70
g71
NtRp176
(dp177
g74
(dp178
g82
I5
ssg83
g172
sg76
(lp179
S'<cStringIO.StringO object at 0x1019c9458>'
p180
asbasbasbag69
(g85
g71
NtRp181
(dp182
g74
(dp183
sg83
g79
sg76
(lp184
g69
(g90
g71
NtRp185
(dp186
g74
(dp187
g94
g95
ssg83
g181
sg76
(lp188
S'client'
p189
asbag69
(g90
g71
NtRp190
(dp191
g74
(dp192
g101
g102
ssg83
g181
sg76
(lp193
S':'
asbag69
(g90
g71
NtRp194
(dp195
g74
(dp196
sg83
g181
sg76
(lp197
g69
(g70
g71
NtRp198
(dp199
g74
(dp200
g82
I5
ssg83
g194
sg76
(lp201
S'127.0.0.1'
p202
asbasbasbag69
(g85
g71
NtRp203
(dp204
g74
(dp205
sg83
g79
sg76
(lp206
g69
(g90
g71
NtRp207
(dp208
g74
(dp209
g94
g95
ssg83
g203
sg76
(lp210
S'controller'
p211
asbag69
(g90
g71
NtRp212
(dp213
g74
(dp214
g101
g102
ssg83
g203
sg76
(lp215
S':'
asbag69
(g90
g71
NtRp216
(dp217
g74
(dp218
sg83
g203
sg76
(lp219
g69
(g70
g71
NtRp220
(dp221
g74
(dp222
g82
I5
ssg83
g216
sg76
(lp223
S'default'
p224
asbasbasbag69
(g85
g71
NtRp225
(dp226
g74
(dp227
sg83
g79
sg76
(lp228
g69
(g90
g71
NtRp229
(dp230
g74
(dp231
g94
g95
ssg83
g225
sg76
(lp232
S'cookies'
p233
asbag69
(g90
g71
NtRp234
(dp235
g74
(dp236
g101
g102
ssg83
g225
sg76
(lp237
S':'
asbag69
(g90
g71
NtRp238
(dp239
g74
(dp240
sg83
g225
sg76
(lp241
g69
(g70
g71
NtRp242
(dp243
g74
(dp244
g82
I5
ssg83
g238
sg76
(lp245
g69
(g78
g71
NtRp246
(dp247
g74
(dp248
g82
I4
ssg83
Nsg76
(lp249
g69
(g85
g71
NtRp250
(dp251
g74
(dp252
sg83
g246
sg76
(lp253
g69
(g90
g71
NtRp254
(dp255
g74
(dp256
g94
g95
ssg83
g250
sg76
(lp257
S'session_id_admin'
p258
asbag69
(g90
g71
NtRp259
(dp260
g74
(dp261
g101
g102
ssg83
g250
sg76
(lp262
S':'
asbag69
(g90
g71
NtRp263
(dp264
g74
(dp265
sg83
g250
sg76
(lp266
g69
(g70
g71
NtRp267
(dp268
g74
(dp269
g82
I4
ssg83
g263
sg76
(lp270
g69
(g78
g71
NtRp271
(dp272
g74
(dp273
g82
I3
ssg83
Nsg76
(lp274
g69
(g85
g71
NtRp275
(dp276
g74
(dp277
sg83
g271
sg76
(lp278
g69
(g90
g71
NtRp279
(dp280
g74
(dp281
g94
g95
ssg83
g275
sg76
(lp282
S'comment'
p283
asbag69
(g90
g71
NtRp284
(dp285
g74
(dp286
g101
g102
ssg83
g275
sg76
(lp287
S':'
asbag69
(g90
g71
NtRp288
(dp289
g74
(dp290
sg83
g275
sg76
(lp291
g69
(g70
g71
NtRp292
(dp293
g74
(dp294
g82
I3
ssg83
g288
sg76
(lp295
S''
asbasbasbag69
(g85
g71
NtRp296
(dp297
g74
(dp298
sg83
g271
sg76
(lp299
g69
(g90
g71
NtRp300
(dp301
g74
(dp302
g94
g95
ssg83
g296
sg76
(lp303
S'domain'
p304
asbag69
(g90
g71
NtRp305
(dp306
g74
(dp307
g101
g102
ssg83
g296
sg76
(lp308
S':'
asbag69
(g90
g71
NtRp309
(dp310
g74
(dp311
sg83
g296
sg76
(lp312
g69
(g70
g71
NtRp313
(dp314
g74
(dp315
g82
I3
ssg83
g309
sg76
(lp316
S''
asbasbasbag69
(g85
g71
NtRp317
(dp318
g74
(dp319
sg83
g271
sg76
(lp320
g69
(g90
g71
NtRp321
(dp322
g74
(dp323
g94
g95
ssg83
g317
sg76
(lp324
S'expires'
p325
asbag69
(g90
g71
NtRp326
(dp327
g74
(dp328
g101
g102
ssg83
g317
sg76
(lp329
S':'
asbag69
(g90
g71
NtRp330
(dp331
g74
(dp332
sg83
g317
sg76
(lp333
g69
(g70
g71
NtRp334
(dp335
g74
(dp336
g82
I3
ssg83
g330
sg76
(lp337
S''
asbasbasbag69
(g85
g71
NtRp338
(dp339
g74
(dp340
sg83
g271
sg76
(lp341
g69
(g90
g71
NtRp342
(dp343
g74
(dp344
g94
g95
ssg83
g338
sg76
(lp345
S'httponly'
p346
asbag69
(g90
g71
NtRp347
(dp348
g74
(dp349
g101
g102
ssg83
g338
sg76
(lp350
S':'
asbag69
(g90
g71
NtRp351
(dp352
g74
(dp353
sg83
g338
sg76
(lp354
g69
(g70
g71
NtRp355
(dp356
g74
(dp357
g82
I3
ssg83
g351
sg76
(lp358
S''
asbasbasbag69
(g85
g71
NtRp359
(dp360
g74
(dp361
sg83
g271
sg76
(lp362
g69
(g90
g71
NtRp363
(dp364
g74
(dp365
g94
g95
ssg83
g359
sg76
(lp366
S'max-age'
p367
asbag69
(g90
g71
NtRp368
(dp369
g74
(dp370
g101
g102
ssg83
g359
sg76
(lp371
S':'
asbag69
(g90
g71
NtRp372
(dp373
g74
(dp374
sg83
g359
sg76
(lp375
g69
(g70
g71
NtRp376
(dp377
g74
(dp378
g82
I3
ssg83
g372
sg76
(lp379
S''
asbasbasbag69
(g85
g71
NtRp380
(dp381
g74
(dp382
sg83
g271
sg76
(lp383
g69
(g90
g71
NtRp384
(dp385
g74
(dp386
g94
g95
ssg83
g380
sg76
(lp387
S'path'
p388
asbag69
(g90
g71
NtRp389
(dp390
g74
(dp391
g101
g102
ssg83
g380
sg76
(lp392
S':'
asbag69
(g90
g71
NtRp393
(dp394
g74
(dp395
sg83
g380
sg76
(lp396
g69
(g70
g71
NtRp397
(dp398
g74
(dp399
g82
I3
ssg83
g393
sg76
(lp400
S''
asbasbasbag69
(g85
g71
NtRp401
(dp402
g74
(dp403
sg83
g271
sg76
(lp404
g69
(g90
g71
NtRp405
(dp406
g74
(dp407
g94
g95
ssg83
g401
sg76
(lp408
S'secure'
p409
asbag69
(g90
g71
NtRp410
(dp411
g74
(dp412
g101
g102
ssg83
g401
sg76
(lp413
S':'
asbag69
(g90
g71
NtRp414
(dp415
g74
(dp416
sg83
g401
sg76
(lp417
g69
(g70
g71
NtRp418
(dp419
g74
(dp420
g82
I3
ssg83
g414
sg76
(lp421
S''
asbasbasbag69
(g85
g71
NtRp422
(dp423
g74
(dp424
sg83
g271
sg76
(lp425
g69
(g90
g71
NtRp426
(dp427
g74
(dp428
g94
g95
ssg83
g422
sg76
(lp429
S'version'
p430
asbag69
(g90
g71
NtRp431
(dp432
g74
(dp433
g101
g102
ssg83
g422
sg76
(lp434
S':'
asbag69
(g90
g71
NtRp435
(dp436
g74
(dp437
sg83
g422
sg76
(lp438
g69
(g70
g71
NtRp439
(dp440
g74
(dp441
g82
I3
ssg83
g435
sg76
(lp442
S''
asbasbasbasbasbasbasbag69
(g85
g71
NtRp443
(dp444
g74
(dp445
sg83
g246
sg76
(lp446
g69
(g90
g71
NtRp447
(dp448
g74
(dp449
g94
g95
ssg83
g443
sg76
(lp450
S'session_id_starcraft2'
p451
asbag69
(g90
g71
NtRp452
(dp453
g74
(dp454
g101
g102
ssg83
g443
sg76
(lp455
S':'
asbag69
(g90
g71
NtRp456
(dp457
g74
(dp458
sg83
g443
sg76
(lp459
g69
(g70
g71
NtRp460
(dp461
g74
(dp462
g82
I4
ssg83
g456
sg76
(lp463
g69
(g78
g71
NtRp464
(dp465
g74
(dp466
g82
I3
ssg83
Nsg76
(lp467
g69
(g85
g71
NtRp468
(dp469
g74
(dp470
sg83
g464
sg76
(lp471
g69
(g90
g71
NtRp472
(dp473
g74
(dp474
g94
g95
ssg83
g468
sg76
(lp475
g283
asbag69
(g90
g71
NtRp476
(dp477
g74
(dp478
g101
g102
ssg83
g468
sg76
(lp479
S':'
asbag69
(g90
g71
NtRp480
(dp481
g74
(dp482
sg83
g468
sg76
(lp483
g69
(g70
g71
NtRp484
(dp485
g74
(dp486
g82
I3
ssg83
g480
sg76
(lp487
S''
asbasbasbag69
(g85
g71
NtRp488
(dp489
g74
(dp490
sg83
g464
sg76
(lp491
g69
(g90
g71
NtRp492
(dp493
g74
(dp494
g94
g95
ssg83
g488
sg76
(lp495
g304
asbag69
(g90
g71
NtRp496
(dp497
g74
(dp498
g101
g102
ssg83
g488
sg76
(lp499
S':'
asbag69
(g90
g71
NtRp500
(dp501
g74
(dp502
sg83
g488
sg76
(lp503
g69
(g70
g71
NtRp504
(dp505
g74
(dp506
g82
I3
ssg83
g500
sg76
(lp507
S''
asbasbasbag69
(g85
g71
NtRp508
(dp509
g74
(dp510
sg83
g464
sg76
(lp511
g69
(g90
g71
NtRp512
(dp513
g74
(dp514
g94
g95
ssg83
g508
sg76
(lp515
g325
asbag69
(g90
g71
NtRp516
(dp517
g74
(dp518
g101
g102
ssg83
g508
sg76
(lp519
S':'
asbag69
(g90
g71
NtRp520
(dp521
g74
(dp522
sg83
g508
sg76
(lp523
g69
(g70
g71
NtRp524
(dp525
g74
(dp526
g82
I3
ssg83
g520
sg76
(lp527
S''
asbasbasbag69
(g85
g71
NtRp528
(dp529
g74
(dp530
sg83
g464
sg76
(lp531
g69
(g90
g71
NtRp532
(dp533
g74
(dp534
g94
g95
ssg83
g528
sg76
(lp535
g346
asbag69
(g90
g71
NtRp536
(dp537
g74
(dp538
g101
g102
ssg83
g528
sg76
(lp539
S':'
asbag69
(g90
g71
NtRp540
(dp541
g74
(dp542
sg83
g528
sg76
(lp543
g69
(g70
g71
NtRp544
(dp545
g74
(dp546
g82
I3
ssg83
g540
sg76
(lp547
S''
asbasbasbag69
(g85
g71
NtRp548
(dp549
g74
(dp550
sg83
g464
sg76
(lp551
g69
(g90
g71
NtRp552
(dp553
g74
(dp554
g94
g95
ssg83
g548
sg76
(lp555
g367
asbag69
(g90
g71
NtRp556
(dp557
g74
(dp558
g101
g102
ssg83
g548
sg76
(lp559
S':'
asbag69
(g90
g71
NtRp560
(dp561
g74
(dp562
sg83
g548
sg76
(lp563
g69
(g70
g71
NtRp564
(dp565
g74
(dp566
g82
I3
ssg83
g560
sg76
(lp567
S''
asbasbasbag69
(g85
g71
NtRp568
(dp569
g74
(dp570
sg83
g464
sg76
(lp571
g69
(g90
g71
NtRp572
(dp573
g74
(dp574
g94
g95
ssg83
g568
sg76
(lp575
g388
asbag69
(g90
g71
NtRp576
(dp577
g74
(dp578
g101
g102
ssg83
g568
sg76
(lp579
S':'
asbag69
(g90
g71
NtRp580
(dp581
g74
(dp582
sg83
g568
sg76
(lp583
g69
(g70
g71
NtRp584
(dp585
g74
(dp586
g82
I3
ssg83
g580
sg76
(lp587
S''
asbasbasbag69
(g85
g71
NtRp588
(dp589
g74
(dp590
sg83
g464
sg76
(lp591
g69
(g90
g71
NtRp592
(dp593
g74
(dp594
g94
g95
ssg83
g588
sg76
(lp595
g409
asbag69
(g90
g71
NtRp596
(dp597
g74
(dp598
g101
g102
ssg83
g588
sg76
(lp599
S':'
asbag69
(g90
g71
NtRp600
(dp601
g74
(dp602
sg83
g588
sg76
(lp603
g69
(g70
g71
NtRp604
(dp605
g74
(dp606
g82
I3
ssg83
g600
sg76
(lp607
S''
asbasbasbag69
(g85
g71
NtRp608
(dp609
g74
(dp610
sg83
g464
sg76
(lp611
g69
(g90
g71
NtRp612
(dp613
g74
(dp614
g94
g95
ssg83
g608
sg76
(lp615
g430
asbag69
(g90
g71
NtRp616
(dp617
g74
(dp618
g101
g102
ssg83
g608
sg76
(lp619
S':'
asbag69
(g90
g71
NtRp620
(dp621
g74
(dp622
sg83
g608
sg76
(lp623
g69
(g70
g71
NtRp624
(dp625
g74
(dp626
g82
I3
ssg83
g620
sg76
(lp627
S''
asbasbasbasbasbasbasbag69
(g85
g71
NtRp628
(dp629
g74
(dp630
sg83
g246
sg76
(lp631
g69
(g90
g71
NtRp632
(dp633
g74
(dp634
g94
g95
ssg83
g628
sg76
(lp635
S'session_id_welcome'
p636
asbag69
(g90
g71
NtRp637
(dp638
g74
(dp639
g101
g102
ssg83
g628
sg76
(lp640
S':'
asbag69
(g90
g71
NtRp641
(dp642
g74
(dp643
sg83
g628
sg76
(lp644
g69
(g70
g71
NtRp645
(dp646
g74
(dp647
g82
I4
ssg83
g641
sg76
(lp648
g69
(g78
g71
NtRp649
(dp650
g74
(dp651
g82
I3
ssg83
Nsg76
(lp652
g69
(g85
g71
NtRp653
(dp654
g74
(dp655
sg83
g649
sg76
(lp656
g69
(g90
g71
NtRp657
(dp658
g74
(dp659
g94
g95
ssg83
g653
sg76
(lp660
g283
asbag69
(g90
g71
NtRp661
(dp662
g74
(dp663
g101
g102
ssg83
g653
sg76
(lp664
S':'
asbag69
(g90
g71
NtRp665
(dp666
g74
(dp667
sg83
g653
sg76
(lp668
g69
(g70
g71
NtRp669
(dp670
g74
(dp671
g82
I3
ssg83
g665
sg76
(lp672
S''
asbasbasbag69
(g85
g71
NtRp673
(dp674
g74
(dp675
sg83
g649
sg76
(lp676
g69
(g90
g71
NtRp677
(dp678
g74
(dp679
g94
g95
ssg83
g673
sg76
(lp680
g304
asbag69
(g90
g71
NtRp681
(dp682
g74
(dp683
g101
g102
ssg83
g673
sg76
(lp684
S':'
asbag69
(g90
g71
NtRp685
(dp686
g74
(dp687
sg83
g673
sg76
(lp688
g69
(g70
g71
NtRp689
(dp690
g74
(dp691
g82
I3
ssg83
g685
sg76
(lp692
S''
asbasbasbag69
(g85
g71
NtRp693
(dp694
g74
(dp695
sg83
g649
sg76
(lp696
g69
(g90
g71
NtRp697
(dp698
g74
(dp699
g94
g95
ssg83
g693
sg76
(lp700
g325
asbag69
(g90
g71
NtRp701
(dp702
g74
(dp703
g101
g102
ssg83
g693
sg76
(lp704
S':'
asbag69
(g90
g71
NtRp705
(dp706
g74
(dp707
sg83
g693
sg76
(lp708
g69
(g70
g71
NtRp709
(dp710
g74
(dp711
g82
I3
ssg83
g705
sg76
(lp712
S''
asbasbasbag69
(g85
g71
NtRp713
(dp714
g74
(dp715
sg83
g649
sg76
(lp716
g69
(g90
g71
NtRp717
(dp718
g74
(dp719
g94
g95
ssg83
g713
sg76
(lp720
g346
asbag69
(g90
g71
NtRp721
(dp722
g74
(dp723
g101
g102
ssg83
g713
sg76
(lp724
S':'
asbag69
(g90
g71
NtRp725
(dp726
g74
(dp727
sg83
g713
sg76
(lp728
g69
(g70
g71
NtRp729
(dp730
g74
(dp731
g82
I3
ssg83
g725
sg76
(lp732
S''
asbasbasbag69
(g85
g71
NtRp733
(dp734
g74
(dp735
sg83
g649
sg76
(lp736
g69
(g90
g71
NtRp737
(dp738
g74
(dp739
g94
g95
ssg83
g733
sg76
(lp740
g367
asbag69
(g90
g71
NtRp741
(dp742
g74
(dp743
g101
g102
ssg83
g733
sg76
(lp744
S':'
asbag69
(g90
g71
NtRp745
(dp746
g74
(dp747
sg83
g733
sg76
(lp748
g69
(g70
g71
NtRp749
(dp750
g74
(dp751
g82
I3
ssg83
g745
sg76
(lp752
S''
asbasbasbag69
(g85
g71
NtRp753
(dp754
g74
(dp755
sg83
g649
sg76
(lp756
g69
(g90
g71
NtRp757
(dp758
g74
(dp759
g94
g95
ssg83
g753
sg76
(lp760
g388
asbag69
(g90
g71
NtRp761
(dp762
g74
(dp763
g101
g102
ssg83
g753
sg76
(lp764
S':'
asbag69
(g90
g71
NtRp765
(dp766
g74
(dp767
sg83
g753
sg76
(lp768
g69
(g70
g71
NtRp769
(dp770
g74
(dp771
g82
I3
ssg83
g765
sg76
(lp772
S''
asbasbasbag69
(g85
g71
NtRp773
(dp774
g74
(dp775
sg83
g649
sg76
(lp776
g69
(g90
g71
NtRp777
(dp778
g74
(dp779
g94
g95
ssg83
g773
sg76
(lp780
g409
asbag69
(g90
g71
NtRp781
(dp782
g74
(dp783
g101
g102
ssg83
g773
sg76
(lp784
S':'
asbag69
(g90
g71
NtRp785
(dp786
g74
(dp787
sg83
g773
sg76
(lp788
g69
(g70
g71
NtRp789
(dp790
g74
(dp791
g82
I3
ssg83
g785
sg76
(lp792
S''
asbasbasbag69
(g85
g71
NtRp793
(dp794
g74
(dp795
sg83
g649
sg76
(lp796
g69
(g90
g71
NtRp797
(dp798
g74
(dp799
g94
g95
ssg83
g793
sg76
(lp800
g430
asbag69
(g90
g71
NtRp801
(dp802
g74
(dp803
g101
g102
ssg83
g793
sg76
(lp804
S':'
asbag69
(g90
g71
NtRp805
(dp806
g74
(dp807
sg83
g793
sg76
(lp808
g69
(g70
g71
NtRp809
(dp810
g74
(dp811
g82
I3
ssg83
g805
sg76
(lp812
S''
asbasbasbasbasbasbasbasbasbasbasbag69
(g85
g71
NtRp813
(dp814
g74
(dp815
sg83
g79
sg76
(lp816
g69
(g90
g71
NtRp817
(dp818
g74
(dp819
g94
g95
ssg83
g813
sg76
(lp820
S'env'
p821
asbag69
(g90
g71
NtRp822
(dp823
g74
(dp824
g101
g102
ssg83
g813
sg76
(lp825
S':'
asbag69
(g90
g71
NtRp826
(dp827
g74
(dp828
sg83
g813
sg76
(lp829
g69
(g70
g71
NtRp830
(dp831
g74
(dp832
g82
I5
ssg83
g826
sg76
(lp833
g69
(g78
g71
NtRp834
(dp835
g74
(dp836
g82
I4
ssg83
Nsg76
(lp837
g69
(g85
g71
NtRp838
(dp839
g74
(dp840
sg83
g834
sg76
(lp841
g69
(g90
g71
NtRp842
(dp843
g74
(dp844
g94
g95
ssg83
g838
sg76
(lp845
S'app_folders'
p846
asbag69
(g90
g71
NtRp847
(dp848
g74
(dp849
g101
g102
ssg83
g838
sg76
(lp850
S':'
asbag69
(g90
g71
NtRp851
(dp852
g74
(dp853
sg83
g838
sg76
(lp854
g69
(g70
g71
NtRp855
(dp856
g74
(dp857
g82
I4
ssg83
g851
sg76
(lp858
S"set(['/Users/hainna01/Downloads/web2py/applications/welcome/', '/Users/hainna01/Downloads/web2py/applications/Starcraft2/', '/Users/hainna01/Downloads/web2py/applications/examples/', '/Users/hainna01/Downloads/web2py/applications/admin/'])"
p859
asbasbasbag69
(g85
g71
NtRp860
(dp861
g74
(dp862
sg83
g834
sg76
(lp863
g69
(g90
g71
NtRp864
(dp865
g74
(dp866
g94
g95
ssg83
g860
sg76
(lp867
S'applications_parent'
p868
asbag69
(g90
g71
NtRp869
(dp870
g74
(dp871
g101
g102
ssg83
g860
sg76
(lp872
S':'
asbag69
(g90
g71
NtRp873
(dp874
g74
(dp875
sg83
g860
sg76
(lp876
g69
(g70
g71
NtRp877
(dp878
g74
(dp879
g82
I4
ssg83
g873
sg76
(lp880
S'/Users/hainna01/Downloads/web2py'
p881
asbasbasbag69
(g85
g71
NtRp882
(dp883
g74
(dp884
sg83
g834
sg76
(lp885
g69
(g90
g71
NtRp886
(dp887
g74
(dp888
g94
g95
ssg83
g882
sg76
(lp889
S'cmd_args'
p890
asbag69
(g90
g71
NtRp891
(dp892
g74
(dp893
g101
g102
ssg83
g882
sg76
(lp894
S':'
asbag69
(g90
g71
NtRp895
(dp896
g74
(dp897
sg83
g882
sg76
(lp898
g69
(g70
g71
NtRp899
(dp900
g74
(dp901
g82
I4
ssg83
g895
sg76
(lp902
g69
(g78
g71
NtRp903
(dp904
g74
(dp905
g82
I3
ssg83
Nsg76
(lp906
sbasbasbasbag69
(g85
g71
NtRp907
(dp908
g74
(dp909
sg83
g834
sg76
(lp910
g69
(g90
g71
NtRp911
(dp912
g74
(dp913
g94
g95
ssg83
g907
sg76
(lp914
S'cmd_options'
p915
asbag69
(g90
g71
NtRp916
(dp917
g74
(dp918
g101
g102
ssg83
g907
sg76
(lp919
S':'
asbag69
(g90
g71
NtRp920
(dp921
g74
(dp922
sg83
g907
sg76
(lp923
g69
(g70
g71
NtRp924
(dp925
g74
(dp926
g82
I4
ssg83
g920
sg76
(lp927
S"<Values at 0x1014e2710: {'verbose': False, 'ip': '127.0.0.1', 'shutdown_timeout': 5, 'taskbar': False, 'nocron': False, 'pid_filename': 'httpserver.pid', 'maxthreads': None, 'softcron': False, 'server_name': 'Nathans-MacBook-Pro.local', 'bpython': False, 'nogui': False, 'port': 8000, 'extcron': False, 'debuglevel': 30, 'test': None, 'folder': '/Users/hainna01/Downloads/web2py', 'config': '', 'import_models': False, 'winservice': '', 'shell': None, 'run': '', 'log_filename': 'httpserver.log', 'args': [''], 'socket_timeout': 5, 'ssl_ca_certificate': None, 'scheduler': None, 'profiler_filename': None, 'ssl_private_key': '', 'password': '<ask>', 'request_queue_size': 5, 'ssl_certificate': '', 'cronjob': False, 'numthreads': None, 'quiet': False, 'interfaces': None, 'minthreads': None, 'timeout': 10, 'plain': False, 'nobanner': False}>"
p928
asbasbasbag69
(g85
g71
NtRp929
(dp930
g74
(dp931
sg83
g834
sg76
(lp932
g69
(g90
g71
NtRp933
(dp934
g74
(dp935
g94
g95
ssg83
g929
sg76
(lp936
S'db_sessions'
p937
asbag69
(g90
g71
NtRp938
(dp939
g74
(dp940
g101
g102
ssg83
g929
sg76
(lp941
S':'
asbag69
(g90
g71
NtRp942
(dp943
g74
(dp944
sg83
g929
sg76
(lp945
g69
(g70
g71
NtRp946
(dp947
g74
(dp948
g82
I4
ssg83
g942
sg76
(lp949
S'set([])'
p950
asbasbasbag69
(g85
g71
NtRp951
(dp952
g74
(dp953
sg83
g834
sg76
(lp954
g69
(g90
g71
NtRp955
(dp956
g74
(dp957
g94
g95
ssg83
g951
sg76
(lp958
S'debugging'
p959
asbag69
(g90
g71
NtRp960
(dp961
g74
(dp962
g101
g102
ssg83
g951
sg76
(lp963
S':'
asbag69
(g90
g71
NtRp964
(dp965
g74
(dp966
sg83
g951
sg76
(lp967
g69
(g70
g71
NtRp968
(dp969
g74
(dp970
g82
I4
ssg83
g964
sg76
(lp971
g112
asbasbasbag69
(g85
g71
NtRp972
(dp973
g74
(dp974
sg83
g834
sg76
(lp975
g69
(g90
g71
NtRp976
(dp977
g74
(dp978
g94
g95
ssg83
g972
sg76
(lp979
S'gluon_parent'
p980
asbag69
(g90
g71
NtRp981
(dp982
g74
(dp983
g101
g102
ssg83
g972
sg76
(lp984
S':'
asbag69
(g90
g71
NtRp985
(dp986
g74
(dp987
sg83
g972
sg76
(lp988
g69
(g70
g71
NtRp989
(dp990
g74
(dp991
g82
I4
ssg83
g985
sg76
(lp992
S'/Users/hainna01/Downloads/web2py'
p993
asbasbasbag69
(g85
g71
NtRp994
(dp995
g74
(dp996
sg83
g834
sg76
(lp997
g69
(g90
g71
NtRp998
(dp999
g74
(dp1000
g94
g95
ssg83
g994
sg76
(lp1001
S'http_accept'
p1002
asbag69
(g90
g71
NtRp1003
(dp1004
g74
(dp1005
g101
g102
ssg83
g994
sg76
(lp1006
S':'
asbag69
(g90
g71
NtRp1007
(dp1008
g74
(dp1009
sg83
g994
sg76
(lp1010
g69
(g70
g71
NtRp1011
(dp1012
g74
(dp1013
g82
I4
ssg83
g1007
sg76
(lp1014
S'text/html,application/xhtml+xml,application/xml;q=0.9,*/*;q=0.8'
p1015
asbasbasbag69
(g85
g71
NtRp1016
(dp1017
g74
(dp1018
sg83
g834
sg76
(lp1019
g69
(g90
g71
NtRp1020
(dp1021
g74
(dp1022
g94
g95
ssg83
g1016
sg76
(lp1023
S'http_accept_charset'
p1024
asbag69
(g90
g71
NtRp1025
(dp1026
g74
(dp1027
g101
g102
ssg83
g1016
sg76
(lp1028
S':'
asbag69
(g90
g71
NtRp1029
(dp1030
g74
(dp1031
sg83
g1016
sg76
(lp1032
g69
(g70
g71
NtRp1033
(dp1034
g74
(dp1035
g82
I4
ssg83
g1029
sg76
(lp1036
S'ISO-8859-1,utf-8;q=0.7,*;q=0.3'
p1037
asbasbasbag69
(g85
g71
NtRp1038
(dp1039
g74
(dp1040
sg83
g834
sg76
(lp1041
g69
(g90
g71
NtRp1042
(dp1043
g74
(dp1044
g94
g95
ssg83
g1038
sg76
(lp1045
S'http_accept_encoding'
p1046
asbag69
(g90
g71
NtRp1047
(dp1048
g74
(dp1049
g101
g102
ssg83
g1038
sg76
(lp1050
S':'
asbag69
(g90
g71
NtRp1051
(dp1052
g74
(dp1053
sg83
g1038
sg76
(lp1054
g69
(g70
g71
NtRp1055
(dp1056
g74
(dp1057
g82
I4
ssg83
g1051
sg76
(lp1058
S'gzip,deflate,sdch'
p1059
asbasbasbag69
(g85
g71
NtRp1060
(dp1061
g74
(dp1062
sg83
g834
sg76
(lp1063
g69
(g90
g71
NtRp1064
(dp1065
g74
(dp1066
g94
g95
ssg83
g1060
sg76
(lp1067
S'http_accept_language'
p1068
asbag69
(g90
g71
NtRp1069
(dp1070
g74
(dp1071
g101
g102
ssg83
g1060
sg76
(lp1072
S':'
asbag69
(g90
g71
NtRp1073
(dp1074
g74
(dp1075
sg83
g1060
sg76
(lp1076
g69
(g70
g71
NtRp1077
(dp1078
g74
(dp1079
g82
I4
ssg83
g1073
sg76
(lp1080
S'en-US,en;q=0.8'
p1081
asbasbasbag69
(g85
g71
NtRp1082
(dp1083
g74
(dp1084
sg83
g834
sg76
(lp1085
g69
(g90
g71
NtRp1086
(dp1087
g74
(dp1088
g94
g95
ssg83
g1082
sg76
(lp1089
S'http_cache_control'
p1090
asbag69
(g90
g71
NtRp1091
(dp1092
g74
(dp1093
g101
g102
ssg83
g1082
sg76
(lp1094
S':'
asbag69
(g90
g71
NtRp1095
(dp1096
g74
(dp1097
sg83
g1082
sg76
(lp1098
g69
(g70
g71
NtRp1099
(dp1100
g74
(dp1101
g82
I4
ssg83
g1095
sg76
(lp1102
S'max-age=0'
p1103
asbasbasbag69
(g85
g71
NtRp1104
(dp1105
g74
(dp1106
sg83
g834
sg76
(lp1107
g69
(g90
g71
NtRp1108
(dp1109
g74
(dp1110
g94
g95
ssg83
g1104
sg76
(lp1111
S'http_connection'
p1112
asbag69
(g90
g71
NtRp1113
(dp1114
g74
(dp1115
g101
g102
ssg83
g1104
sg76
(lp1116
S':'
asbag69
(g90
g71
NtRp1117
(dp1118
g74
(dp1119
sg83
g1104
sg76
(lp1120
g69
(g70
g71
NtRp1121
(dp1122
g74
(dp1123
g82
I4
ssg83
g1117
sg76
(lp1124
S'keep-alive'
p1125
asbasbasbag69
(g85
g71
NtRp1126
(dp1127
g74
(dp1128
sg83
g834
sg76
(lp1129
g69
(g90
g71
NtRp1130
(dp1131
g74
(dp1132
g94
g95
ssg83
g1126
sg76
(lp1133
S'http_cookie'
p1134
asbag69
(g90
g71
NtRp1135
(dp1136
g74
(dp1137
g101
g102
ssg83
g1126
sg76
(lp1138
S':'
asbag69
(g90
g71
NtRp1139
(dp1140
g74
(dp1141
sg83
g1126
sg76
(lp1142
g69
(g70
g71
NtRp1143
(dp1144
g74
(dp1145
g82
I4
ssg83
g1139
sg76
(lp1146
S'session_id_welcome=127.0.0.1-e0d9ef4a-1bde-4498-ae05-2fb015154a48; session_id_starcraft2=127.0.0.1-ab0c6fa2-79d9-46c1-ab68-7df9589f9e17; session_id_admin=127.0.0.1-70b028f6-3c19-4716-be2f-cc7e785e6483'
p1147
asbasbasbag69
(g85
g71
NtRp1148
(dp1149
g74
(dp1150
sg83
g834
sg76
(lp1151
g69
(g90
g71
NtRp1152
(dp1153
g74
(dp1154
g94
g95
ssg83
g1148
sg76
(lp1155
S'http_host'
p1156
asbag69
(g90
g71
NtRp1157
(dp1158
g74
(dp1159
g101
g102
ssg83
g1148
sg76
(lp1160
S':'
asbag69
(g90
g71
NtRp1161
(dp1162
g74
(dp1163
sg83
g1148
sg76
(lp1164
g69
(g70
g71
NtRp1165
(dp1166
g74
(dp1167
g82
I4
ssg83
g1161
sg76
(lp1168
S'127.0.0.1:8000'
p1169
asbasbasbag69
(g85
g71
NtRp1170
(dp1171
g74
(dp1172
sg83
g834
sg76
(lp1173
g69
(g90
g71
NtRp1174
(dp1175
g74
(dp1176
g94
g95
ssg83
g1170
sg76
(lp1177
S'http_referer'
p1178
asbag69
(g90
g71
NtRp1179
(dp1180
g74
(dp1181
g101
g102
ssg83
g1170
sg76
(lp1182
S':'
asbag69
(g90
g71
NtRp1183
(dp1184
g74
(dp1185
sg83
g1170
sg76
(lp1186
g69
(g70
g71
NtRp1187
(dp1188
g74
(dp1189
g82
I4
ssg83
g1183
sg76
(lp1190
S'http://127.0.0.1:8000/Starcraft2/default/index'
p1191
asbasbasbag69
(g85
g71
NtRp1192
(dp1193
g74
(dp1194
sg83
g834
sg76
(lp1195
g69
(g90
g71
NtRp1196
(dp1197
g74
(dp1198
g94
g95
ssg83
g1192
sg76
(lp1199
S'http_user_agent'
p1200
asbag69
(g90
g71
NtRp1201
(dp1202
g74
(dp1203
g101
g102
ssg83
g1192
sg76
(lp1204
S':'
asbag69
(g90
g71
NtRp1205
(dp1206
g74
(dp1207
sg83
g1192
sg76
(lp1208
g69
(g70
g71
NtRp1209
(dp1210
g74
(dp1211
g82
I4
ssg83
g1205
sg76
(lp1212
S'Mozilla/5.0 (Macintosh; Intel Mac OS X 10_7_3) AppleWebKit/535.19 (KHTML, like Gecko) Chrome/18.0.1025.165 Safari/535.19'
p1213
asbasbasbag69
(g85
g71
NtRp1214
(dp1215
g74
(dp1216
sg83
g834
sg76
(lp1217
g69
(g90
g71
NtRp1218
(dp1219
g74
(dp1220
g94
g95
ssg83
g1214
sg76
(lp1221
S'is_jython'
p1222
asbag69
(g90
g71
NtRp1223
(dp1224
g74
(dp1225
g101
g102
ssg83
g1214
sg76
(lp1226
S':'
asbag69
(g90
g71
NtRp1227
(dp1228
g74
(dp1229
sg83
g1214
sg76
(lp1230
g69
(g70
g71
NtRp1231
(dp1232
g74
(dp1233
g82
I4
ssg83
g1227
sg76
(lp1234
g112
asbasbasbag69
(g85
g71
NtRp1235
(dp1236
g74
(dp1237
sg83
g834
sg76
(lp1238
g69
(g90
g71
NtRp1239
(dp1240
g74
(dp1241
g94
g95
ssg83
g1235
sg76
(lp1242
S'is_pypy'
p1243
asbag69
(g90
g71
NtRp1244
(dp1245
g74
(dp1246
g101
g102
ssg83
g1235
sg76
(lp1247
S':'
asbag69
(g90
g71
NtRp1248
(dp1249
g74
(dp1250
sg83
g1235
sg76
(lp1251
g69
(g70
g71
NtRp1252
(dp1253
g74
(dp1254
g82
I4
ssg83
g1248
sg76
(lp1255
g112
asbasbasbag69
(g85
g71
NtRp1256
(dp1257
g74
(dp1258
sg83
g834
sg76
(lp1259
g69
(g90
g71
NtRp1260
(dp1261
g74
(dp1262
g94
g95
ssg83
g1256
sg76
(lp1263
S'path_info'
p1264
asbag69
(g90
g71
NtRp1265
(dp1266
g74
(dp1267
g101
g102
ssg83
g1256
sg76
(lp1268
S':'
asbag69
(g90
g71
NtRp1269
(dp1270
g74
(dp1271
sg83
g1256
sg76
(lp1272
g69
(g70
g71
NtRp1273
(dp1274
g74
(dp1275
g82
I4
ssg83
g1269
sg76
(lp1276
S'/Starcraft2/default/mybuild'
p1277
asbasbasbag69
(g85
g71
NtRp1278
(dp1279
g74
(dp1280
sg83
g834
sg76
(lp1281
g69
(g90
g71
NtRp1282
(dp1283
g74
(dp1284
g94
g95
ssg83
g1278
sg76
(lp1285
S'query_string'
p1286
asbag69
(g90
g71
NtRp1287
(dp1288
g74
(dp1289
g101
g102
ssg83
g1278
sg76
(lp1290
S':'
asbag69
(g90
g71
NtRp1291
(dp1292
g74
(dp1293
sg83
g1278
sg76
(lp1294
g69
(g70
g71
NtRp1295
(dp1296
g74
(dp1297
g82
I4
ssg83
g1291
sg76
(lp1298
S''
asbasbasbag69
(g85
g71
NtRp1299
(dp1300
g74
(dp1301
sg83
g834
sg76
(lp1302
g69
(g90
g71
NtRp1303
(dp1304
g74
(dp1305
g94
g95
ssg83
g1299
sg76
(lp1306
S'remote_addr'
p1307
asbag69
(g90
g71
NtRp1308
(dp1309
g74
(dp1310
g101
g102
ssg83
g1299
sg76
(lp1311
S':'
asbag69
(g90
g71
NtRp1312
(dp1313
g74
(dp1314
sg83
g1299
sg76
(lp1315
g69
(g70
g71
NtRp1316
(dp1317
g74
(dp1318
g82
I4
ssg83
g1312
sg76
(lp1319
g202
asbasbasbag69
(g85
g71
NtRp1320
(dp1321
g74
(dp1322
sg83
g834
sg76
(lp1323
g69
(g90
g71
NtRp1324
(dp1325
g74
(dp1326
g94
g95
ssg83
g1320
sg76
(lp1327
S'remote_port'
p1328
asbag69
(g90
g71
NtRp1329
(dp1330
g74
(dp1331
g101
g102
ssg83
g1320
sg76
(lp1332
S':'
asbag69
(g90
g71
NtRp1333
(dp1334
g74
(dp1335
sg83
g1320
sg76
(lp1336
g69
(g70
g71
NtRp1337
(dp1338
g74
(dp1339
g82
I4
ssg83
g1333
sg76
(lp1340
S'55874'
p1341
asbasbasbag69
(g85
g71
NtRp1342
(dp1343
g74
(dp1344
sg83
g834
sg76
(lp1345
g69
(g90
g71
NtRp1346
(dp1347
g74
(dp1348
g94
g95
ssg83
g1342
sg76
(lp1349
S'request_method'
p1350
asbag69
(g90
g71
NtRp1351
(dp1352
g74
(dp1353
g101
g102
ssg83
g1342
sg76
(lp1354
S':'
asbag69
(g90
g71
NtRp1355
(dp1356
g74
(dp1357
sg83
g1342
sg76
(lp1358
g69
(g70
g71
NtRp1359
(dp1360
g74
(dp1361
g82
I4
ssg83
g1355
sg76
(lp1362
S'GET'
p1363
asbasbasbag69
(g85
g71
NtRp1364
(dp1365
g74
(dp1366
sg83
g834
sg76
(lp1367
g69
(g90
g71
NtRp1368
(dp1369
g74
(dp1370
g94
g95
ssg83
g1364
sg76
(lp1371
S'script_name'
p1372
asbag69
(g90
g71
NtRp1373
(dp1374
g74
(dp1375
g101
g102
ssg83
g1364
sg76
(lp1376
S':'
asbag69
(g90
g71
NtRp1377
(dp1378
g74
(dp1379
sg83
g1364
sg76
(lp1380
g69
(g70
g71
NtRp1381
(dp1382
g74
(dp1383
g82
I4
ssg83
g1377
sg76
(lp1384
S''
asbasbasbag69
(g85
g71
NtRp1385
(dp1386
g74
(dp1387
sg83
g834
sg76
(lp1388
g69
(g90
g71
NtRp1389
(dp1390
g74
(dp1391
g94
g95
ssg83
g1385
sg76
(lp1392
S'server_name'
p1393
asbag69
(g90
g71
NtRp1394
(dp1395
g74
(dp1396
g101
g102
ssg83
g1385
sg76
(lp1397
S':'
asbag69
(g90
g71
NtRp1398
(dp1399
g74
(dp1400
sg83
g1385
sg76
(lp1401
g69
(g70
g71
NtRp1402
(dp1403
g74
(dp1404
g82
I4
ssg83
g1398
sg76
(lp1405
S'Nathans-MacBook-Pro.local'
p1406
asbasbasbag69
(g85
g71
NtRp1407
(dp1408
g74
(dp1409
sg83
g834
sg76
(lp1410
g69
(g90
g71
NtRp1411
(dp1412
g74
(dp1413
g94
g95
ssg83
g1407
sg76
(lp1414
S'server_port'
p1415
asbag69
(g90
g71
NtRp1416
(dp1417
g74
(dp1418
g101
g102
ssg83
g1407
sg76
(lp1419
S':'
asbag69
(g90
g71
NtRp1420
(dp1421
g74
(dp1422
sg83
g1407
sg76
(lp1423
g69
(g70
g71
NtRp1424
(dp1425
g74
(dp1426
g82
I4
ssg83
g1420
sg76
(lp1427
S'8000'
p1428
asbasbasbag69
(g85
g71
NtRp1429
(dp1430
g74
(dp1431
sg83
g834
sg76
(lp1432
g69
(g90
g71
NtRp1433
(dp1434
g74
(dp1435
g94
g95
ssg83
g1429
sg76
(lp1436
S'server_protocol'
p1437
asbag69
(g90
g71
NtRp1438
(dp1439
g74
(dp1440
g101
g102
ssg83
g1429
sg76
(lp1441
S':'
asbag69
(g90
g71
NtRp1442
(dp1443
g74
(dp1444
sg83
g1429
sg76
(lp1445
g69
(g70
g71
NtRp1446
(dp1447
g74
(dp1448
g82
I4
ssg83
g1442
sg76
(lp1449
S'HTTP/1.1'
p1450
asbasbasbag69
(g85
g71
NtRp1451
(dp1452
g74
(dp1453
sg83
g834
sg76
(lp1454
g69
(g90
g71
NtRp1455
(dp1456
g74
(dp1457
g94
g95
ssg83
g1451
sg76
(lp1458
S'server_software'
p1459
asbag69
(g90
g71
NtRp1460
(dp1461
g74
(dp1462
g101
g102
ssg83
g1451
sg76
(lp1463
S':'
asbag69
(g90
g71
NtRp1464
(dp1465
g74
(dp1466
sg83
g1451
sg76
(lp1467
g69
(g70
g71
NtRp1468
(dp1469
g74
(dp1470
g82
I4
ssg83
g1464
sg76
(lp1471
S'Rocket 1.2.4'
p1472
asbasbasbag69
(g85
g71
NtRp1473
(dp1474
g74
(dp1475
sg83
g834
sg76
(lp1476
g69
(g90
g71
NtRp1477
(dp1478
g74
(dp1479
g94
g95
ssg83
g1473
sg76
(lp1480
S'web2py_crontype'
p1481
asbag69
(g90
g71
NtRp1482
(dp1483
g74
(dp1484
g101
g102
ssg83
g1473
sg76
(lp1485
S':'
asbag69
(g90
g71
NtRp1486
(dp1487
g74
(dp1488
sg83
g1473
sg76
(lp1489
g69
(g70
g71
NtRp1490
(dp1491
g74
(dp1492
g82
I4
ssg83
g1486
sg76
(lp1493
S'hard'
p1494
asbasbasbag69
(g85
g71
NtRp1495
(dp1496
g74
(dp1497
sg83
g834
sg76
(lp1498
g69
(g90
g71
NtRp1499
(dp1500
g74
(dp1501
g94
g95
ssg83
g1495
sg76
(lp1502
S'web2py_path'
p1503
asbag69
(g90
g71
NtRp1504
(dp1505
g74
(dp1506
g101
g102
ssg83
g1495
sg76
(lp1507
S':'
asbag69
(g90
g71
NtRp1508
(dp1509
g74
(dp1510
sg83
g1495
sg76
(lp1511
g69
(g70
g71
NtRp1512
(dp1513
g74
(dp1514
g82
I4
ssg83
g1508
sg76
(lp1515
g881
asbasbasbag69
(g85
g71
NtRp1516
(dp1517
g74
(dp1518
sg83
g834
sg76
(lp1519
g69
(g90
g71
NtRp1520
(dp1521
g74
(dp1522
g94
g95
ssg83
g1516
sg76
(lp1523
S'web2py_version'
p1524
asbag69
(g90
g71
NtRp1525
(dp1526
g74
(dp1527
g101
g102
ssg83
g1516
sg76
(lp1528
S':'
asbag69
(g90
g71
NtRp1529
(dp1530
g74
(dp1531
sg83
g1516
sg76
(lp1532
g69
(g70
g71
NtRp1533
(dp1534
g74
(dp1535
g82
I4
ssg83
g1529
sg76
(lp1536
g69
(g78
g71
NtRp1537
(dp1538
g74
(dp1539
g82
I3
ssg83
Nsg76
(lp1540
g69
(g85
g71
NtRp1541
(dp1542
g74
(dp1543
sg83
g1537
sg76
(lp1544
g69
(g90
g71
NtRp1545
(dp1546
g74
(dp1547
sg83
g1541
sg76
(lp1548
g69
(g70
g71
NtRp1549
(dp1550
g74
(dp1551
g82
I3
ssg83
g1545
sg76
(lp1552
S'1'
asbasbasbag69
(g85
g71
NtRp1553
(dp1554
g74
(dp1555
sg83
g1537
sg76
(lp1556
g69
(g90
g71
NtRp1557
(dp1558
g74
(dp1559
sg83
g1553
sg76
(lp1560
g69
(g70
g71
NtRp1561
(dp1562
g74
(dp1563
g82
I3
ssg83
g1557
sg76
(lp1564
S'99'
p1565
asbasbasbag69
(g85
g71
NtRp1566
(dp1567
g74
(dp1568
sg83
g1537
sg76
(lp1569
g69
(g90
g71
NtRp1570
(dp1571
g74
(dp1572
sg83
g1566
sg76
(lp1573
g69
(g70
g71
NtRp1574
(dp1575
g74
(dp1576
g82
I3
ssg83
g1570
sg76
(lp1577
S'7'
asbasbasbag69
(g85
g71
NtRp1578
(dp1579
g74
(dp1580
sg83
g1537
sg76
(lp1581
g69
(g90
g71
NtRp1582
(dp1583
g74
(dp1584
sg83
g1578
sg76
(lp1585
g69
(g70
g71
NtRp1586
(dp1587
g74
(dp1588
g82
I3
ssg83
g1582
sg76
(lp1589
S'datetime.datetime(2012, 3, 4, 22, 12, 8)'
p1590
asbasbasbag69
(g85
g71
NtRp1591
(dp1592
g74
(dp1593
sg83
g1537
sg76
(lp1594
g69
(g90
g71
NtRp1595
(dp1596
g74
(dp1597
sg83
g1591
sg76
(lp1598
g69
(g70
g71
NtRp1599
(dp1600
g74
(dp1601
g82
I3
ssg83
g1595
sg76
(lp1602
S'stable'
p1603
asbasbasbasbasbasbasbag69
(g85
g71
NtRp1604
(dp1605
g74
(dp1606
sg83
g834
sg76
(lp1607
g69
(g90
g71
NtRp1608
(dp1609
g74
(dp1610
g94
g95
ssg83
g1604
sg76
(lp1611
S'wsgi_errors'
p1612
asbag69
(g90
g71
NtRp1613
(dp1614
g74
(dp1615
g101
g102
ssg83
g1604
sg76
(lp1616
S':'
asbag69
(g90
g71
NtRp1617
(dp1618
g74
(dp1619
sg83
g1604
sg76
(lp1620
g69
(g70
g71
NtRp1621
(dp1622
g74
(dp1623
g82
I4
ssg83
g1617
sg76
(lp1624
S"<open file '<stderr>', mode 'w' at 0x100282270>"
p1625
asbasbasbag69
(g85
g71
NtRp1626
(dp1627
g74
(dp1628
sg83
g834
sg76
(lp1629
g69
(g90
g71
NtRp1630
(dp1631
g74
(dp1632
g94
g95
ssg83
g1626
sg76
(lp1633
S'wsgi_file_wrapper'
p1634
asbag69
(g90
g71
NtRp1635
(dp1636
g74
(dp1637
g101
g102
ssg83
g1626
sg76
(lp1638
S':'
asbag69
(g90
g71
NtRp1639
(dp1640
g74
(dp1641
sg83
g1626
sg76
(lp1642
g69
(g70
g71
NtRp1643
(dp1644
g74
(dp1645
g82
I4
ssg83
g1639
sg76
(lp1646
S'<class wsgiref.util.FileWrapper at 0x1012b4d50>'
p1647
asbasbasbag69
(g85
g71
NtRp1648
(dp1649
g74
(dp1650
sg83
g834
sg76
(lp1651
g69
(g90
g71
NtRp1652
(dp1653
g74
(dp1654
g94
g95
ssg83
g1648
sg76
(lp1655
S'wsgi_input'
p1656
asbag69
(g90
g71
NtRp1657
(dp1658
g74
(dp1659
g101
g102
ssg83
g1648
sg76
(lp1660
S':'
asbag69
(g90
g71
NtRp1661
(dp1662
g74
(dp1663
sg83
g1648
sg76
(lp1664
g69
(g70
g71
NtRp1665
(dp1666
g74
(dp1667
g82
I4
ssg83
g1661
sg76
(lp1668
S'<socket._fileobject object at 0x1016c28d0>'
p1669
asbasbasbag69
(g85
g71
NtRp1670
(dp1671
g74
(dp1672
sg83
g834
sg76
(lp1673
g69
(g90
g71
NtRp1674
(dp1675
g74
(dp1676
g94
g95
ssg83
g1670
sg76
(lp1677
S'wsgi_multiprocess'
p1678
asbag69
(g90
g71
NtRp1679
(dp1680
g74
(dp1681
g101
g102
ssg83
g1670
sg76
(lp1682
S':'
asbag69
(g90
g71
NtRp1683
(dp1684
g74
(dp1685
sg83
g1670
sg76
(lp1686
g69
(g70
g71
NtRp1687
(dp1688
g74
(dp1689
g82
I4
ssg83
g1683
sg76
(lp1690
g112
asbasbasbag69
(g85
g71
NtRp1691
(dp1692
g74
(dp1693
sg83
g834
sg76
(lp1694
g69
(g90
g71
NtRp1695
(dp1696
g74
(dp1697
g94
g95
ssg83
g1691
sg76
(lp1698
S'wsgi_multithread'
p1699
asbag69
(g90
g71
NtRp1700
(dp1701
g74
(dp1702
g101
g102
ssg83
g1691
sg76
(lp1703
S':'
asbag69
(g90
g71
NtRp1704
(dp1705
g74
(dp1706
sg83
g1691
sg76
(lp1707
g69
(g70
g71
NtRp1708
(dp1709
g74
(dp1710
g82
I4
ssg83
g1704
sg76
(lp1711
S'True'
p1712
asbasbasbag69
(g85
g71
NtRp1713
(dp1714
g74
(dp1715
sg83
g834
sg76
(lp1716
g69
(g90
g71
NtRp1717
(dp1718
g74
(dp1719
g94
g95
ssg83
g1713
sg76
(lp1720
S'wsgi_run_once'
p1721
asbag69
(g90
g71
NtRp1722
(dp1723
g74
(dp1724
g101
g102
ssg83
g1713
sg76
(lp1725
S':'
asbag69
(g90
g71
NtRp1726
(dp1727
g74
(dp1728
sg83
g1713
sg76
(lp1729
g69
(g70
g71
NtRp1730
(dp1731
g74
(dp1732
g82
I4
ssg83
g1726
sg76
(lp1733
g112
asbasbasbag69
(g85
g71
NtRp1734
(dp1735
g74
(dp1736
sg83
g834
sg76
(lp1737
g69
(g90
g71
NtRp1738
(dp1739
g74
(dp1740
g94
g95
ssg83
g1734
sg76
(lp1741
S'wsgi_url_scheme'
p1742
asbag69
(g90
g71
NtRp1743
(dp1744
g74
(dp1745
g101
g102
ssg83
g1734
sg76
(lp1746
S':'
asbag69
(g90
g71
NtRp1747
(dp1748
g74
(dp1749
sg83
g1734
sg76
(lp1750
g69
(g70
g71
NtRp1751
(dp1752
g74
(dp1753
g82
I4
ssg83
g1747
sg76
(lp1754
S'http'
p1755
asbasbasbag69
(g85
g71
NtRp1756
(dp1757
g74
(dp1758
sg83
g834
sg76
(lp1759
g69
(g90
g71
NtRp1760
(dp1761
g74
(dp1762
g94
g95
ssg83
g1756
sg76
(lp1763
S'wsgi_version'
p1764
asbag69
(g90
g71
NtRp1765
(dp1766
g74
(dp1767
g101
g102
ssg83
g1756
sg76
(lp1768
S':'
asbag69
(g90
g71
NtRp1769
(dp1770
g74
(dp1771
sg83
g1756
sg76
(lp1772
g69
(g70
g71
NtRp1773
(dp1774
g74
(dp1775
g82
I4
ssg83
g1769
sg76
(lp1776
g69
(g78
g71
NtRp1777
(dp1778
g74
(dp1779
g82
I3
ssg83
Nsg76
(lp1780
g69
(g85
g71
NtRp1781
(dp1782
g74
(dp1783
sg83
g1777
sg76
(lp1784
g69
(g90
g71
NtRp1785
(dp1786
g74
(dp1787
sg83
g1781
sg76
(lp1788
g69
(g70
g71
NtRp1789
(dp1790
g74
(dp1791
g82
I3
ssg83
g1785
sg76
(lp1792
S'1'
asbasbasbag69
(g85
g71
NtRp1793
(dp1794
g74
(dp1795
sg83
g1777
sg76
(lp1796
g69
(g90
g71
NtRp1797
(dp1798
g74
(dp1799
sg83
g1793
sg76
(lp1800
g69
(g70
g71
NtRp1801
(dp1802
g74
(dp1803
g82
I3
ssg83
g1797
sg76
(lp1804
S'0'
asbasbasbasbasbasbasbasbasbasbasbag69
(g85
g71
NtRp1805
(dp1806
g74
(dp1807
sg83
g79
sg76
(lp1808
g69
(g90
g71
NtRp1809
(dp1810
g74
(dp1811
g94
g95
ssg83
g1805
sg76
(lp1812
S'extension'
p1813
asbag69
(g90
g71
NtRp1814
(dp1815
g74
(dp1816
g101
g102
ssg83
g1805
sg76
(lp1817
S':'
asbag69
(g90
g71
NtRp1818
(dp1819
g74
(dp1820
sg83
g1805
sg76
(lp1821
g69
(g70
g71
NtRp1822
(dp1823
g74
(dp1824
g82
I5
ssg83
g1818
sg76
(lp1825
S'html'
p1826
asbasbasbag69
(g85
g71
NtRp1827
(dp1828
g74
(dp1829
sg83
g79
sg76
(lp1830
g69
(g90
g71
NtRp1831
(dp1832
g74
(dp1833
g94
g95
ssg83
g1827
sg76
(lp1834
S'folder'
p1835
asbag69
(g90
g71
NtRp1836
(dp1837
g74
(dp1838
g101
g102
ssg83
g1827
sg76
(lp1839
S':'
asbag69
(g90
g71
NtRp1840
(dp1841
g74
(dp1842
sg83
g1827
sg76
(lp1843
g69
(g70
g71
NtRp1844
(dp1845
g74
(dp1846
g82
I5
ssg83
g1840
sg76
(lp1847
S'/Users/hainna01/Downloads/web2py/applications/Starcraft2/'
p1848
asbasbasbag69
(g85
g71
NtRp1849
(dp1850
g74
(dp1851
sg83
g79
sg76
(lp1852
g69
(g90
g71
NtRp1853
(dp1854
g74
(dp1855
g94
g95
ssg83
g1849
sg76
(lp1856
S'function'
p1857
asbag69
(g90
g71
NtRp1858
(dp1859
g74
(dp1860
g101
g102
ssg83
g1849
sg76
(lp1861
S':'
asbag69
(g90
g71
NtRp1862
(dp1863
g74
(dp1864
sg83
g1849
sg76
(lp1865
g69
(g70
g71
NtRp1866
(dp1867
g74
(dp1868
g82
I5
ssg83
g1862
sg76
(lp1869
S'mybuild'
p1870
asbasbasbag69
(g85
g71
NtRp1871
(dp1872
g74
(dp1873
sg83
g79
sg76
(lp1874
g69
(g90
g71
NtRp1875
(dp1876
g74
(dp1877
g94
g95
ssg83
g1871
sg76
(lp1878
S'get_vars'
p1879
asbag69
(g90
g71
NtRp1880
(dp1881
g74
(dp1882
g101
g102
ssg83
g1871
sg76
(lp1883
S':'
asbag69
(g90
g71
NtRp1884
(dp1885
g74
(dp1886
sg83
g1871
sg76
(lp1887
g69
(g70
g71
NtRp1888
(dp1889
g74
(dp1890
g82
I5
ssg83
g1884
sg76
(lp1891
g69
(g78
g71
NtRp1892
(dp1893
g74
(dp1894
g82
I4
ssg83
Nsg76
(lp1895
sbasbasbasbag69
(g85
g71
NtRp1896
(dp1897
g74
(dp1898
sg83
g79
sg76
(lp1899
g69
(g90
g71
NtRp1900
(dp1901
g74
(dp1902
g94
g95
ssg83
g1896
sg76
(lp1903
S'global_settings'
p1904
asbag69
(g90
g71
NtRp1905
(dp1906
g74
(dp1907
g101
g102
ssg83
g1896
sg76
(lp1908
S':'
asbag69
(g90
g71
NtRp1909
(dp1910
g74
(dp1911
sg83
g1896
sg76
(lp1912
g69
(g70
g71
NtRp1913
(dp1914
g74
(dp1915
g82
I5
ssg83
g1909
sg76
(lp1916
g69
(g78
g71
NtRp1917
(dp1918
g74
(dp1919
g82
I4
ssg83
Nsg76
(lp1920
g69
(g85
g71
NtRp1921
(dp1922
g74
(dp1923
sg83
g1917
sg76
(lp1924
g69
(g90
g71
NtRp1925
(dp1926
g74
(dp1927
g94
g95
ssg83
g1921
sg76
(lp1928
g846
asbag69
(g90
g71
NtRp1929
(dp1930
g74
(dp1931
g101
g102
ssg83
g1921
sg76
(lp1932
S':'
asbag69
(g90
g71
NtRp1933
(dp1934
g74
(dp1935
sg83
g1921
sg76
(lp1936
g69
(g70
g71
NtRp1937
(dp1938
g74
(dp1939
g82
I4
ssg83
g1933
sg76
(lp1940
S"set(['/Users/hainna01/Downloads/web2py/applications/welcome/', '/Users/hainna01/Downloads/web2py/applications/Starcraft2/', '/Users/hainna01/Downloads/web2py/applications/examples/', '/Users/hainna01/Downloads/web2py/applications/admin/'])"
p1941
asbasbasbag69
(g85
g71
NtRp1942
(dp1943
g74
(dp1944
sg83
g1917
sg76
(lp1945
g69
(g90
g71
NtRp1946
(dp1947
g74
(dp1948
g94
g95
ssg83
g1942
sg76
(lp1949
g868
asbag69
(g90
g71
NtRp1950
(dp1951
g74
(dp1952
g101
g102
ssg83
g1942
sg76
(lp1953
S':'
asbag69
(g90
g71
NtRp1954
(dp1955
g74
(dp1956
sg83
g1942
sg76
(lp1957
g69
(g70
g71
NtRp1958
(dp1959
g74
(dp1960
g82
I4
ssg83
g1954
sg76
(lp1961
g881
asbasbasbag69
(g85
g71
NtRp1962
(dp1963
g74
(dp1964
sg83
g1917
sg76
(lp1965
g69
(g90
g71
NtRp1966
(dp1967
g74
(dp1968
g94
g95
ssg83
g1962
sg76
(lp1969
g890
asbag69
(g90
g71
NtRp1970
(dp1971
g74
(dp1972
g101
g102
ssg83
g1962
sg76
(lp1973
S':'
asbag69
(g90
g71
NtRp1974
(dp1975
g74
(dp1976
sg83
g1962
sg76
(lp1977
g69
(g70
g71
NtRp1978
(dp1979
g74
(dp1980
g82
I4
ssg83
g1974
sg76
(lp1981
g69
(g78
g71
NtRp1982
(dp1983
g74
(dp1984
g82
I3
ssg83
Nsg76
(lp1985
sbasbasbasbag69
(g85
g71
NtRp1986
(dp1987
g74
(dp1988
sg83
g1917
sg76
(lp1989
g69
(g90
g71
NtRp1990
(dp1991
g74
(dp1992
g94
g95
ssg83
g1986
sg76
(lp1993
g915
asbag69
(g90
g71
NtRp1994
(dp1995
g74
(dp1996
g101
g102
ssg83
g1986
sg76
(lp1997
S':'
asbag69
(g90
g71
NtRp1998
(dp1999
g74
(dp2000
sg83
g1986
sg76
(lp2001
g69
(g70
g71
NtRp2002
(dp2003
g74
(dp2004
g82
I4
ssg83
g1998
sg76
(lp2005
S"<Values at 0x1014e2710: {'verbose': False, 'ip': '127.0.0.1', 'shutdown_timeout': 5, 'taskbar': False, 'nocron': False, 'pid_filename': 'httpserver.pid', 'maxthreads': None, 'softcron': False, 'server_name': 'Nathans-MacBook-Pro.local', 'bpython': False, 'nogui': False, 'port': 8000, 'extcron': False, 'debuglevel': 30, 'test': None, 'folder': '/Users/hainna01/Downloads/web2py', 'config': '', 'import_models': False, 'winservice': '', 'shell': None, 'run': '', 'log_filename': 'httpserver.log', 'args': [''], 'socket_timeout': 5, 'ssl_ca_certificate': None, 'scheduler': None, 'profiler_filename': None, 'ssl_private_key': '', 'password': '<ask>', 'request_queue_size': 5, 'ssl_certificate': '', 'cronjob': False, 'numthreads': None, 'quiet': False, 'interfaces': None, 'minthreads': None, 'timeout': 10, 'plain': False, 'nobanner': False}>"
p2006
asbasbasbag69
(g85
g71
NtRp2007
(dp2008
g74
(dp2009
sg83
g1917
sg76
(lp2010
g69
(g90
g71
NtRp2011
(dp2012
g74
(dp2013
g94
g95
ssg83
g2007
sg76
(lp2014
g937
asbag69
(g90
g71
NtRp2015
(dp2016
g74
(dp2017
g101
g102
ssg83
g2007
sg76
(lp2018
S':'
asbag69
(g90
g71
NtRp2019
(dp2020
g74
(dp2021
sg83
g2007
sg76
(lp2022
g69
(g70
g71
NtRp2023
(dp2024
g74
(dp2025
g82
I4
ssg83
g2019
sg76
(lp2026
S'set([])'
p2027
asbasbasbag69
(g85
g71
NtRp2028
(dp2029
g74
(dp2030
sg83
g1917
sg76
(lp2031
g69
(g90
g71
NtRp2032
(dp2033
g74
(dp2034
g94
g95
ssg83
g2028
sg76
(lp2035
g959
asbag69
(g90
g71
NtRp2036
(dp2037
g74
(dp2038
g101
g102
ssg83
g2028
sg76
(lp2039
S':'
asbag69
(g90
g71
NtRp2040
(dp2041
g74
(dp2042
sg83
g2028
sg76
(lp2043
g69
(g70
g71
NtRp2044
(dp2045
g74
(dp2046
g82
I4
ssg83
g2040
sg76
(lp2047
g112
asbasbasbag69
(g85
g71
NtRp2048
(dp2049
g74
(dp2050
sg83
g1917
sg76
(lp2051
g69
(g90
g71
NtRp2052
(dp2053
g74
(dp2054
g94
g95
ssg83
g2048
sg76
(lp2055
g980
asbag69
(g90
g71
NtRp2056
(dp2057
g74
(dp2058
g101
g102
ssg83
g2048
sg76
(lp2059
S':'
asbag69
(g90
g71
NtRp2060
(dp2061
g74
(dp2062
sg83
g2048
sg76
(lp2063
g69
(g70
g71
NtRp2064
(dp2065
g74
(dp2066
g82
I4
ssg83
g2060
sg76
(lp2067
g993
asbasbasbag69
(g85
g71
NtRp2068
(dp2069
g74
(dp2070
sg83
g1917
sg76
(lp2071
g69
(g90
g71
NtRp2072
(dp2073
g74
(dp2074
g94
g95
ssg83
g2068
sg76
(lp2075
g1222
asbag69
(g90
g71
NtRp2076
(dp2077
g74
(dp2078
g101
g102
ssg83
g2068
sg76
(lp2079
S':'
asbag69
(g90
g71
NtRp2080
(dp2081
g74
(dp2082
sg83
g2068
sg76
(lp2083
g69
(g70
g71
NtRp2084
(dp2085
g74
(dp2086
g82
I4
ssg83
g2080
sg76
(lp2087
g112
asbasbasbag69
(g85
g71
NtRp2088
(dp2089
g74
(dp2090
sg83
g1917
sg76
(lp2091
g69
(g90
g71
NtRp2092
(dp2093
g74
(dp2094
g94
g95
ssg83
g2088
sg76
(lp2095
g1243
asbag69
(g90
g71
NtRp2096
(dp2097
g74
(dp2098
g101
g102
ssg83
g2088
sg76
(lp2099
S':'
asbag69
(g90
g71
NtRp2100
(dp2101
g74
(dp2102
sg83
g2088
sg76
(lp2103
g69
(g70
g71
NtRp2104
(dp2105
g74
(dp2106
g82
I4
ssg83
g2100
sg76
(lp2107
g112
asbasbasbag69
(g85
g71
NtRp2108
(dp2109
g74
(dp2110
sg83
g1917
sg76
(lp2111
g69
(g90
g71
NtRp2112
(dp2113
g74
(dp2114
g94
g95
ssg83
g2108
sg76
(lp2115
g1481
asbag69
(g90
g71
NtRp2116
(dp2117
g74
(dp2118
g101
g102
ssg83
g2108
sg76
(lp2119
S':'
asbag69
(g90
g71
NtRp2120
(dp2121
g74
(dp2122
sg83
g2108
sg76
(lp2123
g69
(g70
g71
NtRp2124
(dp2125
g74
(dp2126
g82
I4
ssg83
g2120
sg76
(lp2127
g1494
asbasbasbag69
(g85
g71
NtRp2128
(dp2129
g74
(dp2130
sg83
g1917
sg76
(lp2131
g69
(g90
g71
NtRp2132
(dp2133
g74
(dp2134
g94
g95
ssg83
g2128
sg76
(lp2135
g1524
asbag69
(g90
g71
NtRp2136
(dp2137
g74
(dp2138
g101
g102
ssg83
g2128
sg76
(lp2139
S':'
asbag69
(g90
g71
NtRp2140
(dp2141
g74
(dp2142
sg83
g2128
sg76
(lp2143
g69
(g70
g71
NtRp2144
(dp2145
g74
(dp2146
g82
I4
ssg83
g2140
sg76
(lp2147
g69
(g78
g71
NtRp2148
(dp2149
g74
(dp2150
g82
I3
ssg83
Nsg76
(lp2151
g69
(g85
g71
NtRp2152
(dp2153
g74
(dp2154
sg83
g2148
sg76
(lp2155
g69
(g90
g71
NtRp2156
(dp2157
g74
(dp2158
sg83
g2152
sg76
(lp2159
g69
(g70
g71
NtRp2160
(dp2161
g74
(dp2162
g82
I3
ssg83
g2156
sg76
(lp2163
S'1'
asbasbasbag69
(g85
g71
NtRp2164
(dp2165
g74
(dp2166
sg83
g2148
sg76
(lp2167
g69
(g90
g71
NtRp2168
(dp2169
g74
(dp2170
sg83
g2164
sg76
(lp2171
g69
(g70
g71
NtRp2172
(dp2173
g74
(dp2174
g82
I3
ssg83
g2168
sg76
(lp2175
S'99'
p2176
asbasbasbag69
(g85
g71
NtRp2177
(dp2178
g74
(dp2179
sg83
g2148
sg76
(lp2180
g69
(g90
g71
NtRp2181
(dp2182
g74
(dp2183
sg83
g2177
sg76
(lp2184
g69
(g70
g71
NtRp2185
(dp2186
g74
(dp2187
g82
I3
ssg83
g2181
sg76
(lp2188
S'7'
asbasbasbag69
(g85
g71
NtRp2189
(dp2190
g74
(dp2191
sg83
g2148
sg76
(lp2192
g69
(g90
g71
NtRp2193
(dp2194
g74
(dp2195
sg83
g2189
sg76
(lp2196
g69
(g70
g71
NtRp2197
(dp2198
g74
(dp2199
g82
I3
ssg83
g2193
sg76
(lp2200
S'datetime.datetime(2012, 3, 4, 22, 12, 8)'
p2201
asbasbasbag69
(g85
g71
NtRp2202
(dp2203
g74
(dp2204
sg83
g2148
sg76
(lp2205
g69
(g90
g71
NtRp2206
(dp2207
g74
(dp2208
sg83
g2202
sg76
(lp2209
g69
(g70
g71
NtRp2210
(dp2211
g74
(dp2212
g82
I3
ssg83
g2206
sg76
(lp2213
g1603
asbasbasbasbasbasbasbasbasbasbasbag69
(g85
g71
NtRp2214
(dp2215
g74
(dp2216
sg83
g79
sg76
(lp2217
g69
(g90
g71
NtRp2218
(dp2219
g74
(dp2220
g94
g95
ssg83
g2214
sg76
(lp2221
S'is_https'
p2222
asbag69
(g90
g71
NtRp2223
(dp2224
g74
(dp2225
g101
g102
ssg83
g2214
sg76
(lp2226
S':'
asbag69
(g90
g71
NtRp2227
(dp2228
g74
(dp2229
sg83
g2214
sg76
(lp2230
g69
(g70
g71
NtRp2231
(dp2232
g74
(dp2233
g82
I5
ssg83
g2227
sg76
(lp2234
g112
asbasbasbag69
(g85
g71
NtRp2235
(dp2236
g74
(dp2237
sg83
g79
sg76
(lp2238
g69
(g90
g71
NtRp2239
(dp2240
g74
(dp2241
g94
g95
ssg83
g2235
sg76
(lp2242
S'is_local'
p2243
asbag69
(g90
g71
NtRp2244
(dp2245
g74
(dp2246
g101
g102
ssg83
g2235
sg76
(lp2247
S':'
asbag69
(g90
g71
NtRp2248
(dp2249
g74
(dp2250
sg83
g2235
sg76
(lp2251
g69
(g70
g71
NtRp2252
(dp2253
g74
(dp2254
g82
I5
ssg83
g2248
sg76
(lp2255
g1712
asbasbasbag69
(g85
g71
NtRp2256
(dp2257
g74
(dp2258
sg83
g79
sg76
(lp2259
g69
(g90
g71
NtRp2260
(dp2261
g74
(dp2262
g94
g95
ssg83
g2256
sg76
(lp2263
S'is_restful'
p2264
asbag69
(g90
g71
NtRp2265
(dp2266
g74
(dp2267
g101
g102
ssg83
g2256
sg76
(lp2268
S':'
asbag69
(g90
g71
NtRp2269
(dp2270
g74
(dp2271
sg83
g2256
sg76
(lp2272
g69
(g70
g71
NtRp2273
(dp2274
g74
(dp2275
g82
I5
ssg83
g2269
sg76
(lp2276
g112
asbasbasbag69
(g85
g71
NtRp2277
(dp2278
g74
(dp2279
sg83
g79
sg76
(lp2280
g69
(g90
g71
NtRp2281
(dp2282
g74
(dp2283
g94
g95
ssg83
g2277
sg76
(lp2284
S'now'
p2285
asbag69
(g90
g71
NtRp2286
(dp2287
g74
(dp2288
g101
g102
ssg83
g2277
sg76
(lp2289
S':'
asbag69
(g90
g71
NtRp2290
(dp2291
g74
(dp2292
sg83
g2277
sg76
(lp2293
g69
(g70
g71
NtRp2294
(dp2295
g74
(dp2296
g82
I5
ssg83
g2290
sg76
(lp2297
S'datetime.datetime(2012, 5, 8, 11, 26, 11, 312641)'
p2298
asbasbasbag69
(g85
g71
NtRp2299
(dp2300
g74
(dp2301
sg83
g79
sg76
(lp2302
g69
(g90
g71
NtRp2303
(dp2304
g74
(dp2305
g94
g95
ssg83
g2299
sg76
(lp2306
S'post_vars'
p2307
asbag69
(g90
g71
NtRp2308
(dp2309
g74
(dp2310
g101
g102
ssg83
g2299
sg76
(lp2311
S':'
asbag69
(g90
g71
NtRp2312
(dp2313
g74
(dp2314
sg83
g2299
sg76
(lp2315
g69
(g70
g71
NtRp2316
(dp2317
g74
(dp2318
g82
I5
ssg83
g2312
sg76
(lp2319
g69
(g78
g71
NtRp2320
(dp2321
g74
(dp2322
g82
I4
ssg83
Nsg76
(lp2323
sbasbasbasbag69
(g85
g71
NtRp2324
(dp2325
g74
(dp2326
sg83
g79
sg76
(lp2327
g69
(g90
g71
NtRp2328
(dp2329
g74
(dp2330
g94
g95
ssg83
g2324
sg76
(lp2331
S'url'
p2332
asbag69
(g90
g71
NtRp2333
(dp2334
g74
(dp2335
g101
g102
ssg83
g2324
sg76
(lp2336
S':'
asbag69
(g90
g71
NtRp2337
(dp2338
g74
(dp2339
sg83
g2324
sg76
(lp2340
g69
(g70
g71
NtRp2341
(dp2342
g74
(dp2343
g82
I5
ssg83
g2337
sg76
(lp2344
S'/Starcraft2/default/mybuild'
p2345
asbasbasbag69
(g85
g71
NtRp2346
(dp2347
g74
(dp2348
sg83
g79
sg76
(lp2349
g69
(g90
g71
NtRp2350
(dp2351
g74
(dp2352
g94
g95
ssg83
g2346
sg76
(lp2353
S'utcnow'
p2354
asbag69
(g90
g71
NtRp2355
(dp2356
g74
(dp2357
g101
g102
ssg83
g2346
sg76
(lp2358
S':'
asbag69
(g90
g71
NtRp2359
(dp2360
g74
(dp2361
sg83
g2346
sg76
(lp2362
g69
(g70
g71
NtRp2363
(dp2364
g74
(dp2365
g82
I5
ssg83
g2359
sg76
(lp2366
S'datetime.datetime(2012, 5, 8, 16, 26, 11, 312651)'
p2367
asbasbasbag69
(g85
g71
NtRp2368
(dp2369
g74
(dp2370
sg83
g79
sg76
(lp2371
g69
(g90
g71
NtRp2372
(dp2373
g74
(dp2374
g94
g95
ssg83
g2368
sg76
(lp2375
S'uuid'
p2376
asbag69
(g90
g71
NtRp2377
(dp2378
g74
(dp2379
g101
g102
ssg83
g2368
sg76
(lp2380
S':'
asbag69
(g90
g71
NtRp2381
(dp2382
g74
(dp2383
sg83
g2368
sg76
(lp2384
g69
(g70
g71
NtRp2385
(dp2386
g74
(dp2387
g82
I5
ssg83
g2381
sg76
(lp2388
S'Starcraft2/127.0.0.1.2012-05-08.11-26-11.da4bc2de-ff87-4483-8d45-2b567a377629'
p2389
asbasbasbag69
(g85
g71
NtRp2390
(dp2391
g74
(dp2392
sg83
g79
sg76
(lp2393
g69
(g90
g71
NtRp2394
(dp2395
g74
(dp2396
g94
g95
ssg83
g2390
sg76
(lp2397
S'vars'
p2398
asbag69
(g90
g71
NtRp2399
(dp2400
g74
(dp2401
g101
g102
ssg83
g2390
sg76
(lp2402
S':'
asbag69
(g90
g71
NtRp2403
(dp2404
g74
(dp2405
sg83
g2390
sg76
(lp2406
g69
(g70
g71
NtRp2407
(dp2408
g74
(dp2409
g82
I5
ssg83
g2403
sg76
(lp2410
g69
(g78
g71
NtRp2411
(dp2412
g74
(dp2413
g82
I4
ssg83
Nsg76
(lp2414
sbasbasbasbag69
(g85
g71
NtRp2415
(dp2416
g74
(dp2417
sg83
g79
sg76
(lp2418
g69
(g90
g71
NtRp2419
(dp2420
g74
(dp2421
g94
g95
ssg83
g2415
sg76
(lp2422
S'wsgi'
p2423
asbag69
(g90
g71
NtRp2424
(dp2425
g74
(dp2426
g101
g102
ssg83
g2415
sg76
(lp2427
S':'
asbag69
(g90
g71
NtRp2428
(dp2429
g74
(dp2430
sg83
g2415
sg76
(lp2431
g69
(g70
g71
NtRp2432
(dp2433
g74
(dp2434
g82
I5
ssg83
g2428
sg76
(lp2435
g69
(g78
g71
NtRp2436
(dp2437
g74
(dp2438
g82
I4
ssg83
Nsg76
(lp2439
g69
(g85
g71
NtRp2440
(dp2441
g74
(dp2442
sg83
g2436
sg76
(lp2443
g69
(g90
g71
NtRp2444
(dp2445
g74
(dp2446
g94
g95
ssg83
g2440
sg76
(lp2447
S'environ'
p2448
asbag69
(g90
g71
NtRp2449
(dp2450
g74
(dp2451
g101
g102
ssg83
g2440
sg76
(lp2452
S':'
asbag69
(g90
g71
NtRp2453
(dp2454
g74
(dp2455
sg83
g2440
sg76
(lp2456
g69
(g70
g71
NtRp2457
(dp2458
g74
(dp2459
g82
I4
ssg83
g2453
sg76
(lp2460
g69
(g78
g71
NtRp2461
(dp2462
g74
(dp2463
g82
I3
ssg83
Nsg76
(lp2464
g69
(g85
g71
NtRp2465
(dp2466
g74
(dp2467
sg83
g2461
sg76
(lp2468
g69
(g90
g71
NtRp2469
(dp2470
g74
(dp2471
g94
g95
ssg83
g2465
sg76
(lp2472
S'HTTP_ACCEPT'
p2473
asbag69
(g90
g71
NtRp2474
(dp2475
g74
(dp2476
g101
g102
ssg83
g2465
sg76
(lp2477
S':'
asbag69
(g90
g71
NtRp2478
(dp2479
g74
(dp2480
sg83
g2465
sg76
(lp2481
g69
(g70
g71
NtRp2482
(dp2483
g74
(dp2484
g82
I3
ssg83
g2478
sg76
(lp2485
g1015
asbasbasbag69
(g85
g71
NtRp2486
(dp2487
g74
(dp2488
sg83
g2461
sg76
(lp2489
g69
(g90
g71
NtRp2490
(dp2491
g74
(dp2492
g94
g95
ssg83
g2486
sg76
(lp2493
S'HTTP_ACCEPT_CHARSET'
p2494
asbag69
(g90
g71
NtRp2495
(dp2496
g74
(dp2497
g101
g102
ssg83
g2486
sg76
(lp2498
S':'
asbag69
(g90
g71
NtRp2499
(dp2500
g74
(dp2501
sg83
g2486
sg76
(lp2502
g69
(g70
g71
NtRp2503
(dp2504
g74
(dp2505
g82
I3
ssg83
g2499
sg76
(lp2506
g1037
asbasbasbag69
(g85
g71
NtRp2507
(dp2508
g74
(dp2509
sg83
g2461
sg76
(lp2510
g69
(g90
g71
NtRp2511
(dp2512
g74
(dp2513
g94
g95
ssg83
g2507
sg76
(lp2514
S'HTTP_ACCEPT_ENCODING'
p2515
asbag69
(g90
g71
NtRp2516
(dp2517
g74
(dp2518
g101
g102
ssg83
g2507
sg76
(lp2519
S':'
asbag69
(g90
g71
NtRp2520
(dp2521
g74
(dp2522
sg83
g2507
sg76
(lp2523
g69
(g70
g71
NtRp2524
(dp2525
g74
(dp2526
g82
I3
ssg83
g2520
sg76
(lp2527
g1059
asbasbasbag69
(g85
g71
NtRp2528
(dp2529
g74
(dp2530
sg83
g2461
sg76
(lp2531
g69
(g90
g71
NtRp2532
(dp2533
g74
(dp2534
g94
g95
ssg83
g2528
sg76
(lp2535
S'HTTP_ACCEPT_LANGUAGE'
p2536
asbag69
(g90
g71
NtRp2537
(dp2538
g74
(dp2539
g101
g102
ssg83
g2528
sg76
(lp2540
S':'
asbag69
(g90
g71
NtRp2541
(dp2542
g74
(dp2543
sg83
g2528
sg76
(lp2544
g69
(g70
g71
NtRp2545
(dp2546
g74
(dp2547
g82
I3
ssg83
g2541
sg76
(lp2548
g1081
asbasbasbag69
(g85
g71
NtRp2549
(dp2550
g74
(dp2551
sg83
g2461
sg76
(lp2552
g69
(g90
g71
NtRp2553
(dp2554
g74
(dp2555
g94
g95
ssg83
g2549
sg76
(lp2556
S'HTTP_CACHE_CONTROL'
p2557
asbag69
(g90
g71
NtRp2558
(dp2559
g74
(dp2560
g101
g102
ssg83
g2549
sg76
(lp2561
S':'
asbag69
(g90
g71
NtRp2562
(dp2563
g74
(dp2564
sg83
g2549
sg76
(lp2565
g69
(g70
g71
NtRp2566
(dp2567
g74
(dp2568
g82
I3
ssg83
g2562
sg76
(lp2569
g1103
asbasbasbag69
(g85
g71
NtRp2570
(dp2571
g74
(dp2572
sg83
g2461
sg76
(lp2573
g69
(g90
g71
NtRp2574
(dp2575
g74
(dp2576
g94
g95
ssg83
g2570
sg76
(lp2577
S'HTTP_CONNECTION'
p2578
asbag69
(g90
g71
NtRp2579
(dp2580
g74
(dp2581
g101
g102
ssg83
g2570
sg76
(lp2582
S':'
asbag69
(g90
g71
NtRp2583
(dp2584
g74
(dp2585
sg83
g2570
sg76
(lp2586
g69
(g70
g71
NtRp2587
(dp2588
g74
(dp2589
g82
I3
ssg83
g2583
sg76
(lp2590
g1125
asbasbasbag69
(g85
g71
NtRp2591
(dp2592
g74
(dp2593
sg83
g2461
sg76
(lp2594
g69
(g90
g71
NtRp2595
(dp2596
g74
(dp2597
g94
g95
ssg83
g2591
sg76
(lp2598
S'HTTP_COOKIE'
p2599
asbag69
(g90
g71
NtRp2600
(dp2601
g74
(dp2602
g101
g102
ssg83
g2591
sg76
(lp2603
S':'
asbag69
(g90
g71
NtRp2604
(dp2605
g74
(dp2606
sg83
g2591
sg76
(lp2607
g69
(g70
g71
NtRp2608
(dp2609
g74
(dp2610
g82
I3
ssg83
g2604
sg76
(lp2611
g1147
asbasbasbag69
(g85
g71
NtRp2612
(dp2613
g74
(dp2614
sg83
g2461
sg76
(lp2615
g69
(g90
g71
NtRp2616
(dp2617
g74
(dp2618
g94
g95
ssg83
g2612
sg76
(lp2619
S'HTTP_HOST'
p2620
asbag69
(g90
g71
NtRp2621
(dp2622
g74
(dp2623
g101
g102
ssg83
g2612
sg76
(lp2624
S':'
asbag69
(g90
g71
NtRp2625
(dp2626
g74
(dp2627
sg83
g2612
sg76
(lp2628
g69
(g70
g71
NtRp2629
(dp2630
g74
(dp2631
g82
I3
ssg83
g2625
sg76
(lp2632
g1169
asbasbasbag69
(g85
g71
NtRp2633
(dp2634
g74
(dp2635
sg83
g2461
sg76
(lp2636
g69
(g90
g71
NtRp2637
(dp2638
g74
(dp2639
g94
g95
ssg83
g2633
sg76
(lp2640
S'HTTP_REFERER'
p2641
asbag69
(g90
g71
NtRp2642
(dp2643
g74
(dp2644
g101
g102
ssg83
g2633
sg76
(lp2645
S':'
asbag69
(g90
g71
NtRp2646
(dp2647
g74
(dp2648
sg83
g2633
sg76
(lp2649
g69
(g70
g71
NtRp2650
(dp2651
g74
(dp2652
g82
I3
ssg83
g2646
sg76
(lp2653
g1191
asbasbasbag69
(g85
g71
NtRp2654
(dp2655
g74
(dp2656
sg83
g2461
sg76
(lp2657
g69
(g90
g71
NtRp2658
(dp2659
g74
(dp2660
g94
g95
ssg83
g2654
sg76
(lp2661
S'HTTP_USER_AGENT'
p2662
asbag69
(g90
g71
NtRp2663
(dp2664
g74
(dp2665
g101
g102
ssg83
g2654
sg76
(lp2666
S':'
asbag69
(g90
g71
NtRp2667
(dp2668
g74
(dp2669
sg83
g2654
sg76
(lp2670
g69
(g70
g71
NtRp2671
(dp2672
g74
(dp2673
g82
I3
ssg83
g2667
sg76
(lp2674
g1213
asbasbasbag69
(g85
g71
NtRp2675
(dp2676
g74
(dp2677
sg83
g2461
sg76
(lp2678
g69
(g90
g71
NtRp2679
(dp2680
g74
(dp2681
g94
g95
ssg83
g2675
sg76
(lp2682
S'PATH_INFO'
p2683
asbag69
(g90
g71
NtRp2684
(dp2685
g74
(dp2686
g101
g102
ssg83
g2675
sg76
(lp2687
S':'
asbag69
(g90
g71
NtRp2688
(dp2689
g74
(dp2690
sg83
g2675
sg76
(lp2691
g69
(g70
g71
NtRp2692
(dp2693
g74
(dp2694
g82
I3
ssg83
g2688
sg76
(lp2695
g1277
asbasbasbag69
(g85
g71
NtRp2696
(dp2697
g74
(dp2698
sg83
g2461
sg76
(lp2699
g69
(g90
g71
NtRp2700
(dp2701
g74
(dp2702
g94
g95
ssg83
g2696
sg76
(lp2703
S'QUERY_STRING'
p2704
asbag69
(g90
g71
NtRp2705
(dp2706
g74
(dp2707
g101
g102
ssg83
g2696
sg76
(lp2708
S':'
asbag69
(g90
g71
NtRp2709
(dp2710
g74
(dp2711
sg83
g2696
sg76
(lp2712
g69
(g70
g71
NtRp2713
(dp2714
g74
(dp2715
g82
I3
ssg83
g2709
sg76
(lp2716
S''
asbasbasbag69
(g85
g71
NtRp2717
(dp2718
g74
(dp2719
sg83
g2461
sg76
(lp2720
g69
(g90
g71
NtRp2721
(dp2722
g74
(dp2723
g94
g95
ssg83
g2717
sg76
(lp2724
S'REMOTE_ADDR'
p2725
asbag69
(g90
g71
NtRp2726
(dp2727
g74
(dp2728
g101
g102
ssg83
g2717
sg76
(lp2729
S':'
asbag69
(g90
g71
NtRp2730
(dp2731
g74
(dp2732
sg83
g2717
sg76
(lp2733
g69
(g70
g71
NtRp2734
(dp2735
g74
(dp2736
g82
I3
ssg83
g2730
sg76
(lp2737
g202
asbasbasbag69
(g85
g71
NtRp2738
(dp2739
g74
(dp2740
sg83
g2461
sg76
(lp2741
g69
(g90
g71
NtRp2742
(dp2743
g74
(dp2744
g94
g95
ssg83
g2738
sg76
(lp2745
S'REMOTE_PORT'
p2746
asbag69
(g90
g71
NtRp2747
(dp2748
g74
(dp2749
g101
g102
ssg83
g2738
sg76
(lp2750
S':'
asbag69
(g90
g71
NtRp2751
(dp2752
g74
(dp2753
sg83
g2738
sg76
(lp2754
g69
(g70
g71
NtRp2755
(dp2756
g74
(dp2757
g82
I3
ssg83
g2751
sg76
(lp2758
g1341
asbasbasbag69
(g85
g71
NtRp2759
(dp2760
g74
(dp2761
sg83
g2461
sg76
(lp2762
g69
(g90
g71
NtRp2763
(dp2764
g74
(dp2765
g94
g95
ssg83
g2759
sg76
(lp2766
S'REQUEST_METHOD'
p2767
asbag69
(g90
g71
NtRp2768
(dp2769
g74
(dp2770
g101
g102
ssg83
g2759
sg76
(lp2771
S':'
asbag69
(g90
g71
NtRp2772
(dp2773
g74
(dp2774
sg83
g2759
sg76
(lp2775
g69
(g70
g71
NtRp2776
(dp2777
g74
(dp2778
g82
I3
ssg83
g2772
sg76
(lp2779
g1363
asbasbasbag69
(g85
g71
NtRp2780
(dp2781
g74
(dp2782
sg83
g2461
sg76
(lp2783
g69
(g90
g71
NtRp2784
(dp2785
g74
(dp2786
g94
g95
ssg83
g2780
sg76
(lp2787
S'SCRIPT_NAME'
p2788
asbag69
(g90
g71
NtRp2789
(dp2790
g74
(dp2791
g101
g102
ssg83
g2780
sg76
(lp2792
S':'
asbag69
(g90
g71
NtRp2793
(dp2794
g74
(dp2795
sg83
g2780
sg76
(lp2796
g69
(g70
g71
NtRp2797
(dp2798
g74
(dp2799
g82
I3
ssg83
g2793
sg76
(lp2800
S''
asbasbasbag69
(g85
g71
NtRp2801
(dp2802
g74
(dp2803
sg83
g2461
sg76
(lp2804
g69
(g90
g71
NtRp2805
(dp2806
g74
(dp2807
g94
g95
ssg83
g2801
sg76
(lp2808
S'SERVER_NAME'
p2809
asbag69
(g90
g71
NtRp2810
(dp2811
g74
(dp2812
g101
g102
ssg83
g2801
sg76
(lp2813
S':'
asbag69
(g90
g71
NtRp2814
(dp2815
g74
(dp2816
sg83
g2801
sg76
(lp2817
g69
(g70
g71
NtRp2818
(dp2819
g74
(dp2820
g82
I3
ssg83
g2814
sg76
(lp2821
g1406
asbasbasbag69
(g85
g71
NtRp2822
(dp2823
g74
(dp2824
sg83
g2461
sg76
(lp2825
g69
(g90
g71
NtRp2826
(dp2827
g74
(dp2828
g94
g95
ssg83
g2822
sg76
(lp2829
S'SERVER_PORT'
p2830
asbag69
(g90
g71
NtRp2831
(dp2832
g74
(dp2833
g101
g102
ssg83
g2822
sg76
(lp2834
S':'
asbag69
(g90
g71
NtRp2835
(dp2836
g74
(dp2837
sg83
g2822
sg76
(lp2838
g69
(g70
g71
NtRp2839
(dp2840
g74
(dp2841
g82
I3
ssg83
g2835
sg76
(lp2842
g1428
asbasbasbag69
(g85
g71
NtRp2843
(dp2844
g74
(dp2845
sg83
g2461
sg76
(lp2846
g69
(g90
g71
NtRp2847
(dp2848
g74
(dp2849
g94
g95
ssg83
g2843
sg76
(lp2850
S'SERVER_PROTOCOL'
p2851
asbag69
(g90
g71
NtRp2852
(dp2853
g74
(dp2854
g101
g102
ssg83
g2843
sg76
(lp2855
S':'
asbag69
(g90
g71
NtRp2856
(dp2857
g74
(dp2858
sg83
g2843
sg76
(lp2859
g69
(g70
g71
NtRp2860
(dp2861
g74
(dp2862
g82
I3
ssg83
g2856
sg76
(lp2863
g1450
asbasbasbag69
(g85
g71
NtRp2864
(dp2865
g74
(dp2866
sg83
g2461
sg76
(lp2867
g69
(g90
g71
NtRp2868
(dp2869
g74
(dp2870
g94
g95
ssg83
g2864
sg76
(lp2871
S'SERVER_SOFTWARE'
p2872
asbag69
(g90
g71
NtRp2873
(dp2874
g74
(dp2875
g101
g102
ssg83
g2864
sg76
(lp2876
S':'
asbag69
(g90
g71
NtRp2877
(dp2878
g74
(dp2879
sg83
g2864
sg76
(lp2880
g69
(g70
g71
NtRp2881
(dp2882
g74
(dp2883
g82
I3
ssg83
g2877
sg76
(lp2884
g1472
asbasbasbag69
(g85
g71
NtRp2885
(dp2886
g74
(dp2887
sg83
g2461
sg76
(lp2888
g69
(g90
g71
NtRp2889
(dp2890
g74
(dp2891
g94
g95
ssg83
g2885
sg76
(lp2892
S'wsgi.errors'
p2893
asbag69
(g90
g71
NtRp2894
(dp2895
g74
(dp2896
g101
g102
ssg83
g2885
sg76
(lp2897
S':'
asbag69
(g90
g71
NtRp2898
(dp2899
g74
(dp2900
sg83
g2885
sg76
(lp2901
g69
(g70
g71
NtRp2902
(dp2903
g74
(dp2904
g82
I3
ssg83
g2898
sg76
(lp2905
S"<open file '<stderr>', mode 'w' at 0x100282270>"
p2906
asbasbasbag69
(g85
g71
NtRp2907
(dp2908
g74
(dp2909
sg83
g2461
sg76
(lp2910
g69
(g90
g71
NtRp2911
(dp2912
g74
(dp2913
g94
g95
ssg83
g2907
sg76
(lp2914
S'wsgi.file_wrapper'
p2915
asbag69
(g90
g71
NtRp2916
(dp2917
g74
(dp2918
g101
g102
ssg83
g2907
sg76
(lp2919
S':'
asbag69
(g90
g71
NtRp2920
(dp2921
g74
(dp2922
sg83
g2907
sg76
(lp2923
g69
(g70
g71
NtRp2924
(dp2925
g74
(dp2926
g82
I3
ssg83
g2920
sg76
(lp2927
S'<class wsgiref.util.FileWrapper at 0x1012b4d50>'
p2928
asbasbasbag69
(g85
g71
NtRp2929
(dp2930
g74
(dp2931
sg83
g2461
sg76
(lp2932
g69
(g90
g71
NtRp2933
(dp2934
g74
(dp2935
g94
g95
ssg83
g2929
sg76
(lp2936
S'wsgi.input'
p2937
asbag69
(g90
g71
NtRp2938
(dp2939
g74
(dp2940
g101
g102
ssg83
g2929
sg76
(lp2941
S':'
asbag69
(g90
g71
NtRp2942
(dp2943
g74
(dp2944
sg83
g2929
sg76
(lp2945
g69
(g70
g71
NtRp2946
(dp2947
g74
(dp2948
g82
I3
ssg83
g2942
sg76
(lp2949
S'<cStringIO.StringO object at 0x1019c9458>'
p2950
asbasbasbag69
(g85
g71
NtRp2951
(dp2952
g74
(dp2953
sg83
g2461
sg76
(lp2954
g69
(g90
g71
NtRp2955
(dp2956
g74
(dp2957
g94
g95
ssg83
g2951
sg76
(lp2958
S'wsgi.multiprocess'
p2959
asbag69
(g90
g71
NtRp2960
(dp2961
g74
(dp2962
g101
g102
ssg83
g2951
sg76
(lp2963
S':'
asbag69
(g90
g71
NtRp2964
(dp2965
g74
(dp2966
sg83
g2951
sg76
(lp2967
g69
(g70
g71
NtRp2968
(dp2969
g74
(dp2970
g82
I3
ssg83
g2964
sg76
(lp2971
g112
asbasbasbag69
(g85
g71
NtRp2972
(dp2973
g74
(dp2974
sg83
g2461
sg76
(lp2975
g69
(g90
g71
NtRp2976
(dp2977
g74
(dp2978
g94
g95
ssg83
g2972
sg76
(lp2979
S'wsgi.multithread'
p2980
asbag69
(g90
g71
NtRp2981
(dp2982
g74
(dp2983
g101
g102
ssg83
g2972
sg76
(lp2984
S':'
asbag69
(g90
g71
NtRp2985
(dp2986
g74
(dp2987
sg83
g2972
sg76
(lp2988
g69
(g70
g71
NtRp2989
(dp2990
g74
(dp2991
g82
I3
ssg83
g2985
sg76
(lp2992
g1712
asbasbasbag69
(g85
g71
NtRp2993
(dp2994
g74
(dp2995
sg83
g2461
sg76
(lp2996
g69
(g90
g71
NtRp2997
(dp2998
g74
(dp2999
g94
g95
ssg83
g2993
sg76
(lp3000
S'wsgi.run_once'
p3001
asbag69
(g90
g71
NtRp3002
(dp3003
g74
(dp3004
g101
g102
ssg83
g2993
sg76
(lp3005
S':'
asbag69
(g90
g71
NtRp3006
(dp3007
g74
(dp3008
sg83
g2993
sg76
(lp3009
g69
(g70
g71
NtRp3010
(dp3011
g74
(dp3012
g82
I3
ssg83
g3006
sg76
(lp3013
g112
asbasbasbag69
(g85
g71
NtRp3014
(dp3015
g74
(dp3016
sg83
g2461
sg76
(lp3017
g69
(g90
g71
NtRp3018
(dp3019
g74
(dp3020
g94
g95
ssg83
g3014
sg76
(lp3021
S'wsgi.url_scheme'
p3022
asbag69
(g90
g71
NtRp3023
(dp3024
g74
(dp3025
g101
g102
ssg83
g3014
sg76
(lp3026
S':'
asbag69
(g90
g71
NtRp3027
(dp3028
g74
(dp3029
sg83
g3014
sg76
(lp3030
g69
(g70
g71
NtRp3031
(dp3032
g74
(dp3033
g82
I3
ssg83
g3027
sg76
(lp3034
g1755
asbasbasbag69
(g85
g71
NtRp3035
(dp3036
g74
(dp3037
sg83
g2461
sg76
(lp3038
g69
(g90
g71
NtRp3039
(dp3040
g74
(dp3041
g94
g95
ssg83
g3035
sg76
(lp3042
S'wsgi.version'
p3043
asbag69
(g90
g71
NtRp3044
(dp3045
g74
(dp3046
g101
g102
ssg83
g3035
sg76
(lp3047
S':'
asbag69
(g90
g71
NtRp3048
(dp3049
g74
(dp3050
sg83
g3035
sg76
(lp3051
g69
(g70
g71
NtRp3052
(dp3053
g74
(dp3054
g82
I3
ssg83
g3048
sg76
(lp3055
S'1'
asbasbasbasbasbasbasbasbasbasbasbasbasbsS'frames'
p3056
(lp3057
(dp3058
S'file'
p3059
S'/Users/hainna01/Downloads/web2py/gluon/restricted.py'
p3060
sS'dump'
p3061
(dp3062
S'code'
p3063
S'r"response.write(\'<!DOCTYPE html>\\n<!-- paulirish....ponse.write(\'\\n</body>\\n</html>\\n\', escape=False)"'
p3064
sS'layer'
p3065
S"'/Users/hainna01/Downloads/web2py/applications/Starcraft2/views/default/mybuild.html'"
p3066
sS'global compile2'
p3067
S'<function compile2>'
p3068
sS'ccode'
p3069
S'undefined'
p3070
ssS'lnum'
p3071
I204
sS'lines'
p3072
(dp3073
I199
S"    environment['__name__'] = '__restricted__'"
p3074
sI200
S'    try:'
p3075
sI201
S'        if type(code) == types.CodeType:'
p3076
sI202
S'            ccode = code'
p3077
sI203
S'        else:'
p3078
sI204
S'            ccode = compile2(code,layer)'
p3079
sI205
S'        exec ccode in environment'
p3080
sI206
S'    except HTTP:'
p3081
sI207
S'        raise'
p3082
sI208
S'    except RestrictedError:'
p3083
ssS'call'
p3084
S'(code=r"response.write(\'<!DOCTYPE html>\\n<!-- paulirish....ponse.write(\'\\n</body>\\n</html>\\n\', escape=False)", environment={\'A\': <class \'gluon.html.A\'>, \'Auth\': <class \'gluon.tools.Auth\'>, \'B\': <class \'gluon.html.B\'>, \'BEAUTIFY\': <class \'gluon.html.BEAUTIFY\'>, \'BODY\': <class \'gluon.html.BODY\'>, \'BR\': <class \'gluon.html.BR\'>, \'BUTTON\': <class \'gluon.html.BUTTON\'>, \'CAT\': <class \'gluon.html.CAT\'>, \'CENTER\': <class \'gluon.html.CENTER\'>, \'CLEANUP\': <class \'gluon.validators.CLEANUP\'>, ...}, layer=\'/Users/hainna01/Downloads/web2py/applications/Starcraft2/views/default/mybuild.html\')'
p3085
sS'func'
p3086
S'restricted'
p3087
sa(dp3088
g3059
S'/Users/hainna01/Downloads/web2py/gluon/restricted.py'
p3089
sg3061
(dp3090
S'builtincompile'
p3091
S'<built-in function compile>'
p3092
sS'code'
p3093
S'r"response.write(\'<!DOCTYPE html>\\n<!-- paulirish....ponse.write(\'\\n</body>\\n</html>\\n\', escape=False)"'
p3094
sS'code.rstrip'
p3095
S'<built-in method rstrip of str object>'
p3096
sS').replace'
p3097
g3070
sS'layer'
p3098
S"'/Users/hainna01/Downloads/web2py/applications/Starcraft2/views/default/mybuild.html'"
p3099
ssg3071
I189
sg3072
(dp3100
I192
S'    """'
p3101
sI193
S'    runs code in environment and returns the output. if an exception occurs'
p3102
sI184
S''
sI185
S'def compile2(code,layer):'
p3103
sI186
S'    """'
p3104
sI187
S"    The +'\\n' is necessary else compile fails when code ends in a comment."
p3105
sI188
S'    """'
p3106
sI189
S"    return compile(code.rstrip().replace('\\r\\n','\\n')+'\\n', layer, 'exec')"
p3107
sI190
S''
sI191
S"def restricted(code, environment=None, layer='Unknown'):"
p3108
ssg3084
S'(code=r"response.write(\'<!DOCTYPE html>\\n<!-- paulirish....ponse.write(\'\\n</body>\\n</html>\\n\', escape=False)", layer=\'/Users/hainna01/Downloads/web2py/applications/Starcraft2/views/default/mybuild.html\')'
p3109
sg3086
S'compile2'
p3110
sasS'pyver'
p3111
S'Python 2.7.2: /Library/Frameworks/Python.framework/Versions/2.7/Resources/Python.app/Contents/MacOS/Python'
p3112
sS'session'
p3113
g69
(g70
g71
NtRp3114
(dp3115
g74
(dp3116
sg76
(lp3117
g69
(g78
g71
NtRp3118
(dp3119
g74
(dp3120
g82
I5
ssg83
Nsg76
(lp3121
g69
(g85
g71
NtRp3122
(dp3123
g74
(dp3124
sg83
g3118
sg76
(lp3125
g69
(g90
g71
NtRp3126
(dp3127
g74
(dp3128
g94
g95
ssg83
g3122
sg76
(lp3129
S'auth'
p3130
asbag69
(g90
g71
NtRp3131
(dp3132
g74
(dp3133
g101
g102
ssg83
g3122
sg76
(lp3134
S':'
asbag69
(g90
g71
NtRp3135
(dp3136
g74
(dp3137
sg83
g3122
sg76
(lp3138
g69
(g70
g71
NtRp3139
(dp3140
g74
(dp3141
g82
I5
ssg83
g3135
sg76
(lp3142
g69
(g78
g71
NtRp3143
(dp3144
g74
(dp3145
g82
I4
ssg83
Nsg76
(lp3146
g69
(g85
g71
NtRp3147
(dp3148
g74
(dp3149
sg83
g3143
sg76
(lp3150
g69
(g90
g71
NtRp3151
(dp3152
g74
(dp3153
g94
g95
ssg83
g3147
sg76
(lp3154
S'expiration'
p3155
asbag69
(g90
g71
NtRp3156
(dp3157
g74
(dp3158
g101
g102
ssg83
g3147
sg76
(lp3159
S':'
asbag69
(g90
g71
NtRp3160
(dp3161
g74
(dp3162
sg83
g3147
sg76
(lp3163
g69
(g70
g71
NtRp3164
(dp3165
g74
(dp3166
g82
I4
ssg83
g3160
sg76
(lp3167
S'2592000'
p3168
asbasbasbag69
(g85
g71
NtRp3169
(dp3170
g74
(dp3171
sg83
g3143
sg76
(lp3172
g69
(g90
g71
NtRp3173
(dp3174
g74
(dp3175
g94
g95
ssg83
g3169
sg76
(lp3176
S'hmac_key'
p3177
asbag69
(g90
g71
NtRp3178
(dp3179
g74
(dp3180
g101
g102
ssg83
g3169
sg76
(lp3181
S':'
asbag69
(g90
g71
NtRp3182
(dp3183
g74
(dp3184
sg83
g3169
sg76
(lp3185
g69
(g70
g71
NtRp3186
(dp3187
g74
(dp3188
g82
I4
ssg83
g3182
sg76
(lp3189
S'39904297-420d-4e51-acba-4ea93c8410a5'
p3190
asbasbasbag69
(g85
g71
NtRp3191
(dp3192
g74
(dp3193
sg83
g3143
sg76
(lp3194
g69
(g90
g71
NtRp3195
(dp3196
g74
(dp3197
g94
g95
ssg83
g3191
sg76
(lp3198
S'last_visit'
p3199
asbag69
(g90
g71
NtRp3200
(dp3201
g74
(dp3202
g101
g102
ssg83
g3191
sg76
(lp3203
S':'
asbag69
(g90
g71
NtRp3204
(dp3205
g74
(dp3206
sg83
g3191
sg76
(lp3207
g69
(g70
g71
NtRp3208
(dp3209
g74
(dp3210
g82
I4
ssg83
g3204
sg76
(lp3211
S'datetime.datetime(2012, 5, 8, 10, 34, 24, 527939)'
p3212
asbasbasbag69
(g85
g71
NtRp3213
(dp3214
g74
(dp3215
sg83
g3143
sg76
(lp3216
g69
(g90
g71
NtRp3217
(dp3218
g74
(dp3219
g94
g95
ssg83
g3213
sg76
(lp3220
S'remember'
p3221
asbag69
(g90
g71
NtRp3222
(dp3223
g74
(dp3224
g101
g102
ssg83
g3213
sg76
(lp3225
S':'
asbag69
(g90
g71
NtRp3226
(dp3227
g74
(dp3228
sg83
g3213
sg76
(lp3229
g69
(g70
g71
NtRp3230
(dp3231
g74
(dp3232
g82
I4
ssg83
g3226
sg76
(lp3233
g1712
asbasbasbag69
(g85
g71
NtRp3234
(dp3235
g74
(dp3236
sg83
g3143
sg76
(lp3237
g69
(g90
g71
NtRp3238
(dp3239
g74
(dp3240
g94
g95
ssg83
g3234
sg76
(lp3241
S'user'
p3242
asbag69
(g90
g71
NtRp3243
(dp3244
g74
(dp3245
g101
g102
ssg83
g3234
sg76
(lp3246
S':'
asbag69
(g90
g71
NtRp3247
(dp3248
g74
(dp3249
sg83
g3234
sg76
(lp3250
g69
(g70
g71
NtRp3251
(dp3252
g74
(dp3253
g82
I4
ssg83
g3247
sg76
(lp3254
g69
(g78
g71
NtRp3255
(dp3256
g74
(dp3257
g82
I3
ssg83
Nsg76
(lp3258
g69
(g85
g71
NtRp3259
(dp3260
g74
(dp3261
sg83
g3255
sg76
(lp3262
g69
(g90
g71
NtRp3263
(dp3264
g74
(dp3265
g94
g95
ssg83
g3259
sg76
(lp3266
S'email'
p3267
asbag69
(g90
g71
NtRp3268
(dp3269
g74
(dp3270
g101
g102
ssg83
g3259
sg76
(lp3271
S':'
asbag69
(g90
g71
NtRp3272
(dp3273
g74
(dp3274
sg83
g3259
sg76
(lp3275
g69
(g70
g71
NtRp3276
(dp3277
g74
(dp3278
g82
I3
ssg83
g3272
sg76
(lp3279
S'hainna01@luther.edu'
p3280
asbasbasbag69
(g85
g71
NtRp3281
(dp3282
g74
(dp3283
sg83
g3255
sg76
(lp3284
g69
(g90
g71
NtRp3285
(dp3286
g74
(dp3287
g94
g95
ssg83
g3281
sg76
(lp3288
S'first_name'
p3289
asbag69
(g90
g71
NtRp3290
(dp3291
g74
(dp3292
g101
g102
ssg83
g3281
sg76
(lp3293
S':'
asbag69
(g90
g71
NtRp3294
(dp3295
g74
(dp3296
sg83
g3281
sg76
(lp3297
g69
(g70
g71
NtRp3298
(dp3299
g74
(dp3300
g82
I3
ssg83
g3294
sg76
(lp3301
S'Nathan'
p3302
asbasbasbag69
(g85
g71
NtRp3303
(dp3304
g74
(dp3305
sg83
g3255
sg76
(lp3306
g69
(g90
g71
NtRp3307
(dp3308
g74
(dp3309
g94
g95
ssg83
g3303
sg76
(lp3310
S'id'
p3311
asbag69
(g90
g71
NtRp3312
(dp3313
g74
(dp3314
g101
g102
ssg83
g3303
sg76
(lp3315
S':'
asbag69
(g90
g71
NtRp3316
(dp3317
g74
(dp3318
sg83
g3303
sg76
(lp3319
g69
(g70
g71
NtRp3320
(dp3321
g74
(dp3322
g82
I3
ssg83
g3316
sg76
(lp3323
S'1'
asbasbasbag69
(g85
g71
NtRp3324
(dp3325
g74
(dp3326
sg83
g3255
sg76
(lp3327
g69
(g90
g71
NtRp3328
(dp3329
g74
(dp3330
g94
g95
ssg83
g3324
sg76
(lp3331
S'last_name'
p3332
asbag69
(g90
g71
NtRp3333
(dp3334
g74
(dp3335
g101
g102
ssg83
g3324
sg76
(lp3336
S':'
asbag69
(g90
g71
NtRp3337
(dp3338
g74
(dp3339
sg83
g3324
sg76
(lp3340
g69
(g70
g71
NtRp3341
(dp3342
g74
(dp3343
g82
I3
ssg83
g3337
sg76
(lp3344
S'Haines'
p3345
asbasbasbag69
(g85
g71
NtRp3346
(dp3347
g74
(dp3348
sg83
g3255
sg76
(lp3349
g69
(g90
g71
NtRp3350
(dp3351
g74
(dp3352
g94
g95
ssg83
g3346
sg76
(lp3353
S'password'
p3354
asbag69
(g90
g71
NtRp3355
(dp3356
g74
(dp3357
g101
g102
ssg83
g3346
sg76
(lp3358
S':'
asbag69
(g90
g71
NtRp3359
(dp3360
g74
(dp3361
sg83
g3346
sg76
(lp3362
g69
(g70
g71
NtRp3363
(dp3364
g74
(dp3365
g82
I3
ssg83
g3359
sg76
(lp3366
S'69170c197bb10e8a02203b4713d1b379'
p3367
asbasbasbag69
(g85
g71
NtRp3368
(dp3369
g74
(dp3370
sg83
g3255
sg76
(lp3371
g69
(g90
g71
NtRp3372
(dp3373
g74
(dp3374
g94
g95
ssg83
g3368
sg76
(lp3375
S'registration_id'
p3376
asbag69
(g90
g71
NtRp3377
(dp3378
g74
(dp3379
g101
g102
ssg83
g3368
sg76
(lp3380
S':'
asbag69
(g90
g71
NtRp3381
(dp3382
g74
(dp3383
sg83
g3368
sg76
(lp3384
g69
(g70
g71
NtRp3385
(dp3386
g74
(dp3387
g82
I3
ssg83
g3381
sg76
(lp3388
S''
asbasbasbag69
(g85
g71
NtRp3389
(dp3390
g74
(dp3391
sg83
g3255
sg76
(lp3392
g69
(g90
g71
NtRp3393
(dp3394
g74
(dp3395
g94
g95
ssg83
g3389
sg76
(lp3396
S'registration_key'
p3397
asbag69
(g90
g71
NtRp3398
(dp3399
g74
(dp3400
g101
g102
ssg83
g3389
sg76
(lp3401
S':'
asbag69
(g90
g71
NtRp3402
(dp3403
g74
(dp3404
sg83
g3389
sg76
(lp3405
g69
(g70
g71
NtRp3406
(dp3407
g74
(dp3408
g82
I3
ssg83
g3402
sg76
(lp3409
S''
asbasbasbag69
(g85
g71
NtRp3410
(dp3411
g74
(dp3412
sg83
g3255
sg76
(lp3413
g69
(g90
g71
NtRp3414
(dp3415
g74
(dp3416
g94
g95
ssg83
g3410
sg76
(lp3417
S'reset_password_key'
p3418
asbag69
(g90
g71
NtRp3419
(dp3420
g74
(dp3421
g101
g102
ssg83
g3410
sg76
(lp3422
S':'
asbag69
(g90
g71
NtRp3423
(dp3424
g74
(dp3425
sg83
g3410
sg76
(lp3426
g69
(g70
g71
NtRp3427
(dp3428
g74
(dp3429
g82
I3
ssg83
g3423
sg76
(lp3430
S''
asbasbasbasbasbasbasbag69
(g85
g71
NtRp3431
(dp3432
g74
(dp3433
sg83
g3143
sg76
(lp3434
g69
(g90
g71
NtRp3435
(dp3436
g74
(dp3437
g94
g95
ssg83
g3431
sg76
(lp3438
S'user_groups'
p3439
asbag69
(g90
g71
NtRp3440
(dp3441
g74
(dp3442
g101
g102
ssg83
g3431
sg76
(lp3443
S':'
asbag69
(g90
g71
NtRp3444
(dp3445
g74
(dp3446
sg83
g3431
sg76
(lp3447
g69
(g70
g71
NtRp3448
(dp3449
g74
(dp3450
g82
I4
ssg83
g3444
sg76
(lp3451
g69
(g78
g71
NtRp3452
(dp3453
g74
(dp3454
g82
I3
ssg83
Nsg76
(lp3455
g69
(g85
g71
NtRp3456
(dp3457
g74
(dp3458
sg83
g3452
sg76
(lp3459
g69
(g90
g71
NtRp3460
(dp3461
g74
(dp3462
g94
g95
ssg83
g3456
sg76
(lp3463
S'1'
asbag69
(g90
g71
NtRp3464
(dp3465
g74
(dp3466
g101
g102
ssg83
g3456
sg76
(lp3467
S':'
asbag69
(g90
g71
NtRp3468
(dp3469
g74
(dp3470
sg83
g3456
sg76
(lp3471
g69
(g70
g71
NtRp3472
(dp3473
g74
(dp3474
g82
I3
ssg83
g3468
sg76
(lp3475
S'user_1'
p3476
asbasbasbasbasbasbasbasbasbasbasbag69
(g85
g71
NtRp3477
(dp3478
g74
(dp3479
sg83
g3118
sg76
(lp3480
g69
(g90
g71
NtRp3481
(dp3482
g74
(dp3483
g94
g95
ssg83
g3477
sg76
(lp3484
S'last_query'
p3485
asbag69
(g90
g71
NtRp3486
(dp3487
g74
(dp3488
g101
g102
ssg83
g3477
sg76
(lp3489
S':'
asbag69
(g90
g71
NtRp3490
(dp3491
g74
(dp3492
sg83
g3477
sg76
(lp3493
g69
(g70
g71
NtRp3494
(dp3495
g74
(dp3496
g82
I5
ssg83
g3490
sg76
(lp3497
S'db.Build.id>0'
p3498
asbasbasbasbasbsS'etype'
p3499
S"<type 'exceptions.SyntaxError'>"
p3500
sS'date'
p3501
S'Tue May  8 11:26:11 2012'
p3502
sS'response'
p3503
g69
(g70
g71
NtRp3504
(dp3505
g74
(dp3506
sg76
(lp3507
g69
(g78
g71
NtRp3508
(dp3509
g74
(dp3510
g82
I5
ssg83
Nsg76
(lp3511
g69
(g85
g71
NtRp3512
(dp3513
g74
(dp3514
sg83
g3508
sg76
(lp3515
g69
(g90
g71
NtRp3516
(dp3517
g74
(dp3518
g94
g95
ssg83
g3512
sg76
(lp3519
g167
asbag69
(g90
g71
NtRp3520
(dp3521
g74
(dp3522
g101
g102
ssg83
g3512
sg76
(lp3523
S':'
asbag69
(g90
g71
NtRp3524
(dp3525
g74
(dp3526
sg83
g3512
sg76
(lp3527
g69
(g70
g71
NtRp3528
(dp3529
g74
(dp3530
g82
I5
ssg83
g3524
sg76
(lp3531
S'<cStringIO.StringO object at 0x10211f340>'
p3532
asbasbasbag69
(g85
g71
NtRp3533
(dp3534
g74
(dp3535
sg83
g3508
sg76
(lp3536
g69
(g90
g71
NtRp3537
(dp3538
g74
(dp3539
g94
g95
ssg83
g3533
sg76
(lp3540
g233
asbag69
(g90
g71
NtRp3541
(dp3542
g74
(dp3543
g101
g102
ssg83
g3533
sg76
(lp3544
S':'
asbag69
(g90
g71
NtRp3545
(dp3546
g74
(dp3547
sg83
g3533
sg76
(lp3548
g69
(g70
g71
NtRp3549
(dp3550
g74
(dp3551
g82
I5
ssg83
g3545
sg76
(lp3552
g69
(g78
g71
NtRp3553
(dp3554
g74
(dp3555
g82
I4
ssg83
Nsg76
(lp3556
g69
(g85
g71
NtRp3557
(dp3558
g74
(dp3559
sg83
g3553
sg76
(lp3560
g69
(g90
g71
NtRp3561
(dp3562
g74
(dp3563
g94
g95
ssg83
g3557
sg76
(lp3564
S'session_id_starcraft2'
p3565
asbag69
(g90
g71
NtRp3566
(dp3567
g74
(dp3568
g101
g102
ssg83
g3557
sg76
(lp3569
S':'
asbag69
(g90
g71
NtRp3570
(dp3571
g74
(dp3572
sg83
g3557
sg76
(lp3573
g69
(g70
g71
NtRp3574
(dp3575
g74
(dp3576
g82
I4
ssg83
g3570
sg76
(lp3577
g69
(g78
g71
NtRp3578
(dp3579
g74
(dp3580
g82
I3
ssg83
Nsg76
(lp3581
g69
(g85
g71
NtRp3582
(dp3583
g74
(dp3584
sg83
g3578
sg76
(lp3585
g69
(g90
g71
NtRp3586
(dp3587
g74
(dp3588
g94
g95
ssg83
g3582
sg76
(lp3589
g283
asbag69
(g90
g71
NtRp3590
(dp3591
g74
(dp3592
g101
g102
ssg83
g3582
sg76
(lp3593
S':'
asbag69
(g90
g71
NtRp3594
(dp3595
g74
(dp3596
sg83
g3582
sg76
(lp3597
g69
(g70
g71
NtRp3598
(dp3599
g74
(dp3600
g82
I3
ssg83
g3594
sg76
(lp3601
S''
asbasbasbag69
(g85
g71
NtRp3602
(dp3603
g74
(dp3604
sg83
g3578
sg76
(lp3605
g69
(g90
g71
NtRp3606
(dp3607
g74
(dp3608
g94
g95
ssg83
g3602
sg76
(lp3609
g304
asbag69
(g90
g71
NtRp3610
(dp3611
g74
(dp3612
g101
g102
ssg83
g3602
sg76
(lp3613
S':'
asbag69
(g90
g71
NtRp3614
(dp3615
g74
(dp3616
sg83
g3602
sg76
(lp3617
g69
(g70
g71
NtRp3618
(dp3619
g74
(dp3620
g82
I3
ssg83
g3614
sg76
(lp3621
S''
asbasbasbag69
(g85
g71
NtRp3622
(dp3623
g74
(dp3624
sg83
g3578
sg76
(lp3625
g69
(g90
g71
NtRp3626
(dp3627
g74
(dp3628
g94
g95
ssg83
g3622
sg76
(lp3629
g325
asbag69
(g90
g71
NtRp3630
(dp3631
g74
(dp3632
g101
g102
ssg83
g3622
sg76
(lp3633
S':'
asbag69
(g90
g71
NtRp3634
(dp3635
g74
(dp3636
sg83
g3622
sg76
(lp3637
g69
(g70
g71
NtRp3638
(dp3639
g74
(dp3640
g82
I3
ssg83
g3634
sg76
(lp3641
S'2592000'
p3642
asbasbasbag69
(g85
g71
NtRp3643
(dp3644
g74
(dp3645
sg83
g3578
sg76
(lp3646
g69
(g90
g71
NtRp3647
(dp3648
g74
(dp3649
g94
g95
ssg83
g3643
sg76
(lp3650
g346
asbag69
(g90
g71
NtRp3651
(dp3652
g74
(dp3653
g101
g102
ssg83
g3643
sg76
(lp3654
S':'
asbag69
(g90
g71
NtRp3655
(dp3656
g74
(dp3657
sg83
g3643
sg76
(lp3658
g69
(g70
g71
NtRp3659
(dp3660
g74
(dp3661
g82
I3
ssg83
g3655
sg76
(lp3662
S''
asbasbasbag69
(g85
g71
NtRp3663
(dp3664
g74
(dp3665
sg83
g3578
sg76
(lp3666
g69
(g90
g71
NtRp3667
(dp3668
g74
(dp3669
g94
g95
ssg83
g3663
sg76
(lp3670
g367
asbag69
(g90
g71
NtRp3671
(dp3672
g74
(dp3673
g101
g102
ssg83
g3663
sg76
(lp3674
S':'
asbag69
(g90
g71
NtRp3675
(dp3676
g74
(dp3677
sg83
g3663
sg76
(lp3678
g69
(g70
g71
NtRp3679
(dp3680
g74
(dp3681
g82
I3
ssg83
g3675
sg76
(lp3682
S''
asbasbasbag69
(g85
g71
NtRp3683
(dp3684
g74
(dp3685
sg83
g3578
sg76
(lp3686
g69
(g90
g71
NtRp3687
(dp3688
g74
(dp3689
g94
g95
ssg83
g3683
sg76
(lp3690
g388
asbag69
(g90
g71
NtRp3691
(dp3692
g74
(dp3693
g101
g102
ssg83
g3683
sg76
(lp3694
S':'
asbag69
(g90
g71
NtRp3695
(dp3696
g74
(dp3697
sg83
g3683
sg76
(lp3698
g69
(g70
g71
NtRp3699
(dp3700
g74
(dp3701
g82
I3
ssg83
g3695
sg76
(lp3702
S'/'
asbasbasbag69
(g85
g71
NtRp3703
(dp3704
g74
(dp3705
sg83
g3578
sg76
(lp3706
g69
(g90
g71
NtRp3707
(dp3708
g74
(dp3709
g94
g95
ssg83
g3703
sg76
(lp3710
g409
asbag69
(g90
g71
NtRp3711
(dp3712
g74
(dp3713
g101
g102
ssg83
g3703
sg76
(lp3714
S':'
asbag69
(g90
g71
NtRp3715
(dp3716
g74
(dp3717
sg83
g3703
sg76
(lp3718
g69
(g70
g71
NtRp3719
(dp3720
g74
(dp3721
g82
I3
ssg83
g3715
sg76
(lp3722
S''
asbasbasbag69
(g85
g71
NtRp3723
(dp3724
g74
(dp3725
sg83
g3578
sg76
(lp3726
g69
(g90
g71
NtRp3727
(dp3728
g74
(dp3729
g94
g95
ssg83
g3723
sg76
(lp3730
g430
asbag69
(g90
g71
NtRp3731
(dp3732
g74
(dp3733
g101
g102
ssg83
g3723
sg76
(lp3734
S':'
asbag69
(g90
g71
NtRp3735
(dp3736
g74
(dp3737
sg83
g3723
sg76
(lp3738
g69
(g70
g71
NtRp3739
(dp3740
g74
(dp3741
g82
I3
ssg83
g3735
sg76
(lp3742
S''
asbasbasbasbasbasbasbasbasbasbasbag69
(g85
g71
NtRp3743
(dp3744
g74
(dp3745
sg83
g3508
sg76
(lp3746
g69
(g90
g71
NtRp3747
(dp3748
g74
(dp3749
g94
g95
ssg83
g3743
sg76
(lp3750
S'delimiters'
p3751
asbag69
(g90
g71
NtRp3752
(dp3753
g74
(dp3754
g101
g102
ssg83
g3743
sg76
(lp3755
S':'
asbag69
(g90
g71
NtRp3756
(dp3757
g74
(dp3758
sg83
g3743
sg76
(lp3759
g69
(g70
g71
NtRp3760
(dp3761
g74
(dp3762
g82
I5
ssg83
g3756
sg76
(lp3763
g69
(g78
g71
NtRp3764
(dp3765
g74
(dp3766
g82
I4
ssg83
Nsg76
(lp3767
g69
(g85
g71
NtRp3768
(dp3769
g74
(dp3770
sg83
g3764
sg76
(lp3771
g69
(g90
g71
NtRp3772
(dp3773
g74
(dp3774
sg83
g3768
sg76
(lp3775
g69
(g70
g71
NtRp3776
(dp3777
g74
(dp3778
g82
I4
ssg83
g3772
sg76
(lp3779
S'{{'
p3780
asbasbasbag69
(g85
g71
NtRp3781
(dp3782
g74
(dp3783
sg83
g3764
sg76
(lp3784
g69
(g90
g71
NtRp3785
(dp3786
g74
(dp3787
sg83
g3781
sg76
(lp3788
g69
(g70
g71
NtRp3789
(dp3790
g74
(dp3791
g82
I4
ssg83
g3785
sg76
(lp3792
S'}}'
p3793
asbasbasbasbasbasbasbag69
(g85
g71
NtRp3794
(dp3795
g74
(dp3796
sg83
g3508
sg76
(lp3797
g69
(g90
g71
NtRp3798
(dp3799
g74
(dp3800
g94
g95
ssg83
g3794
sg76
(lp3801
S'files'
p3802
asbag69
(g90
g71
NtRp3803
(dp3804
g74
(dp3805
g101
g102
ssg83
g3794
sg76
(lp3806
S':'
asbag69
(g90
g71
NtRp3807
(dp3808
g74
(dp3809
sg83
g3794
sg76
(lp3810
g69
(g70
g71
NtRp3811
(dp3812
g74
(dp3813
g82
I5
ssg83
g3807
sg76
(lp3814
g69
(g78
g71
NtRp3815
(dp3816
g74
(dp3817
g82
I4
ssg83
Nsg76
(lp3818
sbasbasbasbag69
(g85
g71
NtRp3819
(dp3820
g74
(dp3821
sg83
g3508
sg76
(lp3822
g69
(g90
g71
NtRp3823
(dp3824
g74
(dp3825
g94
g95
ssg83
g3819
sg76
(lp3826
S'flash'
p3827
asbag69
(g90
g71
NtRp3828
(dp3829
g74
(dp3830
g101
g102
ssg83
g3819
sg76
(lp3831
S':'
asbag69
(g90
g71
NtRp3832
(dp3833
g74
(dp3834
sg83
g3819
sg76
(lp3835
g69
(g70
g71
NtRp3836
(dp3837
g74
(dp3838
g82
I5
ssg83
g3832
sg76
(lp3839
S''
asbasbasbag69
(g85
g71
NtRp3840
(dp3841
g74
(dp3842
sg83
g3508
sg76
(lp3843
g69
(g90
g71
NtRp3844
(dp3845
g74
(dp3846
g94
g95
ssg83
g3840
sg76
(lp3847
S'generic_patterns'
p3848
asbag69
(g90
g71
NtRp3849
(dp3850
g74
(dp3851
g101
g102
ssg83
g3840
sg76
(lp3852
S':'
asbag69
(g90
g71
NtRp3853
(dp3854
g74
(dp3855
sg83
g3840
sg76
(lp3856
g69
(g70
g71
NtRp3857
(dp3858
g74
(dp3859
g82
I5
ssg83
g3853
sg76
(lp3860
g69
(g78
g71
NtRp3861
(dp3862
g74
(dp3863
g82
I4
ssg83
Nsg76
(lp3864
g69
(g85
g71
NtRp3865
(dp3866
g74
(dp3867
sg83
g3861
sg76
(lp3868
g69
(g90
g71
NtRp3869
(dp3870
g74
(dp3871
sg83
g3865
sg76
(lp3872
g69
(g70
g71
NtRp3873
(dp3874
g74
(dp3875
g82
I4
ssg83
g3869
sg76
(lp3876
S'*'
asbasbasbasbasbasbasbag69
(g85
g71
NtRp3877
(dp3878
g74
(dp3879
sg83
g3508
sg76
(lp3880
g69
(g90
g71
NtRp3881
(dp3882
g74
(dp3883
g94
g95
ssg83
g3877
sg76
(lp3884
S'headers'
p3885
asbag69
(g90
g71
NtRp3886
(dp3887
g74
(dp3888
g101
g102
ssg83
g3877
sg76
(lp3889
S':'
asbag69
(g90
g71
NtRp3890
(dp3891
g74
(dp3892
sg83
g3877
sg76
(lp3893
g69
(g70
g71
NtRp3894
(dp3895
g74
(dp3896
g82
I5
ssg83
g3890
sg76
(lp3897
g69
(g78
g71
NtRp3898
(dp3899
g74
(dp3900
g82
I4
ssg83
Nsg76
(lp3901
g69
(g85
g71
NtRp3902
(dp3903
g74
(dp3904
sg83
g3898
sg76
(lp3905
g69
(g90
g71
NtRp3906
(dp3907
g74
(dp3908
g94
g95
ssg83
g3902
sg76
(lp3909
S'Cache-Control'
p3910
asbag69
(g90
g71
NtRp3911
(dp3912
g74
(dp3913
g101
g102
ssg83
g3902
sg76
(lp3914
S':'
asbag69
(g90
g71
NtRp3915
(dp3916
g74
(dp3917
sg83
g3902
sg76
(lp3918
g69
(g70
g71
NtRp3919
(dp3920
g74
(dp3921
g82
I4
ssg83
g3915
sg76
(lp3922
S'no-store, no-cache, must-revalidate, post-check=0, pre-check=0'
p3923
asbasbasbag69
(g85
g71
NtRp3924
(dp3925
g74
(dp3926
sg83
g3898
sg76
(lp3927
g69
(g90
g71
NtRp3928
(dp3929
g74
(dp3930
g94
g95
ssg83
g3924
sg76
(lp3931
S'Content-Type'
p3932
asbag69
(g90
g71
NtRp3933
(dp3934
g74
(dp3935
g101
g102
ssg83
g3924
sg76
(lp3936
S':'
asbag69
(g90
g71
NtRp3937
(dp3938
g74
(dp3939
sg83
g3924
sg76
(lp3940
g69
(g70
g71
NtRp3941
(dp3942
g74
(dp3943
g82
I4
ssg83
g3937
sg76
(lp3944
S'text/html; charset=utf-8'
p3945
asbasbasbag69
(g85
g71
NtRp3946
(dp3947
g74
(dp3948
sg83
g3898
sg76
(lp3949
g69
(g90
g71
NtRp3950
(dp3951
g74
(dp3952
g94
g95
ssg83
g3946
sg76
(lp3953
S'Expires'
p3954
asbag69
(g90
g71
NtRp3955
(dp3956
g74
(dp3957
g101
g102
ssg83
g3946
sg76
(lp3958
S':'
asbag69
(g90
g71
NtRp3959
(dp3960
g74
(dp3961
sg83
g3946
sg76
(lp3962
g69
(g70
g71
NtRp3963
(dp3964
g74
(dp3965
g82
I4
ssg83
g3959
sg76
(lp3966
S'Tue, 08 May 2012 16:26:11 GMT'
p3967
asbasbasbag69
(g85
g71
NtRp3968
(dp3969
g74
(dp3970
sg83
g3898
sg76
(lp3971
g69
(g90
g71
NtRp3972
(dp3973
g74
(dp3974
g94
g95
ssg83
g3968
sg76
(lp3975
S'Pragma'
p3976
asbag69
(g90
g71
NtRp3977
(dp3978
g74
(dp3979
g101
g102
ssg83
g3968
sg76
(lp3980
S':'
asbag69
(g90
g71
NtRp3981
(dp3982
g74
(dp3983
sg83
g3968
sg76
(lp3984
g69
(g70
g71
NtRp3985
(dp3986
g74
(dp3987
g82
I4
ssg83
g3981
sg76
(lp3988
S'no-cache'
p3989
asbasbasbag69
(g85
g71
NtRp3990
(dp3991
g74
(dp3992
sg83
g3898
sg76
(lp3993
g69
(g90
g71
NtRp3994
(dp3995
g74
(dp3996
g94
g95
ssg83
g3990
sg76
(lp3997
S'X-Powered-By'
p3998
asbag69
(g90
g71
NtRp3999
(dp4000
g74
(dp4001
g101
g102
ssg83
g3990
sg76
(lp4002
S':'
asbag69
(g90
g71
NtRp4003
(dp4004
g74
(dp4005
sg83
g3990
sg76
(lp4006
g69
(g70
g71
NtRp4007
(dp4008
g74
(dp4009
g82
I4
ssg83
g4003
sg76
(lp4010
S'web2py'
p4011
asbasbasbasbasbasbasbag69
(g85
g71
NtRp4012
(dp4013
g74
(dp4014
sg83
g3508
sg76
(lp4015
g69
(g90
g71
NtRp4016
(dp4017
g74
(dp4018
g94
g95
ssg83
g4012
sg76
(lp4019
S'menu'
p4020
asbag69
(g90
g71
NtRp4021
(dp4022
g74
(dp4023
g101
g102
ssg83
g4012
sg76
(lp4024
S':'
asbag69
(g90
g71
NtRp4025
(dp4026
g74
(dp4027
sg83
g4012
sg76
(lp4028
g69
(g70
g71
NtRp4029
(dp4030
g74
(dp4031
g82
I5
ssg83
g4025
sg76
(lp4032
g69
(g78
g71
NtRp4033
(dp4034
g74
(dp4035
g82
I4
ssg83
Nsg76
(lp4036
g69
(g85
g71
NtRp4037
(dp4038
g74
(dp4039
sg83
g4033
sg76
(lp4040
g69
(g90
g71
NtRp4041
(dp4042
g74
(dp4043
sg83
g4037
sg76
(lp4044
g69
(g70
g71
NtRp4045
(dp4046
g74
(dp4047
g82
I4
ssg83
g4041
sg76
(lp4048
g69
(g78
g71
NtRp4049
(dp4050
g74
(dp4051
g82
I3
ssg83
Nsg76
(lp4052
g69
(g85
g71
NtRp4053
(dp4054
g74
(dp4055
sg83
g4049
sg76
(lp4056
g69
(g90
g71
NtRp4057
(dp4058
g74
(dp4059
sg83
g4053
sg76
(lp4060
g69
(g70
g71
NtRp4061
(dp4062
g74
(dp4063
g82
I3
ssg83
g4057
sg76
(lp4064
cgluon.languages
lazyT_unpickle
p4065
(S't\x04\x00\x00\x00Home'
tRp4066
asbasbasbag69
(g85
g71
NtRp4067
(dp4068
g74
(dp4069
sg83
g4049
sg76
(lp4070
g69
(g90
g71
NtRp4071
(dp4072
g74
(dp4073
sg83
g4067
sg76
(lp4074
g69
(g70
g71
NtRp4075
(dp4076
g74
(dp4077
g82
I3
ssg83
g4071
sg76
(lp4078
g112
asbasbasbag69
(g85
g71
NtRp4079
(dp4080
g74
(dp4081
sg83
g4049
sg76
(lp4082
g69
(g90
g71
NtRp4083
(dp4084
g74
(dp4085
sg83
g4079
sg76
(lp4086
g69
(g70
g71
NtRp4087
(dp4088
g74
(dp4089
g82
I3
ssg83
g4083
sg76
(lp4090
S'/Starcraft2/default/index'
p4091
asbasbasbag69
(g85
g71
NtRp4092
(dp4093
g74
(dp4094
sg83
g4049
sg76
(lp4095
g69
(g90
g71
NtRp4096
(dp4097
g74
(dp4098
sg83
g4092
sg76
(lp4099
g69
(g70
g71
NtRp4100
(dp4101
g74
(dp4102
g82
I3
ssg83
g4096
sg76
(lp4103
g69
(g78
g71
NtRp4104
(dp4105
g74
(dp4106
g82
I2
ssg83
Nsg76
(lp4107
sbasbasbasbasbasbasbasbag69
(g85
g71
NtRp4108
(dp4109
g74
(dp4110
sg83
g4033
sg76
(lp4111
g69
(g90
g71
NtRp4112
(dp4113
g74
(dp4114
sg83
g4108
sg76
(lp4115
g69
(g70
g71
NtRp4116
(dp4117
g74
(dp4118
g82
I4
ssg83
g4112
sg76
(lp4119
g69
(g78
g71
NtRp4120
(dp4121
g74
(dp4122
g82
I3
ssg83
Nsg76
(lp4123
g69
(g85
g71
NtRp4124
(dp4125
g74
(dp4126
sg83
g4120
sg76
(lp4127
g69
(g90
g71
NtRp4128
(dp4129
g74
(dp4130
sg83
g4124
sg76
(lp4131
g69
(g70
g71
NtRp4132
(dp4133
g74
(dp4134
g82
I3
ssg83
g4128
sg76
(lp4135
g69
(cgluon.html
SPAN
p4136
g71
NtRp4137
(dp4138
g74
(dp4139
g94
S'color:yellow'
p4140
ssg83
Nsg76
(lp4141
g4011
asbasbasbasbag69
(g85
g71
NtRp4142
(dp4143
g74
(dp4144
sg83
g4120
sg76
(lp4145
g69
(g90
g71
NtRp4146
(dp4147
g74
(dp4148
sg83
g4142
sg76
(lp4149
g69
(g70
g71
NtRp4150
(dp4151
g74
(dp4152
g82
I3
ssg83
g4146
sg76
(lp4153
g112
asbasbasbag69
(g85
g71
NtRp4154
(dp4155
g74
(dp4156
sg83
g4120
sg76
(lp4157
g69
(g90
g71
NtRp4158
(dp4159
g74
(dp4160
sg83
g4154
sg76
(lp4161
g69
(g70
g71
NtRp4162
(dp4163
g74
(dp4164
g82
I3
ssg83
g4158
sg76
(lp4165
S'None'
p4166
asbasbasbag69
(g85
g71
NtRp4167
(dp4168
g74
(dp4169
sg83
g4120
sg76
(lp4170
g69
(g90
g71
NtRp4171
(dp4172
g74
(dp4173
sg83
g4167
sg76
(lp4174
g69
(g70
g71
NtRp4175
(dp4176
g74
(dp4177
g82
I3
ssg83
g4171
sg76
(lp4178
g69
(g78
g71
NtRp4179
(dp4180
g74
(dp4181
g82
I2
ssg83
Nsg76
(lp4182
g69
(g85
g71
NtRp4183
(dp4184
g74
(dp4185
sg83
g4179
sg76
(lp4186
g69
(g90
g71
NtRp4187
(dp4188
g74
(dp4189
sg83
g4183
sg76
(lp4190
g69
(g70
g71
NtRp4191
(dp4192
g74
(dp4193
g82
I2
ssg83
g4187
sg76
(lp4194
g69
(g78
g71
NtRp4195
(dp4196
g74
(dp4197
g82
I1
ssg83
Nsg76
(lp4198
g69
(g85
g71
NtRp4199
(dp4200
g74
(dp4201
sg83
g4195
sg76
(lp4202
g69
(g90
g71
NtRp4203
(dp4204
g74
(dp4205
sg83
g4199
sg76
(lp4206
g69
(g70
g71
NtRp4207
(dp4208
g74
(dp4209
g82
I1
ssg83
g4203
sg76
(lp4210
g4065
(S's\x08\x00\x00\x00My Sites'
tRp4211
asbasbasbag69
(g85
g71
NtRp4212
(dp4213
g74
(dp4214
sg83
g4195
sg76
(lp4215
g69
(g90
g71
NtRp4216
(dp4217
g74
(dp4218
sg83
g4212
sg76
(lp4219
g69
(g70
g71
NtRp4220
(dp4221
g74
(dp4222
g82
I1
ssg83
g4216
sg76
(lp4223
I00
asbasbasbag69
(g85
g71
NtRp4224
(dp4225
g74
(dp4226
sg83
g4195
sg76
(lp4227
g69
(g90
g71
NtRp4228
(dp4229
g74
(dp4230
sg83
g4224
sg76
(lp4231
g69
(g70
g71
NtRp4232
(dp4233
g74
(dp4234
g82
I1
ssg83
g4228
sg76
(lp4235
S'/admin/default/site'
p4236
asbasbasbasbasbasbasbag69
(g85
g71
NtRp4237
(dp4238
g74
(dp4239
sg83
g4179
sg76
(lp4240
g69
(g90
g71
NtRp4241
(dp4242
g74
(dp4243
sg83
g4237
sg76
(lp4244
g69
(g70
g71
NtRp4245
(dp4246
g74
(dp4247
g82
I2
ssg83
g4241
sg76
(lp4248
g69
(g78
g71
NtRp4249
(dp4250
g74
(dp4251
g82
I1
ssg83
Nsg76
(lp4252
g69
(g85
g71
NtRp4253
(dp4254
g74
(dp4255
sg83
g4249
sg76
(lp4256
g69
(g90
g71
NtRp4257
(dp4258
g74
(dp4259
sg83
g4253
sg76
(lp4260
g69
(g70
g71
NtRp4261
(dp4262
g74
(dp4263
g82
I1
ssg83
g4257
sg76
(lp4264
g4065
(S's\x08\x00\x00\x00This App'
tRp4265
asbasbasbag69
(g85
g71
NtRp4266
(dp4267
g74
(dp4268
sg83
g4249
sg76
(lp4269
g69
(g90
g71
NtRp4270
(dp4271
g74
(dp4272
sg83
g4266
sg76
(lp4273
g69
(g70
g71
NtRp4274
(dp4275
g74
(dp4276
g82
I1
ssg83
g4270
sg76
(lp4277
I00
asbasbasbag69
(g85
g71
NtRp4278
(dp4279
g74
(dp4280
sg83
g4249
sg76
(lp4281
g69
(g90
g71
NtRp4282
(dp4283
g74
(dp4284
sg83
g4278
sg76
(lp4285
g69
(g70
g71
NtRp4286
(dp4287
g74
(dp4288
g82
I1
ssg83
g4282
sg76
(lp4289
S'/admin/default/design/Starcraft2'
p4290
asbasbasbag69
(g85
g71
NtRp4291
(dp4292
g74
(dp4293
sg83
g4249
sg76
(lp4294
g69
(g90
g71
NtRp4295
(dp4296
g74
(dp4297
sg83
g4291
sg76
(lp4298
g69
(g70
g71
NtRp4299
(dp4300
g74
(dp4301
g82
I1
ssg83
g4295
sg76
(lp4302
(lp4303
(g4065
(S't\n\x00\x00\x00Controller'
tRp4304
I00
S'/admin/default/edit/Starcraft2/controllers/default.py'
tp4305
a(g4065
(S't\x04\x00\x00\x00View'
tRp4306
I00
S'/admin/default/edit/Starcraft2/views/default/mybuild.html'
tp4307
a(g4065
(S't\x06\x00\x00\x00Layout'
tRp4308
I00
S'/admin/default/edit/Starcraft2/views/layout.html'
tp4309
a(g4065
(S't\n\x00\x00\x00Stylesheet'
tRp4310
I00
S'/admin/default/edit/Starcraft2/static/css/web2py.css'
tp4311
a(g4065
(S's\x08\x00\x00\x00DB Model'
tRp4312
I00
S'/admin/default/edit/Starcraft2/models/db.py'
tp4313
a(g4065
(S's\n\x00\x00\x00Menu Model'
tRp4314
I00
S'/admin/default/edit/Starcraft2/models/menu.py'
tp4315
a(g4065
(S't\x08\x00\x00\x00Database'
tRp4316
I00
S'/Starcraft2/appadmin/index'
tp4317
a(g4065
(S't\x06\x00\x00\x00Errors'
tRp4318
I00
S'/admin/default/errors/Starcraft2'
tp4319
a(g4065
(S't\x05\x00\x00\x00About'
tRp4320
I00
S'/admin/default/about/Starcraft2'
tp4321
aasbasbasbasbasbasbasbag69
(g85
g71
NtRp4322
(dp4323
g74
(dp4324
sg83
g4179
sg76
(lp4325
g69
(g90
g71
NtRp4326
(dp4327
g74
(dp4328
sg83
g4322
sg76
(lp4329
g69
(g70
g71
NtRp4330
(dp4331
g74
(dp4332
g82
I2
ssg83
g4326
sg76
(lp4333
g69
(g78
g71
NtRp4334
(dp4335
g74
(dp4336
g82
I1
ssg83
Nsg76
(lp4337
g69
(g85
g71
NtRp4338
(dp4339
g74
(dp4340
sg83
g4334
sg76
(lp4341
g69
(g90
g71
NtRp4342
(dp4343
g74
(dp4344
sg83
g4338
sg76
(lp4345
g69
(g70
g71
NtRp4346
(dp4347
g74
(dp4348
g82
I1
ssg83
g4342
sg76
(lp4349
S'web2py.com'
p4350
asbasbasbag69
(g85
g71
NtRp4351
(dp4352
g74
(dp4353
sg83
g4334
sg76
(lp4354
g69
(g90
g71
NtRp4355
(dp4356
g74
(dp4357
sg83
g4351
sg76
(lp4358
g69
(g70
g71
NtRp4359
(dp4360
g74
(dp4361
g82
I1
ssg83
g4355
sg76
(lp4362
I00
asbasbasbag69
(g85
g71
NtRp4363
(dp4364
g74
(dp4365
sg83
g4334
sg76
(lp4366
g69
(g90
g71
NtRp4367
(dp4368
g74
(dp4369
sg83
g4363
sg76
(lp4370
g69
(g70
g71
NtRp4371
(dp4372
g74
(dp4373
g82
I1
ssg83
g4367
sg76
(lp4374
S'http://www.web2py.com'
p4375
asbasbasbag69
(g85
g71
NtRp4376
(dp4377
g74
(dp4378
sg83
g4334
sg76
(lp4379
g69
(g90
g71
NtRp4380
(dp4381
g74
(dp4382
sg83
g4376
sg76
(lp4383
g69
(g70
g71
NtRp4384
(dp4385
g74
(dp4386
g82
I1
ssg83
g4380
sg76
(lp4387
(lp4388
(g4065
(S't\x08\x00\x00\x00Download'
tRp4389
I00
S'http://www.web2py.com/examples/default/download'
p4390
tp4391
a(g4065
(S't\x07\x00\x00\x00Support'
tRp4392
I00
S'http://www.web2py.com/examples/default/support'
p4393
tp4394
a(g4065
(S't\x04\x00\x00\x00Demo'
tRp4395
I00
S'http://web2py.com/demo_admin'
p4396
tp4397
a(g4065
(S's\x0e\x00\x00\x00Quick Examples'
tRp4398
I00
S'http://web2py.com/examples/default/examples'
p4399
tp4400
a(g4065
(S't\x03\x00\x00\x00FAQ'
tRp4401
I00
S'http://web2py.com/AlterEgo'
p4402
tp4403
a(g4065
(S't\x06\x00\x00\x00Videos'
tRp4404
I00
S'http://www.web2py.com/examples/default/videos/'
p4405
tp4406
a(g4065
(S's\x11\x00\x00\x00Free Applications'
tRp4407
I00
S'http://web2py.com/appliances'
p4408
tp4409
a(g4065
(S't\x07\x00\x00\x00Plugins'
tRp4410
I00
S'http://web2py.com/plugins'
p4411
tp4412
a(g4065
(S't\x07\x00\x00\x00Layouts'
tRp4413
I00
S'http://web2py.com/layouts'
p4414
tp4415
a(g4065
(S't\x07\x00\x00\x00Recipes'
tRp4416
I00
S'http://web2pyslices.com/'
p4417
tp4418
a(g4065
(S't\x08\x00\x00\x00Semantic'
tRp4419
I00
S'http://web2py.com/semantic'
p4420
tp4421
aasbasbasbasbasbasbasbag69
(g85
g71
NtRp4422
(dp4423
g74
(dp4424
sg83
g4179
sg76
(lp4425
g69
(g90
g71
NtRp4426
(dp4427
g74
(dp4428
sg83
g4422
sg76
(lp4429
g69
(g70
g71
NtRp4430
(dp4431
g74
(dp4432
g82
I2
ssg83
g4426
sg76
(lp4433
g69
(g78
g71
NtRp4434
(dp4435
g74
(dp4436
g82
I1
ssg83
Nsg76
(lp4437
g69
(g85
g71
NtRp4438
(dp4439
g74
(dp4440
sg83
g4434
sg76
(lp4441
g69
(g90
g71
NtRp4442
(dp4443
g74
(dp4444
sg83
g4438
sg76
(lp4445
g69
(g70
g71
NtRp4446
(dp4447
g74
(dp4448
g82
I1
ssg83
g4442
sg76
(lp4449
g4065
(S't\r\x00\x00\x00Documentation'
tRp4450
asbasbasbag69
(g85
g71
NtRp4451
(dp4452
g74
(dp4453
sg83
g4434
sg76
(lp4454
g69
(g90
g71
NtRp4455
(dp4456
g74
(dp4457
sg83
g4451
sg76
(lp4458
g69
(g70
g71
NtRp4459
(dp4460
g74
(dp4461
g82
I1
ssg83
g4455
sg76
(lp4462
I00
asbasbasbag69
(g85
g71
NtRp4463
(dp4464
g74
(dp4465
sg83
g4434
sg76
(lp4466
g69
(g90
g71
NtRp4467
(dp4468
g74
(dp4469
sg83
g4463
sg76
(lp4470
g69
(g70
g71
NtRp4471
(dp4472
g74
(dp4473
g82
I1
ssg83
g4467
sg76
(lp4474
S'http://www.web2py.com/book'
p4475
asbasbasbag69
(g85
g71
NtRp4476
(dp4477
g74
(dp4478
sg83
g4434
sg76
(lp4479
g69
(g90
g71
NtRp4480
(dp4481
g74
(dp4482
sg83
g4476
sg76
(lp4483
g69
(g70
g71
NtRp4484
(dp4485
g74
(dp4486
g82
I1
ssg83
g4480
sg76
(lp4487
(lp4488
(g4065
(S't\x07\x00\x00\x00Preface'
tRp4489
I00
S'http://www.web2py.com/book/default/chapter/00'
p4490
tp4491
a(g4065
(S't\x0c\x00\x00\x00Introduction'
tRp4492
I00
S'http://www.web2py.com/book/default/chapter/01'
p4493
tp4494
a(g4065
(S't\x06\x00\x00\x00Python'
tRp4495
I00
S'http://www.web2py.com/book/default/chapter/02'
p4496
tp4497
a(g4065
(S't\x08\x00\x00\x00Overview'
tRp4498
I00
S'http://www.web2py.com/book/default/chapter/03'
p4499
tp4500
a(g4065
(S's\x08\x00\x00\x00The Core'
tRp4501
I00
S'http://www.web2py.com/book/default/chapter/04'
p4502
tp4503
a(g4065
(S's\t\x00\x00\x00The Views'
tRp4504
I00
S'http://www.web2py.com/book/default/chapter/05'
p4505
tp4506
a(g4065
(S't\x08\x00\x00\x00Database'
tRp4507
I00
S'http://www.web2py.com/book/default/chapter/06'
p4508
tp4509
a(g4065
(S's\x14\x00\x00\x00Forms and Validators'
tRp4510
I00
S'http://www.web2py.com/book/default/chapter/07'
p4511
tp4512
a(g4065
(S's\r\x00\x00\x00Email and SMS'
tRp4513
I00
S'http://www.web2py.com/book/default/chapter/08'
p4514
tp4515
a(g4065
(S's\x0e\x00\x00\x00Access Control'
tRp4516
I00
S'http://www.web2py.com/book/default/chapter/09'
p4517
tp4518
a(g4065
(S't\x08\x00\x00\x00Services'
tRp4519
I00
S'http://www.web2py.com/book/default/chapter/10'
p4520
tp4521
a(g4065
(S's\x0c\x00\x00\x00Ajax Recipes'
tRp4522
I00
S'http://www.web2py.com/book/default/chapter/11'
p4523
tp4524
a(g4065
(S's\x16\x00\x00\x00Components and Plugins'
tRp4525
I00
S'http://www.web2py.com/book/default/chapter/12'
p4526
tp4527
a(g4065
(S's\x12\x00\x00\x00Deployment Recipes'
tRp4528
I00
S'http://www.web2py.com/book/default/chapter/13'
p4529
tp4530
a(g4065
(S's\r\x00\x00\x00Other Recipes'
tRp4531
I00
S'http://www.web2py.com/book/default/chapter/14'
p4532
tp4533
a(g4065
(S's\r\x00\x00\x00Buy this book'
tRp4534
I00
S'http://stores.lulu.com/web2py'
p4535
tp4536
aasbasbasbasbasbasbasbag69
(g85
g71
NtRp4537
(dp4538
g74
(dp4539
sg83
g4179
sg76
(lp4540
g69
(g90
g71
NtRp4541
(dp4542
g74
(dp4543
sg83
g4537
sg76
(lp4544
g69
(g70
g71
NtRp4545
(dp4546
g74
(dp4547
g82
I2
ssg83
g4541
sg76
(lp4548
g69
(g78
g71
NtRp4549
(dp4550
g74
(dp4551
g82
I1
ssg83
Nsg76
(lp4552
g69
(g85
g71
NtRp4553
(dp4554
g74
(dp4555
sg83
g4549
sg76
(lp4556
g69
(g90
g71
NtRp4557
(dp4558
g74
(dp4559
sg83
g4553
sg76
(lp4560
g69
(g70
g71
NtRp4561
(dp4562
g74
(dp4563
g82
I1
ssg83
g4557
sg76
(lp4564
g4065
(S't\t\x00\x00\x00Community'
tRp4565
asbasbasbag69
(g85
g71
NtRp4566
(dp4567
g74
(dp4568
sg83
g4549
sg76
(lp4569
g69
(g90
g71
NtRp4570
(dp4571
g74
(dp4572
sg83
g4566
sg76
(lp4573
g69
(g70
g71
NtRp4574
(dp4575
g74
(dp4576
g82
I1
ssg83
g4570
sg76
(lp4577
I00
asbasbasbag69
(g85
g71
NtRp4578
(dp4579
g74
(dp4580
sg83
g4549
sg76
(lp4581
g69
(g90
g71
NtRp4582
(dp4583
g74
(dp4584
sg83
g4578
sg76
(lp4585
g69
(g70
g71
NtRp4586
(dp4587
g74
(dp4588
g82
I1
ssg83
g4582
sg76
(lp4589
Nasbasbasbag69
(g85
g71
NtRp4590
(dp4591
g74
(dp4592
sg83
g4549
sg76
(lp4593
g69
(g90
g71
NtRp4594
(dp4595
g74
(dp4596
sg83
g4590
sg76
(lp4597
g69
(g70
g71
NtRp4598
(dp4599
g74
(dp4600
g82
I1
ssg83
g4594
sg76
(lp4601
(lp4602
(g4065
(S't\x06\x00\x00\x00Groups'
tRp4603
I00
S'http://www.web2py.com/examples/default/usergroups'
p4604
tp4605
a(g4065
(S't\x07\x00\x00\x00Twitter'
tRp4606
I00
S'http://twitter.com/web2py'
p4607
tp4608
a(g4065
(S's\t\x00\x00\x00Live Chat'
tRp4609
I00
S'http://webchat.freenode.net/?channels=web2py'
p4610
tp4611
aasbasbasbasbasbasbasbag69
(g85
g71
NtRp4612
(dp4613
g74
(dp4614
sg83
g4179
sg76
(lp4615
g69
(g90
g71
NtRp4616
(dp4617
g74
(dp4618
sg83
g4612
sg76
(lp4619
g69
(g70
g71
NtRp4620
(dp4621
g74
(dp4622
g82
I2
ssg83
g4616
sg76
(lp4623
g69
(g78
g71
NtRp4624
(dp4625
g74
(dp4626
g82
I1
ssg83
Nsg76
(lp4627
g69
(g85
g71
NtRp4628
(dp4629
g74
(dp4630
sg83
g4624
sg76
(lp4631
g69
(g90
g71
NtRp4632
(dp4633
g74
(dp4634
sg83
g4628
sg76
(lp4635
g69
(g70
g71
NtRp4636
(dp4637
g74
(dp4638
g82
I1
ssg83
g4632
sg76
(lp4639
g4065
(S't\x07\x00\x00\x00Plugins'
tRp4640
asbasbasbag69
(g85
g71
NtRp4641
(dp4642
g74
(dp4643
sg83
g4624
sg76
(lp4644
g69
(g90
g71
NtRp4645
(dp4646
g74
(dp4647
sg83
g4641
sg76
(lp4648
g69
(g70
g71
NtRp4649
(dp4650
g74
(dp4651
g82
I1
ssg83
g4645
sg76
(lp4652
I00
asbasbasbag69
(g85
g71
NtRp4653
(dp4654
g74
(dp4655
sg83
g4624
sg76
(lp4656
g69
(g90
g71
NtRp4657
(dp4658
g74
(dp4659
sg83
g4653
sg76
(lp4660
g69
(g70
g71
NtRp4661
(dp4662
g74
(dp4663
g82
I1
ssg83
g4657
sg76
(lp4664
Nasbasbasbag69
(g85
g71
NtRp4665
(dp4666
g74
(dp4667
sg83
g4624
sg76
(lp4668
g69
(g90
g71
NtRp4669
(dp4670
g74
(dp4671
sg83
g4665
sg76
(lp4672
g69
(g70
g71
NtRp4673
(dp4674
g74
(dp4675
g82
I1
ssg83
g4669
sg76
(lp4676
(lp4677
(S'plugin_wiki'
p4678
I00
S'http://web2py.com/examples/default/download'
p4679
tp4680
a(g4065
(S's\r\x00\x00\x00Other Plugins'
tRp4681
I00
g4411
tp4682
a(g4065
(S's\x0e\x00\x00\x00Layout Plugins'
tRp4683
I00
g4414
tp4684
aasbasbasbasbasbasbasbasbasbasbasbasbasbasbasbasbasbasbasbag69
(g85
g71
NtRp4685
(dp4686
g74
(dp4687
sg83
g3508
sg76
(lp4688
g69
(g90
g71
NtRp4689
(dp4690
g74
(dp4691
g94
g95
ssg83
g4685
sg76
(lp4692
S'meta'
p4693
asbag69
(g90
g71
NtRp4694
(dp4695
g74
(dp4696
g101
g102
ssg83
g4685
sg76
(lp4697
S':'
asbag69
(g90
g71
NtRp4698
(dp4699
g74
(dp4700
sg83
g4685
sg76
(lp4701
g69
(g70
g71
NtRp4702
(dp4703
g74
(dp4704
g82
I5
ssg83
g4698
sg76
(lp4705
g69
(g78
g71
NtRp4706
(dp4707
g74
(dp4708
g82
I4
ssg83
Nsg76
(lp4709
g69
(g85
g71
NtRp4710
(dp4711
g74
(dp4712
sg83
g4706
sg76
(lp4713
g69
(g90
g71
NtRp4714
(dp4715
g74
(dp4716
g94
g95
ssg83
g4710
sg76
(lp4717
S'author'
p4718
asbag69
(g90
g71
NtRp4719
(dp4720
g74
(dp4721
g101
g102
ssg83
g4710
sg76
(lp4722
S':'
asbag69
(g90
g71
NtRp4723
(dp4724
g74
(dp4725
sg83
g4710
sg76
(lp4726
g69
(g70
g71
NtRp4727
(dp4728
g74
(dp4729
g82
I4
ssg83
g4723
sg76
(lp4730
S'Your Name <you@example.com>'
p4731
asbasbasbag69
(g85
g71
NtRp4732
(dp4733
g74
(dp4734
sg83
g4706
sg76
(lp4735
g69
(g90
g71
NtRp4736
(dp4737
g74
(dp4738
g94
g95
ssg83
g4732
sg76
(lp4739
S'copyright'
p4740
asbag69
(g90
g71
NtRp4741
(dp4742
g74
(dp4743
g101
g102
ssg83
g4732
sg76
(lp4744
S':'
asbag69
(g90
g71
NtRp4745
(dp4746
g74
(dp4747
sg83
g4732
sg76
(lp4748
g69
(g70
g71
NtRp4749
(dp4750
g74
(dp4751
g82
I4
ssg83
g4745
sg76
(lp4752
S'Copyright 2011'
p4753
asbasbasbag69
(g85
g71
NtRp4754
(dp4755
g74
(dp4756
sg83
g4706
sg76
(lp4757
g69
(g90
g71
NtRp4758
(dp4759
g74
(dp4760
g94
g95
ssg83
g4754
sg76
(lp4761
S'description'
p4762
asbag69
(g90
g71
NtRp4763
(dp4764
g74
(dp4765
g101
g102
ssg83
g4754
sg76
(lp4766
S':'
asbag69
(g90
g71
NtRp4767
(dp4768
g74
(dp4769
sg83
g4754
sg76
(lp4770
g69
(g70
g71
NtRp4771
(dp4772
g74
(dp4773
g82
I4
ssg83
g4767
sg76
(lp4774
S'a cool new app'
p4775
asbasbasbag69
(g85
g71
NtRp4776
(dp4777
g74
(dp4778
sg83
g4706
sg76
(lp4779
g69
(g90
g71
NtRp4780
(dp4781
g74
(dp4782
g94
g95
ssg83
g4776
sg76
(lp4783
S'generator'
p4784
asbag69
(g90
g71
NtRp4785
(dp4786
g74
(dp4787
g101
g102
ssg83
g4776
sg76
(lp4788
S':'
asbag69
(g90
g71
NtRp4789
(dp4790
g74
(dp4791
sg83
g4776
sg76
(lp4792
g69
(g70
g71
NtRp4793
(dp4794
g74
(dp4795
g82
I4
ssg83
g4789
sg76
(lp4796
S'Web2py Web Framework'
p4797
asbasbasbag69
(g85
g71
NtRp4798
(dp4799
g74
(dp4800
sg83
g4706
sg76
(lp4801
g69
(g90
g71
NtRp4802
(dp4803
g74
(dp4804
g94
g95
ssg83
g4798
sg76
(lp4805
S'keywords'
p4806
asbag69
(g90
g71
NtRp4807
(dp4808
g74
(dp4809
g101
g102
ssg83
g4798
sg76
(lp4810
S':'
asbag69
(g90
g71
NtRp4811
(dp4812
g74
(dp4813
sg83
g4798
sg76
(lp4814
g69
(g70
g71
NtRp4815
(dp4816
g74
(dp4817
g82
I4
ssg83
g4811
sg76
(lp4818
S'web2py, python, framework'
p4819
asbasbasbasbasbasbasbag69
(g85
g71
NtRp4820
(dp4821
g74
(dp4822
sg83
g3508
sg76
(lp4823
g69
(g90
g71
NtRp4824
(dp4825
g74
(dp4826
g94
g95
ssg83
g4820
sg76
(lp4827
S'postprocessing'
p4828
asbag69
(g90
g71
NtRp4829
(dp4830
g74
(dp4831
g101
g102
ssg83
g4820
sg76
(lp4832
S':'
asbag69
(g90
g71
NtRp4833
(dp4834
g74
(dp4835
sg83
g4820
sg76
(lp4836
g69
(g70
g71
NtRp4837
(dp4838
g74
(dp4839
g82
I5
ssg83
g4833
sg76
(lp4840
g69
(g78
g71
NtRp4841
(dp4842
g74
(dp4843
g82
I4
ssg83
Nsg76
(lp4844
sbasbasbasbag69
(g85
g71
NtRp4845
(dp4846
g74
(dp4847
sg83
g3508
sg76
(lp4848
g69
(g90
g71
NtRp4849
(dp4850
g74
(dp4851
g94
g95
ssg83
g4845
sg76
(lp4852
S'session_file'
p4853
asbag69
(g90
g71
NtRp4854
(dp4855
g74
(dp4856
g101
g102
ssg83
g4845
sg76
(lp4857
S':'
asbag69
(g90
g71
NtRp4858
(dp4859
g74
(dp4860
sg83
g4845
sg76
(lp4861
g69
(g70
g71
NtRp4862
(dp4863
g74
(dp4864
g82
I5
ssg83
g4858
sg76
(lp4865
S"<open file '/Users/hainna01/Downloads/web2py/applications/Starcraft2/sessions/127.0.0.1-ab0c6fa2-79d9-46c1-ab68-7df9589f9e17', mode 'rb+' at 0x1016d2b70>"
p4866
asbasbasbag69
(g85
g71
NtRp4867
(dp4868
g74
(dp4869
sg83
g3508
sg76
(lp4870
g69
(g90
g71
NtRp4871
(dp4872
g74
(dp4873
g94
g95
ssg83
g4867
sg76
(lp4874
S'session_filename'
p4875
asbag69
(g90
g71
NtRp4876
(dp4877
g74
(dp4878
g101
g102
ssg83
g4867
sg76
(lp4879
S':'
asbag69
(g90
g71
NtRp4880
(dp4881
g74
(dp4882
sg83
g4867
sg76
(lp4883
g69
(g70
g71
NtRp4884
(dp4885
g74
(dp4886
g82
I5
ssg83
g4880
sg76
(lp4887
S'/Users/hainna01/Downloads/web2py/applications/Starcraft2/sessions/127.0.0.1-ab0c6fa2-79d9-46c1-ab68-7df9589f9e17'
p4888
asbasbasbag69
(g85
g71
NtRp4889
(dp4890
g74
(dp4891
sg83
g3508
sg76
(lp4892
g69
(g90
g71
NtRp4893
(dp4894
g74
(dp4895
g94
g95
ssg83
g4889
sg76
(lp4896
S'session_id'
p4897
asbag69
(g90
g71
NtRp4898
(dp4899
g74
(dp4900
g101
g102
ssg83
g4889
sg76
(lp4901
S':'
asbag69
(g90
g71
NtRp4902
(dp4903
g74
(dp4904
sg83
g4889
sg76
(lp4905
g69
(g70
g71
NtRp4906
(dp4907
g74
(dp4908
g82
I5
ssg83
g4902
sg76
(lp4909
S'127.0.0.1-ab0c6fa2-79d9-46c1-ab68-7df9589f9e17'
p4910
asbasbasbag69
(g85
g71
NtRp4911
(dp4912
g74
(dp4913
sg83
g3508
sg76
(lp4914
g69
(g90
g71
NtRp4915
(dp4916
g74
(dp4917
g94
g95
ssg83
g4911
sg76
(lp4918
S'session_id_name'
p4919
asbag69
(g90
g71
NtRp4920
(dp4921
g74
(dp4922
g101
g102
ssg83
g4911
sg76
(lp4923
S':'
asbag69
(g90
g71
NtRp4924
(dp4925
g74
(dp4926
sg83
g4911
sg76
(lp4927
g69
(g70
g71
NtRp4928
(dp4929
g74
(dp4930
g82
I5
ssg83
g4924
sg76
(lp4931
g3565
asbasbasbag69
(g85
g71
NtRp4932
(dp4933
g74
(dp4934
sg83
g3508
sg76
(lp4935
g69
(g90
g71
NtRp4936
(dp4937
g74
(dp4938
g94
g95
ssg83
g4932
sg76
(lp4939
S'session_locked'
p4940
asbag69
(g90
g71
NtRp4941
(dp4942
g74
(dp4943
g101
g102
ssg83
g4932
sg76
(lp4944
S':'
asbag69
(g90
g71
NtRp4945
(dp4946
g74
(dp4947
sg83
g4932
sg76
(lp4948
g69
(g70
g71
NtRp4949
(dp4950
g74
(dp4951
g82
I5
ssg83
g4945
sg76
(lp4952
g1712
asbasbasbag69
(g85
g71
NtRp4953
(dp4954
g74
(dp4955
sg83
g3508
sg76
(lp4956
g69
(g90
g71
NtRp4957
(dp4958
g74
(dp4959
g94
g95
ssg83
g4953
sg76
(lp4960
S'session_new'
p4961
asbag69
(g90
g71
NtRp4962
(dp4963
g74
(dp4964
g101
g102
ssg83
g4953
sg76
(lp4965
S':'
asbag69
(g90
g71
NtRp4966
(dp4967
g74
(dp4968
sg83
g4953
sg76
(lp4969
g69
(g70
g71
NtRp4970
(dp4971
g74
(dp4972
g82
I5
ssg83
g4966
sg76
(lp4973
g112
asbasbasbag69
(g85
g71
NtRp4974
(dp4975
g74
(dp4976
sg83
g3508
sg76
(lp4977
g69
(g90
g71
NtRp4978
(dp4979
g74
(dp4980
g94
g95
ssg83
g4974
sg76
(lp4981
S'status'
p4982
asbag69
(g90
g71
NtRp4983
(dp4984
g74
(dp4985
g101
g102
ssg83
g4974
sg76
(lp4986
S':'
asbag69
(g90
g71
NtRp4987
(dp4988
g74
(dp4989
sg83
g4974
sg76
(lp4990
g69
(g70
g71
NtRp4991
(dp4992
g74
(dp4993
g82
I5
ssg83
g4987
sg76
(lp4994
S'200'
p4995
asbasbasbag69
(g85
g71
NtRp4996
(dp4997
g74
(dp4998
sg83
g3508
sg76
(lp4999
g69
(g90
g71
NtRp5000
(dp5001
g74
(dp5002
g94
g95
ssg83
g4996
sg76
(lp5003
S'subtitle'
p5004
asbag69
(g90
g71
NtRp5005
(dp5006
g74
(dp5007
g101
g102
ssg83
g4996
sg76
(lp5008
S':'
asbag69
(g90
g71
NtRp5009
(dp5010
g74
(dp5011
sg83
g4996
sg76
(lp5012
g69
(g70
g71
NtRp5013
(dp5014
g74
(dp5015
g82
I5
ssg83
g5009
sg76
(lp5016
g4065
(S's\r\x00\x00\x00customize me!'
tRp5017
asbasbasbag69
(g85
g71
NtRp5018
(dp5019
g74
(dp5020
sg83
g3508
sg76
(lp5021
g69
(g90
g71
NtRp5022
(dp5023
g74
(dp5024
g94
g95
ssg83
g5018
sg76
(lp5025
S'title'
p5026
asbag69
(g90
g71
NtRp5027
(dp5028
g74
(dp5029
g101
g102
ssg83
g5018
sg76
(lp5030
S':'
asbag69
(g90
g71
NtRp5031
(dp5032
g74
(dp5033
sg83
g5018
sg76
(lp5034
g69
(g70
g71
NtRp5035
(dp5036
g74
(dp5037
g82
I5
ssg83
g5031
sg76
(lp5038
S'Starcraft2'
p5039
asbasbasbag69
(g85
g71
NtRp5040
(dp5041
g74
(dp5042
sg83
g3508
sg76
(lp5043
g69
(g90
g71
NtRp5044
(dp5045
g74
(dp5046
g94
g95
ssg83
g5040
sg76
(lp5047
g2376
asbag69
(g90
g71
NtRp5048
(dp5049
g74
(dp5050
g101
g102
ssg83
g5040
sg76
(lp5051
S':'
asbag69
(g90
g71
NtRp5052
(dp5053
g74
(dp5054
sg83
g5040
sg76
(lp5055
g69
(g70
g71
NtRp5056
(dp5057
g74
(dp5058
g82
I5
ssg83
g5052
sg76
(lp5059
g2389
asbasbasbag69
(g85
g71
NtRp5060
(dp5061
g74
(dp5062
sg83
g3508
sg76
(lp5063
g69
(g90
g71
NtRp5064
(dp5065
g74
(dp5066
g94
g95
ssg83
g5060
sg76
(lp5067
S'view'
p5068
asbag69
(g90
g71
NtRp5069
(dp5070
g74
(dp5071
g101
g102
ssg83
g5060
sg76
(lp5072
S':'
asbag69
(g90
g71
NtRp5073
(dp5074
g74
(dp5075
sg83
g5060
sg76
(lp5076
g69
(g70
g71
NtRp5077
(dp5078
g74
(dp5079
g82
I5
ssg83
g5073
sg76
(lp5080
S'default/mybuild.html'
p5081
asbasbasbasbasbsS'locals'
p5082
(dp5083
g4
S"'/Users/hainna01/Downloads/web2py/applications/Starcraft2/views/default/mybuild.html'"
p5084
sg6
S'r"response.write(\'<!DOCTYPE html>\\n<!-- paulirish....ponse.write(\'\\n</body>\\n</html>\\n\', escape=False)"'
p5085
sssS'traceback'
p5086
S'Traceback (most recent call last):\n  File "/Users/hainna01/Downloads/web2py/gluon/restricted.py", line 204, in restricted\n    ccode = compile2(code,layer)\n  File "/Users/hainna01/Downloads/web2py/gluon/restricted.py", line 189, in compile2\n    return compile(code.rstrip().replace(\'\\r\\n\',\'\\n\')+\'\\n\', layer, \'exec\')\n  File "/Users/hainna01/Downloads/web2py/applications/Starcraft2/views/default/mybuild.html", line 84\n    \nSyntaxError: keyword can\'t be an expression\n'
p5087
s.