(dp1
S'output'
p2
S"<class 'pysqlite2.dbapi2.OperationalError'> attempt to write a readonly database"
p3
sS'layer'
p4
S'/home/seniorproj/Documents/finholt-senior-project/web2py/applications/SeniorProject/controllers/default.py'
p5
sS'code'
p6
S'# -*- coding: utf-8 -*-\n# this file is released under public domain and you can use without limitations\n\n#########################################################################\n## This is a samples controller\n## - index is the default action of any application\n## - user is required for authentication and authorization\n## - download is for downloading files uploaded in the db (does streaming)\n## - call exposes all registered services (none by default)\n#########################################################################\nccdForm = SQLFORM(db.CCD, labels={\'ccdNum\':\'CCD #\',\'projectNum\': "Project #"})\n\nrfiForm = SQLFORM(db.RFI, labels={\'rfiNum\':\'RFI #\',\'projectNum\':"Project #", \'requestBy\':\'Request by\', \'dateSent\':\'Date Sent\', \'reqRefTo\':\'Request Referred to\', \'dateRec\':\'Date Received\', \'drawingNum\':\'Drawing #\', \'detailNum\':\'Detail #\', \'specSection\':\'Spec Section #\', \'sheetName\':\'Sheet Name\', \'grids\':\'Grids\', \'sectionPage\':\'Section Page #\', \'description\':\'Description\', \'suggestion\':\'Contractor\\\'s Suggestion\', \'reply\':\'Reply\', \'responseBy\':\'Response by\', \'responseDate\':\'Response Date\'}, fields=[\'rfiNum\',\'projectNum\',\'requestBy\', \'dateSent\', \'reqRefTo\', \'dateRec\', \'drawingNum\', \'detailNum\', \'specSection\', \'sheetName\', \'grids\', \'sectionPage\', \'description\', \'suggestion\', \'reply\', \'responseBy\', \'responseDate\'])\n\nsubmittalForm = SQLFORM(db.Submittal, labels={\'statusFlag\':\'Status Flag\', \'projectNum\':\'Project Number\', \'assignedTo\':\'Assigned to\'})\n\nproposalRequestForm = SQLFORM(db.ProposalRequest, labels={\'reqNum\':\'Request #\', \'amendNum\':\'Amendment #\', \'projectNum\':\'Project #\', \'subject\':\'Subject\', \'propDate\':\'Proposal Date\', \'sentTo\':\'Sent to\', \'cc\':\'CC\', \'description\':\'Description\'})\n\nproposalForm = SQLFORM(db.Proposal, labels={\'reqNum\':\'Request #\', \'projectNum\':\'Project Number\', \'propDate\':\'Proposal Date\'})\n\nmeetingMinutesForm = SQLFORM(db.MeetingMinutes, labels={\'meetDate\':\'Meeting Date\'})\n\nphotoForm = SQLFORM(db.MeetingMinutes, labels={\'meetDate\':\'Meeting Date\'})  #WILL NEED TO CHANGE TO BE A PHOTO FORM\n\nif auth.user != None:\n    record = auth.user.id     #Gets the info for the current user\n    myProfileForm = SQLFORM(db.auth_user, record, showid=False, labels={\'first_name\':\'First Name\', \'last_name\':\'Last Name\', \'email\':\'E-mail\', \'phone\':\'Phone Number\', \'password\':\'New Password\'}, fields = [\'first_name\',\'last_name\',\'email\',\'phone\'],_id="profileForm")\nelse: \n    myProfileForm = SQLFORM(db.auth_user, showid=False, labels={\'first_name\':\'First Name\', \'last_name\':\'Last Name\', \'email\':\'E-mail\', \'phone\':\'Phone Number\', \'password\':\'New Password\'}, fields = [\'first_name\',\'last_name\',\'email\',\'phone\'],_id="profileForm")\n\n\nprojects = db(db.Project).select()\n\nheader = DIV(A(IMG(_src=URL(\'static\',\'images/stock.jpeg\')), _href=URL(\'default\',\'index\')), _id="header")\nfooter = DIV("This website brought to you by the Supreme Leader, Minion #3 (Alysse), Minion #2 (Scott), and the No-Longer-Sick One (Erik)", _id="footer")\n\n@auth.requires_login()\ndef index():\n    """\n    example action using the internationalization operator T and flash\n    rendered by views/default/index.html or views/generic.html\n    """\n    \n    if ccdForm.process().accepted:\n        response.flash = \'form accepted\'\n    elif ccdForm.errors:\n        response.flash = \'form has errors\'\n    else:\n        response.flash = \'please fill out the form\'\n        \n    if rfiForm.process().accepted:\n        response.flash = \'form accepted\'\n    elif rfiForm.errors:\n        response.flash = \'form has errors\'\n    else:\n        response.flash = \'please fill out the form\'\n        \n    if submittalForm.process().accepted:\n        response.flash = \'form accepted\'\n    elif submittalForm.errors:\n        response.flash = \'form has errors\'\n    else:\n        response.flash = \'please fill out the form\'\n        \n    if proposalRequestForm.process().accepted:\n        response.flash = \'form accepted\'\n    elif proposalRequestForm.errors:\n        response.flash = \'form has errors\'\n    else:\n        response.flash = \'please fill out the form\'\n        \n    if proposalForm.process().accepted:\n        response.flash = \'form accepted\'\n    elif proposalForm.errors:\n        response.flash = \'form has errors\'\n    else:\n        response.flash = \'please fill out the form\'\n    \n    if meetingMinutesForm.process().accepted:\n        response.flash = \'form accepted\'\n    elif meetingMinutesForm.errors:\n        response.flash = \'form has errors\'\n    else:\n        response.flash = \'please fill out the form\'\n        \n    if photoForm.process().accepted:\n        response.flash = \'form accepted\'\n    elif photoForm.errors:\n        response.flash = \'form has errors\'\n    else:\n        response.flash = \'please fill out the form\'\n        \n    if myProfileForm.process().accepted:\n        response.flash = \'form accepted\'\n    elif myProfileForm.errors:\n        response.flash = \'form has errors\'\n    else:\n        response.flash = \'please fill out the form\'\n       \n    return dict(ccdForm=ccdForm,\n                projects=projects,\n                rfiForm=rfiForm,\n                submittalForm=submittalForm,\n                proposalRequestForm=proposalRequestForm,\n                proposalForm=proposalForm,\n                meetingMinutesForm=meetingMinutesForm,\n                photoForm=photoForm,\n                myProfileForm=myProfileForm,\n                header=header,\n                footer=footer)\n\ndef user():\n    """\n    exposes:\n    http://..../[app]/default/user/login\n    http://..../[app]/default/user/logout\n    http://..../[app]/default/user/register\n    http://..../[app]/default/user/profile\n    http://..../[app]/default/user/retrieve_password\n    http://..../[app]/default/user/change_password\n    use @auth.requires_login()\n        @auth.requires_membership(\'group name\')\n        @auth.requires_permission(\'read\',\'table name\',record_id)\n    to decorate functions that need access control\n    """\n    return dict(form=auth())\n\n\ndef download():\n    """\n    allows downloading of uploaded files\n    http://..../[app]/default/download/[filename]\n    """\n    return response.download(request,db)\n\n\ndef call():\n    """\n    exposes services. for example:\n    http://..../[app]/default/call/jsonrpc\n    decorate with @services.jsonrpc the functions to expose\n    supports xml, json, xmlrpc, jsonrpc, amfrpc, rss, csv\n    """\n    return service()\n\n\n@auth.requires_signature()\ndef data():\n    """\n    http://..../[app]/default/data/tables\n    http://..../[app]/default/data/create/[table]\n    http://..../[app]/default/data/read/[table]/[id]\n    http://..../[app]/default/data/update/[table]/[id]\n    http://..../[app]/default/data/delete/[table]/[id]\n    http://..../[app]/default/data/select/[table]\n    http://..../[app]/default/data/search/[table]\n    but URLs must be signed, i.e. linked with\n      A(\'table\',_href=URL(\'data/tables\',user_signature=True))\n    or with the signed load operator\n      LOAD(\'default\',\'data.load\',args=\'tables\',ajax=True,user_signature=True)\n    """\n    return dict(form=crud())\n\n@auth.requires_membership(\'Admin\')\ndef register():\n    form = SQLFORM(db.auth_user)\n    if form.validate():\n        admin_user = auth.user\n        auth.get_or_create_user(form.vars)\n        auth.add_membership(auth.id_group(role="General"),auth.user_id) \n        auth.user = admin_user\n        redirect(URL(\'default\',\'manageusers\'))\n    return dict(form=form,header=header)\n    #admin_auth = session.auth\n    #auth.is_logged_in = lambda: False\n    #def post_register(form):\n    #    auth.add_membership(auth.id_group(role="General"),auth.user_id) \n\n     #   session.auth = admin_auth\n     #   auth.user = session.auth.user\n    #auth.settings.register_onaccept = post_register\n    #return dict(form=auth.register())\n\n@auth.requires_login()\n@auth.requires_membership(\'Admin\')\ndef changepermissions():\n     rows=db(db.auth_user.id>0).select() \n     db.auth_user.id.represent=lambda id: DIV(id,SELECT(str(db(db.auth_group.id==db(db.auth_membership.user_id==id).select().first().group_id).select().first().role), XML(getOtherRoles(str(db(db.auth_group.id==db(db.auth_membership.user_id==id).select().first().group_id).select().first().role))), _name=\'%i\'%id)) # INPUT (_type=\'checkbox\',_name=\'%i\'%id)) \n     table=FORM(SQLTABLE(rows),INPUT(_type=\'submit\')) \n     if table.accepts(request.vars): \n        for item in request.vars.keys():\n            if item.isdigit():\n                if not auth.has_membership(user_id=int(item), role=request.vars[item]):\n                    auth.del_membership(auth.id_group(role=getOtherRoles(request.vars[item])),int(item))\n                    auth.add_membership(auth.id_group(role=request.vars[item]),int(item)) \n\n        redirect(URL(\'default\',\'manageusers\'))\n     return dict(table=table, footer=footer, header=header)\n\n@auth.requires_login()\n@auth.requires_membership(\'Admin\')\ndef deleteusers():\n     rows=db(db.auth_user.id>0).select() \n     db.auth_user.id.represent=lambda id: DIV(id,INPUT (_type=\'checkbox\',_name=\'%i\'%id)) \n     table=FORM(SQLTABLE(rows),INPUT(_type=\'submit\')) \n     if table.accepts(request.vars): \n        for item in request.vars.keys():\n            if item.isdigit():\n                db(db.auth_user.id == int(item)).delete()\n        redirect(URL(\'default\',\'deleteusers\'))\n            # or so something not sure what you want to do \n     return dict(table=table, footer=footer, header=header)\n \n@auth.requires_login()    \n@auth.requires_membership(\'Admin\')\ndef createproject():\n    form = SQLFORM(db.Project, labels={\'openDate\':\'Open Date\', \'closedDate\':\'Closed Date\', \'projNum\':\'Project Number\'})\n    if form.process().accepted:\n       response.flash = \'form accepted\'\n    elif form.errors:\n       response.flash = \'form has errors\'\n    else:\n       response.flash = \'please fill out the form\'\n    return dict(form=form, footer=footer, header=header)\n\n@auth.requires_login()   \n@auth.requires_membership(\'Admin\')\ndef manageprojects():\n    table = None\n    rows = db().select(db.Project.ALL)\n    #myextracolumns = [{\'label\': \'CCD Thumbnail(for testing)\',\'class\':\'\',\'selected\':False, \'width\':\'\', \'content\': lambda row, rc:     IMG(_width="40",_height="40",_src=URL(\'default\',\'download\',args=row.file))}]\n    table = SQLTABLE(rows,columns=["Project.name","Project.projNum",\'Project.openDate\',"Project.closedDate"],headers={"Project.name":"Project Name","Project.openDate":"Open Date", "Project.closedDate":"Closed Date", "Project.projNum":"Project #", "Project.archived":"Archived"})\n    return dict(table=table, footer=footer, header=header)\n    \n@auth.requires_login()\n@auth.requires_membership(\'Admin\')\n\ndef archiveprojects():\n    table = None\n    rows = db(db.Project.archived == True).select()\n    #myextracolumns = [{\'label\': \'CCD Thumbnail(for testing)\',\'class\':\'\',\'selected\':False, \'width\':\'\', \'content\': lambda row, rc:     IMG(_width="40",_height="40",_src=URL(\'default\',\'download\',args=row.file))}]\n    table = SQLTABLE(rows,columns=["Project.name","Project.projNum",\'Project.openDate\',"Project.closedDate"],headers={"Project.name":"Project Name","Project.openDate":"Open Date", "Project.closedDate":"Closed Date", "Project.projNum":"Project #", "Project.archived":"Archived"})\n    return dict(table=table, footer=footer, header=header)\n\n\n@auth.requires_login()\n@auth.requires_membership(\'Admin\')\n\ndef manageusers():\n    table = None\n    #rows = db().select(db.Users.ALL)\n    #myextracolumns = [{\'label\': \'CCD Thumbnail(for testing)\',\'class\':\'\',\'selected\':False, \'width\':\'\', \'content\': lambda row, rc:     IMG(_width="40",_height="40",_src=URL(\'default\',\'download\',args=row.file))}]\n    #table = SQLTABLE(rows,columns=["Project.name","Project.projNum",\'Project.openDate\',"Project.closedDate"],headers={"Project.name":"Project Name","Project.openDate":"Open Date", "Project.closedDate":"Closed Date", "Project.projNum":"Project #", "Project.archived":"Archived"})\n    return dict(table=table, footer=footer, header=header)\n\n@auth.requires_login()\ndef formtable():\n    formType = request.vars.formType\n    if ccdForm.process().accepted:\n        response.flash = \'form accepted\'\n    elif ccdForm.errors:\n        response.flash = \'form has errors\'\n    else:\n        response.flash = \'please fill out the form\'\n        \n    if rfiForm.process().accepted:\n        response.flash = \'form accepted\'\n    elif rfiForm.errors:\n        response.flash = \'form has errors\'\n    else:\n        response.flash = \'please fill out the form\'\n        \n    if submittalForm.process().accepted:\n        response.flash = \'form accepted\'\n    elif submittalForm.errors:\n        response.flash = \'form has errors\'\n    else:\n        response.flash = \'please fill out the form\'\n        \n    if proposalRequestForm.process().accepted:\n        response.flash = \'form accepted\'\n    elif proposalRequestForm.errors:\n        response.flash = \'form has errors\'\n    else:\n        response.flash = \'please fill out the form\'\n        \n    if proposalForm.process().accepted:\n        response.flash = \'form accepted\'\n    elif proposalForm.errors:\n        response.flash = \'form has errors\'\n    else:\n        response.flash = \'please fill out the form\'\n    \n    if meetingMinutesForm.process().accepted:\n        response.flash = \'form accepted\'\n    elif meetingMinutesForm.errors:\n        response.flash = \'form has errors\'\n    else:\n        response.flash = \'please fill out the form\'\n        \n    if photoForm.process().accepted:\n        response.flash = \'form accepted\'\n    elif photoForm.errors:\n        response.flash = \'form has errors\'\n    else:\n        response.flash = \'please fill out the form\'\n        \n    if myProfileForm.process().accepted:\n        response.flash = \'form accepted\'\n    elif myProfileForm.errors:\n        response.flash = \'form has errors\'\n    else:\n        response.flash = \'please fill out the form\'\n        \n    table = None\n    image = None\n    fullTable = True\n    if formType == "CCD":\n        rows = db(db.CCD.projectNum == str(request.vars.projectNum)).select()\n        for row in rows:\n            row.file = str(URL(\'default\',\'download\',args=row.file))[1:]\n        myextracolumns = [{\'label\': \'CCD Thumbnail(for testing)\',\'class\':\'\',\'selected\':False, \'width\':\'\', \'content\': lambda row, rc: IMG(_width="40",_height="40",_src=URL(\'default\',\'download\',args=row.file))}]\n        table = SQLTABLE(rows,columns=["CCD.ccdNum",\'CCD.file\'],headers={"CCD.ccdNum":"CCD #","CCD.file":"CCD File"},upload="http://127.0.0.1:8000")\n    elif formType == "RFI":\n        rows = db(db.RFI.projectNum == str(request.vars.projectNum)).select()\n        table = SQLTABLE(rows,_width="800px",       \n            columns=["RFI.rfiNum","RFI.dateSent","RFI.reqRefTo","RFI.dateRec","RFI.responseBy","RFI.responseDate","RFI.statusFlag"],headers=\n            {"RFI.rfiNum":"RFI #","RFI.dateSent":"Date Sent","RFI.reqRefTo":"Request Referred To","RFI.dateRec":"Date Received","RFI.responseDate":"Response Date","RFI.responseBy":"Response By","RFI.statusFlag":"Status Flag"})\n    elif formType == "Submittal":\n        rows = db(db.Submittal.projectNum == str(request.vars.projectNum)).select()\n        for row in rows:\n            row.submittal = str(URL(\'default\',\'download\',args=row.submittal))[1:]\n        table = SQLTABLE(rows, columns=["Submittal.assignedTo","Submittal.statusFlag","Submittal.submittal"],\n         headers={"Submittal.assignedTo":"Assigned To","Submittal.statusFlag":"Status Flag","Submittal.submittal":"Submitted File"},upload="http://127.0.0.1:8000")\n    elif formType == "ProposalRequest":\n        rows = db(db.ProposalRequest.projectNum == str(request.vars.projectNum)).select()\n        table = SQLTABLE(rows, columns=["ProposalRequest.reqNum","ProposalRequest.amendNum","ProposalRequest.sentTo","ProposalRequest.propDate"],\n         headers={"ProposalRequest.reqNum":"Request Number","ProposalRequest.amendNum":"Amendment Number","ProposalRequest.sentTo":"Sent To","ProposalRequest.propDate":"Proposal Request Date"})\n    elif formType == "Proposal":\n        rows = db(db.Proposal.projectNum == str(request.vars.projectNum)).select()\n        for row in rows:\n            row.file = str(URL(\'default\',\'download\',args=row.file))[1:]\n        table = SQLTABLE(rows, columns=["Proposal.reqNum","Proposal.propDate","Proposal.file"],\n        headers={"Proposal.reqNum":"Proposal Number","Proposal.propDate":"Proposal Date","Proposal.file":"File Submitted"},upload="http://127.0.0.1:8000")\n    elif formType == "MeetingMinutes":\n        rows = db().select(db.MeetingMinutes.ALL)\n        for row in rows:\n            row.file = str(URL(\'default\',\'download\',args=row.file))[1:]\n        table = SQLTABLE(rows, columns=["MeetingMinutes.meetDate","MeetingMinutes.file"],\n        headers={"MeetingMinutes.meetDate":"Meeting Date","MeetingMinutes.file":"Submitted File"},upload="http://127.0.0.1:8000")\n    elif formType == "Photo":                          #WILL NEED TO CHANGE TO SHOW PHOTOS!!!!\n        rows = db().select(db.MeetingMinutes.ALL)\n        for row in rows:\n            row.file = str(URL(\'default\',\'download\',args=row.file))[1:]\n        table = SQLTABLE(rows, columns=["MeetingMinutes.meetDate","MeetingMinutes.file"],\n        headers={"MeetingMinutes.meetDate":"Meeting Date","MeetingMinutes.file":"Submitted File"},upload="http://127.0.0.1:8000")\n\n    if len(rows)==0:\n        table = "There are no documents uploaded for this project section as of yet."\n        fullTable = False\n\n    return dict(formType=formType,\n                ccdForm=ccdForm,                \n                rfiForm=rfiForm,\n                submittalForm=submittalForm,\n                proposalRequestForm=proposalRequestForm,\n                proposalForm=proposalForm,\n                meetingMinutesForm=meetingMinutesForm,\n                photoForm=photoForm,\n                myProfileForm=myProfileForm,\n                projects=projects,\n                table= table,\n                image=image,\n                footer=footer,\n                header=header,\n                fullTable=fullTable)\n\ndef getOtherRoles(currentRole):\n    if currentRole == "General":\n        return "Admin"\n    else:\n        return "General"\n\nresponse._vars=response._caller(user)\n'
p7
sS'snapshot'
p8
(dp9
S'exception'
p10
(dp11
S'__module__'
p12
S"'pysqlite2.dbapi2'"
p13
sS'__getslice__'
p14
S"<method-wrapper '__getslice__' of OperationalError object>"
p15
sS'__str__'
p16
S"<method-wrapper '__str__' of OperationalError object>"
p17
sS'__reduce__'
p18
S'<built-in method __reduce__ of OperationalError object>'
p19
sS'__dict__'
p20
S'{}'
p21
sS'__sizeof__'
p22
S'<built-in method __sizeof__ of OperationalError object>'
p23
sS'__weakref__'
p24
S'None'
p25
sS'__init__'
p26
S"<method-wrapper '__init__' of OperationalError object>"
p27
sS'__setattr__'
p28
S"<method-wrapper '__setattr__' of OperationalError object>"
p29
sS'__reduce_ex__'
p30
S'<built-in method __reduce_ex__ of OperationalError object>'
p31
sS'__new__'
p32
S'<built-in method __new__ of type object>'
p33
sS'__format__'
p34
S'<built-in method __format__ of OperationalError object>'
p35
sS'__class__'
p36
S"<class 'pysqlite2.dbapi2.OperationalError'>"
p37
sS'__doc__'
p38
S'None'
p39
sS'__getitem__'
p40
S"<method-wrapper '__getitem__' of OperationalError object>"
p41
sS'__setstate__'
p42
S'<built-in method __setstate__ of OperationalError object>'
p43
sS'__getattribute__'
p44
S"<method-wrapper '__getattribute__' of OperationalError object>"
p45
sS'args'
p46
S"('attempt to write a readonly database',)"
p47
sS'__subclasshook__'
p48
S'<built-in method __subclasshook__ of type object>'
p49
sS'__unicode__'
p50
S'<built-in method __unicode__ of OperationalError object>'
p51
sS'__delattr__'
p52
S"<method-wrapper '__delattr__' of OperationalError object>"
p53
sS'__repr__'
p54
S"<method-wrapper '__repr__' of OperationalError object>"
p55
sS'__hash__'
p56
S"<method-wrapper '__hash__' of OperationalError object>"
p57
ssS'evalue'
p58
S'attempt to write a readonly database'
p59
sS'request'
p60
ccopy_reg
_reconstructor
p61
(cgluon.html
BEAUTIFY
p62
c__builtin__
object
p63
NtRp64
(dp65
S'attributes'
p66
(dp67
sS'components'
p68
(lp69
g61
(cgluon.html
TABLE
p70
g63
NtRp71
(dp72
g66
(dp73
S'level'
p74
I5
ssS'parent'
p75
Nsg68
(lp76
g61
(cgluon.html
TR
p77
g63
NtRp78
(dp79
g66
(dp80
sg75
g71
sg68
(lp81
g61
(cgluon.html
TD
p82
g63
NtRp83
(dp84
g66
(dp85
S'_style'
p86
S'font-weight:bold;vertical-align:top'
p87
ssg75
g78
sg68
(lp88
S'ajax'
p89
asbag61
(g82
g63
NtRp90
(dp91
g66
(dp92
S'_valign'
p93
S'top'
p94
ssg75
g78
sg68
(lp95
S':'
asbag61
(g82
g63
NtRp96
(dp97
g66
(dp98
sg75
g78
sg68
(lp99
g61
(g62
g63
NtRp100
(dp101
g66
(dp102
g74
I5
ssg75
g96
sg68
(lp103
S'False'
p104
asbasbasbag61
(g77
g63
NtRp105
(dp106
g66
(dp107
sg75
g71
sg68
(lp108
g61
(g82
g63
NtRp109
(dp110
g66
(dp111
g86
g87
ssg75
g105
sg68
(lp112
S'application'
p113
asbag61
(g82
g63
NtRp114
(dp115
g66
(dp116
g93
g94
ssg75
g105
sg68
(lp117
S':'
asbag61
(g82
g63
NtRp118
(dp119
g66
(dp120
sg75
g105
sg68
(lp121
g61
(g62
g63
NtRp122
(dp123
g66
(dp124
g74
I5
ssg75
g118
sg68
(lp125
S'SeniorProject'
p126
asbasbasbag61
(g77
g63
NtRp127
(dp128
g66
(dp129
sg75
g71
sg68
(lp130
g61
(g82
g63
NtRp131
(dp132
g66
(dp133
g86
g87
ssg75
g127
sg68
(lp134
g46
asbag61
(g82
g63
NtRp135
(dp136
g66
(dp137
g93
g94
ssg75
g127
sg68
(lp138
S':'
asbag61
(g82
g63
NtRp139
(dp140
g66
(dp141
sg75
g127
sg68
(lp142
g61
(g62
g63
NtRp143
(dp144
g66
(dp145
g74
I5
ssg75
g139
sg68
(lp146
g61
(g70
g63
NtRp147
(dp148
g66
(dp149
g74
I4
ssg75
Nsg68
(lp150
g61
(g77
g63
NtRp151
(dp152
g66
(dp153
sg75
g147
sg68
(lp154
g61
(g82
g63
NtRp155
(dp156
g66
(dp157
sg75
g151
sg68
(lp158
g61
(g62
g63
NtRp159
(dp160
g66
(dp161
g74
I4
ssg75
g155
sg68
(lp162
S'login'
p163
asbasbasbasbasbasbasbag61
(g77
g63
NtRp164
(dp165
g66
(dp166
sg75
g71
sg68
(lp167
g61
(g82
g63
NtRp168
(dp169
g66
(dp170
g86
g87
ssg75
g164
sg68
(lp171
S'body'
p172
asbag61
(g82
g63
NtRp173
(dp174
g66
(dp175
g93
g94
ssg75
g164
sg68
(lp176
S':'
asbag61
(g82
g63
NtRp177
(dp178
g66
(dp179
sg75
g164
sg68
(lp180
g61
(g62
g63
NtRp181
(dp182
g66
(dp183
g74
I5
ssg75
g177
sg68
(lp184
S"<open file '<fdopen>', mode 'w+b' at 0x21f43860>"
p185
asbasbasbag61
(g77
g63
NtRp186
(dp187
g66
(dp188
sg75
g71
sg68
(lp189
g61
(g82
g63
NtRp190
(dp191
g66
(dp192
g86
g87
ssg75
g186
sg68
(lp193
S'client'
p194
asbag61
(g82
g63
NtRp195
(dp196
g66
(dp197
g93
g94
ssg75
g186
sg68
(lp198
S':'
asbag61
(g82
g63
NtRp199
(dp200
g66
(dp201
sg75
g186
sg68
(lp202
g61
(g62
g63
NtRp203
(dp204
g66
(dp205
g74
I5
ssg75
g199
sg68
(lp206
S'127.0.0.1'
p207
asbasbasbag61
(g77
g63
NtRp208
(dp209
g66
(dp210
sg75
g71
sg68
(lp211
g61
(g82
g63
NtRp212
(dp213
g66
(dp214
g86
g87
ssg75
g208
sg68
(lp215
S'controller'
p216
asbag61
(g82
g63
NtRp217
(dp218
g66
(dp219
g93
g94
ssg75
g208
sg68
(lp220
S':'
asbag61
(g82
g63
NtRp221
(dp222
g66
(dp223
sg75
g208
sg68
(lp224
g61
(g62
g63
NtRp225
(dp226
g66
(dp227
g74
I5
ssg75
g221
sg68
(lp228
S'default'
p229
asbasbasbag61
(g77
g63
NtRp230
(dp231
g66
(dp232
sg75
g71
sg68
(lp233
g61
(g82
g63
NtRp234
(dp235
g66
(dp236
g86
g87
ssg75
g230
sg68
(lp237
S'cookies'
p238
asbag61
(g82
g63
NtRp239
(dp240
g66
(dp241
g93
g94
ssg75
g230
sg68
(lp242
S':'
asbag61
(g82
g63
NtRp243
(dp244
g66
(dp245
sg75
g230
sg68
(lp246
g61
(g62
g63
NtRp247
(dp248
g66
(dp249
g74
I5
ssg75
g243
sg68
(lp250
g61
(g70
g63
NtRp251
(dp252
g66
(dp253
g74
I4
ssg75
Nsg68
(lp254
g61
(g77
g63
NtRp255
(dp256
g66
(dp257
sg75
g251
sg68
(lp258
g61
(g82
g63
NtRp259
(dp260
g66
(dp261
g86
g87
ssg75
g255
sg68
(lp262
S'session_id_seniorproject'
p263
asbag61
(g82
g63
NtRp264
(dp265
g66
(dp266
g93
g94
ssg75
g255
sg68
(lp267
S':'
asbag61
(g82
g63
NtRp268
(dp269
g66
(dp270
sg75
g255
sg68
(lp271
g61
(g62
g63
NtRp272
(dp273
g66
(dp274
g74
I4
ssg75
g268
sg68
(lp275
g61
(g70
g63
NtRp276
(dp277
g66
(dp278
g74
I3
ssg75
Nsg68
(lp279
g61
(g77
g63
NtRp280
(dp281
g66
(dp282
sg75
g276
sg68
(lp283
g61
(g82
g63
NtRp284
(dp285
g66
(dp286
g86
g87
ssg75
g280
sg68
(lp287
S'comment'
p288
asbag61
(g82
g63
NtRp289
(dp290
g66
(dp291
g93
g94
ssg75
g280
sg68
(lp292
S':'
asbag61
(g82
g63
NtRp293
(dp294
g66
(dp295
sg75
g280
sg68
(lp296
g61
(g62
g63
NtRp297
(dp298
g66
(dp299
g74
I3
ssg75
g293
sg68
(lp300
S''
asbasbasbag61
(g77
g63
NtRp301
(dp302
g66
(dp303
sg75
g276
sg68
(lp304
g61
(g82
g63
NtRp305
(dp306
g66
(dp307
g86
g87
ssg75
g301
sg68
(lp308
S'domain'
p309
asbag61
(g82
g63
NtRp310
(dp311
g66
(dp312
g93
g94
ssg75
g301
sg68
(lp313
S':'
asbag61
(g82
g63
NtRp314
(dp315
g66
(dp316
sg75
g301
sg68
(lp317
g61
(g62
g63
NtRp318
(dp319
g66
(dp320
g74
I3
ssg75
g314
sg68
(lp321
S''
asbasbasbag61
(g77
g63
NtRp322
(dp323
g66
(dp324
sg75
g276
sg68
(lp325
g61
(g82
g63
NtRp326
(dp327
g66
(dp328
g86
g87
ssg75
g322
sg68
(lp329
S'expires'
p330
asbag61
(g82
g63
NtRp331
(dp332
g66
(dp333
g93
g94
ssg75
g322
sg68
(lp334
S':'
asbag61
(g82
g63
NtRp335
(dp336
g66
(dp337
sg75
g322
sg68
(lp338
g61
(g62
g63
NtRp339
(dp340
g66
(dp341
g74
I3
ssg75
g335
sg68
(lp342
S''
asbasbasbag61
(g77
g63
NtRp343
(dp344
g66
(dp345
sg75
g276
sg68
(lp346
g61
(g82
g63
NtRp347
(dp348
g66
(dp349
g86
g87
ssg75
g343
sg68
(lp350
S'httponly'
p351
asbag61
(g82
g63
NtRp352
(dp353
g66
(dp354
g93
g94
ssg75
g343
sg68
(lp355
S':'
asbag61
(g82
g63
NtRp356
(dp357
g66
(dp358
sg75
g343
sg68
(lp359
g61
(g62
g63
NtRp360
(dp361
g66
(dp362
g74
I3
ssg75
g356
sg68
(lp363
S''
asbasbasbag61
(g77
g63
NtRp364
(dp365
g66
(dp366
sg75
g276
sg68
(lp367
g61
(g82
g63
NtRp368
(dp369
g66
(dp370
g86
g87
ssg75
g364
sg68
(lp371
S'max-age'
p372
asbag61
(g82
g63
NtRp373
(dp374
g66
(dp375
g93
g94
ssg75
g364
sg68
(lp376
S':'
asbag61
(g82
g63
NtRp377
(dp378
g66
(dp379
sg75
g364
sg68
(lp380
g61
(g62
g63
NtRp381
(dp382
g66
(dp383
g74
I3
ssg75
g377
sg68
(lp384
S''
asbasbasbag61
(g77
g63
NtRp385
(dp386
g66
(dp387
sg75
g276
sg68
(lp388
g61
(g82
g63
NtRp389
(dp390
g66
(dp391
g86
g87
ssg75
g385
sg68
(lp392
S'path'
p393
asbag61
(g82
g63
NtRp394
(dp395
g66
(dp396
g93
g94
ssg75
g385
sg68
(lp397
S':'
asbag61
(g82
g63
NtRp398
(dp399
g66
(dp400
sg75
g385
sg68
(lp401
g61
(g62
g63
NtRp402
(dp403
g66
(dp404
g74
I3
ssg75
g398
sg68
(lp405
S''
asbasbasbag61
(g77
g63
NtRp406
(dp407
g66
(dp408
sg75
g276
sg68
(lp409
g61
(g82
g63
NtRp410
(dp411
g66
(dp412
g86
g87
ssg75
g406
sg68
(lp413
S'secure'
p414
asbag61
(g82
g63
NtRp415
(dp416
g66
(dp417
g93
g94
ssg75
g406
sg68
(lp418
S':'
asbag61
(g82
g63
NtRp419
(dp420
g66
(dp421
sg75
g406
sg68
(lp422
g61
(g62
g63
NtRp423
(dp424
g66
(dp425
g74
I3
ssg75
g419
sg68
(lp426
S''
asbasbasbag61
(g77
g63
NtRp427
(dp428
g66
(dp429
sg75
g276
sg68
(lp430
g61
(g82
g63
NtRp431
(dp432
g66
(dp433
g86
g87
ssg75
g427
sg68
(lp434
S'version'
p435
asbag61
(g82
g63
NtRp436
(dp437
g66
(dp438
g93
g94
ssg75
g427
sg68
(lp439
S':'
asbag61
(g82
g63
NtRp440
(dp441
g66
(dp442
sg75
g427
sg68
(lp443
g61
(g62
g63
NtRp444
(dp445
g66
(dp446
g74
I3
ssg75
g440
sg68
(lp447
S''
asbasbasbasbasbasbasbasbasbasbasbag61
(g77
g63
NtRp448
(dp449
g66
(dp450
sg75
g71
sg68
(lp451
g61
(g82
g63
NtRp452
(dp453
g66
(dp454
g86
g87
ssg75
g448
sg68
(lp455
S'env'
p456
asbag61
(g82
g63
NtRp457
(dp458
g66
(dp459
g93
g94
ssg75
g448
sg68
(lp460
S':'
asbag61
(g82
g63
NtRp461
(dp462
g66
(dp463
sg75
g448
sg68
(lp464
g61
(g62
g63
NtRp465
(dp466
g66
(dp467
g74
I5
ssg75
g461
sg68
(lp468
g61
(g70
g63
NtRp469
(dp470
g66
(dp471
g74
I4
ssg75
Nsg68
(lp472
g61
(g77
g63
NtRp473
(dp474
g66
(dp475
sg75
g469
sg68
(lp476
g61
(g82
g63
NtRp477
(dp478
g66
(dp479
g86
g87
ssg75
g473
sg68
(lp480
S'app_folders'
p481
asbag61
(g82
g63
NtRp482
(dp483
g66
(dp484
g93
g94
ssg75
g473
sg68
(lp485
S':'
asbag61
(g82
g63
NtRp486
(dp487
g66
(dp488
sg75
g473
sg68
(lp489
g61
(g62
g63
NtRp490
(dp491
g66
(dp492
g74
I4
ssg75
g486
sg68
(lp493
S"set(['/home/seniorproj/Documents/finholt-senior-project/web2py/applications/SeniorProject/'])"
p494
asbasbasbag61
(g77
g63
NtRp495
(dp496
g66
(dp497
sg75
g469
sg68
(lp498
g61
(g82
g63
NtRp499
(dp500
g66
(dp501
g86
g87
ssg75
g495
sg68
(lp502
S'applications_parent'
p503
asbag61
(g82
g63
NtRp504
(dp505
g66
(dp506
g93
g94
ssg75
g495
sg68
(lp507
S':'
asbag61
(g82
g63
NtRp508
(dp509
g66
(dp510
sg75
g495
sg68
(lp511
g61
(g62
g63
NtRp512
(dp513
g66
(dp514
g74
I4
ssg75
g508
sg68
(lp515
S'/home/seniorproj/Documents/finholt-senior-project/web2py'
p516
asbasbasbag61
(g77
g63
NtRp517
(dp518
g66
(dp519
sg75
g469
sg68
(lp520
g61
(g82
g63
NtRp521
(dp522
g66
(dp523
g86
g87
ssg75
g517
sg68
(lp524
S'content_length'
p525
asbag61
(g82
g63
NtRp526
(dp527
g66
(dp528
g93
g94
ssg75
g517
sg68
(lp529
S':'
asbag61
(g82
g63
NtRp530
(dp531
g66
(dp532
sg75
g517
sg68
(lp533
g61
(g62
g63
NtRp534
(dp535
g66
(dp536
g74
I4
ssg75
g530
sg68
(lp537
S'722'
p538
asbasbasbag61
(g77
g63
NtRp539
(dp540
g66
(dp541
sg75
g469
sg68
(lp542
g61
(g82
g63
NtRp543
(dp544
g66
(dp545
g86
g87
ssg75
g539
sg68
(lp546
S'content_type'
p547
asbag61
(g82
g63
NtRp548
(dp549
g66
(dp550
g93
g94
ssg75
g539
sg68
(lp551
S':'
asbag61
(g82
g63
NtRp552
(dp553
g66
(dp554
sg75
g539
sg68
(lp555
g61
(g62
g63
NtRp556
(dp557
g66
(dp558
g74
I4
ssg75
g552
sg68
(lp559
S'multipart/form-data; boundary=---------------------------53226722217549310811946804941'
p560
asbasbasbag61
(g77
g63
NtRp561
(dp562
g66
(dp563
sg75
g469
sg68
(lp564
g61
(g82
g63
NtRp565
(dp566
g66
(dp567
g86
g87
ssg75
g561
sg68
(lp568
S'db_sessions'
p569
asbag61
(g82
g63
NtRp570
(dp571
g66
(dp572
g93
g94
ssg75
g561
sg68
(lp573
S':'
asbag61
(g82
g63
NtRp574
(dp575
g66
(dp576
sg75
g561
sg68
(lp577
g61
(g62
g63
NtRp578
(dp579
g66
(dp580
g74
I4
ssg75
g574
sg68
(lp581
S'set([])'
p582
asbasbasbag61
(g77
g63
NtRp583
(dp584
g66
(dp585
sg75
g469
sg68
(lp586
g61
(g82
g63
NtRp587
(dp588
g66
(dp589
g86
g87
ssg75
g583
sg68
(lp590
S'debugging'
p591
asbag61
(g82
g63
NtRp592
(dp593
g66
(dp594
g93
g94
ssg75
g583
sg68
(lp595
S':'
asbag61
(g82
g63
NtRp596
(dp597
g66
(dp598
sg75
g583
sg68
(lp599
g61
(g62
g63
NtRp600
(dp601
g66
(dp602
g74
I4
ssg75
g596
sg68
(lp603
g104
asbasbasbag61
(g77
g63
NtRp604
(dp605
g66
(dp606
sg75
g469
sg68
(lp607
g61
(g82
g63
NtRp608
(dp609
g66
(dp610
g86
g87
ssg75
g604
sg68
(lp611
S'document_root'
p612
asbag61
(g82
g63
NtRp613
(dp614
g66
(dp615
g93
g94
ssg75
g604
sg68
(lp616
S':'
asbag61
(g82
g63
NtRp617
(dp618
g66
(dp619
sg75
g604
sg68
(lp620
g61
(g62
g63
NtRp621
(dp622
g66
(dp623
g74
I4
ssg75
g617
sg68
(lp624
S'/var/www'
p625
asbasbasbag61
(g77
g63
NtRp626
(dp627
g66
(dp628
sg75
g469
sg68
(lp629
g61
(g82
g63
NtRp630
(dp631
g66
(dp632
g86
g87
ssg75
g626
sg68
(lp633
S'gateway_interface'
p634
asbag61
(g82
g63
NtRp635
(dp636
g66
(dp637
g93
g94
ssg75
g626
sg68
(lp638
S':'
asbag61
(g82
g63
NtRp639
(dp640
g66
(dp641
sg75
g626
sg68
(lp642
g61
(g62
g63
NtRp643
(dp644
g66
(dp645
g74
I4
ssg75
g639
sg68
(lp646
S'CGI/1.1'
p647
asbasbasbag61
(g77
g63
NtRp648
(dp649
g66
(dp650
sg75
g469
sg68
(lp651
g61
(g82
g63
NtRp652
(dp653
g66
(dp654
g86
g87
ssg75
g648
sg68
(lp655
S'gluon_parent'
p656
asbag61
(g82
g63
NtRp657
(dp658
g66
(dp659
g93
g94
ssg75
g648
sg68
(lp660
S':'
asbag61
(g82
g63
NtRp661
(dp662
g66
(dp663
sg75
g648
sg68
(lp664
g61
(g62
g63
NtRp665
(dp666
g66
(dp667
g74
I4
ssg75
g661
sg68
(lp668
g516
asbasbasbag61
(g77
g63
NtRp669
(dp670
g66
(dp671
sg75
g469
sg68
(lp672
g61
(g82
g63
NtRp673
(dp674
g66
(dp675
g86
g87
ssg75
g669
sg68
(lp676
S'http_accept'
p677
asbag61
(g82
g63
NtRp678
(dp679
g66
(dp680
g93
g94
ssg75
g669
sg68
(lp681
S':'
asbag61
(g82
g63
NtRp682
(dp683
g66
(dp684
sg75
g669
sg68
(lp685
g61
(g62
g63
NtRp686
(dp687
g66
(dp688
g74
I4
ssg75
g682
sg68
(lp689
S'text/html,application/xhtml+xml,application/xml;q=0.9,*/*;q=0.8'
p690
asbasbasbag61
(g77
g63
NtRp691
(dp692
g66
(dp693
sg75
g469
sg68
(lp694
g61
(g82
g63
NtRp695
(dp696
g66
(dp697
g86
g87
ssg75
g691
sg68
(lp698
S'http_accept_encoding'
p699
asbag61
(g82
g63
NtRp700
(dp701
g66
(dp702
g93
g94
ssg75
g691
sg68
(lp703
S':'
asbag61
(g82
g63
NtRp704
(dp705
g66
(dp706
sg75
g691
sg68
(lp707
g61
(g62
g63
NtRp708
(dp709
g66
(dp710
g74
I4
ssg75
g704
sg68
(lp711
S'gzip, deflate'
p712
asbasbasbag61
(g77
g63
NtRp713
(dp714
g66
(dp715
sg75
g469
sg68
(lp716
g61
(g82
g63
NtRp717
(dp718
g66
(dp719
g86
g87
ssg75
g713
sg68
(lp720
S'http_accept_language'
p721
asbag61
(g82
g63
NtRp722
(dp723
g66
(dp724
g93
g94
ssg75
g713
sg68
(lp725
S':'
asbag61
(g82
g63
NtRp726
(dp727
g66
(dp728
sg75
g713
sg68
(lp729
g61
(g62
g63
NtRp730
(dp731
g66
(dp732
g74
I4
ssg75
g726
sg68
(lp733
S'en-US,en;q=0.5'
p734
asbasbasbag61
(g77
g63
NtRp735
(dp736
g66
(dp737
sg75
g469
sg68
(lp738
g61
(g82
g63
NtRp739
(dp740
g66
(dp741
g86
g87
ssg75
g735
sg68
(lp742
S'http_connection'
p743
asbag61
(g82
g63
NtRp744
(dp745
g66
(dp746
g93
g94
ssg75
g735
sg68
(lp747
S':'
asbag61
(g82
g63
NtRp748
(dp749
g66
(dp750
sg75
g735
sg68
(lp751
g61
(g62
g63
NtRp752
(dp753
g66
(dp754
g74
I4
ssg75
g748
sg68
(lp755
S'keep-alive'
p756
asbasbasbag61
(g77
g63
NtRp757
(dp758
g66
(dp759
sg75
g469
sg68
(lp760
g61
(g82
g63
NtRp761
(dp762
g66
(dp763
g86
g87
ssg75
g757
sg68
(lp764
S'http_cookie'
p765
asbag61
(g82
g63
NtRp766
(dp767
g66
(dp768
g93
g94
ssg75
g757
sg68
(lp769
S':'
asbag61
(g82
g63
NtRp770
(dp771
g66
(dp772
sg75
g757
sg68
(lp773
g61
(g62
g63
NtRp774
(dp775
g66
(dp776
g74
I4
ssg75
g770
sg68
(lp777
S'session_id_seniorproject=127.0.0.1-da9e0b46-e1cb-4780-b15e-19a76d3b2cfd'
p778
asbasbasbag61
(g77
g63
NtRp779
(dp780
g66
(dp781
sg75
g469
sg68
(lp782
g61
(g82
g63
NtRp783
(dp784
g66
(dp785
g86
g87
ssg75
g779
sg68
(lp786
S'http_host'
p787
asbag61
(g82
g63
NtRp788
(dp789
g66
(dp790
g93
g94
ssg75
g779
sg68
(lp791
S':'
asbag61
(g82
g63
NtRp792
(dp793
g66
(dp794
sg75
g779
sg68
(lp795
g61
(g62
g63
NtRp796
(dp797
g66
(dp798
g74
I4
ssg75
g792
sg68
(lp799
S'localhost'
p800
asbasbasbag61
(g77
g63
NtRp801
(dp802
g66
(dp803
sg75
g469
sg68
(lp804
g61
(g82
g63
NtRp805
(dp806
g66
(dp807
g86
g87
ssg75
g801
sg68
(lp808
S'http_referer'
p809
asbag61
(g82
g63
NtRp810
(dp811
g66
(dp812
g93
g94
ssg75
g801
sg68
(lp813
S':'
asbag61
(g82
g63
NtRp814
(dp815
g66
(dp816
sg75
g801
sg68
(lp817
g61
(g62
g63
NtRp818
(dp819
g66
(dp820
g74
I4
ssg75
g814
sg68
(lp821
S'http://localhost/SeniorProject/default/user/login?_next=%2FSeniorProject%2Fdefault%2Findex'
p822
asbasbasbag61
(g77
g63
NtRp823
(dp824
g66
(dp825
sg75
g469
sg68
(lp826
g61
(g82
g63
NtRp827
(dp828
g66
(dp829
g86
g87
ssg75
g823
sg68
(lp830
S'http_user_agent'
p831
asbag61
(g82
g63
NtRp832
(dp833
g66
(dp834
g93
g94
ssg75
g823
sg68
(lp835
S':'
asbag61
(g82
g63
NtRp836
(dp837
g66
(dp838
sg75
g823
sg68
(lp839
g61
(g62
g63
NtRp840
(dp841
g66
(dp842
g74
I4
ssg75
g836
sg68
(lp843
S'Mozilla/5.0 (X11; Ubuntu; Linux i686; rv:18.0) Gecko/20100101 Firefox/18.0'
p844
asbasbasbag61
(g77
g63
NtRp845
(dp846
g66
(dp847
sg75
g469
sg68
(lp848
g61
(g82
g63
NtRp849
(dp850
g66
(dp851
g86
g87
ssg75
g845
sg68
(lp852
S'is_jython'
p853
asbag61
(g82
g63
NtRp854
(dp855
g66
(dp856
g93
g94
ssg75
g845
sg68
(lp857
S':'
asbag61
(g82
g63
NtRp858
(dp859
g66
(dp860
sg75
g845
sg68
(lp861
g61
(g62
g63
NtRp862
(dp863
g66
(dp864
g74
I4
ssg75
g858
sg68
(lp865
g104
asbasbasbag61
(g77
g63
NtRp866
(dp867
g66
(dp868
sg75
g469
sg68
(lp869
g61
(g82
g63
NtRp870
(dp871
g66
(dp872
g86
g87
ssg75
g866
sg68
(lp873
S'is_pypy'
p874
asbag61
(g82
g63
NtRp875
(dp876
g66
(dp877
g93
g94
ssg75
g866
sg68
(lp878
S':'
asbag61
(g82
g63
NtRp879
(dp880
g66
(dp881
sg75
g866
sg68
(lp882
g61
(g62
g63
NtRp883
(dp884
g66
(dp885
g74
I4
ssg75
g879
sg68
(lp886
g104
asbasbasbag61
(g77
g63
NtRp887
(dp888
g66
(dp889
sg75
g469
sg68
(lp890
g61
(g82
g63
NtRp891
(dp892
g66
(dp893
g86
g87
ssg75
g887
sg68
(lp894
S'mod_wsgi_application_group'
p895
asbag61
(g82
g63
NtRp896
(dp897
g66
(dp898
g93
g94
ssg75
g887
sg68
(lp899
S':'
asbag61
(g82
g63
NtRp900
(dp901
g66
(dp902
sg75
g887
sg68
(lp903
g61
(g62
g63
NtRp904
(dp905
g66
(dp906
g74
I4
ssg75
g900
sg68
(lp907
S'127.0.1.1|'
p908
asbasbasbag61
(g77
g63
NtRp909
(dp910
g66
(dp911
sg75
g469
sg68
(lp912
g61
(g82
g63
NtRp913
(dp914
g66
(dp915
g86
g87
ssg75
g909
sg68
(lp916
S'mod_wsgi_callable_object'
p917
asbag61
(g82
g63
NtRp918
(dp919
g66
(dp920
g93
g94
ssg75
g909
sg68
(lp921
S':'
asbag61
(g82
g63
NtRp922
(dp923
g66
(dp924
sg75
g909
sg68
(lp925
g61
(g62
g63
NtRp926
(dp927
g66
(dp928
g74
I4
ssg75
g922
sg68
(lp929
S'application'
p930
asbasbasbag61
(g77
g63
NtRp931
(dp932
g66
(dp933
sg75
g469
sg68
(lp934
g61
(g82
g63
NtRp935
(dp936
g66
(dp937
g86
g87
ssg75
g931
sg68
(lp938
S'mod_wsgi_listener_host'
p939
asbag61
(g82
g63
NtRp940
(dp941
g66
(dp942
g93
g94
ssg75
g931
sg68
(lp943
S':'
asbag61
(g82
g63
NtRp944
(dp945
g66
(dp946
sg75
g931
sg68
(lp947
g61
(g62
g63
NtRp948
(dp949
g66
(dp950
g74
I4
ssg75
g944
sg68
(lp951
S''
asbasbasbag61
(g77
g63
NtRp952
(dp953
g66
(dp954
sg75
g469
sg68
(lp955
g61
(g82
g63
NtRp956
(dp957
g66
(dp958
g86
g87
ssg75
g952
sg68
(lp959
S'mod_wsgi_listener_port'
p960
asbag61
(g82
g63
NtRp961
(dp962
g66
(dp963
g93
g94
ssg75
g952
sg68
(lp964
S':'
asbag61
(g82
g63
NtRp965
(dp966
g66
(dp967
sg75
g952
sg68
(lp968
g61
(g62
g63
NtRp969
(dp970
g66
(dp971
g74
I4
ssg75
g965
sg68
(lp972
S'80'
p973
asbasbasbag61
(g77
g63
NtRp974
(dp975
g66
(dp976
sg75
g469
sg68
(lp977
g61
(g82
g63
NtRp978
(dp979
g66
(dp980
g86
g87
ssg75
g974
sg68
(lp981
S'mod_wsgi_process_group'
p982
asbag61
(g82
g63
NtRp983
(dp984
g66
(dp985
g93
g94
ssg75
g974
sg68
(lp986
S':'
asbag61
(g82
g63
NtRp987
(dp988
g66
(dp989
sg75
g974
sg68
(lp990
g61
(g62
g63
NtRp991
(dp992
g66
(dp993
g74
I4
ssg75
g987
sg68
(lp994
S''
asbasbasbag61
(g77
g63
NtRp995
(dp996
g66
(dp997
sg75
g469
sg68
(lp998
g61
(g82
g63
NtRp999
(dp1000
g66
(dp1001
g86
g87
ssg75
g995
sg68
(lp1002
S'mod_wsgi_reload_mechanism'
p1003
asbag61
(g82
g63
NtRp1004
(dp1005
g66
(dp1006
g93
g94
ssg75
g995
sg68
(lp1007
S':'
asbag61
(g82
g63
NtRp1008
(dp1009
g66
(dp1010
sg75
g995
sg68
(lp1011
g61
(g62
g63
NtRp1012
(dp1013
g66
(dp1014
g74
I4
ssg75
g1008
sg68
(lp1015
S'0'
asbasbasbag61
(g77
g63
NtRp1016
(dp1017
g66
(dp1018
sg75
g469
sg68
(lp1019
g61
(g82
g63
NtRp1020
(dp1021
g66
(dp1022
g86
g87
ssg75
g1016
sg68
(lp1023
S'mod_wsgi_script_reloading'
p1024
asbag61
(g82
g63
NtRp1025
(dp1026
g66
(dp1027
g93
g94
ssg75
g1016
sg68
(lp1028
S':'
asbag61
(g82
g63
NtRp1029
(dp1030
g66
(dp1031
sg75
g1016
sg68
(lp1032
g61
(g62
g63
NtRp1033
(dp1034
g66
(dp1035
g74
I4
ssg75
g1029
sg68
(lp1036
S'1'
asbasbasbag61
(g77
g63
NtRp1037
(dp1038
g66
(dp1039
sg75
g469
sg68
(lp1040
g61
(g82
g63
NtRp1041
(dp1042
g66
(dp1043
g86
g87
ssg75
g1037
sg68
(lp1044
S'mod_wsgi_version'
p1045
asbag61
(g82
g63
NtRp1046
(dp1047
g66
(dp1048
g93
g94
ssg75
g1037
sg68
(lp1049
S':'
asbag61
(g82
g63
NtRp1050
(dp1051
g66
(dp1052
sg75
g1037
sg68
(lp1053
g61
(g62
g63
NtRp1054
(dp1055
g66
(dp1056
g74
I4
ssg75
g1050
sg68
(lp1057
g61
(g70
g63
NtRp1058
(dp1059
g66
(dp1060
g74
I3
ssg75
Nsg68
(lp1061
g61
(g77
g63
NtRp1062
(dp1063
g66
(dp1064
sg75
g1058
sg68
(lp1065
g61
(g82
g63
NtRp1066
(dp1067
g66
(dp1068
sg75
g1062
sg68
(lp1069
g61
(g62
g63
NtRp1070
(dp1071
g66
(dp1072
g74
I3
ssg75
g1066
sg68
(lp1073
S'2'
asbasbasbag61
(g77
g63
NtRp1074
(dp1075
g66
(dp1076
sg75
g1058
sg68
(lp1077
g61
(g82
g63
NtRp1078
(dp1079
g66
(dp1080
sg75
g1074
sg68
(lp1081
g61
(g62
g63
NtRp1082
(dp1083
g66
(dp1084
g74
I3
ssg75
g1078
sg68
(lp1085
S'8'
asbasbasbasbasbasbasbag61
(g77
g63
NtRp1086
(dp1087
g66
(dp1088
sg75
g469
sg68
(lp1089
g61
(g82
g63
NtRp1090
(dp1091
g66
(dp1092
g86
g87
ssg75
g1086
sg68
(lp1093
S'path'
p1094
asbag61
(g82
g63
NtRp1095
(dp1096
g66
(dp1097
g93
g94
ssg75
g1086
sg68
(lp1098
S':'
asbag61
(g82
g63
NtRp1099
(dp1100
g66
(dp1101
sg75
g1086
sg68
(lp1102
g61
(g62
g63
NtRp1103
(dp1104
g66
(dp1105
g74
I4
ssg75
g1099
sg68
(lp1106
S'/usr/local/bin:/usr/bin:/bin'
p1107
asbasbasbag61
(g77
g63
NtRp1108
(dp1109
g66
(dp1110
sg75
g469
sg68
(lp1111
g61
(g82
g63
NtRp1112
(dp1113
g66
(dp1114
g86
g87
ssg75
g1108
sg68
(lp1115
S'path_info'
p1116
asbag61
(g82
g63
NtRp1117
(dp1118
g66
(dp1119
g93
g94
ssg75
g1108
sg68
(lp1120
S':'
asbag61
(g82
g63
NtRp1121
(dp1122
g66
(dp1123
sg75
g1108
sg68
(lp1124
g61
(g62
g63
NtRp1125
(dp1126
g66
(dp1127
g74
I4
ssg75
g1121
sg68
(lp1128
S'/SeniorProject/default/user/login'
p1129
asbasbasbag61
(g77
g63
NtRp1130
(dp1131
g66
(dp1132
sg75
g469
sg68
(lp1133
g61
(g82
g63
NtRp1134
(dp1135
g66
(dp1136
g86
g87
ssg75
g1130
sg68
(lp1137
S'path_translated'
p1138
asbag61
(g82
g63
NtRp1139
(dp1140
g66
(dp1141
g93
g94
ssg75
g1130
sg68
(lp1142
S':'
asbag61
(g82
g63
NtRp1143
(dp1144
g66
(dp1145
sg75
g1130
sg68
(lp1146
g61
(g62
g63
NtRp1147
(dp1148
g66
(dp1149
g74
I4
ssg75
g1143
sg68
(lp1150
S'/home/seniorproj/Documents/finholt-senior-project/web2py/wsgihandler.py/SeniorProject/default/user/login'
p1151
asbasbasbag61
(g77
g63
NtRp1152
(dp1153
g66
(dp1154
sg75
g469
sg68
(lp1155
g61
(g82
g63
NtRp1156
(dp1157
g66
(dp1158
g86
g87
ssg75
g1152
sg68
(lp1159
S'query_string'
p1160
asbag61
(g82
g63
NtRp1161
(dp1162
g66
(dp1163
g93
g94
ssg75
g1152
sg68
(lp1164
S':'
asbag61
(g82
g63
NtRp1165
(dp1166
g66
(dp1167
sg75
g1152
sg68
(lp1168
g61
(g62
g63
NtRp1169
(dp1170
g66
(dp1171
g74
I4
ssg75
g1165
sg68
(lp1172
S'_next=%2FSeniorProject%2Fdefault%2Findex'
p1173
asbasbasbag61
(g77
g63
NtRp1174
(dp1175
g66
(dp1176
sg75
g469
sg68
(lp1177
g61
(g82
g63
NtRp1178
(dp1179
g66
(dp1180
g86
g87
ssg75
g1174
sg68
(lp1181
S'remote_addr'
p1182
asbag61
(g82
g63
NtRp1183
(dp1184
g66
(dp1185
g93
g94
ssg75
g1174
sg68
(lp1186
S':'
asbag61
(g82
g63
NtRp1187
(dp1188
g66
(dp1189
sg75
g1174
sg68
(lp1190
g61
(g62
g63
NtRp1191
(dp1192
g66
(dp1193
g74
I4
ssg75
g1187
sg68
(lp1194
g207
asbasbasbag61
(g77
g63
NtRp1195
(dp1196
g66
(dp1197
sg75
g469
sg68
(lp1198
g61
(g82
g63
NtRp1199
(dp1200
g66
(dp1201
g86
g87
ssg75
g1195
sg68
(lp1202
S'remote_port'
p1203
asbag61
(g82
g63
NtRp1204
(dp1205
g66
(dp1206
g93
g94
ssg75
g1195
sg68
(lp1207
S':'
asbag61
(g82
g63
NtRp1208
(dp1209
g66
(dp1210
sg75
g1195
sg68
(lp1211
g61
(g62
g63
NtRp1212
(dp1213
g66
(dp1214
g74
I4
ssg75
g1208
sg68
(lp1215
S'34024'
p1216
asbasbasbag61
(g77
g63
NtRp1217
(dp1218
g66
(dp1219
sg75
g469
sg68
(lp1220
g61
(g82
g63
NtRp1221
(dp1222
g66
(dp1223
g86
g87
ssg75
g1217
sg68
(lp1224
S'request_method'
p1225
asbag61
(g82
g63
NtRp1226
(dp1227
g66
(dp1228
g93
g94
ssg75
g1217
sg68
(lp1229
S':'
asbag61
(g82
g63
NtRp1230
(dp1231
g66
(dp1232
sg75
g1217
sg68
(lp1233
g61
(g62
g63
NtRp1234
(dp1235
g66
(dp1236
g74
I4
ssg75
g1230
sg68
(lp1237
S'POST'
p1238
asbasbasbag61
(g77
g63
NtRp1239
(dp1240
g66
(dp1241
sg75
g469
sg68
(lp1242
g61
(g82
g63
NtRp1243
(dp1244
g66
(dp1245
g86
g87
ssg75
g1239
sg68
(lp1246
S'request_uri'
p1247
asbag61
(g82
g63
NtRp1248
(dp1249
g66
(dp1250
g93
g94
ssg75
g1239
sg68
(lp1251
S':'
asbag61
(g82
g63
NtRp1252
(dp1253
g66
(dp1254
sg75
g1239
sg68
(lp1255
g61
(g62
g63
NtRp1256
(dp1257
g66
(dp1258
g74
I4
ssg75
g1252
sg68
(lp1259
S'/SeniorProject/default/user/login?_next=%2FSeniorProject%2Fdefault%2Findex'
p1260
asbasbasbag61
(g77
g63
NtRp1261
(dp1262
g66
(dp1263
sg75
g469
sg68
(lp1264
g61
(g82
g63
NtRp1265
(dp1266
g66
(dp1267
g86
g87
ssg75
g1261
sg68
(lp1268
S'script_filename'
p1269
asbag61
(g82
g63
NtRp1270
(dp1271
g66
(dp1272
g93
g94
ssg75
g1261
sg68
(lp1273
S':'
asbag61
(g82
g63
NtRp1274
(dp1275
g66
(dp1276
sg75
g1261
sg68
(lp1277
g61
(g62
g63
NtRp1278
(dp1279
g66
(dp1280
g74
I4
ssg75
g1274
sg68
(lp1281
S'/home/seniorproj/Documents/finholt-senior-project/web2py/wsgihandler.py'
p1282
asbasbasbag61
(g77
g63
NtRp1283
(dp1284
g66
(dp1285
sg75
g469
sg68
(lp1286
g61
(g82
g63
NtRp1287
(dp1288
g66
(dp1289
g86
g87
ssg75
g1283
sg68
(lp1290
S'script_name'
p1291
asbag61
(g82
g63
NtRp1292
(dp1293
g66
(dp1294
g93
g94
ssg75
g1283
sg68
(lp1295
S':'
asbag61
(g82
g63
NtRp1296
(dp1297
g66
(dp1298
sg75
g1283
sg68
(lp1299
g61
(g62
g63
NtRp1300
(dp1301
g66
(dp1302
g74
I4
ssg75
g1296
sg68
(lp1303
S''
asbasbasbag61
(g77
g63
NtRp1304
(dp1305
g66
(dp1306
sg75
g469
sg68
(lp1307
g61
(g82
g63
NtRp1308
(dp1309
g66
(dp1310
g86
g87
ssg75
g1304
sg68
(lp1311
S'server_addr'
p1312
asbag61
(g82
g63
NtRp1313
(dp1314
g66
(dp1315
g93
g94
ssg75
g1304
sg68
(lp1316
S':'
asbag61
(g82
g63
NtRp1317
(dp1318
g66
(dp1319
sg75
g1304
sg68
(lp1320
g61
(g62
g63
NtRp1321
(dp1322
g66
(dp1323
g74
I4
ssg75
g1317
sg68
(lp1324
S'127.0.0.1'
p1325
asbasbasbag61
(g77
g63
NtRp1326
(dp1327
g66
(dp1328
sg75
g469
sg68
(lp1329
g61
(g82
g63
NtRp1330
(dp1331
g66
(dp1332
g86
g87
ssg75
g1326
sg68
(lp1333
S'server_admin'
p1334
asbag61
(g82
g63
NtRp1335
(dp1336
g66
(dp1337
g93
g94
ssg75
g1326
sg68
(lp1338
S':'
asbag61
(g82
g63
NtRp1339
(dp1340
g66
(dp1341
sg75
g1326
sg68
(lp1342
g61
(g62
g63
NtRp1343
(dp1344
g66
(dp1345
g74
I4
ssg75
g1339
sg68
(lp1346
S'webmaster@localhost'
p1347
asbasbasbag61
(g77
g63
NtRp1348
(dp1349
g66
(dp1350
sg75
g469
sg68
(lp1351
g61
(g82
g63
NtRp1352
(dp1353
g66
(dp1354
g86
g87
ssg75
g1348
sg68
(lp1355
S'server_name'
p1356
asbag61
(g82
g63
NtRp1357
(dp1358
g66
(dp1359
g93
g94
ssg75
g1348
sg68
(lp1360
S':'
asbag61
(g82
g63
NtRp1361
(dp1362
g66
(dp1363
sg75
g1348
sg68
(lp1364
g61
(g62
g63
NtRp1365
(dp1366
g66
(dp1367
g74
I4
ssg75
g1361
sg68
(lp1368
S'localhost'
p1369
asbasbasbag61
(g77
g63
NtRp1370
(dp1371
g66
(dp1372
sg75
g469
sg68
(lp1373
g61
(g82
g63
NtRp1374
(dp1375
g66
(dp1376
g86
g87
ssg75
g1370
sg68
(lp1377
S'server_port'
p1378
asbag61
(g82
g63
NtRp1379
(dp1380
g66
(dp1381
g93
g94
ssg75
g1370
sg68
(lp1382
S':'
asbag61
(g82
g63
NtRp1383
(dp1384
g66
(dp1385
sg75
g1370
sg68
(lp1386
g61
(g62
g63
NtRp1387
(dp1388
g66
(dp1389
g74
I4
ssg75
g1383
sg68
(lp1390
S'80'
p1391
asbasbasbag61
(g77
g63
NtRp1392
(dp1393
g66
(dp1394
sg75
g469
sg68
(lp1395
g61
(g82
g63
NtRp1396
(dp1397
g66
(dp1398
g86
g87
ssg75
g1392
sg68
(lp1399
S'server_protocol'
p1400
asbag61
(g82
g63
NtRp1401
(dp1402
g66
(dp1403
g93
g94
ssg75
g1392
sg68
(lp1404
S':'
asbag61
(g82
g63
NtRp1405
(dp1406
g66
(dp1407
sg75
g1392
sg68
(lp1408
g61
(g62
g63
NtRp1409
(dp1410
g66
(dp1411
g74
I4
ssg75
g1405
sg68
(lp1412
S'HTTP/1.1'
p1413
asbasbasbag61
(g77
g63
NtRp1414
(dp1415
g66
(dp1416
sg75
g469
sg68
(lp1417
g61
(g82
g63
NtRp1418
(dp1419
g66
(dp1420
g86
g87
ssg75
g1414
sg68
(lp1421
S'server_signature'
p1422
asbag61
(g82
g63
NtRp1423
(dp1424
g66
(dp1425
g93
g94
ssg75
g1414
sg68
(lp1426
S':'
asbag61
(g82
g63
NtRp1427
(dp1428
g66
(dp1429
sg75
g1414
sg68
(lp1430
g61
(g62
g63
NtRp1431
(dp1432
g66
(dp1433
g74
I4
ssg75
g1427
sg68
(lp1434
S'<address>Apache/2.2.14 (Ubuntu) Server at localhost Port 80</address>\n'
p1435
asbasbasbag61
(g77
g63
NtRp1436
(dp1437
g66
(dp1438
sg75
g469
sg68
(lp1439
g61
(g82
g63
NtRp1440
(dp1441
g66
(dp1442
g86
g87
ssg75
g1436
sg68
(lp1443
S'server_software'
p1444
asbag61
(g82
g63
NtRp1445
(dp1446
g66
(dp1447
g93
g94
ssg75
g1436
sg68
(lp1448
S':'
asbag61
(g82
g63
NtRp1449
(dp1450
g66
(dp1451
sg75
g1436
sg68
(lp1452
g61
(g62
g63
NtRp1453
(dp1454
g66
(dp1455
g74
I4
ssg75
g1449
sg68
(lp1456
S'Apache/2.2.14 (Ubuntu)'
p1457
asbasbasbag61
(g77
g63
NtRp1458
(dp1459
g66
(dp1460
sg75
g469
sg68
(lp1461
g61
(g82
g63
NtRp1462
(dp1463
g66
(dp1464
g86
g87
ssg75
g1458
sg68
(lp1465
S'web2py_path'
p1466
asbag61
(g82
g63
NtRp1467
(dp1468
g66
(dp1469
g93
g94
ssg75
g1458
sg68
(lp1470
S':'
asbag61
(g82
g63
NtRp1471
(dp1472
g66
(dp1473
sg75
g1458
sg68
(lp1474
g61
(g62
g63
NtRp1475
(dp1476
g66
(dp1477
g74
I4
ssg75
g1471
sg68
(lp1478
g516
asbasbasbag61
(g77
g63
NtRp1479
(dp1480
g66
(dp1481
sg75
g469
sg68
(lp1482
g61
(g82
g63
NtRp1483
(dp1484
g66
(dp1485
g86
g87
ssg75
g1479
sg68
(lp1486
S'web2py_version'
p1487
asbag61
(g82
g63
NtRp1488
(dp1489
g66
(dp1490
g93
g94
ssg75
g1479
sg68
(lp1491
S':'
asbag61
(g82
g63
NtRp1492
(dp1493
g66
(dp1494
sg75
g1479
sg68
(lp1495
g61
(g62
g63
NtRp1496
(dp1497
g66
(dp1498
g74
I4
ssg75
g1492
sg68
(lp1499
g61
(g70
g63
NtRp1500
(dp1501
g66
(dp1502
g74
I3
ssg75
Nsg68
(lp1503
g61
(g77
g63
NtRp1504
(dp1505
g66
(dp1506
sg75
g1500
sg68
(lp1507
g61
(g82
g63
NtRp1508
(dp1509
g66
(dp1510
sg75
g1504
sg68
(lp1511
g61
(g62
g63
NtRp1512
(dp1513
g66
(dp1514
g74
I3
ssg75
g1508
sg68
(lp1515
S'1'
asbasbasbag61
(g77
g63
NtRp1516
(dp1517
g66
(dp1518
sg75
g1500
sg68
(lp1519
g61
(g82
g63
NtRp1520
(dp1521
g66
(dp1522
sg75
g1516
sg68
(lp1523
g61
(g62
g63
NtRp1524
(dp1525
g66
(dp1526
g74
I3
ssg75
g1520
sg68
(lp1527
S'99'
p1528
asbasbasbag61
(g77
g63
NtRp1529
(dp1530
g66
(dp1531
sg75
g1500
sg68
(lp1532
g61
(g82
g63
NtRp1533
(dp1534
g66
(dp1535
sg75
g1529
sg68
(lp1536
g61
(g62
g63
NtRp1537
(dp1538
g66
(dp1539
g74
I3
ssg75
g1533
sg68
(lp1540
S'7'
asbasbasbag61
(g77
g63
NtRp1541
(dp1542
g66
(dp1543
sg75
g1500
sg68
(lp1544
g61
(g82
g63
NtRp1545
(dp1546
g66
(dp1547
sg75
g1541
sg68
(lp1548
g61
(g62
g63
NtRp1549
(dp1550
g66
(dp1551
g74
I3
ssg75
g1545
sg68
(lp1552
S'datetime.datetime(2012, 3, 4, 22, 12, 8)'
p1553
asbasbasbag61
(g77
g63
NtRp1554
(dp1555
g66
(dp1556
sg75
g1500
sg68
(lp1557
g61
(g82
g63
NtRp1558
(dp1559
g66
(dp1560
sg75
g1554
sg68
(lp1561
g61
(g62
g63
NtRp1562
(dp1563
g66
(dp1564
g74
I3
ssg75
g1558
sg68
(lp1565
S'stable'
p1566
asbasbasbasbasbasbasbag61
(g77
g63
NtRp1567
(dp1568
g66
(dp1569
sg75
g469
sg68
(lp1570
g61
(g82
g63
NtRp1571
(dp1572
g66
(dp1573
g86
g87
ssg75
g1567
sg68
(lp1574
S'wsgi_errors'
p1575
asbag61
(g82
g63
NtRp1576
(dp1577
g66
(dp1578
g93
g94
ssg75
g1567
sg68
(lp1579
S':'
asbag61
(g82
g63
NtRp1580
(dp1581
g66
(dp1582
sg75
g1567
sg68
(lp1583
g61
(g62
g63
NtRp1584
(dp1585
g66
(dp1586
g74
I4
ssg75
g1580
sg68
(lp1587
S'<mod_wsgi.Log object at 0x22265fc0>'
p1588
asbasbasbag61
(g77
g63
NtRp1589
(dp1590
g66
(dp1591
sg75
g469
sg68
(lp1592
g61
(g82
g63
NtRp1593
(dp1594
g66
(dp1595
g86
g87
ssg75
g1589
sg68
(lp1596
S'wsgi_file_wrapper'
p1597
asbag61
(g82
g63
NtRp1598
(dp1599
g66
(dp1600
g93
g94
ssg75
g1589
sg68
(lp1601
S':'
asbag61
(g82
g63
NtRp1602
(dp1603
g66
(dp1604
sg75
g1589
sg68
(lp1605
g61
(g62
g63
NtRp1606
(dp1607
g66
(dp1608
g74
I4
ssg75
g1602
sg68
(lp1609
S'<built-in method file_wrapper of mod_wsgi.Adapter object at 0x21fcdf98>'
p1610
asbasbasbag61
(g77
g63
NtRp1611
(dp1612
g66
(dp1613
sg75
g469
sg68
(lp1614
g61
(g82
g63
NtRp1615
(dp1616
g66
(dp1617
g86
g87
ssg75
g1611
sg68
(lp1618
S'wsgi_input'
p1619
asbag61
(g82
g63
NtRp1620
(dp1621
g66
(dp1622
g93
g94
ssg75
g1611
sg68
(lp1623
S':'
asbag61
(g82
g63
NtRp1624
(dp1625
g66
(dp1626
sg75
g1611
sg68
(lp1627
g61
(g62
g63
NtRp1628
(dp1629
g66
(dp1630
g74
I4
ssg75
g1624
sg68
(lp1631
S'<mod_wsgi.Input object at 0x21f3a390>'
p1632
asbasbasbag61
(g77
g63
NtRp1633
(dp1634
g66
(dp1635
sg75
g469
sg68
(lp1636
g61
(g82
g63
NtRp1637
(dp1638
g66
(dp1639
g86
g87
ssg75
g1633
sg68
(lp1640
S'wsgi_multiprocess'
p1641
asbag61
(g82
g63
NtRp1642
(dp1643
g66
(dp1644
g93
g94
ssg75
g1633
sg68
(lp1645
S':'
asbag61
(g82
g63
NtRp1646
(dp1647
g66
(dp1648
sg75
g1633
sg68
(lp1649
g61
(g62
g63
NtRp1650
(dp1651
g66
(dp1652
g74
I4
ssg75
g1646
sg68
(lp1653
S'True'
p1654
asbasbasbag61
(g77
g63
NtRp1655
(dp1656
g66
(dp1657
sg75
g469
sg68
(lp1658
g61
(g82
g63
NtRp1659
(dp1660
g66
(dp1661
g86
g87
ssg75
g1655
sg68
(lp1662
S'wsgi_multithread'
p1663
asbag61
(g82
g63
NtRp1664
(dp1665
g66
(dp1666
g93
g94
ssg75
g1655
sg68
(lp1667
S':'
asbag61
(g82
g63
NtRp1668
(dp1669
g66
(dp1670
sg75
g1655
sg68
(lp1671
g61
(g62
g63
NtRp1672
(dp1673
g66
(dp1674
g74
I4
ssg75
g1668
sg68
(lp1675
g1654
asbasbasbag61
(g77
g63
NtRp1676
(dp1677
g66
(dp1678
sg75
g469
sg68
(lp1679
g61
(g82
g63
NtRp1680
(dp1681
g66
(dp1682
g86
g87
ssg75
g1676
sg68
(lp1683
S'wsgi_run_once'
p1684
asbag61
(g82
g63
NtRp1685
(dp1686
g66
(dp1687
g93
g94
ssg75
g1676
sg68
(lp1688
S':'
asbag61
(g82
g63
NtRp1689
(dp1690
g66
(dp1691
sg75
g1676
sg68
(lp1692
g61
(g62
g63
NtRp1693
(dp1694
g66
(dp1695
g74
I4
ssg75
g1689
sg68
(lp1696
g104
asbasbasbag61
(g77
g63
NtRp1697
(dp1698
g66
(dp1699
sg75
g469
sg68
(lp1700
g61
(g82
g63
NtRp1701
(dp1702
g66
(dp1703
g86
g87
ssg75
g1697
sg68
(lp1704
S'wsgi_url_scheme'
p1705
asbag61
(g82
g63
NtRp1706
(dp1707
g66
(dp1708
g93
g94
ssg75
g1697
sg68
(lp1709
S':'
asbag61
(g82
g63
NtRp1710
(dp1711
g66
(dp1712
sg75
g1697
sg68
(lp1713
g61
(g62
g63
NtRp1714
(dp1715
g66
(dp1716
g74
I4
ssg75
g1710
sg68
(lp1717
S'http'
p1718
asbasbasbag61
(g77
g63
NtRp1719
(dp1720
g66
(dp1721
sg75
g469
sg68
(lp1722
g61
(g82
g63
NtRp1723
(dp1724
g66
(dp1725
g86
g87
ssg75
g1719
sg68
(lp1726
S'wsgi_version'
p1727
asbag61
(g82
g63
NtRp1728
(dp1729
g66
(dp1730
g93
g94
ssg75
g1719
sg68
(lp1731
S':'
asbag61
(g82
g63
NtRp1732
(dp1733
g66
(dp1734
sg75
g1719
sg68
(lp1735
g61
(g62
g63
NtRp1736
(dp1737
g66
(dp1738
g74
I4
ssg75
g1732
sg68
(lp1739
g61
(g70
g63
NtRp1740
(dp1741
g66
(dp1742
g74
I3
ssg75
Nsg68
(lp1743
g61
(g77
g63
NtRp1744
(dp1745
g66
(dp1746
sg75
g1740
sg68
(lp1747
g61
(g82
g63
NtRp1748
(dp1749
g66
(dp1750
sg75
g1744
sg68
(lp1751
g61
(g62
g63
NtRp1752
(dp1753
g66
(dp1754
g74
I3
ssg75
g1748
sg68
(lp1755
S'1'
asbasbasbag61
(g77
g63
NtRp1756
(dp1757
g66
(dp1758
sg75
g1740
sg68
(lp1759
g61
(g82
g63
NtRp1760
(dp1761
g66
(dp1762
sg75
g1756
sg68
(lp1763
g61
(g62
g63
NtRp1764
(dp1765
g66
(dp1766
g74
I3
ssg75
g1760
sg68
(lp1767
S'0'
asbasbasbasbasbasbasbasbasbasbasbag61
(g77
g63
NtRp1768
(dp1769
g66
(dp1770
sg75
g71
sg68
(lp1771
g61
(g82
g63
NtRp1772
(dp1773
g66
(dp1774
g86
g87
ssg75
g1768
sg68
(lp1775
S'extension'
p1776
asbag61
(g82
g63
NtRp1777
(dp1778
g66
(dp1779
g93
g94
ssg75
g1768
sg68
(lp1780
S':'
asbag61
(g82
g63
NtRp1781
(dp1782
g66
(dp1783
sg75
g1768
sg68
(lp1784
g61
(g62
g63
NtRp1785
(dp1786
g66
(dp1787
g74
I5
ssg75
g1781
sg68
(lp1788
S'html'
p1789
asbasbasbag61
(g77
g63
NtRp1790
(dp1791
g66
(dp1792
sg75
g71
sg68
(lp1793
g61
(g82
g63
NtRp1794
(dp1795
g66
(dp1796
g86
g87
ssg75
g1790
sg68
(lp1797
S'folder'
p1798
asbag61
(g82
g63
NtRp1799
(dp1800
g66
(dp1801
g93
g94
ssg75
g1790
sg68
(lp1802
S':'
asbag61
(g82
g63
NtRp1803
(dp1804
g66
(dp1805
sg75
g1790
sg68
(lp1806
g61
(g62
g63
NtRp1807
(dp1808
g66
(dp1809
g74
I5
ssg75
g1803
sg68
(lp1810
S'/home/seniorproj/Documents/finholt-senior-project/web2py/applications/SeniorProject/'
p1811
asbasbasbag61
(g77
g63
NtRp1812
(dp1813
g66
(dp1814
sg75
g71
sg68
(lp1815
g61
(g82
g63
NtRp1816
(dp1817
g66
(dp1818
g86
g87
ssg75
g1812
sg68
(lp1819
S'function'
p1820
asbag61
(g82
g63
NtRp1821
(dp1822
g66
(dp1823
g93
g94
ssg75
g1812
sg68
(lp1824
S':'
asbag61
(g82
g63
NtRp1825
(dp1826
g66
(dp1827
sg75
g1812
sg68
(lp1828
g61
(g62
g63
NtRp1829
(dp1830
g66
(dp1831
g74
I5
ssg75
g1825
sg68
(lp1832
S'user'
p1833
asbasbasbag61
(g77
g63
NtRp1834
(dp1835
g66
(dp1836
sg75
g71
sg68
(lp1837
g61
(g82
g63
NtRp1838
(dp1839
g66
(dp1840
g86
g87
ssg75
g1834
sg68
(lp1841
S'get_vars'
p1842
asbag61
(g82
g63
NtRp1843
(dp1844
g66
(dp1845
g93
g94
ssg75
g1834
sg68
(lp1846
S':'
asbag61
(g82
g63
NtRp1847
(dp1848
g66
(dp1849
sg75
g1834
sg68
(lp1850
g61
(g62
g63
NtRp1851
(dp1852
g66
(dp1853
g74
I5
ssg75
g1847
sg68
(lp1854
g61
(g70
g63
NtRp1855
(dp1856
g66
(dp1857
g74
I4
ssg75
Nsg68
(lp1858
sbasbasbasbag61
(g77
g63
NtRp1859
(dp1860
g66
(dp1861
sg75
g71
sg68
(lp1862
g61
(g82
g63
NtRp1863
(dp1864
g66
(dp1865
g86
g87
ssg75
g1859
sg68
(lp1866
S'global_settings'
p1867
asbag61
(g82
g63
NtRp1868
(dp1869
g66
(dp1870
g93
g94
ssg75
g1859
sg68
(lp1871
S':'
asbag61
(g82
g63
NtRp1872
(dp1873
g66
(dp1874
sg75
g1859
sg68
(lp1875
g61
(g62
g63
NtRp1876
(dp1877
g66
(dp1878
g74
I5
ssg75
g1872
sg68
(lp1879
g61
(g70
g63
NtRp1880
(dp1881
g66
(dp1882
g74
I4
ssg75
Nsg68
(lp1883
g61
(g77
g63
NtRp1884
(dp1885
g66
(dp1886
sg75
g1880
sg68
(lp1887
g61
(g82
g63
NtRp1888
(dp1889
g66
(dp1890
g86
g87
ssg75
g1884
sg68
(lp1891
g481
asbag61
(g82
g63
NtRp1892
(dp1893
g66
(dp1894
g93
g94
ssg75
g1884
sg68
(lp1895
S':'
asbag61
(g82
g63
NtRp1896
(dp1897
g66
(dp1898
sg75
g1884
sg68
(lp1899
g61
(g62
g63
NtRp1900
(dp1901
g66
(dp1902
g74
I4
ssg75
g1896
sg68
(lp1903
S"set(['/home/seniorproj/Documents/finholt-senior-project/web2py/applications/SeniorProject/'])"
p1904
asbasbasbag61
(g77
g63
NtRp1905
(dp1906
g66
(dp1907
sg75
g1880
sg68
(lp1908
g61
(g82
g63
NtRp1909
(dp1910
g66
(dp1911
g86
g87
ssg75
g1905
sg68
(lp1912
g503
asbag61
(g82
g63
NtRp1913
(dp1914
g66
(dp1915
g93
g94
ssg75
g1905
sg68
(lp1916
S':'
asbag61
(g82
g63
NtRp1917
(dp1918
g66
(dp1919
sg75
g1905
sg68
(lp1920
g61
(g62
g63
NtRp1921
(dp1922
g66
(dp1923
g74
I4
ssg75
g1917
sg68
(lp1924
g516
asbasbasbag61
(g77
g63
NtRp1925
(dp1926
g66
(dp1927
sg75
g1880
sg68
(lp1928
g61
(g82
g63
NtRp1929
(dp1930
g66
(dp1931
g86
g87
ssg75
g1925
sg68
(lp1932
g569
asbag61
(g82
g63
NtRp1933
(dp1934
g66
(dp1935
g93
g94
ssg75
g1925
sg68
(lp1936
S':'
asbag61
(g82
g63
NtRp1937
(dp1938
g66
(dp1939
sg75
g1925
sg68
(lp1940
g61
(g62
g63
NtRp1941
(dp1942
g66
(dp1943
g74
I4
ssg75
g1937
sg68
(lp1944
S'set([])'
p1945
asbasbasbag61
(g77
g63
NtRp1946
(dp1947
g66
(dp1948
sg75
g1880
sg68
(lp1949
g61
(g82
g63
NtRp1950
(dp1951
g66
(dp1952
g86
g87
ssg75
g1946
sg68
(lp1953
g591
asbag61
(g82
g63
NtRp1954
(dp1955
g66
(dp1956
g93
g94
ssg75
g1946
sg68
(lp1957
S':'
asbag61
(g82
g63
NtRp1958
(dp1959
g66
(dp1960
sg75
g1946
sg68
(lp1961
g61
(g62
g63
NtRp1962
(dp1963
g66
(dp1964
g74
I4
ssg75
g1958
sg68
(lp1965
g104
asbasbasbag61
(g77
g63
NtRp1966
(dp1967
g66
(dp1968
sg75
g1880
sg68
(lp1969
g61
(g82
g63
NtRp1970
(dp1971
g66
(dp1972
g86
g87
ssg75
g1966
sg68
(lp1973
g656
asbag61
(g82
g63
NtRp1974
(dp1975
g66
(dp1976
g93
g94
ssg75
g1966
sg68
(lp1977
S':'
asbag61
(g82
g63
NtRp1978
(dp1979
g66
(dp1980
sg75
g1966
sg68
(lp1981
g61
(g62
g63
NtRp1982
(dp1983
g66
(dp1984
g74
I4
ssg75
g1978
sg68
(lp1985
g516
asbasbasbag61
(g77
g63
NtRp1986
(dp1987
g66
(dp1988
sg75
g1880
sg68
(lp1989
g61
(g82
g63
NtRp1990
(dp1991
g66
(dp1992
g86
g87
ssg75
g1986
sg68
(lp1993
g853
asbag61
(g82
g63
NtRp1994
(dp1995
g66
(dp1996
g93
g94
ssg75
g1986
sg68
(lp1997
S':'
asbag61
(g82
g63
NtRp1998
(dp1999
g66
(dp2000
sg75
g1986
sg68
(lp2001
g61
(g62
g63
NtRp2002
(dp2003
g66
(dp2004
g74
I4
ssg75
g1998
sg68
(lp2005
g104
asbasbasbag61
(g77
g63
NtRp2006
(dp2007
g66
(dp2008
sg75
g1880
sg68
(lp2009
g61
(g82
g63
NtRp2010
(dp2011
g66
(dp2012
g86
g87
ssg75
g2006
sg68
(lp2013
g874
asbag61
(g82
g63
NtRp2014
(dp2015
g66
(dp2016
g93
g94
ssg75
g2006
sg68
(lp2017
S':'
asbag61
(g82
g63
NtRp2018
(dp2019
g66
(dp2020
sg75
g2006
sg68
(lp2021
g61
(g62
g63
NtRp2022
(dp2023
g66
(dp2024
g74
I4
ssg75
g2018
sg68
(lp2025
g104
asbasbasbag61
(g77
g63
NtRp2026
(dp2027
g66
(dp2028
sg75
g1880
sg68
(lp2029
g61
(g82
g63
NtRp2030
(dp2031
g66
(dp2032
g86
g87
ssg75
g2026
sg68
(lp2033
g1487
asbag61
(g82
g63
NtRp2034
(dp2035
g66
(dp2036
g93
g94
ssg75
g2026
sg68
(lp2037
S':'
asbag61
(g82
g63
NtRp2038
(dp2039
g66
(dp2040
sg75
g2026
sg68
(lp2041
g61
(g62
g63
NtRp2042
(dp2043
g66
(dp2044
g74
I4
ssg75
g2038
sg68
(lp2045
g61
(g70
g63
NtRp2046
(dp2047
g66
(dp2048
g74
I3
ssg75
Nsg68
(lp2049
g61
(g77
g63
NtRp2050
(dp2051
g66
(dp2052
sg75
g2046
sg68
(lp2053
g61
(g82
g63
NtRp2054
(dp2055
g66
(dp2056
sg75
g2050
sg68
(lp2057
g61
(g62
g63
NtRp2058
(dp2059
g66
(dp2060
g74
I3
ssg75
g2054
sg68
(lp2061
S'1'
asbasbasbag61
(g77
g63
NtRp2062
(dp2063
g66
(dp2064
sg75
g2046
sg68
(lp2065
g61
(g82
g63
NtRp2066
(dp2067
g66
(dp2068
sg75
g2062
sg68
(lp2069
g61
(g62
g63
NtRp2070
(dp2071
g66
(dp2072
g74
I3
ssg75
g2066
sg68
(lp2073
S'99'
p2074
asbasbasbag61
(g77
g63
NtRp2075
(dp2076
g66
(dp2077
sg75
g2046
sg68
(lp2078
g61
(g82
g63
NtRp2079
(dp2080
g66
(dp2081
sg75
g2075
sg68
(lp2082
g61
(g62
g63
NtRp2083
(dp2084
g66
(dp2085
g74
I3
ssg75
g2079
sg68
(lp2086
S'7'
asbasbasbag61
(g77
g63
NtRp2087
(dp2088
g66
(dp2089
sg75
g2046
sg68
(lp2090
g61
(g82
g63
NtRp2091
(dp2092
g66
(dp2093
sg75
g2087
sg68
(lp2094
g61
(g62
g63
NtRp2095
(dp2096
g66
(dp2097
g74
I3
ssg75
g2091
sg68
(lp2098
S'datetime.datetime(2012, 3, 4, 22, 12, 8)'
p2099
asbasbasbag61
(g77
g63
NtRp2100
(dp2101
g66
(dp2102
sg75
g2046
sg68
(lp2103
g61
(g82
g63
NtRp2104
(dp2105
g66
(dp2106
sg75
g2100
sg68
(lp2107
g61
(g62
g63
NtRp2108
(dp2109
g66
(dp2110
g74
I3
ssg75
g2104
sg68
(lp2111
g1566
asbasbasbasbasbasbasbasbasbasbasbag61
(g77
g63
NtRp2112
(dp2113
g66
(dp2114
sg75
g71
sg68
(lp2115
g61
(g82
g63
NtRp2116
(dp2117
g66
(dp2118
g86
g87
ssg75
g2112
sg68
(lp2119
S'is_https'
p2120
asbag61
(g82
g63
NtRp2121
(dp2122
g66
(dp2123
g93
g94
ssg75
g2112
sg68
(lp2124
S':'
asbag61
(g82
g63
NtRp2125
(dp2126
g66
(dp2127
sg75
g2112
sg68
(lp2128
g61
(g62
g63
NtRp2129
(dp2130
g66
(dp2131
g74
I5
ssg75
g2125
sg68
(lp2132
g104
asbasbasbag61
(g77
g63
NtRp2133
(dp2134
g66
(dp2135
sg75
g71
sg68
(lp2136
g61
(g82
g63
NtRp2137
(dp2138
g66
(dp2139
g86
g87
ssg75
g2133
sg68
(lp2140
S'is_local'
p2141
asbag61
(g82
g63
NtRp2142
(dp2143
g66
(dp2144
g93
g94
ssg75
g2133
sg68
(lp2145
S':'
asbag61
(g82
g63
NtRp2146
(dp2147
g66
(dp2148
sg75
g2133
sg68
(lp2149
g61
(g62
g63
NtRp2150
(dp2151
g66
(dp2152
g74
I5
ssg75
g2146
sg68
(lp2153
g1654
asbasbasbag61
(g77
g63
NtRp2154
(dp2155
g66
(dp2156
sg75
g71
sg68
(lp2157
g61
(g82
g63
NtRp2158
(dp2159
g66
(dp2160
g86
g87
ssg75
g2154
sg68
(lp2161
S'is_restful'
p2162
asbag61
(g82
g63
NtRp2163
(dp2164
g66
(dp2165
g93
g94
ssg75
g2154
sg68
(lp2166
S':'
asbag61
(g82
g63
NtRp2167
(dp2168
g66
(dp2169
sg75
g2154
sg68
(lp2170
g61
(g62
g63
NtRp2171
(dp2172
g66
(dp2173
g74
I5
ssg75
g2167
sg68
(lp2174
g104
asbasbasbag61
(g77
g63
NtRp2175
(dp2176
g66
(dp2177
sg75
g71
sg68
(lp2178
g61
(g82
g63
NtRp2179
(dp2180
g66
(dp2181
g86
g87
ssg75
g2175
sg68
(lp2182
S'now'
p2183
asbag61
(g82
g63
NtRp2184
(dp2185
g66
(dp2186
g93
g94
ssg75
g2175
sg68
(lp2187
S':'
asbag61
(g82
g63
NtRp2188
(dp2189
g66
(dp2190
sg75
g2175
sg68
(lp2191
g61
(g62
g63
NtRp2192
(dp2193
g66
(dp2194
g74
I5
ssg75
g2188
sg68
(lp2195
S'datetime.datetime(2013, 2, 8, 14, 19, 54, 577608)'
p2196
asbasbasbag61
(g77
g63
NtRp2197
(dp2198
g66
(dp2199
sg75
g71
sg68
(lp2200
g61
(g82
g63
NtRp2201
(dp2202
g66
(dp2203
g86
g87
ssg75
g2197
sg68
(lp2204
S'post_vars'
p2205
asbag61
(g82
g63
NtRp2206
(dp2207
g66
(dp2208
g93
g94
ssg75
g2197
sg68
(lp2209
S':'
asbag61
(g82
g63
NtRp2210
(dp2211
g66
(dp2212
sg75
g2197
sg68
(lp2213
g61
(g62
g63
NtRp2214
(dp2215
g66
(dp2216
g74
I5
ssg75
g2210
sg68
(lp2217
g61
(g70
g63
NtRp2218
(dp2219
g66
(dp2220
g74
I4
ssg75
Nsg68
(lp2221
g61
(g77
g63
NtRp2222
(dp2223
g66
(dp2224
sg75
g2218
sg68
(lp2225
g61
(g82
g63
NtRp2226
(dp2227
g66
(dp2228
g86
g87
ssg75
g2222
sg68
(lp2229
S'email'
p2230
asbag61
(g82
g63
NtRp2231
(dp2232
g66
(dp2233
g93
g94
ssg75
g2222
sg68
(lp2234
S':'
asbag61
(g82
g63
NtRp2235
(dp2236
g66
(dp2237
sg75
g2222
sg68
(lp2238
g61
(g62
g63
NtRp2239
(dp2240
g66
(dp2241
g74
I4
ssg75
g2235
sg68
(lp2242
S'gerisc01@luther.edu'
p2243
asbasbasbag61
(g77
g63
NtRp2244
(dp2245
g66
(dp2246
sg75
g2218
sg68
(lp2247
g61
(g82
g63
NtRp2248
(dp2249
g66
(dp2250
g86
g87
ssg75
g2244
sg68
(lp2251
S'password'
p2252
asbag61
(g82
g63
NtRp2253
(dp2254
g66
(dp2255
g93
g94
ssg75
g2244
sg68
(lp2256
S':'
asbag61
(g82
g63
NtRp2257
(dp2258
g66
(dp2259
sg75
g2244
sg68
(lp2260
g61
(g62
g63
NtRp2261
(dp2262
g66
(dp2263
g74
I4
ssg75
g2257
sg68
(lp2264
S'ScottScott1!'
p2265
asbasbasbasbasbasbasbag61
(g77
g63
NtRp2266
(dp2267
g66
(dp2268
sg75
g71
sg68
(lp2269
g61
(g82
g63
NtRp2270
(dp2271
g66
(dp2272
g86
g87
ssg75
g2266
sg68
(lp2273
S'raw_args'
p2274
asbag61
(g82
g63
NtRp2275
(dp2276
g66
(dp2277
g93
g94
ssg75
g2266
sg68
(lp2278
S':'
asbag61
(g82
g63
NtRp2279
(dp2280
g66
(dp2281
sg75
g2266
sg68
(lp2282
g61
(g62
g63
NtRp2283
(dp2284
g66
(dp2285
g74
I5
ssg75
g2279
sg68
(lp2286
g163
asbasbasbag61
(g77
g63
NtRp2287
(dp2288
g66
(dp2289
sg75
g71
sg68
(lp2290
g61
(g82
g63
NtRp2291
(dp2292
g66
(dp2293
g86
g87
ssg75
g2287
sg68
(lp2294
S'url'
p2295
asbag61
(g82
g63
NtRp2296
(dp2297
g66
(dp2298
g93
g94
ssg75
g2287
sg68
(lp2299
S':'
asbag61
(g82
g63
NtRp2300
(dp2301
g66
(dp2302
sg75
g2287
sg68
(lp2303
g61
(g62
g63
NtRp2304
(dp2305
g66
(dp2306
g74
I5
ssg75
g2300
sg68
(lp2307
S'/SeniorProject/default/user/login'
p2308
asbasbasbag61
(g77
g63
NtRp2309
(dp2310
g66
(dp2311
sg75
g71
sg68
(lp2312
g61
(g82
g63
NtRp2313
(dp2314
g66
(dp2315
g86
g87
ssg75
g2309
sg68
(lp2316
S'utcnow'
p2317
asbag61
(g82
g63
NtRp2318
(dp2319
g66
(dp2320
g93
g94
ssg75
g2309
sg68
(lp2321
S':'
asbag61
(g82
g63
NtRp2322
(dp2323
g66
(dp2324
sg75
g2309
sg68
(lp2325
g61
(g62
g63
NtRp2326
(dp2327
g66
(dp2328
g74
I5
ssg75
g2322
sg68
(lp2329
S'datetime.datetime(2013, 2, 8, 20, 19, 54, 577626)'
p2330
asbasbasbag61
(g77
g63
NtRp2331
(dp2332
g66
(dp2333
sg75
g71
sg68
(lp2334
g61
(g82
g63
NtRp2335
(dp2336
g66
(dp2337
g86
g87
ssg75
g2331
sg68
(lp2338
S'uuid'
p2339
asbag61
(g82
g63
NtRp2340
(dp2341
g66
(dp2342
g93
g94
ssg75
g2331
sg68
(lp2343
S':'
asbag61
(g82
g63
NtRp2344
(dp2345
g66
(dp2346
sg75
g2331
sg68
(lp2347
g61
(g62
g63
NtRp2348
(dp2349
g66
(dp2350
g74
I5
ssg75
g2344
sg68
(lp2351
S'SeniorProject/127.0.0.1.2013-02-08.14-19-54.24a37d9b-fd3d-4079-bafa-35e1be719398'
p2352
asbasbasbag61
(g77
g63
NtRp2353
(dp2354
g66
(dp2355
sg75
g71
sg68
(lp2356
g61
(g82
g63
NtRp2357
(dp2358
g66
(dp2359
g86
g87
ssg75
g2353
sg68
(lp2360
S'vars'
p2361
asbag61
(g82
g63
NtRp2362
(dp2363
g66
(dp2364
g93
g94
ssg75
g2353
sg68
(lp2365
S':'
asbag61
(g82
g63
NtRp2366
(dp2367
g66
(dp2368
sg75
g2353
sg68
(lp2369
g61
(g62
g63
NtRp2370
(dp2371
g66
(dp2372
g74
I5
ssg75
g2366
sg68
(lp2373
g61
(g70
g63
NtRp2374
(dp2375
g66
(dp2376
g74
I4
ssg75
Nsg68
(lp2377
g61
(g77
g63
NtRp2378
(dp2379
g66
(dp2380
sg75
g2374
sg68
(lp2381
g61
(g82
g63
NtRp2382
(dp2383
g66
(dp2384
g86
g87
ssg75
g2378
sg68
(lp2385
g2230
asbag61
(g82
g63
NtRp2386
(dp2387
g66
(dp2388
g93
g94
ssg75
g2378
sg68
(lp2389
S':'
asbag61
(g82
g63
NtRp2390
(dp2391
g66
(dp2392
sg75
g2378
sg68
(lp2393
g61
(g62
g63
NtRp2394
(dp2395
g66
(dp2396
g74
I4
ssg75
g2390
sg68
(lp2397
g2243
asbasbasbag61
(g77
g63
NtRp2398
(dp2399
g66
(dp2400
sg75
g2374
sg68
(lp2401
g61
(g82
g63
NtRp2402
(dp2403
g66
(dp2404
g86
g87
ssg75
g2398
sg68
(lp2405
g2252
asbag61
(g82
g63
NtRp2406
(dp2407
g66
(dp2408
g93
g94
ssg75
g2398
sg68
(lp2409
S':'
asbag61
(g82
g63
NtRp2410
(dp2411
g66
(dp2412
sg75
g2398
sg68
(lp2413
g61
(g62
g63
NtRp2414
(dp2415
g66
(dp2416
g74
I4
ssg75
g2410
sg68
(lp2417
g2265
asbasbasbasbasbasbasbag61
(g77
g63
NtRp2418
(dp2419
g66
(dp2420
sg75
g71
sg68
(lp2421
g61
(g82
g63
NtRp2422
(dp2423
g66
(dp2424
g86
g87
ssg75
g2418
sg68
(lp2425
S'wsgi'
p2426
asbag61
(g82
g63
NtRp2427
(dp2428
g66
(dp2429
g93
g94
ssg75
g2418
sg68
(lp2430
S':'
asbag61
(g82
g63
NtRp2431
(dp2432
g66
(dp2433
sg75
g2418
sg68
(lp2434
g61
(g62
g63
NtRp2435
(dp2436
g66
(dp2437
g74
I5
ssg75
g2431
sg68
(lp2438
g61
(g70
g63
NtRp2439
(dp2440
g66
(dp2441
g74
I4
ssg75
Nsg68
(lp2442
g61
(g77
g63
NtRp2443
(dp2444
g66
(dp2445
sg75
g2439
sg68
(lp2446
g61
(g82
g63
NtRp2447
(dp2448
g66
(dp2449
g86
g87
ssg75
g2443
sg68
(lp2450
S'environ'
p2451
asbag61
(g82
g63
NtRp2452
(dp2453
g66
(dp2454
g93
g94
ssg75
g2443
sg68
(lp2455
S':'
asbag61
(g82
g63
NtRp2456
(dp2457
g66
(dp2458
sg75
g2443
sg68
(lp2459
g61
(g62
g63
NtRp2460
(dp2461
g66
(dp2462
g74
I4
ssg75
g2456
sg68
(lp2463
g61
(g70
g63
NtRp2464
(dp2465
g66
(dp2466
g74
I3
ssg75
Nsg68
(lp2467
g61
(g77
g63
NtRp2468
(dp2469
g66
(dp2470
sg75
g2464
sg68
(lp2471
g61
(g82
g63
NtRp2472
(dp2473
g66
(dp2474
g86
g87
ssg75
g2468
sg68
(lp2475
S'CONTENT_LENGTH'
p2476
asbag61
(g82
g63
NtRp2477
(dp2478
g66
(dp2479
g93
g94
ssg75
g2468
sg68
(lp2480
S':'
asbag61
(g82
g63
NtRp2481
(dp2482
g66
(dp2483
sg75
g2468
sg68
(lp2484
g61
(g62
g63
NtRp2485
(dp2486
g66
(dp2487
g74
I3
ssg75
g2481
sg68
(lp2488
g538
asbasbasbag61
(g77
g63
NtRp2489
(dp2490
g66
(dp2491
sg75
g2464
sg68
(lp2492
g61
(g82
g63
NtRp2493
(dp2494
g66
(dp2495
g86
g87
ssg75
g2489
sg68
(lp2496
S'CONTENT_TYPE'
p2497
asbag61
(g82
g63
NtRp2498
(dp2499
g66
(dp2500
g93
g94
ssg75
g2489
sg68
(lp2501
S':'
asbag61
(g82
g63
NtRp2502
(dp2503
g66
(dp2504
sg75
g2489
sg68
(lp2505
g61
(g62
g63
NtRp2506
(dp2507
g66
(dp2508
g74
I3
ssg75
g2502
sg68
(lp2509
g560
asbasbasbag61
(g77
g63
NtRp2510
(dp2511
g66
(dp2512
sg75
g2464
sg68
(lp2513
g61
(g82
g63
NtRp2514
(dp2515
g66
(dp2516
g86
g87
ssg75
g2510
sg68
(lp2517
S'DOCUMENT_ROOT'
p2518
asbag61
(g82
g63
NtRp2519
(dp2520
g66
(dp2521
g93
g94
ssg75
g2510
sg68
(lp2522
S':'
asbag61
(g82
g63
NtRp2523
(dp2524
g66
(dp2525
sg75
g2510
sg68
(lp2526
g61
(g62
g63
NtRp2527
(dp2528
g66
(dp2529
g74
I3
ssg75
g2523
sg68
(lp2530
g625
asbasbasbag61
(g77
g63
NtRp2531
(dp2532
g66
(dp2533
sg75
g2464
sg68
(lp2534
g61
(g82
g63
NtRp2535
(dp2536
g66
(dp2537
g86
g87
ssg75
g2531
sg68
(lp2538
S'GATEWAY_INTERFACE'
p2539
asbag61
(g82
g63
NtRp2540
(dp2541
g66
(dp2542
g93
g94
ssg75
g2531
sg68
(lp2543
S':'
asbag61
(g82
g63
NtRp2544
(dp2545
g66
(dp2546
sg75
g2531
sg68
(lp2547
g61
(g62
g63
NtRp2548
(dp2549
g66
(dp2550
g74
I3
ssg75
g2544
sg68
(lp2551
g647
asbasbasbag61
(g77
g63
NtRp2552
(dp2553
g66
(dp2554
sg75
g2464
sg68
(lp2555
g61
(g82
g63
NtRp2556
(dp2557
g66
(dp2558
g86
g87
ssg75
g2552
sg68
(lp2559
S'HTTP_ACCEPT'
p2560
asbag61
(g82
g63
NtRp2561
(dp2562
g66
(dp2563
g93
g94
ssg75
g2552
sg68
(lp2564
S':'
asbag61
(g82
g63
NtRp2565
(dp2566
g66
(dp2567
sg75
g2552
sg68
(lp2568
g61
(g62
g63
NtRp2569
(dp2570
g66
(dp2571
g74
I3
ssg75
g2565
sg68
(lp2572
g690
asbasbasbag61
(g77
g63
NtRp2573
(dp2574
g66
(dp2575
sg75
g2464
sg68
(lp2576
g61
(g82
g63
NtRp2577
(dp2578
g66
(dp2579
g86
g87
ssg75
g2573
sg68
(lp2580
S'HTTP_ACCEPT_ENCODING'
p2581
asbag61
(g82
g63
NtRp2582
(dp2583
g66
(dp2584
g93
g94
ssg75
g2573
sg68
(lp2585
S':'
asbag61
(g82
g63
NtRp2586
(dp2587
g66
(dp2588
sg75
g2573
sg68
(lp2589
g61
(g62
g63
NtRp2590
(dp2591
g66
(dp2592
g74
I3
ssg75
g2586
sg68
(lp2593
g712
asbasbasbag61
(g77
g63
NtRp2594
(dp2595
g66
(dp2596
sg75
g2464
sg68
(lp2597
g61
(g82
g63
NtRp2598
(dp2599
g66
(dp2600
g86
g87
ssg75
g2594
sg68
(lp2601
S'HTTP_ACCEPT_LANGUAGE'
p2602
asbag61
(g82
g63
NtRp2603
(dp2604
g66
(dp2605
g93
g94
ssg75
g2594
sg68
(lp2606
S':'
asbag61
(g82
g63
NtRp2607
(dp2608
g66
(dp2609
sg75
g2594
sg68
(lp2610
g61
(g62
g63
NtRp2611
(dp2612
g66
(dp2613
g74
I3
ssg75
g2607
sg68
(lp2614
g734
asbasbasbag61
(g77
g63
NtRp2615
(dp2616
g66
(dp2617
sg75
g2464
sg68
(lp2618
g61
(g82
g63
NtRp2619
(dp2620
g66
(dp2621
g86
g87
ssg75
g2615
sg68
(lp2622
S'HTTP_CONNECTION'
p2623
asbag61
(g82
g63
NtRp2624
(dp2625
g66
(dp2626
g93
g94
ssg75
g2615
sg68
(lp2627
S':'
asbag61
(g82
g63
NtRp2628
(dp2629
g66
(dp2630
sg75
g2615
sg68
(lp2631
g61
(g62
g63
NtRp2632
(dp2633
g66
(dp2634
g74
I3
ssg75
g2628
sg68
(lp2635
g756
asbasbasbag61
(g77
g63
NtRp2636
(dp2637
g66
(dp2638
sg75
g2464
sg68
(lp2639
g61
(g82
g63
NtRp2640
(dp2641
g66
(dp2642
g86
g87
ssg75
g2636
sg68
(lp2643
S'HTTP_COOKIE'
p2644
asbag61
(g82
g63
NtRp2645
(dp2646
g66
(dp2647
g93
g94
ssg75
g2636
sg68
(lp2648
S':'
asbag61
(g82
g63
NtRp2649
(dp2650
g66
(dp2651
sg75
g2636
sg68
(lp2652
g61
(g62
g63
NtRp2653
(dp2654
g66
(dp2655
g74
I3
ssg75
g2649
sg68
(lp2656
g778
asbasbasbag61
(g77
g63
NtRp2657
(dp2658
g66
(dp2659
sg75
g2464
sg68
(lp2660
g61
(g82
g63
NtRp2661
(dp2662
g66
(dp2663
g86
g87
ssg75
g2657
sg68
(lp2664
S'HTTP_HOST'
p2665
asbag61
(g82
g63
NtRp2666
(dp2667
g66
(dp2668
g93
g94
ssg75
g2657
sg68
(lp2669
S':'
asbag61
(g82
g63
NtRp2670
(dp2671
g66
(dp2672
sg75
g2657
sg68
(lp2673
g61
(g62
g63
NtRp2674
(dp2675
g66
(dp2676
g74
I3
ssg75
g2670
sg68
(lp2677
g800
asbasbasbag61
(g77
g63
NtRp2678
(dp2679
g66
(dp2680
sg75
g2464
sg68
(lp2681
g61
(g82
g63
NtRp2682
(dp2683
g66
(dp2684
g86
g87
ssg75
g2678
sg68
(lp2685
S'HTTP_REFERER'
p2686
asbag61
(g82
g63
NtRp2687
(dp2688
g66
(dp2689
g93
g94
ssg75
g2678
sg68
(lp2690
S':'
asbag61
(g82
g63
NtRp2691
(dp2692
g66
(dp2693
sg75
g2678
sg68
(lp2694
g61
(g62
g63
NtRp2695
(dp2696
g66
(dp2697
g74
I3
ssg75
g2691
sg68
(lp2698
g822
asbasbasbag61
(g77
g63
NtRp2699
(dp2700
g66
(dp2701
sg75
g2464
sg68
(lp2702
g61
(g82
g63
NtRp2703
(dp2704
g66
(dp2705
g86
g87
ssg75
g2699
sg68
(lp2706
S'HTTP_USER_AGENT'
p2707
asbag61
(g82
g63
NtRp2708
(dp2709
g66
(dp2710
g93
g94
ssg75
g2699
sg68
(lp2711
S':'
asbag61
(g82
g63
NtRp2712
(dp2713
g66
(dp2714
sg75
g2699
sg68
(lp2715
g61
(g62
g63
NtRp2716
(dp2717
g66
(dp2718
g74
I3
ssg75
g2712
sg68
(lp2719
g844
asbasbasbag61
(g77
g63
NtRp2720
(dp2721
g66
(dp2722
sg75
g2464
sg68
(lp2723
g61
(g82
g63
NtRp2724
(dp2725
g66
(dp2726
g86
g87
ssg75
g2720
sg68
(lp2727
S'PATH'
p2728
asbag61
(g82
g63
NtRp2729
(dp2730
g66
(dp2731
g93
g94
ssg75
g2720
sg68
(lp2732
S':'
asbag61
(g82
g63
NtRp2733
(dp2734
g66
(dp2735
sg75
g2720
sg68
(lp2736
g61
(g62
g63
NtRp2737
(dp2738
g66
(dp2739
g74
I3
ssg75
g2733
sg68
(lp2740
g1107
asbasbasbag61
(g77
g63
NtRp2741
(dp2742
g66
(dp2743
sg75
g2464
sg68
(lp2744
g61
(g82
g63
NtRp2745
(dp2746
g66
(dp2747
g86
g87
ssg75
g2741
sg68
(lp2748
S'PATH_INFO'
p2749
asbag61
(g82
g63
NtRp2750
(dp2751
g66
(dp2752
g93
g94
ssg75
g2741
sg68
(lp2753
S':'
asbag61
(g82
g63
NtRp2754
(dp2755
g66
(dp2756
sg75
g2741
sg68
(lp2757
g61
(g62
g63
NtRp2758
(dp2759
g66
(dp2760
g74
I3
ssg75
g2754
sg68
(lp2761
g1129
asbasbasbag61
(g77
g63
NtRp2762
(dp2763
g66
(dp2764
sg75
g2464
sg68
(lp2765
g61
(g82
g63
NtRp2766
(dp2767
g66
(dp2768
g86
g87
ssg75
g2762
sg68
(lp2769
S'PATH_TRANSLATED'
p2770
asbag61
(g82
g63
NtRp2771
(dp2772
g66
(dp2773
g93
g94
ssg75
g2762
sg68
(lp2774
S':'
asbag61
(g82
g63
NtRp2775
(dp2776
g66
(dp2777
sg75
g2762
sg68
(lp2778
g61
(g62
g63
NtRp2779
(dp2780
g66
(dp2781
g74
I3
ssg75
g2775
sg68
(lp2782
g1151
asbasbasbag61
(g77
g63
NtRp2783
(dp2784
g66
(dp2785
sg75
g2464
sg68
(lp2786
g61
(g82
g63
NtRp2787
(dp2788
g66
(dp2789
g86
g87
ssg75
g2783
sg68
(lp2790
S'QUERY_STRING'
p2791
asbag61
(g82
g63
NtRp2792
(dp2793
g66
(dp2794
g93
g94
ssg75
g2783
sg68
(lp2795
S':'
asbag61
(g82
g63
NtRp2796
(dp2797
g66
(dp2798
sg75
g2783
sg68
(lp2799
g61
(g62
g63
NtRp2800
(dp2801
g66
(dp2802
g74
I3
ssg75
g2796
sg68
(lp2803
g1173
asbasbasbag61
(g77
g63
NtRp2804
(dp2805
g66
(dp2806
sg75
g2464
sg68
(lp2807
g61
(g82
g63
NtRp2808
(dp2809
g66
(dp2810
g86
g87
ssg75
g2804
sg68
(lp2811
S'REMOTE_ADDR'
p2812
asbag61
(g82
g63
NtRp2813
(dp2814
g66
(dp2815
g93
g94
ssg75
g2804
sg68
(lp2816
S':'
asbag61
(g82
g63
NtRp2817
(dp2818
g66
(dp2819
sg75
g2804
sg68
(lp2820
g61
(g62
g63
NtRp2821
(dp2822
g66
(dp2823
g74
I3
ssg75
g2817
sg68
(lp2824
g207
asbasbasbag61
(g77
g63
NtRp2825
(dp2826
g66
(dp2827
sg75
g2464
sg68
(lp2828
g61
(g82
g63
NtRp2829
(dp2830
g66
(dp2831
g86
g87
ssg75
g2825
sg68
(lp2832
S'REMOTE_PORT'
p2833
asbag61
(g82
g63
NtRp2834
(dp2835
g66
(dp2836
g93
g94
ssg75
g2825
sg68
(lp2837
S':'
asbag61
(g82
g63
NtRp2838
(dp2839
g66
(dp2840
sg75
g2825
sg68
(lp2841
g61
(g62
g63
NtRp2842
(dp2843
g66
(dp2844
g74
I3
ssg75
g2838
sg68
(lp2845
g1216
asbasbasbag61
(g77
g63
NtRp2846
(dp2847
g66
(dp2848
sg75
g2464
sg68
(lp2849
g61
(g82
g63
NtRp2850
(dp2851
g66
(dp2852
g86
g87
ssg75
g2846
sg68
(lp2853
S'REQUEST_METHOD'
p2854
asbag61
(g82
g63
NtRp2855
(dp2856
g66
(dp2857
g93
g94
ssg75
g2846
sg68
(lp2858
S':'
asbag61
(g82
g63
NtRp2859
(dp2860
g66
(dp2861
sg75
g2846
sg68
(lp2862
g61
(g62
g63
NtRp2863
(dp2864
g66
(dp2865
g74
I3
ssg75
g2859
sg68
(lp2866
g1238
asbasbasbag61
(g77
g63
NtRp2867
(dp2868
g66
(dp2869
sg75
g2464
sg68
(lp2870
g61
(g82
g63
NtRp2871
(dp2872
g66
(dp2873
g86
g87
ssg75
g2867
sg68
(lp2874
S'REQUEST_URI'
p2875
asbag61
(g82
g63
NtRp2876
(dp2877
g66
(dp2878
g93
g94
ssg75
g2867
sg68
(lp2879
S':'
asbag61
(g82
g63
NtRp2880
(dp2881
g66
(dp2882
sg75
g2867
sg68
(lp2883
g61
(g62
g63
NtRp2884
(dp2885
g66
(dp2886
g74
I3
ssg75
g2880
sg68
(lp2887
g1260
asbasbasbag61
(g77
g63
NtRp2888
(dp2889
g66
(dp2890
sg75
g2464
sg68
(lp2891
g61
(g82
g63
NtRp2892
(dp2893
g66
(dp2894
g86
g87
ssg75
g2888
sg68
(lp2895
S'SCRIPT_FILENAME'
p2896
asbag61
(g82
g63
NtRp2897
(dp2898
g66
(dp2899
g93
g94
ssg75
g2888
sg68
(lp2900
S':'
asbag61
(g82
g63
NtRp2901
(dp2902
g66
(dp2903
sg75
g2888
sg68
(lp2904
g61
(g62
g63
NtRp2905
(dp2906
g66
(dp2907
g74
I3
ssg75
g2901
sg68
(lp2908
g1282
asbasbasbag61
(g77
g63
NtRp2909
(dp2910
g66
(dp2911
sg75
g2464
sg68
(lp2912
g61
(g82
g63
NtRp2913
(dp2914
g66
(dp2915
g86
g87
ssg75
g2909
sg68
(lp2916
S'SCRIPT_NAME'
p2917
asbag61
(g82
g63
NtRp2918
(dp2919
g66
(dp2920
g93
g94
ssg75
g2909
sg68
(lp2921
S':'
asbag61
(g82
g63
NtRp2922
(dp2923
g66
(dp2924
sg75
g2909
sg68
(lp2925
g61
(g62
g63
NtRp2926
(dp2927
g66
(dp2928
g74
I3
ssg75
g2922
sg68
(lp2929
S''
asbasbasbag61
(g77
g63
NtRp2930
(dp2931
g66
(dp2932
sg75
g2464
sg68
(lp2933
g61
(g82
g63
NtRp2934
(dp2935
g66
(dp2936
g86
g87
ssg75
g2930
sg68
(lp2937
S'SERVER_ADDR'
p2938
asbag61
(g82
g63
NtRp2939
(dp2940
g66
(dp2941
g93
g94
ssg75
g2930
sg68
(lp2942
S':'
asbag61
(g82
g63
NtRp2943
(dp2944
g66
(dp2945
sg75
g2930
sg68
(lp2946
g61
(g62
g63
NtRp2947
(dp2948
g66
(dp2949
g74
I3
ssg75
g2943
sg68
(lp2950
g1325
asbasbasbag61
(g77
g63
NtRp2951
(dp2952
g66
(dp2953
sg75
g2464
sg68
(lp2954
g61
(g82
g63
NtRp2955
(dp2956
g66
(dp2957
g86
g87
ssg75
g2951
sg68
(lp2958
S'SERVER_ADMIN'
p2959
asbag61
(g82
g63
NtRp2960
(dp2961
g66
(dp2962
g93
g94
ssg75
g2951
sg68
(lp2963
S':'
asbag61
(g82
g63
NtRp2964
(dp2965
g66
(dp2966
sg75
g2951
sg68
(lp2967
g61
(g62
g63
NtRp2968
(dp2969
g66
(dp2970
g74
I3
ssg75
g2964
sg68
(lp2971
g1347
asbasbasbag61
(g77
g63
NtRp2972
(dp2973
g66
(dp2974
sg75
g2464
sg68
(lp2975
g61
(g82
g63
NtRp2976
(dp2977
g66
(dp2978
g86
g87
ssg75
g2972
sg68
(lp2979
S'SERVER_NAME'
p2980
asbag61
(g82
g63
NtRp2981
(dp2982
g66
(dp2983
g93
g94
ssg75
g2972
sg68
(lp2984
S':'
asbag61
(g82
g63
NtRp2985
(dp2986
g66
(dp2987
sg75
g2972
sg68
(lp2988
g61
(g62
g63
NtRp2989
(dp2990
g66
(dp2991
g74
I3
ssg75
g2985
sg68
(lp2992
g1369
asbasbasbag61
(g77
g63
NtRp2993
(dp2994
g66
(dp2995
sg75
g2464
sg68
(lp2996
g61
(g82
g63
NtRp2997
(dp2998
g66
(dp2999
g86
g87
ssg75
g2993
sg68
(lp3000
S'SERVER_PORT'
p3001
asbag61
(g82
g63
NtRp3002
(dp3003
g66
(dp3004
g93
g94
ssg75
g2993
sg68
(lp3005
S':'
asbag61
(g82
g63
NtRp3006
(dp3007
g66
(dp3008
sg75
g2993
sg68
(lp3009
g61
(g62
g63
NtRp3010
(dp3011
g66
(dp3012
g74
I3
ssg75
g3006
sg68
(lp3013
g1391
asbasbasbag61
(g77
g63
NtRp3014
(dp3015
g66
(dp3016
sg75
g2464
sg68
(lp3017
g61
(g82
g63
NtRp3018
(dp3019
g66
(dp3020
g86
g87
ssg75
g3014
sg68
(lp3021
S'SERVER_PROTOCOL'
p3022
asbag61
(g82
g63
NtRp3023
(dp3024
g66
(dp3025
g93
g94
ssg75
g3014
sg68
(lp3026
S':'
asbag61
(g82
g63
NtRp3027
(dp3028
g66
(dp3029
sg75
g3014
sg68
(lp3030
g61
(g62
g63
NtRp3031
(dp3032
g66
(dp3033
g74
I3
ssg75
g3027
sg68
(lp3034
g1413
asbasbasbag61
(g77
g63
NtRp3035
(dp3036
g66
(dp3037
sg75
g2464
sg68
(lp3038
g61
(g82
g63
NtRp3039
(dp3040
g66
(dp3041
g86
g87
ssg75
g3035
sg68
(lp3042
S'SERVER_SIGNATURE'
p3043
asbag61
(g82
g63
NtRp3044
(dp3045
g66
(dp3046
g93
g94
ssg75
g3035
sg68
(lp3047
S':'
asbag61
(g82
g63
NtRp3048
(dp3049
g66
(dp3050
sg75
g3035
sg68
(lp3051
g61
(g62
g63
NtRp3052
(dp3053
g66
(dp3054
g74
I3
ssg75
g3048
sg68
(lp3055
g1435
asbasbasbag61
(g77
g63
NtRp3056
(dp3057
g66
(dp3058
sg75
g2464
sg68
(lp3059
g61
(g82
g63
NtRp3060
(dp3061
g66
(dp3062
g86
g87
ssg75
g3056
sg68
(lp3063
S'SERVER_SOFTWARE'
p3064
asbag61
(g82
g63
NtRp3065
(dp3066
g66
(dp3067
g93
g94
ssg75
g3056
sg68
(lp3068
S':'
asbag61
(g82
g63
NtRp3069
(dp3070
g66
(dp3071
sg75
g3056
sg68
(lp3072
g61
(g62
g63
NtRp3073
(dp3074
g66
(dp3075
g74
I3
ssg75
g3069
sg68
(lp3076
g1457
asbasbasbag61
(g77
g63
NtRp3077
(dp3078
g66
(dp3079
sg75
g2464
sg68
(lp3080
g61
(g82
g63
NtRp3081
(dp3082
g66
(dp3083
g86
g87
ssg75
g3077
sg68
(lp3084
S'mod_wsgi.application_group'
p3085
asbag61
(g82
g63
NtRp3086
(dp3087
g66
(dp3088
g93
g94
ssg75
g3077
sg68
(lp3089
S':'
asbag61
(g82
g63
NtRp3090
(dp3091
g66
(dp3092
sg75
g3077
sg68
(lp3093
g61
(g62
g63
NtRp3094
(dp3095
g66
(dp3096
g74
I3
ssg75
g3090
sg68
(lp3097
g908
asbasbasbag61
(g77
g63
NtRp3098
(dp3099
g66
(dp3100
sg75
g2464
sg68
(lp3101
g61
(g82
g63
NtRp3102
(dp3103
g66
(dp3104
g86
g87
ssg75
g3098
sg68
(lp3105
S'mod_wsgi.callable_object'
p3106
asbag61
(g82
g63
NtRp3107
(dp3108
g66
(dp3109
g93
g94
ssg75
g3098
sg68
(lp3110
S':'
asbag61
(g82
g63
NtRp3111
(dp3112
g66
(dp3113
sg75
g3098
sg68
(lp3114
g61
(g62
g63
NtRp3115
(dp3116
g66
(dp3117
g74
I3
ssg75
g3111
sg68
(lp3118
g930
asbasbasbag61
(g77
g63
NtRp3119
(dp3120
g66
(dp3121
sg75
g2464
sg68
(lp3122
g61
(g82
g63
NtRp3123
(dp3124
g66
(dp3125
g86
g87
ssg75
g3119
sg68
(lp3126
S'mod_wsgi.listener_host'
p3127
asbag61
(g82
g63
NtRp3128
(dp3129
g66
(dp3130
g93
g94
ssg75
g3119
sg68
(lp3131
S':'
asbag61
(g82
g63
NtRp3132
(dp3133
g66
(dp3134
sg75
g3119
sg68
(lp3135
g61
(g62
g63
NtRp3136
(dp3137
g66
(dp3138
g74
I3
ssg75
g3132
sg68
(lp3139
S''
asbasbasbag61
(g77
g63
NtRp3140
(dp3141
g66
(dp3142
sg75
g2464
sg68
(lp3143
g61
(g82
g63
NtRp3144
(dp3145
g66
(dp3146
g86
g87
ssg75
g3140
sg68
(lp3147
S'mod_wsgi.listener_port'
p3148
asbag61
(g82
g63
NtRp3149
(dp3150
g66
(dp3151
g93
g94
ssg75
g3140
sg68
(lp3152
S':'
asbag61
(g82
g63
NtRp3153
(dp3154
g66
(dp3155
sg75
g3140
sg68
(lp3156
g61
(g62
g63
NtRp3157
(dp3158
g66
(dp3159
g74
I3
ssg75
g3153
sg68
(lp3160
g973
asbasbasbag61
(g77
g63
NtRp3161
(dp3162
g66
(dp3163
sg75
g2464
sg68
(lp3164
g61
(g82
g63
NtRp3165
(dp3166
g66
(dp3167
g86
g87
ssg75
g3161
sg68
(lp3168
S'mod_wsgi.process_group'
p3169
asbag61
(g82
g63
NtRp3170
(dp3171
g66
(dp3172
g93
g94
ssg75
g3161
sg68
(lp3173
S':'
asbag61
(g82
g63
NtRp3174
(dp3175
g66
(dp3176
sg75
g3161
sg68
(lp3177
g61
(g62
g63
NtRp3178
(dp3179
g66
(dp3180
g74
I3
ssg75
g3174
sg68
(lp3181
S''
asbasbasbag61
(g77
g63
NtRp3182
(dp3183
g66
(dp3184
sg75
g2464
sg68
(lp3185
g61
(g82
g63
NtRp3186
(dp3187
g66
(dp3188
g86
g87
ssg75
g3182
sg68
(lp3189
S'mod_wsgi.reload_mechanism'
p3190
asbag61
(g82
g63
NtRp3191
(dp3192
g66
(dp3193
g93
g94
ssg75
g3182
sg68
(lp3194
S':'
asbag61
(g82
g63
NtRp3195
(dp3196
g66
(dp3197
sg75
g3182
sg68
(lp3198
g61
(g62
g63
NtRp3199
(dp3200
g66
(dp3201
g74
I3
ssg75
g3195
sg68
(lp3202
S'0'
asbasbasbag61
(g77
g63
NtRp3203
(dp3204
g66
(dp3205
sg75
g2464
sg68
(lp3206
g61
(g82
g63
NtRp3207
(dp3208
g66
(dp3209
g86
g87
ssg75
g3203
sg68
(lp3210
S'mod_wsgi.script_reloading'
p3211
asbag61
(g82
g63
NtRp3212
(dp3213
g66
(dp3214
g93
g94
ssg75
g3203
sg68
(lp3215
S':'
asbag61
(g82
g63
NtRp3216
(dp3217
g66
(dp3218
sg75
g3203
sg68
(lp3219
g61
(g62
g63
NtRp3220
(dp3221
g66
(dp3222
g74
I3
ssg75
g3216
sg68
(lp3223
S'1'
asbasbasbag61
(g77
g63
NtRp3224
(dp3225
g66
(dp3226
sg75
g2464
sg68
(lp3227
g61
(g82
g63
NtRp3228
(dp3229
g66
(dp3230
g86
g87
ssg75
g3224
sg68
(lp3231
S'mod_wsgi.version'
p3232
asbag61
(g82
g63
NtRp3233
(dp3234
g66
(dp3235
g93
g94
ssg75
g3224
sg68
(lp3236
S':'
asbag61
(g82
g63
NtRp3237
(dp3238
g66
(dp3239
sg75
g3224
sg68
(lp3240
g61
(g62
g63
NtRp3241
(dp3242
g66
(dp3243
g74
I3
ssg75
g3237
sg68
(lp3244
g61
(g70
g63
NtRp3245
(dp3246
g66
(dp3247
g74
I2
ssg75
Nsg68
(lp3248
g61
(g77
g63
NtRp3249
(dp3250
g66
(dp3251
sg75
g3245
sg68
(lp3252
g61
(g82
g63
NtRp3253
(dp3254
g66
(dp3255
sg75
g3249
sg68
(lp3256
g61
(g62
g63
NtRp3257
(dp3258
g66
(dp3259
g74
I2
ssg75
g3253
sg68
(lp3260
S'2'
asbasbasbag61
(g77
g63
NtRp3261
(dp3262
g66
(dp3263
sg75
g3245
sg68
(lp3264
g61
(g82
g63
NtRp3265
(dp3266
g66
(dp3267
sg75
g3261
sg68
(lp3268
g61
(g62
g63
NtRp3269
(dp3270
g66
(dp3271
g74
I2
ssg75
g3265
sg68
(lp3272
S'8'
asbasbasbasbasbasbasbag61
(g77
g63
NtRp3273
(dp3274
g66
(dp3275
sg75
g2464
sg68
(lp3276
g61
(g82
g63
NtRp3277
(dp3278
g66
(dp3279
g86
g87
ssg75
g3273
sg68
(lp3280
S'wsgi.errors'
p3281
asbag61
(g82
g63
NtRp3282
(dp3283
g66
(dp3284
g93
g94
ssg75
g3273
sg68
(lp3285
S':'
asbag61
(g82
g63
NtRp3286
(dp3287
g66
(dp3288
sg75
g3273
sg68
(lp3289
g61
(g62
g63
NtRp3290
(dp3291
g66
(dp3292
g74
I3
ssg75
g3286
sg68
(lp3293
S'<mod_wsgi.Log object at 0x22265fc0>'
p3294
asbasbasbag61
(g77
g63
NtRp3295
(dp3296
g66
(dp3297
sg75
g2464
sg68
(lp3298
g61
(g82
g63
NtRp3299
(dp3300
g66
(dp3301
g86
g87
ssg75
g3295
sg68
(lp3302
S'wsgi.file_wrapper'
p3303
asbag61
(g82
g63
NtRp3304
(dp3305
g66
(dp3306
g93
g94
ssg75
g3295
sg68
(lp3307
S':'
asbag61
(g82
g63
NtRp3308
(dp3309
g66
(dp3310
sg75
g3295
sg68
(lp3311
g61
(g62
g63
NtRp3312
(dp3313
g66
(dp3314
g74
I3
ssg75
g3308
sg68
(lp3315
S'<built-in method file_wrapper of mod_wsgi.Adapter object at 0x21fcdf98>'
p3316
asbasbasbag61
(g77
g63
NtRp3317
(dp3318
g66
(dp3319
sg75
g2464
sg68
(lp3320
g61
(g82
g63
NtRp3321
(dp3322
g66
(dp3323
g86
g87
ssg75
g3317
sg68
(lp3324
S'wsgi.input'
p3325
asbag61
(g82
g63
NtRp3326
(dp3327
g66
(dp3328
g93
g94
ssg75
g3317
sg68
(lp3329
S':'
asbag61
(g82
g63
NtRp3330
(dp3331
g66
(dp3332
sg75
g3317
sg68
(lp3333
g61
(g62
g63
NtRp3334
(dp3335
g66
(dp3336
g74
I3
ssg75
g3330
sg68
(lp3337
S"<open file '<fdopen>', mode 'w+b' at 0x21f43860>"
p3338
asbasbasbag61
(g77
g63
NtRp3339
(dp3340
g66
(dp3341
sg75
g2464
sg68
(lp3342
g61
(g82
g63
NtRp3343
(dp3344
g66
(dp3345
g86
g87
ssg75
g3339
sg68
(lp3346
S'wsgi.multiprocess'
p3347
asbag61
(g82
g63
NtRp3348
(dp3349
g66
(dp3350
g93
g94
ssg75
g3339
sg68
(lp3351
S':'
asbag61
(g82
g63
NtRp3352
(dp3353
g66
(dp3354
sg75
g3339
sg68
(lp3355
g61
(g62
g63
NtRp3356
(dp3357
g66
(dp3358
g74
I3
ssg75
g3352
sg68
(lp3359
g1654
asbasbasbag61
(g77
g63
NtRp3360
(dp3361
g66
(dp3362
sg75
g2464
sg68
(lp3363
g61
(g82
g63
NtRp3364
(dp3365
g66
(dp3366
g86
g87
ssg75
g3360
sg68
(lp3367
S'wsgi.multithread'
p3368
asbag61
(g82
g63
NtRp3369
(dp3370
g66
(dp3371
g93
g94
ssg75
g3360
sg68
(lp3372
S':'
asbag61
(g82
g63
NtRp3373
(dp3374
g66
(dp3375
sg75
g3360
sg68
(lp3376
g61
(g62
g63
NtRp3377
(dp3378
g66
(dp3379
g74
I3
ssg75
g3373
sg68
(lp3380
g1654
asbasbasbag61
(g77
g63
NtRp3381
(dp3382
g66
(dp3383
sg75
g2464
sg68
(lp3384
g61
(g82
g63
NtRp3385
(dp3386
g66
(dp3387
g86
g87
ssg75
g3381
sg68
(lp3388
S'wsgi.run_once'
p3389
asbag61
(g82
g63
NtRp3390
(dp3391
g66
(dp3392
g93
g94
ssg75
g3381
sg68
(lp3393
S':'
asbag61
(g82
g63
NtRp3394
(dp3395
g66
(dp3396
sg75
g3381
sg68
(lp3397
g61
(g62
g63
NtRp3398
(dp3399
g66
(dp3400
g74
I3
ssg75
g3394
sg68
(lp3401
g104
asbasbasbag61
(g77
g63
NtRp3402
(dp3403
g66
(dp3404
sg75
g2464
sg68
(lp3405
g61
(g82
g63
NtRp3406
(dp3407
g66
(dp3408
g86
g87
ssg75
g3402
sg68
(lp3409
S'wsgi.url_scheme'
p3410
asbag61
(g82
g63
NtRp3411
(dp3412
g66
(dp3413
g93
g94
ssg75
g3402
sg68
(lp3414
S':'
asbag61
(g82
g63
NtRp3415
(dp3416
g66
(dp3417
sg75
g3402
sg68
(lp3418
g61
(g62
g63
NtRp3419
(dp3420
g66
(dp3421
g74
I3
ssg75
g3415
sg68
(lp3422
g1718
asbasbasbag61
(g77
g63
NtRp3423
(dp3424
g66
(dp3425
sg75
g2464
sg68
(lp3426
g61
(g82
g63
NtRp3427
(dp3428
g66
(dp3429
g86
g87
ssg75
g3423
sg68
(lp3430
S'wsgi.version'
p3431
asbag61
(g82
g63
NtRp3432
(dp3433
g66
(dp3434
g93
g94
ssg75
g3423
sg68
(lp3435
S':'
asbag61
(g82
g63
NtRp3436
(dp3437
g66
(dp3438
sg75
g3423
sg68
(lp3439
g61
(g62
g63
NtRp3440
(dp3441
g66
(dp3442
g74
I3
ssg75
g3436
sg68
(lp3443
S'1'
asbasbasbasbasbasbasbasbasbasbasbasbasbsS'frames'
p3444
(lp3445
(dp3446
S'file'
p3447
S'/home/seniorproj/Documents/finholt-senior-project/web2py/gluon/restricted.py'
p3448
sS'dump'
p3449
(dp3450
S'environment'
p3451
S"{'A': <class 'gluon.html.A'>, 'Auth': <class 'gluon.tools.Auth'>, 'B': <class 'gluon.html.B'>, 'BEAUTIFY': <class 'gluon.html.BEAUTIFY'>, 'BODY': <class 'gluon.html.BODY'>, 'BR': <class 'gluon.html.BR'>, 'BUTTON': <class 'gluon.html.BUTTON'>, 'CAT': <class 'gluon.html.CAT'>, 'CENTER': <class 'gluon.html.CENTER'>, 'CLEANUP': <class 'gluon.validators.CLEANUP'>, ...}"
p3452
sS'ccode'
p3453
S'<code object <module> at 0x22182f98, file "/home...s/SeniorProject/controllers/default.py", line 11>'
p3454
ssS'lnum'
p3455
I205
sS'lines'
p3456
(dp3457
I200
S'    try:'
p3458
sI201
S'        if type(code) == types.CodeType:'
p3459
sI202
S'            ccode = code'
p3460
sI203
S'        else:'
p3461
sI204
S'            ccode = compile2(code,layer)'
p3462
sI205
S'        exec ccode in environment'
p3463
sI206
S'    except HTTP:'
p3464
sI207
S'        raise'
p3465
sI208
S'    except RestrictedError:'
p3466
sI209
S'        # do not encapsulate (obfuscate) the original RestrictedError'
p3467
ssS'call'
p3468
S'(code=\'# -*- coding: utf-8 -*-\\n# this file is released ..."General"\\n\\nresponse._vars=response._caller(user)\\n\', environment={\'A\': <class \'gluon.html.A\'>, \'Auth\': <class \'gluon.tools.Auth\'>, \'B\': <class \'gluon.html.B\'>, \'BEAUTIFY\': <class \'gluon.html.BEAUTIFY\'>, \'BODY\': <class \'gluon.html.BODY\'>, \'BR\': <class \'gluon.html.BR\'>, \'BUTTON\': <class \'gluon.html.BUTTON\'>, \'CAT\': <class \'gluon.html.CAT\'>, \'CENTER\': <class \'gluon.html.CENTER\'>, \'CLEANUP\': <class \'gluon.validators.CLEANUP\'>, ...}, layer=\'/home/seniorproj/Documents/finholt-senior-projec...applications/SeniorProject/controllers/default.py\')'
p3469
sS'func'
p3470
S'restricted'
p3471
sa(dp3472
g3447
S'/home/seniorproj/Documents/finholt-senior-project/web2py/applications/SeniorProject/controllers/default.py'
p3473
sg3449
(dp3474
sg3455
I384
sg3456
(dp3475
I373
S'                image=image,'
p3476
sI374
S'                footer=footer,'
p3477
sI375
S'                header=header,'
p3478
sI376
S'                fullTable=fullTable)'
p3479
sI377
S''
sI378
S'def getOtherRoles(currentRole):'
p3480
sI379
S'    if currentRole == "General":'
p3481
sI380
S'        return "Admin"'
p3482
sI381
S'    else:'
p3483
sI382
S'        return "General"'
p3484
ssg3468
S'()'
p3485
sg3470
S'<module>'
p3486
sa(dp3487
g3447
S'/home/seniorproj/Documents/finholt-senior-project/web2py/gluon/globals.py'
p3488
sg3449
(dp3489
S'self'
p3490
S'undefined'
p3491
sS'f'
S'<function user>'
p3492
ssg3455
I173
sg3456
(dp3493
I168
S'        self.menu = []             # used by the default view layout'
p3494
sI169
S'        self.files = []            # used by web2py_ajax.html'
p3495
sI170
S'        self.generic_patterns = [] # patterns to allow generic views'
p3496
sI171
S"        self.delimiters = ('{{','}}')"
p3497
sI172
S'        self._vars = None'
p3498
sI173
S'        self._caller = lambda f: f()'
p3499
sI174
S'        self._view_environment = None'
p3500
sI175
S'        self._custom_commit = None'
p3501
sI176
S'        self._custom_rollback = None'
p3502
sI177
S''
ssg3468
S'(f=<function user>)'
p3503
sg3470
S'<lambda>'
p3504
sa(dp3505
g3447
S'/home/seniorproj/Documents/finholt-senior-project/web2py/applications/SeniorProject/controllers/default.py'
p3506
sg3449
(dp3507
S'global auth'
p3508
S'<gluon.tools.Auth object>'
p3509
sS'form'
p3510
g3491
sS'builtindict'
p3511
S"<type 'dict'>"
p3512
ssg3455
I126
sg3456
(dp3513
I128
S''
sI129
S'def download():'
p3514
sI130
S'    """'
p3515
sI121
S'    use @auth.requires_login()'
p3516
sI122
S"        @auth.requires_membership('group name')"
p3517
sI123
S"        @auth.requires_permission('read','table name',record_id)"
p3518
sI124
S'    to decorate functions that need access control'
p3519
sI125
S'    """'
p3520
sI126
S'    return dict(form=auth())'
p3521
sI127
S''
ssg3468
S'()'
p3522
sg3470
S'user'
p3523
sa(dp3524
g3447
S'/home/seniorproj/Documents/finholt-senior-project/web2py/gluon/tools.py'
p3525
sg3449
(dp3526
S'self'
p3527
S'<gluon.tools.Auth object>'
p3528
sS'args'
p3529
S"['login']"
p3530
sS'builtingetattr'
p3531
S'<built-in function getattr>'
p3532
ssg3455
I1161
sg3456
(dp3533
I1156
S"        if args[0] in ('login','logout','register','verify_email',"
p3534
sI1157
S"                       'retrieve_username','retrieve_password',"
p3535
sI1158
S"                       'reset_password','request_reset_password',"
p3536
sI1159
S"                       'change_password','profile','groups',"
p3537
sI1160
S"                       'impersonate','not_authorized'):"
p3538
sI1161
S'            return getattr(self,args[0])()'
p3539
sI1162
S"        elif args[0]=='cas' and not self.settings.cas_provider:"
p3540
sI1163
S"            if args(1) == self.settings.cas_actions['login']:"
p3541
sI1164
S'                return self.cas_login(version=2)'
p3542
sI1165
S"            elif args(1) == self.settings.cas_actions['validate']:"
p3543
ssg3468
S'(self=<gluon.tools.Auth object>)'
p3544
sg3470
S'__call__'
p3545
sa(dp3546
g3447
S'/home/seniorproj/Documents/finholt-senior-project/web2py/gluon/tools.py'
p3547
sg3449
(dp3548
S'user'
p3549
S"<Storage {'first_name': 'Scott', 'last_name': 'S...1a662da362a12', 'registration_key': '', 'id': 6}>"
p3550
sS'self'
p3551
S'<gluon.tools.Auth object>'
p3552
sS'self.log_event'
p3553
S'<bound method Auth.log_event of <gluon.tools.Auth object>>'
p3554
sS'log'
p3555
S"'User %(id)s Logged-in'"
p3556
ssg3455
I1814
sg3456
(dp3557
I1809
S'                remember = request.vars.has_key("remember"),'
p3558
sI1810
S'                hmac_key = web2py_uuid()'
p3559
sI1811
S'                )'
p3560
sI1812
S''
sI1813
S'            self.user = user'
p3561
sI1814
S'            self.log_event(log, user)'
p3562
sI1815
S'            session.flash = self.messages.logged_in'
p3563
sI1816
S''
sI1817
S'        self.update_groups()'
p3564
sI1818
S''
ssg3468
S"(self=<gluon.tools.Auth object>, next='/SeniorProject/default/index', onvalidation=[], onaccept=[], log='User %(id)s Logged-in')"
p3565
sg3470
S'login'
p3566
sa(dp3567
g3447
S'/home/seniorproj/Documents/finholt-senior-project/web2py/gluon/tools.py'
p3568
sg3449
(dp3569
S'origin'
p3570
S"'auth'"
p3571
sS'user_id'
p3572
S'6'
ssg3455
I1461
sg3456
(dp3573
I1456
S'            user_id = self.user.id'
p3574
sI1457
S'        else:'
p3575
sI1458
S'            user_id = None  # user unknown'
p3576
sI1459
S'        vars = vars or {}'
p3577
sI1460
S'        self.settings.table_event.insert(description=description % vars,'
p3578
sI1461
S'                                         origin=origin, user_id=user_id)'
p3579
sI1462
S''
sI1463
S'    def get_or_create_user(self, keys):'
p3580
sI1464
S'        """'
p3581
sI1465
S'        Used for alternate login methods:'
p3582
ssg3468
S"(self=<gluon.tools.Auth object>, description='User %(id)s Logged-in', vars=<Storage {'first_name': 'Scott', 'last_name': 'S...1a662da362a12', 'registration_key': '', 'id': 6}>, origin='auth')"
p3583
sg3470
S'log_event'
p3584
sa(dp3585
g3447
S'/home/seniorproj/Documents/finholt-senior-project/web2py/gluon/dal.py'
p3586
sg3449
(dp3587
S'self._listify'
p3588
S"<bound method Table._listify of <Table {'origin'... '_id': <gluon.dal.Field object at 0x2218f4cc>}>>"
p3589
sS'fields'
p3590
S"{'description': 'User 6 Logged-in', 'origin': 'auth', 'user_id': 6}"
p3591
sS'self'
p3592
S"<Table {'origin': <gluon.dal.Field object at 0x2..., '_id': <gluon.dal.Field object at 0x2218f4cc>}>"
p3593
sS'self._db._adapter'
p3594
S'<gluon.dal.SQLiteAdapter object>'
p3595
sS'self._db._adapter.insert'
p3596
S'<bound method SQLiteAdapter.insert of <gluon.dal.SQLiteAdapter object>>'
p3597
sS'self._db'
p3598
S"<DAL {'auth_event': <Table {'origin': <gluon.dal..._key': <gluon.dal.Field object at 0x21fbfacc>}>}>"
p3599
ssg3455
I6829
sg3456
(dp3600
I6824
S''
sI6825
S'    def _insert(self, **fields):'
p3601
sI6826
S'        return self._db._adapter._insert(self,self._listify(fields))'
p3602
sI6827
S''
sI6828
S'    def insert(self, **fields):'
p3603
sI6829
S'        return self._db._adapter.insert(self,self._listify(fields))'
p3604
sI6830
S''
sI6831
S'    def validate_and_insert(self,**fields):'
p3605
sI6832
S'        response = Row()'
p3606
sI6833
S'        response.errors = Row()'
p3607
ssg3468
S"(self=<Table {'origin': <gluon.dal.Field object at 0x2..., '_id': <gluon.dal.Field object at 0x2218f4cc>}>, **fields={'description': 'User 6 Logged-in', 'origin': 'auth', 'user_id': 6})"
p3608
sg3470
S'insert'
p3609
sa(dp3610
g3447
S'/home/seniorproj/Documents/finholt-senior-project/web2py/gluon/dal.py'
p3611
sg3449
(dp3612
S'e'
S"OperationalError('attempt to write a readonly database',)"
p3613
ssg3455
I928
sg3456
(dp3614
I928
S'            raise e'
p3615
sI929
S"        if hasattr(table,'_primarykey'):"
p3616
sI930
S'            return dict([(k[0].name, k[1]) for k in fields \\'
p3617
sI931
S'                             if k[0].name in table._primarykey])'
p3618
sI932
S'        id = self.lastrowid(table)'
p3619
sI923
S'        try:'
p3620
sI924
S'            self.execute(query)'
p3621
sI925
S'        except Exception, e:'
p3622
sI926
S'            if isinstance(e,self.integrity_error_class()):'
p3623
sI927
S'                return None'
p3624
ssg3468
S"(self=<gluon.dal.SQLiteAdapter object>, table=<Table {'origin': <gluon.dal.Field object at 0x2..., '_id': <gluon.dal.Field object at 0x2218f4cc>}>, fields=[(<gluon.dal.Field object>, 'auth'), (<gluon.dal.Field object>, 6), (<gluon.dal.Field object>, 'User 6 Logged-in'), (<gluon.dal.Field object>, datetime.datetime(2013, 2, 8, 14, 19, 54, 577608)), (<gluon.dal.Field object>, '127.0.0.1')])"
p3625
sg3470
g3609
sasS'pyver'
p3626
S'Python 2.6.5: /usr/bin/python'
p3627
sS'session'
p3628
g61
(g62
g63
NtRp3629
(dp3630
g66
(dp3631
sg68
(lp3632
g61
(g70
g63
NtRp3633
(dp3634
g66
(dp3635
g74
I5
ssg75
Nsg68
(lp3636
g61
(g77
g63
NtRp3637
(dp3638
g66
(dp3639
sg75
g3633
sg68
(lp3640
g61
(g82
g63
NtRp3641
(dp3642
g66
(dp3643
g86
g87
ssg75
g3637
sg68
(lp3644
S'auth'
p3645
asbag61
(g82
g63
NtRp3646
(dp3647
g66
(dp3648
g93
g94
ssg75
g3637
sg68
(lp3649
S':'
asbag61
(g82
g63
NtRp3650
(dp3651
g66
(dp3652
sg75
g3637
sg68
(lp3653
g61
(g62
g63
NtRp3654
(dp3655
g66
(dp3656
g74
I5
ssg75
g3650
sg68
(lp3657
g61
(g70
g63
NtRp3658
(dp3659
g66
(dp3660
g74
I4
ssg75
Nsg68
(lp3661
g61
(g77
g63
NtRp3662
(dp3663
g66
(dp3664
sg75
g3658
sg68
(lp3665
g61
(g82
g63
NtRp3666
(dp3667
g66
(dp3668
g86
g87
ssg75
g3662
sg68
(lp3669
S'expiration'
p3670
asbag61
(g82
g63
NtRp3671
(dp3672
g66
(dp3673
g93
g94
ssg75
g3662
sg68
(lp3674
S':'
asbag61
(g82
g63
NtRp3675
(dp3676
g66
(dp3677
sg75
g3662
sg68
(lp3678
g61
(g62
g63
NtRp3679
(dp3680
g66
(dp3681
g74
I4
ssg75
g3675
sg68
(lp3682
S'3600'
p3683
asbasbasbag61
(g77
g63
NtRp3684
(dp3685
g66
(dp3686
sg75
g3658
sg68
(lp3687
g61
(g82
g63
NtRp3688
(dp3689
g66
(dp3690
g86
g87
ssg75
g3684
sg68
(lp3691
S'hmac_key'
p3692
asbag61
(g82
g63
NtRp3693
(dp3694
g66
(dp3695
g93
g94
ssg75
g3684
sg68
(lp3696
S':'
asbag61
(g82
g63
NtRp3697
(dp3698
g66
(dp3699
sg75
g3684
sg68
(lp3700
g61
(g62
g63
NtRp3701
(dp3702
g66
(dp3703
g74
I4
ssg75
g3697
sg68
(lp3704
S'4f114d22-604c-4d47-baf9-1f4a7d190a30'
p3705
asbasbasbag61
(g77
g63
NtRp3706
(dp3707
g66
(dp3708
sg75
g3658
sg68
(lp3709
g61
(g82
g63
NtRp3710
(dp3711
g66
(dp3712
g86
g87
ssg75
g3706
sg68
(lp3713
S'last_visit'
p3714
asbag61
(g82
g63
NtRp3715
(dp3716
g66
(dp3717
g93
g94
ssg75
g3706
sg68
(lp3718
S':'
asbag61
(g82
g63
NtRp3719
(dp3720
g66
(dp3721
sg75
g3706
sg68
(lp3722
g61
(g62
g63
NtRp3723
(dp3724
g66
(dp3725
g74
I4
ssg75
g3719
sg68
(lp3726
S'datetime.datetime(2013, 2, 8, 14, 19, 54, 577608)'
p3727
asbasbasbag61
(g77
g63
NtRp3728
(dp3729
g66
(dp3730
sg75
g3658
sg68
(lp3731
g61
(g82
g63
NtRp3732
(dp3733
g66
(dp3734
g86
g87
ssg75
g3728
sg68
(lp3735
S'remember'
p3736
asbag61
(g82
g63
NtRp3737
(dp3738
g66
(dp3739
g93
g94
ssg75
g3728
sg68
(lp3740
S':'
asbag61
(g82
g63
NtRp3741
(dp3742
g66
(dp3743
sg75
g3728
sg68
(lp3744
g61
(g62
g63
NtRp3745
(dp3746
g66
(dp3747
g74
I4
ssg75
g3741
sg68
(lp3748
g104
asbasbasbag61
(g77
g63
NtRp3749
(dp3750
g66
(dp3751
sg75
g3658
sg68
(lp3752
g61
(g82
g63
NtRp3753
(dp3754
g66
(dp3755
g86
g87
ssg75
g3749
sg68
(lp3756
g3523
asbag61
(g82
g63
NtRp3757
(dp3758
g66
(dp3759
g93
g94
ssg75
g3749
sg68
(lp3760
S':'
asbag61
(g82
g63
NtRp3761
(dp3762
g66
(dp3763
sg75
g3749
sg68
(lp3764
g61
(g62
g63
NtRp3765
(dp3766
g66
(dp3767
g74
I4
ssg75
g3761
sg68
(lp3768
g61
(g70
g63
NtRp3769
(dp3770
g66
(dp3771
g74
I3
ssg75
Nsg68
(lp3772
g61
(g77
g63
NtRp3773
(dp3774
g66
(dp3775
sg75
g3769
sg68
(lp3776
g61
(g82
g63
NtRp3777
(dp3778
g66
(dp3779
g86
g87
ssg75
g3773
sg68
(lp3780
S'email'
p3781
asbag61
(g82
g63
NtRp3782
(dp3783
g66
(dp3784
g93
g94
ssg75
g3773
sg68
(lp3785
S':'
asbag61
(g82
g63
NtRp3786
(dp3787
g66
(dp3788
sg75
g3773
sg68
(lp3789
g61
(g62
g63
NtRp3790
(dp3791
g66
(dp3792
g74
I3
ssg75
g3786
sg68
(lp3793
S'gerisc01@luther.edu'
p3794
asbasbasbag61
(g77
g63
NtRp3795
(dp3796
g66
(dp3797
sg75
g3769
sg68
(lp3798
g61
(g82
g63
NtRp3799
(dp3800
g66
(dp3801
g86
g87
ssg75
g3795
sg68
(lp3802
S'first_name'
p3803
asbag61
(g82
g63
NtRp3804
(dp3805
g66
(dp3806
g93
g94
ssg75
g3795
sg68
(lp3807
S':'
asbag61
(g82
g63
NtRp3808
(dp3809
g66
(dp3810
sg75
g3795
sg68
(lp3811
g61
(g62
g63
NtRp3812
(dp3813
g66
(dp3814
g74
I3
ssg75
g3808
sg68
(lp3815
S'Scott'
p3816
asbasbasbag61
(g77
g63
NtRp3817
(dp3818
g66
(dp3819
sg75
g3769
sg68
(lp3820
g61
(g82
g63
NtRp3821
(dp3822
g66
(dp3823
g86
g87
ssg75
g3817
sg68
(lp3824
S'id'
p3825
asbag61
(g82
g63
NtRp3826
(dp3827
g66
(dp3828
g93
g94
ssg75
g3817
sg68
(lp3829
S':'
asbag61
(g82
g63
NtRp3830
(dp3831
g66
(dp3832
sg75
g3817
sg68
(lp3833
g61
(g62
g63
NtRp3834
(dp3835
g66
(dp3836
g74
I3
ssg75
g3830
sg68
(lp3837
S'6'
asbasbasbag61
(g77
g63
NtRp3838
(dp3839
g66
(dp3840
sg75
g3769
sg68
(lp3841
g61
(g82
g63
NtRp3842
(dp3843
g66
(dp3844
g86
g87
ssg75
g3838
sg68
(lp3845
S'last_name'
p3846
asbag61
(g82
g63
NtRp3847
(dp3848
g66
(dp3849
g93
g94
ssg75
g3838
sg68
(lp3850
S':'
asbag61
(g82
g63
NtRp3851
(dp3852
g66
(dp3853
sg75
g3838
sg68
(lp3854
g61
(g62
g63
NtRp3855
(dp3856
g66
(dp3857
g74
I3
ssg75
g3851
sg68
(lp3858
S'S'
asbasbasbag61
(g77
g63
NtRp3859
(dp3860
g66
(dp3861
sg75
g3769
sg68
(lp3862
g61
(g82
g63
NtRp3863
(dp3864
g66
(dp3865
g86
g87
ssg75
g3859
sg68
(lp3866
S'password'
p3867
asbag61
(g82
g63
NtRp3868
(dp3869
g66
(dp3870
g93
g94
ssg75
g3859
sg68
(lp3871
S':'
asbag61
(g82
g63
NtRp3872
(dp3873
g66
(dp3874
sg75
g3859
sg68
(lp3875
g61
(g62
g63
NtRp3876
(dp3877
g66
(dp3878
g74
I3
ssg75
g3872
sg68
(lp3879
S'12b42e97a6ee954f4d01a662da362a12'
p3880
asbasbasbag61
(g77
g63
NtRp3881
(dp3882
g66
(dp3883
sg75
g3769
sg68
(lp3884
g61
(g82
g63
NtRp3885
(dp3886
g66
(dp3887
g86
g87
ssg75
g3881
sg68
(lp3888
S'phone'
p3889
asbag61
(g82
g63
NtRp3890
(dp3891
g66
(dp3892
g93
g94
ssg75
g3881
sg68
(lp3893
S':'
asbag61
(g82
g63
NtRp3894
(dp3895
g66
(dp3896
sg75
g3881
sg68
(lp3897
g61
(g62
g63
NtRp3898
(dp3899
g66
(dp3900
g74
I3
ssg75
g3894
sg68
(lp3901
S'6089898989'
p3902
asbasbasbag61
(g77
g63
NtRp3903
(dp3904
g66
(dp3905
sg75
g3769
sg68
(lp3906
g61
(g82
g63
NtRp3907
(dp3908
g66
(dp3909
g86
g87
ssg75
g3903
sg68
(lp3910
S'registration_id'
p3911
asbag61
(g82
g63
NtRp3912
(dp3913
g66
(dp3914
g93
g94
ssg75
g3903
sg68
(lp3915
S':'
asbag61
(g82
g63
NtRp3916
(dp3917
g66
(dp3918
sg75
g3903
sg68
(lp3919
g61
(g62
g63
NtRp3920
(dp3921
g66
(dp3922
g74
I3
ssg75
g3916
sg68
(lp3923
S''
asbasbasbag61
(g77
g63
NtRp3924
(dp3925
g66
(dp3926
sg75
g3769
sg68
(lp3927
g61
(g82
g63
NtRp3928
(dp3929
g66
(dp3930
g86
g87
ssg75
g3924
sg68
(lp3931
S'registration_key'
p3932
asbag61
(g82
g63
NtRp3933
(dp3934
g66
(dp3935
g93
g94
ssg75
g3924
sg68
(lp3936
S':'
asbag61
(g82
g63
NtRp3937
(dp3938
g66
(dp3939
sg75
g3924
sg68
(lp3940
g61
(g62
g63
NtRp3941
(dp3942
g66
(dp3943
g74
I3
ssg75
g3937
sg68
(lp3944
S''
asbasbasbag61
(g77
g63
NtRp3945
(dp3946
g66
(dp3947
sg75
g3769
sg68
(lp3948
g61
(g82
g63
NtRp3949
(dp3950
g66
(dp3951
g86
g87
ssg75
g3945
sg68
(lp3952
S'reset_password_key'
p3953
asbag61
(g82
g63
NtRp3954
(dp3955
g66
(dp3956
g93
g94
ssg75
g3945
sg68
(lp3957
S':'
asbag61
(g82
g63
NtRp3958
(dp3959
g66
(dp3960
sg75
g3945
sg68
(lp3961
g61
(g62
g63
NtRp3962
(dp3963
g66
(dp3964
g74
I3
ssg75
g3958
sg68
(lp3965
S''
asbasbasbag61
(g77
g63
NtRp3966
(dp3967
g66
(dp3968
sg75
g3769
sg68
(lp3969
g61
(g82
g63
NtRp3970
(dp3971
g66
(dp3972
g86
g87
ssg75
g3966
sg68
(lp3973
S'role'
p3974
asbag61
(g82
g63
NtRp3975
(dp3976
g66
(dp3977
g93
g94
ssg75
g3966
sg68
(lp3978
S':'
asbag61
(g82
g63
NtRp3979
(dp3980
g66
(dp3981
sg75
g3966
sg68
(lp3982
g61
(g62
g63
NtRp3983
(dp3984
g66
(dp3985
g74
I3
ssg75
g3979
sg68
(lp3986
S'Minion'
p3987
asbasbasbasbasbasbasbasbasbasbasbasbasbsS'etype'
p3988
S"<class 'pysqlite2.dbapi2.OperationalError'>"
p3989
sS'date'
p3990
S'Fri Feb  8 14:19:54 2013'
p3991
sS'response'
p3992
g61
(g62
g63
NtRp3993
(dp3994
g66
(dp3995
sg68
(lp3996
g61
(g70
g63
NtRp3997
(dp3998
g66
(dp3999
g74
I5
ssg75
Nsg68
(lp4000
g61
(g77
g63
NtRp4001
(dp4002
g66
(dp4003
sg75
g3997
sg68
(lp4004
g61
(g82
g63
NtRp4005
(dp4006
g66
(dp4007
g86
g87
ssg75
g4001
sg68
(lp4008
g172
asbag61
(g82
g63
NtRp4009
(dp4010
g66
(dp4011
g93
g94
ssg75
g4001
sg68
(lp4012
S':'
asbag61
(g82
g63
NtRp4013
(dp4014
g66
(dp4015
sg75
g4001
sg68
(lp4016
g61
(g62
g63
NtRp4017
(dp4018
g66
(dp4019
g74
I5
ssg75
g4013
sg68
(lp4020
S'<cStringIO.StringO object at 0x21fbf340>'
p4021
asbasbasbag61
(g77
g63
NtRp4022
(dp4023
g66
(dp4024
sg75
g3997
sg68
(lp4025
g61
(g82
g63
NtRp4026
(dp4027
g66
(dp4028
g86
g87
ssg75
g4022
sg68
(lp4029
g238
asbag61
(g82
g63
NtRp4030
(dp4031
g66
(dp4032
g93
g94
ssg75
g4022
sg68
(lp4033
S':'
asbag61
(g82
g63
NtRp4034
(dp4035
g66
(dp4036
sg75
g4022
sg68
(lp4037
g61
(g62
g63
NtRp4038
(dp4039
g66
(dp4040
g74
I5
ssg75
g4034
sg68
(lp4041
g61
(g70
g63
NtRp4042
(dp4043
g66
(dp4044
g74
I4
ssg75
Nsg68
(lp4045
g61
(g77
g63
NtRp4046
(dp4047
g66
(dp4048
sg75
g4042
sg68
(lp4049
g61
(g82
g63
NtRp4050
(dp4051
g66
(dp4052
g86
g87
ssg75
g4046
sg68
(lp4053
S'session_id_seniorproject'
p4054
asbag61
(g82
g63
NtRp4055
(dp4056
g66
(dp4057
g93
g94
ssg75
g4046
sg68
(lp4058
S':'
asbag61
(g82
g63
NtRp4059
(dp4060
g66
(dp4061
sg75
g4046
sg68
(lp4062
g61
(g62
g63
NtRp4063
(dp4064
g66
(dp4065
g74
I4
ssg75
g4059
sg68
(lp4066
g61
(g70
g63
NtRp4067
(dp4068
g66
(dp4069
g74
I3
ssg75
Nsg68
(lp4070
g61
(g77
g63
NtRp4071
(dp4072
g66
(dp4073
sg75
g4067
sg68
(lp4074
g61
(g82
g63
NtRp4075
(dp4076
g66
(dp4077
g86
g87
ssg75
g4071
sg68
(lp4078
g288
asbag61
(g82
g63
NtRp4079
(dp4080
g66
(dp4081
g93
g94
ssg75
g4071
sg68
(lp4082
S':'
asbag61
(g82
g63
NtRp4083
(dp4084
g66
(dp4085
sg75
g4071
sg68
(lp4086
g61
(g62
g63
NtRp4087
(dp4088
g66
(dp4089
g74
I3
ssg75
g4083
sg68
(lp4090
S''
asbasbasbag61
(g77
g63
NtRp4091
(dp4092
g66
(dp4093
sg75
g4067
sg68
(lp4094
g61
(g82
g63
NtRp4095
(dp4096
g66
(dp4097
g86
g87
ssg75
g4091
sg68
(lp4098
g309
asbag61
(g82
g63
NtRp4099
(dp4100
g66
(dp4101
g93
g94
ssg75
g4091
sg68
(lp4102
S':'
asbag61
(g82
g63
NtRp4103
(dp4104
g66
(dp4105
sg75
g4091
sg68
(lp4106
g61
(g62
g63
NtRp4107
(dp4108
g66
(dp4109
g74
I3
ssg75
g4103
sg68
(lp4110
S''
asbasbasbag61
(g77
g63
NtRp4111
(dp4112
g66
(dp4113
sg75
g4067
sg68
(lp4114
g61
(g82
g63
NtRp4115
(dp4116
g66
(dp4117
g86
g87
ssg75
g4111
sg68
(lp4118
g330
asbag61
(g82
g63
NtRp4119
(dp4120
g66
(dp4121
g93
g94
ssg75
g4111
sg68
(lp4122
S':'
asbag61
(g82
g63
NtRp4123
(dp4124
g66
(dp4125
sg75
g4111
sg68
(lp4126
g61
(g62
g63
NtRp4127
(dp4128
g66
(dp4129
g74
I3
ssg75
g4123
sg68
(lp4130
S''
asbasbasbag61
(g77
g63
NtRp4131
(dp4132
g66
(dp4133
sg75
g4067
sg68
(lp4134
g61
(g82
g63
NtRp4135
(dp4136
g66
(dp4137
g86
g87
ssg75
g4131
sg68
(lp4138
g351
asbag61
(g82
g63
NtRp4139
(dp4140
g66
(dp4141
g93
g94
ssg75
g4131
sg68
(lp4142
S':'
asbag61
(g82
g63
NtRp4143
(dp4144
g66
(dp4145
sg75
g4131
sg68
(lp4146
g61
(g62
g63
NtRp4147
(dp4148
g66
(dp4149
g74
I3
ssg75
g4143
sg68
(lp4150
S''
asbasbasbag61
(g77
g63
NtRp4151
(dp4152
g66
(dp4153
sg75
g4067
sg68
(lp4154
g61
(g82
g63
NtRp4155
(dp4156
g66
(dp4157
g86
g87
ssg75
g4151
sg68
(lp4158
g372
asbag61
(g82
g63
NtRp4159
(dp4160
g66
(dp4161
g93
g94
ssg75
g4151
sg68
(lp4162
S':'
asbag61
(g82
g63
NtRp4163
(dp4164
g66
(dp4165
sg75
g4151
sg68
(lp4166
g61
(g62
g63
NtRp4167
(dp4168
g66
(dp4169
g74
I3
ssg75
g4163
sg68
(lp4170
S''
asbasbasbag61
(g77
g63
NtRp4171
(dp4172
g66
(dp4173
sg75
g4067
sg68
(lp4174
g61
(g82
g63
NtRp4175
(dp4176
g66
(dp4177
g86
g87
ssg75
g4171
sg68
(lp4178
g393
asbag61
(g82
g63
NtRp4179
(dp4180
g66
(dp4181
g93
g94
ssg75
g4171
sg68
(lp4182
S':'
asbag61
(g82
g63
NtRp4183
(dp4184
g66
(dp4185
sg75
g4171
sg68
(lp4186
g61
(g62
g63
NtRp4187
(dp4188
g66
(dp4189
g74
I3
ssg75
g4183
sg68
(lp4190
S'/'
asbasbasbag61
(g77
g63
NtRp4191
(dp4192
g66
(dp4193
sg75
g4067
sg68
(lp4194
g61
(g82
g63
NtRp4195
(dp4196
g66
(dp4197
g86
g87
ssg75
g4191
sg68
(lp4198
g414
asbag61
(g82
g63
NtRp4199
(dp4200
g66
(dp4201
g93
g94
ssg75
g4191
sg68
(lp4202
S':'
asbag61
(g82
g63
NtRp4203
(dp4204
g66
(dp4205
sg75
g4191
sg68
(lp4206
g61
(g62
g63
NtRp4207
(dp4208
g66
(dp4209
g74
I3
ssg75
g4203
sg68
(lp4210
S''
asbasbasbag61
(g77
g63
NtRp4211
(dp4212
g66
(dp4213
sg75
g4067
sg68
(lp4214
g61
(g82
g63
NtRp4215
(dp4216
g66
(dp4217
g86
g87
ssg75
g4211
sg68
(lp4218
g435
asbag61
(g82
g63
NtRp4219
(dp4220
g66
(dp4221
g93
g94
ssg75
g4211
sg68
(lp4222
S':'
asbag61
(g82
g63
NtRp4223
(dp4224
g66
(dp4225
sg75
g4211
sg68
(lp4226
g61
(g62
g63
NtRp4227
(dp4228
g66
(dp4229
g74
I3
ssg75
g4223
sg68
(lp4230
S''
asbasbasbasbasbasbasbasbasbasbasbag61
(g77
g63
NtRp4231
(dp4232
g66
(dp4233
sg75
g3997
sg68
(lp4234
g61
(g82
g63
NtRp4235
(dp4236
g66
(dp4237
g86
g87
ssg75
g4231
sg68
(lp4238
S'delimiters'
p4239
asbag61
(g82
g63
NtRp4240
(dp4241
g66
(dp4242
g93
g94
ssg75
g4231
sg68
(lp4243
S':'
asbag61
(g82
g63
NtRp4244
(dp4245
g66
(dp4246
sg75
g4231
sg68
(lp4247
g61
(g62
g63
NtRp4248
(dp4249
g66
(dp4250
g74
I5
ssg75
g4244
sg68
(lp4251
g61
(g70
g63
NtRp4252
(dp4253
g66
(dp4254
g74
I4
ssg75
Nsg68
(lp4255
g61
(g77
g63
NtRp4256
(dp4257
g66
(dp4258
sg75
g4252
sg68
(lp4259
g61
(g82
g63
NtRp4260
(dp4261
g66
(dp4262
sg75
g4256
sg68
(lp4263
g61
(g62
g63
NtRp4264
(dp4265
g66
(dp4266
g74
I4
ssg75
g4260
sg68
(lp4267
S'{{'
p4268
asbasbasbag61
(g77
g63
NtRp4269
(dp4270
g66
(dp4271
sg75
g4252
sg68
(lp4272
g61
(g82
g63
NtRp4273
(dp4274
g66
(dp4275
sg75
g4269
sg68
(lp4276
g61
(g62
g63
NtRp4277
(dp4278
g66
(dp4279
g74
I4
ssg75
g4273
sg68
(lp4280
S'}}'
p4281
asbasbasbasbasbasbasbag61
(g77
g63
NtRp4282
(dp4283
g66
(dp4284
sg75
g3997
sg68
(lp4285
g61
(g82
g63
NtRp4286
(dp4287
g66
(dp4288
g86
g87
ssg75
g4282
sg68
(lp4289
S'files'
p4290
asbag61
(g82
g63
NtRp4291
(dp4292
g66
(dp4293
g93
g94
ssg75
g4282
sg68
(lp4294
S':'
asbag61
(g82
g63
NtRp4295
(dp4296
g66
(dp4297
sg75
g4282
sg68
(lp4298
g61
(g62
g63
NtRp4299
(dp4300
g66
(dp4301
g74
I5
ssg75
g4295
sg68
(lp4302
g61
(g70
g63
NtRp4303
(dp4304
g66
(dp4305
g74
I4
ssg75
Nsg68
(lp4306
sbasbasbasbag61
(g77
g63
NtRp4307
(dp4308
g66
(dp4309
sg75
g3997
sg68
(lp4310
g61
(g82
g63
NtRp4311
(dp4312
g66
(dp4313
g86
g87
ssg75
g4307
sg68
(lp4314
S'flash'
p4315
asbag61
(g82
g63
NtRp4316
(dp4317
g66
(dp4318
g93
g94
ssg75
g4307
sg68
(lp4319
S':'
asbag61
(g82
g63
NtRp4320
(dp4321
g66
(dp4322
sg75
g4307
sg68
(lp4323
g61
(g62
g63
NtRp4324
(dp4325
g66
(dp4326
g74
I5
ssg75
g4320
sg68
(lp4327
S''
asbasbasbag61
(g77
g63
NtRp4328
(dp4329
g66
(dp4330
sg75
g3997
sg68
(lp4331
g61
(g82
g63
NtRp4332
(dp4333
g66
(dp4334
g86
g87
ssg75
g4328
sg68
(lp4335
S'generic_patterns'
p4336
asbag61
(g82
g63
NtRp4337
(dp4338
g66
(dp4339
g93
g94
ssg75
g4328
sg68
(lp4340
S':'
asbag61
(g82
g63
NtRp4341
(dp4342
g66
(dp4343
sg75
g4328
sg68
(lp4344
g61
(g62
g63
NtRp4345
(dp4346
g66
(dp4347
g74
I5
ssg75
g4341
sg68
(lp4348
g61
(g70
g63
NtRp4349
(dp4350
g66
(dp4351
g74
I4
ssg75
Nsg68
(lp4352
g61
(g77
g63
NtRp4353
(dp4354
g66
(dp4355
sg75
g4349
sg68
(lp4356
g61
(g82
g63
NtRp4357
(dp4358
g66
(dp4359
sg75
g4353
sg68
(lp4360
g61
(g62
g63
NtRp4361
(dp4362
g66
(dp4363
g74
I4
ssg75
g4357
sg68
(lp4364
S'*'
asbasbasbasbasbasbasbag61
(g77
g63
NtRp4365
(dp4366
g66
(dp4367
sg75
g3997
sg68
(lp4368
g61
(g82
g63
NtRp4369
(dp4370
g66
(dp4371
g86
g87
ssg75
g4365
sg68
(lp4372
S'headers'
p4373
asbag61
(g82
g63
NtRp4374
(dp4375
g66
(dp4376
g93
g94
ssg75
g4365
sg68
(lp4377
S':'
asbag61
(g82
g63
NtRp4378
(dp4379
g66
(dp4380
sg75
g4365
sg68
(lp4381
g61
(g62
g63
NtRp4382
(dp4383
g66
(dp4384
g74
I5
ssg75
g4378
sg68
(lp4385
g61
(g70
g63
NtRp4386
(dp4387
g66
(dp4388
g74
I4
ssg75
Nsg68
(lp4389
g61
(g77
g63
NtRp4390
(dp4391
g66
(dp4392
sg75
g4386
sg68
(lp4393
g61
(g82
g63
NtRp4394
(dp4395
g66
(dp4396
g86
g87
ssg75
g4390
sg68
(lp4397
S'Cache-Control'
p4398
asbag61
(g82
g63
NtRp4399
(dp4400
g66
(dp4401
g93
g94
ssg75
g4390
sg68
(lp4402
S':'
asbag61
(g82
g63
NtRp4403
(dp4404
g66
(dp4405
sg75
g4390
sg68
(lp4406
g61
(g62
g63
NtRp4407
(dp4408
g66
(dp4409
g74
I4
ssg75
g4403
sg68
(lp4410
S'no-store, no-cache, must-revalidate, post-check=0, pre-check=0'
p4411
asbasbasbag61
(g77
g63
NtRp4412
(dp4413
g66
(dp4414
sg75
g4386
sg68
(lp4415
g61
(g82
g63
NtRp4416
(dp4417
g66
(dp4418
g86
g87
ssg75
g4412
sg68
(lp4419
S'Content-Type'
p4420
asbag61
(g82
g63
NtRp4421
(dp4422
g66
(dp4423
g93
g94
ssg75
g4412
sg68
(lp4424
S':'
asbag61
(g82
g63
NtRp4425
(dp4426
g66
(dp4427
sg75
g4412
sg68
(lp4428
g61
(g62
g63
NtRp4429
(dp4430
g66
(dp4431
g74
I4
ssg75
g4425
sg68
(lp4432
S'text/html; charset=utf-8'
p4433
asbasbasbag61
(g77
g63
NtRp4434
(dp4435
g66
(dp4436
sg75
g4386
sg68
(lp4437
g61
(g82
g63
NtRp4438
(dp4439
g66
(dp4440
g86
g87
ssg75
g4434
sg68
(lp4441
S'Expires'
p4442
asbag61
(g82
g63
NtRp4443
(dp4444
g66
(dp4445
g93
g94
ssg75
g4434
sg68
(lp4446
S':'
asbag61
(g82
g63
NtRp4447
(dp4448
g66
(dp4449
sg75
g4434
sg68
(lp4450
g61
(g62
g63
NtRp4451
(dp4452
g66
(dp4453
g74
I4
ssg75
g4447
sg68
(lp4454
S'Fri, 08 Feb 2013 20:19:54 GMT'
p4455
asbasbasbag61
(g77
g63
NtRp4456
(dp4457
g66
(dp4458
sg75
g4386
sg68
(lp4459
g61
(g82
g63
NtRp4460
(dp4461
g66
(dp4462
g86
g87
ssg75
g4456
sg68
(lp4463
S'Pragma'
p4464
asbag61
(g82
g63
NtRp4465
(dp4466
g66
(dp4467
g93
g94
ssg75
g4456
sg68
(lp4468
S':'
asbag61
(g82
g63
NtRp4469
(dp4470
g66
(dp4471
sg75
g4456
sg68
(lp4472
g61
(g62
g63
NtRp4473
(dp4474
g66
(dp4475
g74
I4
ssg75
g4469
sg68
(lp4476
S'no-cache'
p4477
asbasbasbag61
(g77
g63
NtRp4478
(dp4479
g66
(dp4480
sg75
g4386
sg68
(lp4481
g61
(g82
g63
NtRp4482
(dp4483
g66
(dp4484
g86
g87
ssg75
g4478
sg68
(lp4485
S'X-Powered-By'
p4486
asbag61
(g82
g63
NtRp4487
(dp4488
g66
(dp4489
g93
g94
ssg75
g4478
sg68
(lp4490
S':'
asbag61
(g82
g63
NtRp4491
(dp4492
g66
(dp4493
sg75
g4478
sg68
(lp4494
g61
(g62
g63
NtRp4495
(dp4496
g66
(dp4497
g74
I4
ssg75
g4491
sg68
(lp4498
S'web2py'
p4499
asbasbasbasbasbasbasbag61
(g77
g63
NtRp4500
(dp4501
g66
(dp4502
sg75
g3997
sg68
(lp4503
g61
(g82
g63
NtRp4504
(dp4505
g66
(dp4506
g86
g87
ssg75
g4500
sg68
(lp4507
S'menu'
p4508
asbag61
(g82
g63
NtRp4509
(dp4510
g66
(dp4511
g93
g94
ssg75
g4500
sg68
(lp4512
S':'
asbag61
(g82
g63
NtRp4513
(dp4514
g66
(dp4515
sg75
g4500
sg68
(lp4516
g61
(g62
g63
NtRp4517
(dp4518
g66
(dp4519
g74
I5
ssg75
g4513
sg68
(lp4520
g61
(g70
g63
NtRp4521
(dp4522
g66
(dp4523
g74
I4
ssg75
Nsg68
(lp4524
g61
(g77
g63
NtRp4525
(dp4526
g66
(dp4527
sg75
g4521
sg68
(lp4528
g61
(g82
g63
NtRp4529
(dp4530
g66
(dp4531
sg75
g4525
sg68
(lp4532
g61
(g62
g63
NtRp4533
(dp4534
g66
(dp4535
g74
I4
ssg75
g4529
sg68
(lp4536
g61
(g70
g63
NtRp4537
(dp4538
g66
(dp4539
g74
I3
ssg75
Nsg68
(lp4540
g61
(g77
g63
NtRp4541
(dp4542
g66
(dp4543
sg75
g4537
sg68
(lp4544
g61
(g82
g63
NtRp4545
(dp4546
g66
(dp4547
sg75
g4541
sg68
(lp4548
g61
(g62
g63
NtRp4549
(dp4550
g66
(dp4551
g74
I3
ssg75
g4545
sg68
(lp4552
cgluon.languages
lazyT_unpickle
p4553
(S's\x04\x00\x00\x00Home'
tRp4554
asbasbasbag61
(g77
g63
NtRp4555
(dp4556
g66
(dp4557
sg75
g4537
sg68
(lp4558
g61
(g82
g63
NtRp4559
(dp4560
g66
(dp4561
sg75
g4555
sg68
(lp4562
g61
(g62
g63
NtRp4563
(dp4564
g66
(dp4565
g74
I3
ssg75
g4559
sg68
(lp4566
g104
asbasbasbag61
(g77
g63
NtRp4567
(dp4568
g66
(dp4569
sg75
g4537
sg68
(lp4570
g61
(g82
g63
NtRp4571
(dp4572
g66
(dp4573
sg75
g4567
sg68
(lp4574
g61
(g62
g63
NtRp4575
(dp4576
g66
(dp4577
g74
I3
ssg75
g4571
sg68
(lp4578
S'/SeniorProject/default/index'
p4579
asbasbasbag61
(g77
g63
NtRp4580
(dp4581
g66
(dp4582
sg75
g4537
sg68
(lp4583
g61
(g82
g63
NtRp4584
(dp4585
g66
(dp4586
sg75
g4580
sg68
(lp4587
g61
(g62
g63
NtRp4588
(dp4589
g66
(dp4590
g74
I3
ssg75
g4584
sg68
(lp4591
g61
(g70
g63
NtRp4592
(dp4593
g66
(dp4594
g74
I2
ssg75
Nsg68
(lp4595
sbasbasbasbasbasbasbasbag61
(g77
g63
NtRp4596
(dp4597
g66
(dp4598
sg75
g4521
sg68
(lp4599
g61
(g82
g63
NtRp4600
(dp4601
g66
(dp4602
sg75
g4596
sg68
(lp4603
g61
(g62
g63
NtRp4604
(dp4605
g66
(dp4606
g74
I4
ssg75
g4600
sg68
(lp4607
g61
(g70
g63
NtRp4608
(dp4609
g66
(dp4610
g74
I3
ssg75
Nsg68
(lp4611
g61
(g77
g63
NtRp4612
(dp4613
g66
(dp4614
sg75
g4608
sg68
(lp4615
g61
(g82
g63
NtRp4616
(dp4617
g66
(dp4618
sg75
g4612
sg68
(lp4619
g61
(g62
g63
NtRp4620
(dp4621
g66
(dp4622
g74
I3
ssg75
g4616
sg68
(lp4623
g61
(cgluon.html
SPAN
p4624
g63
NtRp4625
(dp4626
g66
(dp4627
g86
S'color:yellow'
p4628
ssg75
Nsg68
(lp4629
g4499
asbasbasbasbag61
(g77
g63
NtRp4630
(dp4631
g66
(dp4632
sg75
g4608
sg68
(lp4633
g61
(g82
g63
NtRp4634
(dp4635
g66
(dp4636
sg75
g4630
sg68
(lp4637
g61
(g62
g63
NtRp4638
(dp4639
g66
(dp4640
g74
I3
ssg75
g4634
sg68
(lp4641
g104
asbasbasbag61
(g77
g63
NtRp4642
(dp4643
g66
(dp4644
sg75
g4608
sg68
(lp4645
g61
(g82
g63
NtRp4646
(dp4647
g66
(dp4648
sg75
g4642
sg68
(lp4649
g61
(g62
g63
NtRp4650
(dp4651
g66
(dp4652
g74
I3
ssg75
g4646
sg68
(lp4653
S'None'
p4654
asbasbasbag61
(g77
g63
NtRp4655
(dp4656
g66
(dp4657
sg75
g4608
sg68
(lp4658
g61
(g82
g63
NtRp4659
(dp4660
g66
(dp4661
sg75
g4655
sg68
(lp4662
g61
(g62
g63
NtRp4663
(dp4664
g66
(dp4665
g74
I3
ssg75
g4659
sg68
(lp4666
g61
(g70
g63
NtRp4667
(dp4668
g66
(dp4669
g74
I2
ssg75
Nsg68
(lp4670
g61
(g77
g63
NtRp4671
(dp4672
g66
(dp4673
sg75
g4667
sg68
(lp4674
g61
(g82
g63
NtRp4675
(dp4676
g66
(dp4677
sg75
g4671
sg68
(lp4678
g61
(g62
g63
NtRp4679
(dp4680
g66
(dp4681
g74
I2
ssg75
g4675
sg68
(lp4682
g61
(g70
g63
NtRp4683
(dp4684
g66
(dp4685
g74
I1
ssg75
Nsg68
(lp4686
g61
(g77
g63
NtRp4687
(dp4688
g66
(dp4689
sg75
g4683
sg68
(lp4690
g61
(g82
g63
NtRp4691
(dp4692
g66
(dp4693
sg75
g4687
sg68
(lp4694
g61
(g62
g63
NtRp4695
(dp4696
g66
(dp4697
g74
I1
ssg75
g4691
sg68
(lp4698
g4553
(S's\x08\x00\x00\x00My Sites'
tRp4699
asbasbasbag61
(g77
g63
NtRp4700
(dp4701
g66
(dp4702
sg75
g4683
sg68
(lp4703
g61
(g82
g63
NtRp4704
(dp4705
g66
(dp4706
sg75
g4700
sg68
(lp4707
g61
(g62
g63
NtRp4708
(dp4709
g66
(dp4710
g74
I1
ssg75
g4704
sg68
(lp4711
I00
asbasbasbag61
(g77
g63
NtRp4712
(dp4713
g66
(dp4714
sg75
g4683
sg68
(lp4715
g61
(g82
g63
NtRp4716
(dp4717
g66
(dp4718
sg75
g4712
sg68
(lp4719
g61
(g62
g63
NtRp4720
(dp4721
g66
(dp4722
g74
I1
ssg75
g4716
sg68
(lp4723
S'/admin/default/site'
p4724
asbasbasbasbasbasbasbag61
(g77
g63
NtRp4725
(dp4726
g66
(dp4727
sg75
g4667
sg68
(lp4728
g61
(g82
g63
NtRp4729
(dp4730
g66
(dp4731
sg75
g4725
sg68
(lp4732
g61
(g62
g63
NtRp4733
(dp4734
g66
(dp4735
g74
I2
ssg75
g4729
sg68
(lp4736
g61
(g70
g63
NtRp4737
(dp4738
g66
(dp4739
g74
I1
ssg75
Nsg68
(lp4740
g61
(g77
g63
NtRp4741
(dp4742
g66
(dp4743
sg75
g4737
sg68
(lp4744
g61
(g82
g63
NtRp4745
(dp4746
g66
(dp4747
sg75
g4741
sg68
(lp4748
g61
(g62
g63
NtRp4749
(dp4750
g66
(dp4751
g74
I1
ssg75
g4745
sg68
(lp4752
g4553
(S's\x08\x00\x00\x00This App'
tRp4753
asbasbasbag61
(g77
g63
NtRp4754
(dp4755
g66
(dp4756
sg75
g4737
sg68
(lp4757
g61
(g82
g63
NtRp4758
(dp4759
g66
(dp4760
sg75
g4754
sg68
(lp4761
g61
(g62
g63
NtRp4762
(dp4763
g66
(dp4764
g74
I1
ssg75
g4758
sg68
(lp4765
I00
asbasbasbag61
(g77
g63
NtRp4766
(dp4767
g66
(dp4768
sg75
g4737
sg68
(lp4769
g61
(g82
g63
NtRp4770
(dp4771
g66
(dp4772
sg75
g4766
sg68
(lp4773
g61
(g62
g63
NtRp4774
(dp4775
g66
(dp4776
g74
I1
ssg75
g4770
sg68
(lp4777
S'/admin/default/design/SeniorProject'
p4778
asbasbasbag61
(g77
g63
NtRp4779
(dp4780
g66
(dp4781
sg75
g4737
sg68
(lp4782
g61
(g82
g63
NtRp4783
(dp4784
g66
(dp4785
sg75
g4779
sg68
(lp4786
g61
(g62
g63
NtRp4787
(dp4788
g66
(dp4789
g74
I1
ssg75
g4783
sg68
(lp4790
(lp4791
(g4553
(S's\n\x00\x00\x00Controller'
tRp4792
I00
S'/admin/default/edit/SeniorProject/controllers/default.py'
tp4793
a(g4553
(S's\x04\x00\x00\x00View'
tRp4794
I00
S'/admin/default/edit/SeniorProject/views/default/user.html'
tp4795
a(g4553
(S's\x06\x00\x00\x00Layout'
tRp4796
I00
S'/admin/default/edit/SeniorProject/views/layout.html'
tp4797
a(g4553
(S's\n\x00\x00\x00Stylesheet'
tRp4798
I00
S'/admin/default/edit/SeniorProject/static/css/web2py.css'
tp4799
a(g4553
(S's\x08\x00\x00\x00DB Model'
tRp4800
I00
S'/admin/default/edit/SeniorProject/models/db.py'
tp4801
a(g4553
(S's\n\x00\x00\x00Menu Model'
tRp4802
I00
S'/admin/default/edit/SeniorProject/models/menu.py'
tp4803
a(g4553
(S's\x08\x00\x00\x00Database'
tRp4804
I00
S'/SeniorProject/appadmin/index'
tp4805
a(g4553
(S's\x06\x00\x00\x00Errors'
tRp4806
I00
S'/admin/default/errors/SeniorProject'
tp4807
a(g4553
(S's\x05\x00\x00\x00About'
tRp4808
I00
S'/admin/default/about/SeniorProject'
tp4809
aasbasbasbasbasbasbasbag61
(g77
g63
NtRp4810
(dp4811
g66
(dp4812
sg75
g4667
sg68
(lp4813
g61
(g82
g63
NtRp4814
(dp4815
g66
(dp4816
sg75
g4810
sg68
(lp4817
g61
(g62
g63
NtRp4818
(dp4819
g66
(dp4820
g74
I2
ssg75
g4814
sg68
(lp4821
g61
(g70
g63
NtRp4822
(dp4823
g66
(dp4824
g74
I1
ssg75
Nsg68
(lp4825
g61
(g77
g63
NtRp4826
(dp4827
g66
(dp4828
sg75
g4822
sg68
(lp4829
g61
(g82
g63
NtRp4830
(dp4831
g66
(dp4832
sg75
g4826
sg68
(lp4833
g61
(g62
g63
NtRp4834
(dp4835
g66
(dp4836
g74
I1
ssg75
g4830
sg68
(lp4837
S'web2py.com'
p4838
asbasbasbag61
(g77
g63
NtRp4839
(dp4840
g66
(dp4841
sg75
g4822
sg68
(lp4842
g61
(g82
g63
NtRp4843
(dp4844
g66
(dp4845
sg75
g4839
sg68
(lp4846
g61
(g62
g63
NtRp4847
(dp4848
g66
(dp4849
g74
I1
ssg75
g4843
sg68
(lp4850
I00
asbasbasbag61
(g77
g63
NtRp4851
(dp4852
g66
(dp4853
sg75
g4822
sg68
(lp4854
g61
(g82
g63
NtRp4855
(dp4856
g66
(dp4857
sg75
g4851
sg68
(lp4858
g61
(g62
g63
NtRp4859
(dp4860
g66
(dp4861
g74
I1
ssg75
g4855
sg68
(lp4862
S'http://www.web2py.com'
p4863
asbasbasbag61
(g77
g63
NtRp4864
(dp4865
g66
(dp4866
sg75
g4822
sg68
(lp4867
g61
(g82
g63
NtRp4868
(dp4869
g66
(dp4870
sg75
g4864
sg68
(lp4871
g61
(g62
g63
NtRp4872
(dp4873
g66
(dp4874
g74
I1
ssg75
g4868
sg68
(lp4875
(lp4876
(g4553
(S's\x08\x00\x00\x00Download'
tRp4877
I00
S'http://www.web2py.com/examples/default/download'
p4878
tp4879
a(g4553
(S's\x07\x00\x00\x00Support'
tRp4880
I00
S'http://www.web2py.com/examples/default/support'
p4881
tp4882
a(g4553
(S's\x04\x00\x00\x00Demo'
tRp4883
I00
S'http://web2py.com/demo_admin'
p4884
tp4885
a(g4553
(S's\x0e\x00\x00\x00Quick Examples'
tRp4886
I00
S'http://web2py.com/examples/default/examples'
p4887
tp4888
a(g4553
(S's\x03\x00\x00\x00FAQ'
tRp4889
I00
S'http://web2py.com/AlterEgo'
p4890
tp4891
a(g4553
(S's\x06\x00\x00\x00Videos'
tRp4892
I00
S'http://www.web2py.com/examples/default/videos/'
p4893
tp4894
a(g4553
(S's\x11\x00\x00\x00Free Applications'
tRp4895
I00
S'http://web2py.com/appliances'
p4896
tp4897
a(g4553
(S's\x07\x00\x00\x00Plugins'
tRp4898
I00
S'http://web2py.com/plugins'
p4899
tp4900
a(g4553
(S's\x07\x00\x00\x00Layouts'
tRp4901
I00
S'http://web2py.com/layouts'
p4902
tp4903
a(g4553
(S's\x07\x00\x00\x00Recipes'
tRp4904
I00
S'http://web2pyslices.com/'
p4905
tp4906
a(g4553
(S's\x08\x00\x00\x00Semantic'
tRp4907
I00
S'http://web2py.com/semantic'
p4908
tp4909
aasbasbasbasbasbasbasbag61
(g77
g63
NtRp4910
(dp4911
g66
(dp4912
sg75
g4667
sg68
(lp4913
g61
(g82
g63
NtRp4914
(dp4915
g66
(dp4916
sg75
g4910
sg68
(lp4917
g61
(g62
g63
NtRp4918
(dp4919
g66
(dp4920
g74
I2
ssg75
g4914
sg68
(lp4921
g61
(g70
g63
NtRp4922
(dp4923
g66
(dp4924
g74
I1
ssg75
Nsg68
(lp4925
g61
(g77
g63
NtRp4926
(dp4927
g66
(dp4928
sg75
g4922
sg68
(lp4929
g61
(g82
g63
NtRp4930
(dp4931
g66
(dp4932
sg75
g4926
sg68
(lp4933
g61
(g62
g63
NtRp4934
(dp4935
g66
(dp4936
g74
I1
ssg75
g4930
sg68
(lp4937
g4553
(S's\r\x00\x00\x00Documentation'
tRp4938
asbasbasbag61
(g77
g63
NtRp4939
(dp4940
g66
(dp4941
sg75
g4922
sg68
(lp4942
g61
(g82
g63
NtRp4943
(dp4944
g66
(dp4945
sg75
g4939
sg68
(lp4946
g61
(g62
g63
NtRp4947
(dp4948
g66
(dp4949
g74
I1
ssg75
g4943
sg68
(lp4950
I00
asbasbasbag61
(g77
g63
NtRp4951
(dp4952
g66
(dp4953
sg75
g4922
sg68
(lp4954
g61
(g82
g63
NtRp4955
(dp4956
g66
(dp4957
sg75
g4951
sg68
(lp4958
g61
(g62
g63
NtRp4959
(dp4960
g66
(dp4961
g74
I1
ssg75
g4955
sg68
(lp4962
S'http://www.web2py.com/book'
p4963
asbasbasbag61
(g77
g63
NtRp4964
(dp4965
g66
(dp4966
sg75
g4922
sg68
(lp4967
g61
(g82
g63
NtRp4968
(dp4969
g66
(dp4970
sg75
g4964
sg68
(lp4971
g61
(g62
g63
NtRp4972
(dp4973
g66
(dp4974
g74
I1
ssg75
g4968
sg68
(lp4975
(lp4976
(g4553
(S's\x07\x00\x00\x00Preface'
tRp4977
I00
S'http://www.web2py.com/book/default/chapter/00'
p4978
tp4979
a(g4553
(S's\x0c\x00\x00\x00Introduction'
tRp4980
I00
S'http://www.web2py.com/book/default/chapter/01'
p4981
tp4982
a(g4553
(S's\x06\x00\x00\x00Python'
tRp4983
I00
S'http://www.web2py.com/book/default/chapter/02'
p4984
tp4985
a(g4553
(S's\x08\x00\x00\x00Overview'
tRp4986
I00
S'http://www.web2py.com/book/default/chapter/03'
p4987
tp4988
a(g4553
(S's\x08\x00\x00\x00The Core'
tRp4989
I00
S'http://www.web2py.com/book/default/chapter/04'
p4990
tp4991
a(g4553
(S's\t\x00\x00\x00The Views'
tRp4992
I00
S'http://www.web2py.com/book/default/chapter/05'
p4993
tp4994
a(g4553
(S's\x08\x00\x00\x00Database'
tRp4995
I00
S'http://www.web2py.com/book/default/chapter/06'
p4996
tp4997
a(g4553
(S's\x14\x00\x00\x00Forms and Validators'
tRp4998
I00
S'http://www.web2py.com/book/default/chapter/07'
p4999
tp5000
a(g4553
(S's\r\x00\x00\x00Email and SMS'
tRp5001
I00
S'http://www.web2py.com/book/default/chapter/08'
p5002
tp5003
a(g4553
(S's\x0e\x00\x00\x00Access Control'
tRp5004
I00
S'http://www.web2py.com/book/default/chapter/09'
p5005
tp5006
a(g4553
(S's\x08\x00\x00\x00Services'
tRp5007
I00
S'http://www.web2py.com/book/default/chapter/10'
p5008
tp5009
a(g4553
(S's\x0c\x00\x00\x00Ajax Recipes'
tRp5010
I00
S'http://www.web2py.com/book/default/chapter/11'
p5011
tp5012
a(g4553
(S's\x16\x00\x00\x00Components and Plugins'
tRp5013
I00
S'http://www.web2py.com/book/default/chapter/12'
p5014
tp5015
a(g4553
(S's\x12\x00\x00\x00Deployment Recipes'
tRp5016
I00
S'http://www.web2py.com/book/default/chapter/13'
p5017
tp5018
a(g4553
(S's\r\x00\x00\x00Other Recipes'
tRp5019
I00
S'http://www.web2py.com/book/default/chapter/14'
p5020
tp5021
a(g4553
(S's\r\x00\x00\x00Buy this book'
tRp5022
I00
S'http://stores.lulu.com/web2py'
p5023
tp5024
aasbasbasbasbasbasbasbag61
(g77
g63
NtRp5025
(dp5026
g66
(dp5027
sg75
g4667
sg68
(lp5028
g61
(g82
g63
NtRp5029
(dp5030
g66
(dp5031
sg75
g5025
sg68
(lp5032
g61
(g62
g63
NtRp5033
(dp5034
g66
(dp5035
g74
I2
ssg75
g5029
sg68
(lp5036
g61
(g70
g63
NtRp5037
(dp5038
g66
(dp5039
g74
I1
ssg75
Nsg68
(lp5040
g61
(g77
g63
NtRp5041
(dp5042
g66
(dp5043
sg75
g5037
sg68
(lp5044
g61
(g82
g63
NtRp5045
(dp5046
g66
(dp5047
sg75
g5041
sg68
(lp5048
g61
(g62
g63
NtRp5049
(dp5050
g66
(dp5051
g74
I1
ssg75
g5045
sg68
(lp5052
g4553
(S's\t\x00\x00\x00Community'
tRp5053
asbasbasbag61
(g77
g63
NtRp5054
(dp5055
g66
(dp5056
sg75
g5037
sg68
(lp5057
g61
(g82
g63
NtRp5058
(dp5059
g66
(dp5060
sg75
g5054
sg68
(lp5061
g61
(g62
g63
NtRp5062
(dp5063
g66
(dp5064
g74
I1
ssg75
g5058
sg68
(lp5065
I00
asbasbasbag61
(g77
g63
NtRp5066
(dp5067
g66
(dp5068
sg75
g5037
sg68
(lp5069
g61
(g82
g63
NtRp5070
(dp5071
g66
(dp5072
sg75
g5066
sg68
(lp5073
g61
(g62
g63
NtRp5074
(dp5075
g66
(dp5076
g74
I1
ssg75
g5070
sg68
(lp5077
Nasbasbasbag61
(g77
g63
NtRp5078
(dp5079
g66
(dp5080
sg75
g5037
sg68
(lp5081
g61
(g82
g63
NtRp5082
(dp5083
g66
(dp5084
sg75
g5078
sg68
(lp5085
g61
(g62
g63
NtRp5086
(dp5087
g66
(dp5088
g74
I1
ssg75
g5082
sg68
(lp5089
(lp5090
(g4553
(S's\x06\x00\x00\x00Groups'
tRp5091
I00
S'http://www.web2py.com/examples/default/usergroups'
p5092
tp5093
a(g4553
(S's\x07\x00\x00\x00Twitter'
tRp5094
I00
S'http://twitter.com/web2py'
p5095
tp5096
a(g4553
(S's\t\x00\x00\x00Live Chat'
tRp5097
I00
S'http://webchat.freenode.net/?channels=web2py'
p5098
tp5099
aasbasbasbasbasbasbasbag61
(g77
g63
NtRp5100
(dp5101
g66
(dp5102
sg75
g4667
sg68
(lp5103
g61
(g82
g63
NtRp5104
(dp5105
g66
(dp5106
sg75
g5100
sg68
(lp5107
g61
(g62
g63
NtRp5108
(dp5109
g66
(dp5110
g74
I2
ssg75
g5104
sg68
(lp5111
g61
(g70
g63
NtRp5112
(dp5113
g66
(dp5114
g74
I1
ssg75
Nsg68
(lp5115
g61
(g77
g63
NtRp5116
(dp5117
g66
(dp5118
sg75
g5112
sg68
(lp5119
g61
(g82
g63
NtRp5120
(dp5121
g66
(dp5122
sg75
g5116
sg68
(lp5123
g61
(g62
g63
NtRp5124
(dp5125
g66
(dp5126
g74
I1
ssg75
g5120
sg68
(lp5127
g4553
(S's\x07\x00\x00\x00Plugins'
tRp5128
asbasbasbag61
(g77
g63
NtRp5129
(dp5130
g66
(dp5131
sg75
g5112
sg68
(lp5132
g61
(g82
g63
NtRp5133
(dp5134
g66
(dp5135
sg75
g5129
sg68
(lp5136
g61
(g62
g63
NtRp5137
(dp5138
g66
(dp5139
g74
I1
ssg75
g5133
sg68
(lp5140
I00
asbasbasbag61
(g77
g63
NtRp5141
(dp5142
g66
(dp5143
sg75
g5112
sg68
(lp5144
g61
(g82
g63
NtRp5145
(dp5146
g66
(dp5147
sg75
g5141
sg68
(lp5148
g61
(g62
g63
NtRp5149
(dp5150
g66
(dp5151
g74
I1
ssg75
g5145
sg68
(lp5152
Nasbasbasbag61
(g77
g63
NtRp5153
(dp5154
g66
(dp5155
sg75
g5112
sg68
(lp5156
g61
(g82
g63
NtRp5157
(dp5158
g66
(dp5159
sg75
g5153
sg68
(lp5160
g61
(g62
g63
NtRp5161
(dp5162
g66
(dp5163
g74
I1
ssg75
g5157
sg68
(lp5164
(lp5165
(S'plugin_wiki'
p5166
I00
S'http://web2py.com/examples/default/download'
p5167
tp5168
a(g4553
(S's\r\x00\x00\x00Other Plugins'
tRp5169
I00
g4899
tp5170
a(g4553
(S's\x0e\x00\x00\x00Layout Plugins'
tRp5171
I00
g4902
tp5172
aasbasbasbasbasbasbasbasbasbasbasbasbasbasbasbasbasbasbasbag61
(g77
g63
NtRp5173
(dp5174
g66
(dp5175
sg75
g3997
sg68
(lp5176
g61
(g82
g63
NtRp5177
(dp5178
g66
(dp5179
g86
g87
ssg75
g5173
sg68
(lp5180
S'meta'
p5181
asbag61
(g82
g63
NtRp5182
(dp5183
g66
(dp5184
g93
g94
ssg75
g5173
sg68
(lp5185
S':'
asbag61
(g82
g63
NtRp5186
(dp5187
g66
(dp5188
sg75
g5173
sg68
(lp5189
g61
(g62
g63
NtRp5190
(dp5191
g66
(dp5192
g74
I5
ssg75
g5186
sg68
(lp5193
g61
(g70
g63
NtRp5194
(dp5195
g66
(dp5196
g74
I4
ssg75
Nsg68
(lp5197
g61
(g77
g63
NtRp5198
(dp5199
g66
(dp5200
sg75
g5194
sg68
(lp5201
g61
(g82
g63
NtRp5202
(dp5203
g66
(dp5204
g86
g87
ssg75
g5198
sg68
(lp5205
S'author'
p5206
asbag61
(g82
g63
NtRp5207
(dp5208
g66
(dp5209
g93
g94
ssg75
g5198
sg68
(lp5210
S':'
asbag61
(g82
g63
NtRp5211
(dp5212
g66
(dp5213
sg75
g5198
sg68
(lp5214
g61
(g62
g63
NtRp5215
(dp5216
g66
(dp5217
g74
I4
ssg75
g5211
sg68
(lp5218
S'Your Name <you@example.com>'
p5219
asbasbasbag61
(g77
g63
NtRp5220
(dp5221
g66
(dp5222
sg75
g5194
sg68
(lp5223
g61
(g82
g63
NtRp5224
(dp5225
g66
(dp5226
g86
g87
ssg75
g5220
sg68
(lp5227
S'copyright'
p5228
asbag61
(g82
g63
NtRp5229
(dp5230
g66
(dp5231
g93
g94
ssg75
g5220
sg68
(lp5232
S':'
asbag61
(g82
g63
NtRp5233
(dp5234
g66
(dp5235
sg75
g5220
sg68
(lp5236
g61
(g62
g63
NtRp5237
(dp5238
g66
(dp5239
g74
I4
ssg75
g5233
sg68
(lp5240
S'Copyright 2011'
p5241
asbasbasbag61
(g77
g63
NtRp5242
(dp5243
g66
(dp5244
sg75
g5194
sg68
(lp5245
g61
(g82
g63
NtRp5246
(dp5247
g66
(dp5248
g86
g87
ssg75
g5242
sg68
(lp5249
S'description'
p5250
asbag61
(g82
g63
NtRp5251
(dp5252
g66
(dp5253
g93
g94
ssg75
g5242
sg68
(lp5254
S':'
asbag61
(g82
g63
NtRp5255
(dp5256
g66
(dp5257
sg75
g5242
sg68
(lp5258
g61
(g62
g63
NtRp5259
(dp5260
g66
(dp5261
g74
I4
ssg75
g5255
sg68
(lp5262
S'a cool new app'
p5263
asbasbasbag61
(g77
g63
NtRp5264
(dp5265
g66
(dp5266
sg75
g5194
sg68
(lp5267
g61
(g82
g63
NtRp5268
(dp5269
g66
(dp5270
g86
g87
ssg75
g5264
sg68
(lp5271
S'generator'
p5272
asbag61
(g82
g63
NtRp5273
(dp5274
g66
(dp5275
g93
g94
ssg75
g5264
sg68
(lp5276
S':'
asbag61
(g82
g63
NtRp5277
(dp5278
g66
(dp5279
sg75
g5264
sg68
(lp5280
g61
(g62
g63
NtRp5281
(dp5282
g66
(dp5283
g74
I4
ssg75
g5277
sg68
(lp5284
S'Web2py Web Framework'
p5285
asbasbasbag61
(g77
g63
NtRp5286
(dp5287
g66
(dp5288
sg75
g5194
sg68
(lp5289
g61
(g82
g63
NtRp5290
(dp5291
g66
(dp5292
g86
g87
ssg75
g5286
sg68
(lp5293
S'keywords'
p5294
asbag61
(g82
g63
NtRp5295
(dp5296
g66
(dp5297
g93
g94
ssg75
g5286
sg68
(lp5298
S':'
asbag61
(g82
g63
NtRp5299
(dp5300
g66
(dp5301
sg75
g5286
sg68
(lp5302
g61
(g62
g63
NtRp5303
(dp5304
g66
(dp5305
g74
I4
ssg75
g5299
sg68
(lp5306
S'web2py, python, framework'
p5307
asbasbasbasbasbasbasbag61
(g77
g63
NtRp5308
(dp5309
g66
(dp5310
sg75
g3997
sg68
(lp5311
g61
(g82
g63
NtRp5312
(dp5313
g66
(dp5314
g86
g87
ssg75
g5308
sg68
(lp5315
S'postprocessing'
p5316
asbag61
(g82
g63
NtRp5317
(dp5318
g66
(dp5319
g93
g94
ssg75
g5308
sg68
(lp5320
S':'
asbag61
(g82
g63
NtRp5321
(dp5322
g66
(dp5323
sg75
g5308
sg68
(lp5324
g61
(g62
g63
NtRp5325
(dp5326
g66
(dp5327
g74
I5
ssg75
g5321
sg68
(lp5328
g61
(g70
g63
NtRp5329
(dp5330
g66
(dp5331
g74
I4
ssg75
Nsg68
(lp5332
sbasbasbasbag61
(g77
g63
NtRp5333
(dp5334
g66
(dp5335
sg75
g3997
sg68
(lp5336
g61
(g82
g63
NtRp5337
(dp5338
g66
(dp5339
g86
g87
ssg75
g5333
sg68
(lp5340
S'session_file'
p5341
asbag61
(g82
g63
NtRp5342
(dp5343
g66
(dp5344
g93
g94
ssg75
g5333
sg68
(lp5345
S':'
asbag61
(g82
g63
NtRp5346
(dp5347
g66
(dp5348
sg75
g5333
sg68
(lp5349
g61
(g62
g63
NtRp5350
(dp5351
g66
(dp5352
g74
I5
ssg75
g5346
sg68
(lp5353
S"<open file '/home/seniorproj/Documents/finholt-senior-project/web2py/applications/SeniorProject/sessions/127.0.0.1-da9e0b46-e1cb-4780-b15e-19a76d3b2cfd', mode 'rb+' at 0x21f43808>"
p5354
asbasbasbag61
(g77
g63
NtRp5355
(dp5356
g66
(dp5357
sg75
g3997
sg68
(lp5358
g61
(g82
g63
NtRp5359
(dp5360
g66
(dp5361
g86
g87
ssg75
g5355
sg68
(lp5362
S'session_filename'
p5363
asbag61
(g82
g63
NtRp5364
(dp5365
g66
(dp5366
g93
g94
ssg75
g5355
sg68
(lp5367
S':'
asbag61
(g82
g63
NtRp5368
(dp5369
g66
(dp5370
sg75
g5355
sg68
(lp5371
g61
(g62
g63
NtRp5372
(dp5373
g66
(dp5374
g74
I5
ssg75
g5368
sg68
(lp5375
S'/home/seniorproj/Documents/finholt-senior-project/web2py/applications/SeniorProject/sessions/127.0.0.1-da9e0b46-e1cb-4780-b15e-19a76d3b2cfd'
p5376
asbasbasbag61
(g77
g63
NtRp5377
(dp5378
g66
(dp5379
sg75
g3997
sg68
(lp5380
g61
(g82
g63
NtRp5381
(dp5382
g66
(dp5383
g86
g87
ssg75
g5377
sg68
(lp5384
S'session_id'
p5385
asbag61
(g82
g63
NtRp5386
(dp5387
g66
(dp5388
g93
g94
ssg75
g5377
sg68
(lp5389
S':'
asbag61
(g82
g63
NtRp5390
(dp5391
g66
(dp5392
sg75
g5377
sg68
(lp5393
g61
(g62
g63
NtRp5394
(dp5395
g66
(dp5396
g74
I5
ssg75
g5390
sg68
(lp5397
S'127.0.0.1-da9e0b46-e1cb-4780-b15e-19a76d3b2cfd'
p5398
asbasbasbag61
(g77
g63
NtRp5399
(dp5400
g66
(dp5401
sg75
g3997
sg68
(lp5402
g61
(g82
g63
NtRp5403
(dp5404
g66
(dp5405
g86
g87
ssg75
g5399
sg68
(lp5406
S'session_id_name'
p5407
asbag61
(g82
g63
NtRp5408
(dp5409
g66
(dp5410
g93
g94
ssg75
g5399
sg68
(lp5411
S':'
asbag61
(g82
g63
NtRp5412
(dp5413
g66
(dp5414
sg75
g5399
sg68
(lp5415
g61
(g62
g63
NtRp5416
(dp5417
g66
(dp5418
g74
I5
ssg75
g5412
sg68
(lp5419
g4054
asbasbasbag61
(g77
g63
NtRp5420
(dp5421
g66
(dp5422
sg75
g3997
sg68
(lp5423
g61
(g82
g63
NtRp5424
(dp5425
g66
(dp5426
g86
g87
ssg75
g5420
sg68
(lp5427
S'session_locked'
p5428
asbag61
(g82
g63
NtRp5429
(dp5430
g66
(dp5431
g93
g94
ssg75
g5420
sg68
(lp5432
S':'
asbag61
(g82
g63
NtRp5433
(dp5434
g66
(dp5435
sg75
g5420
sg68
(lp5436
g61
(g62
g63
NtRp5437
(dp5438
g66
(dp5439
g74
I5
ssg75
g5433
sg68
(lp5440
g1654
asbasbasbag61
(g77
g63
NtRp5441
(dp5442
g66
(dp5443
sg75
g3997
sg68
(lp5444
g61
(g82
g63
NtRp5445
(dp5446
g66
(dp5447
g86
g87
ssg75
g5441
sg68
(lp5448
S'session_new'
p5449
asbag61
(g82
g63
NtRp5450
(dp5451
g66
(dp5452
g93
g94
ssg75
g5441
sg68
(lp5453
S':'
asbag61
(g82
g63
NtRp5454
(dp5455
g66
(dp5456
sg75
g5441
sg68
(lp5457
g61
(g62
g63
NtRp5458
(dp5459
g66
(dp5460
g74
I5
ssg75
g5454
sg68
(lp5461
g104
asbasbasbag61
(g77
g63
NtRp5462
(dp5463
g66
(dp5464
sg75
g3997
sg68
(lp5465
g61
(g82
g63
NtRp5466
(dp5467
g66
(dp5468
g86
g87
ssg75
g5462
sg68
(lp5469
S'status'
p5470
asbag61
(g82
g63
NtRp5471
(dp5472
g66
(dp5473
g93
g94
ssg75
g5462
sg68
(lp5474
S':'
asbag61
(g82
g63
NtRp5475
(dp5476
g66
(dp5477
sg75
g5462
sg68
(lp5478
g61
(g62
g63
NtRp5479
(dp5480
g66
(dp5481
g74
I5
ssg75
g5475
sg68
(lp5482
S'200'
p5483
asbasbasbag61
(g77
g63
NtRp5484
(dp5485
g66
(dp5486
sg75
g3997
sg68
(lp5487
g61
(g82
g63
NtRp5488
(dp5489
g66
(dp5490
g86
g87
ssg75
g5484
sg68
(lp5491
S'subtitle'
p5492
asbag61
(g82
g63
NtRp5493
(dp5494
g66
(dp5495
g93
g94
ssg75
g5484
sg68
(lp5496
S':'
asbag61
(g82
g63
NtRp5497
(dp5498
g66
(dp5499
sg75
g5484
sg68
(lp5500
g61
(g62
g63
NtRp5501
(dp5502
g66
(dp5503
g74
I5
ssg75
g5497
sg68
(lp5504
g4553
(S's\r\x00\x00\x00customize me!'
tRp5505
asbasbasbag61
(g77
g63
NtRp5506
(dp5507
g66
(dp5508
sg75
g3997
sg68
(lp5509
g61
(g82
g63
NtRp5510
(dp5511
g66
(dp5512
g86
g87
ssg75
g5506
sg68
(lp5513
S'title'
p5514
asbag61
(g82
g63
NtRp5515
(dp5516
g66
(dp5517
g93
g94
ssg75
g5506
sg68
(lp5518
S':'
asbag61
(g82
g63
NtRp5519
(dp5520
g66
(dp5521
sg75
g5506
sg68
(lp5522
g61
(g62
g63
NtRp5523
(dp5524
g66
(dp5525
g74
I5
ssg75
g5519
sg68
(lp5526
S'Seniorproject'
p5527
asbasbasbag61
(g77
g63
NtRp5528
(dp5529
g66
(dp5530
sg75
g3997
sg68
(lp5531
g61
(g82
g63
NtRp5532
(dp5533
g66
(dp5534
g86
g87
ssg75
g5528
sg68
(lp5535
g2339
asbag61
(g82
g63
NtRp5536
(dp5537
g66
(dp5538
g93
g94
ssg75
g5528
sg68
(lp5539
S':'
asbag61
(g82
g63
NtRp5540
(dp5541
g66
(dp5542
sg75
g5528
sg68
(lp5543
g61
(g62
g63
NtRp5544
(dp5545
g66
(dp5546
g74
I5
ssg75
g5540
sg68
(lp5547
g2352
asbasbasbag61
(g77
g63
NtRp5548
(dp5549
g66
(dp5550
sg75
g3997
sg68
(lp5551
g61
(g82
g63
NtRp5552
(dp5553
g66
(dp5554
g86
g87
ssg75
g5548
sg68
(lp5555
S'view'
p5556
asbag61
(g82
g63
NtRp5557
(dp5558
g66
(dp5559
g93
g94
ssg75
g5548
sg68
(lp5560
S':'
asbag61
(g82
g63
NtRp5561
(dp5562
g66
(dp5563
sg75
g5548
sg68
(lp5564
g61
(g62
g63
NtRp5565
(dp5566
g66
(dp5567
g74
I5
ssg75
g5561
sg68
(lp5568
S'default/user.html'
p5569
asbasbasbasbasbsS'locals'
p5570
(dp5571
S'query'
p5572
S'"INSERT INTO auth_event(origin,user_id,descriptio... 6 Logged-in\',\'2013-02-08 14:19:54\',\'127.0.0.1\');"'
p5573
sS'self'
p5574
S'<gluon.dal.SQLiteAdapter object>'
p5575
sS'e'
S"OperationalError('attempt to write a readonly database',)"
p5576
sS'fields'
p5577
S"[(<gluon.dal.Field object>, 'auth'), (<gluon.dal.Field object>, 6), (<gluon.dal.Field object>, 'User 6 Logged-in'), (<gluon.dal.Field object>, datetime.datetime(2013, 2, 8, 14, 19, 54, 577608)), (<gluon.dal.Field object>, '127.0.0.1')]"
p5578
sS'table'
p5579
S"<Table {'origin': <gluon.dal.Field object at 0x2..., '_id': <gluon.dal.Field object at 0x2218f4cc>}>"
p5580
sssS'traceback'
p5581
S'Traceback (most recent call last):\n  File "/home/seniorproj/Documents/finholt-senior-project/web2py/gluon/restricted.py", line 205, in restricted\n    exec ccode in environment\n  File "/home/seniorproj/Documents/finholt-senior-project/web2py/applications/SeniorProject/controllers/default.py", line 384, in <module>\n  File "/home/seniorproj/Documents/finholt-senior-project/web2py/gluon/globals.py", line 173, in <lambda>\n    self._caller = lambda f: f()\n  File "/home/seniorproj/Documents/finholt-senior-project/web2py/applications/SeniorProject/controllers/default.py", line 126, in user\n    return dict(form=auth())\n  File "/home/seniorproj/Documents/finholt-senior-project/web2py/gluon/tools.py", line 1161, in __call__\n    return getattr(self,args[0])()\n  File "/home/seniorproj/Documents/finholt-senior-project/web2py/gluon/tools.py", line 1814, in login\n    self.log_event(log, user)\n  File "/home/seniorproj/Documents/finholt-senior-project/web2py/gluon/tools.py", line 1461, in log_event\n    origin=origin, user_id=user_id)\n  File "/home/seniorproj/Documents/finholt-senior-project/web2py/gluon/dal.py", line 6829, in insert\n    return self._db._adapter.insert(self,self._listify(fields))\n  File "/home/seniorproj/Documents/finholt-senior-project/web2py/gluon/dal.py", line 928, in insert\n    raise e\nOperationalError: attempt to write a readonly database\n'
p5582
s.