(dp1
S'output'
p2
S"<type 'exceptions.IndexError'> list index out of range"
p3
sS'layer'
p4
S'C:\\Users\\Alysse\\Documents\\GitHub\\finholt-senior-project\\web2py\\applications\\SeniorProject\\controllers/default.py'
p5
sS'code'
p6
S'# -*- coding: utf-8 -*-\n# this file is released under public domain and you can use without limitations\n\n#########################################################################\n## This is a samples controller\n## - index is the default action of any application\n## - user is required for authentication and authorization\n## - download is for downloading files uploaded in the db (does streaming)\n## - call exposes all registered services (none by default)\n#########################################################################\nccdForm = SQLFORM(db.CCD, labels={\'ccdNum\':\'CCD #\',\'projectNum\': "Project #"})\n\nrfiForm = SQLFORM(db.RFI, labels={\'rfiNum\':\'RFI #\',\'projectNum\':"Project #", \'requestBy\':\'Request by\', \'dateSent\':\'Date Sent\', \'reqRefTo\':\'Request Referred to\', \'dateRec\':\'Date Received\', \'drawingNum\':\'Drawing #\', \'detailNum\':\'Detail #\', \'specSection\':\'Spec Section #\', \'sheetName\':\'Sheet Name\', \'grids\':\'Grids\', \'sectionPage\':\'Section Page #\', \'description\':\'Description\', \'suggestion\':\'Contractor\\\'s Suggestion\', \'reply\':\'Reply\', \'responseBy\':\'Response by\', \'responseDate\':\'Response Date\'}, fields=[\'rfiNum\',\'projectNum\',\'requestBy\', \'dateSent\', \'reqRefTo\', \'dateRec\', \'drawingNum\', \'detailNum\', \'specSection\', \'sheetName\', \'grids\', \'sectionPage\', \'description\', \'suggestion\', \'reply\', \'responseBy\', \'responseDate\'])\n\nsubmittalForm = SQLFORM(db.Submittal, labels={\'statusFlag\':\'Status Flag\', \'projectNum\':\'Project Number\', \'assignedTo\':\'Assigned to\'})\n\nproposalRequestForm = SQLFORM(db.ProposalRequest, labels={\'reqNum\':\'Request #\', \'amendNum\':\'Amendment #\', \'projectNum\':\'Project #\', \'subject\':\'Subject\', \'propDate\':\'Proposal Date\', \'sentTo\':\'Sent to\', \'cc\':\'CC\', \'description\':\'Description\'})\n\nproposalForm = SQLFORM(db.Proposal, labels={\'reqNum\':\'Request #\', \'projectNum\':\'Project Number\', \'propDate\':\'Proposal Date\'})\n\nmeetingMinutesForm = SQLFORM(db.MeetingMinutes, labels={\'meetDate\':\'Meeting Date\'})\n\nphotoForm = SQLFORM(db.MeetingMinutes, fields = [])\n\nif auth.user != None:\n    record = auth.user.id     #Gets the info for the current user\n    myProfileForm = SQLFORM(db.auth_user, record, showid=False, labels={\'first_name\':\'First Name\', \'last_name\':\'Last Name\', \'email\':\'E-mail\', \'phone\':\'Phone Number\', \'password\':\'New Password\'}, fields = [\'first_name\',\'last_name\',\'email\',\'phone\'],_id="profileForm")\nelse: \n    myProfileForm = SQLFORM(db.auth_user, showid=False, labels={\'first_name\':\'First Name\', \'last_name\':\'Last Name\', \'email\':\'E-mail\', \'phone\':\'Phone Number\', \'password\':\'New Password\'}, fields = [\'first_name\',\'last_name\',\'email\',\'phone\'],_id="profileForm")\n\n\nprojects = db(db.Project).select()\n\nheader = DIV(A(IMG(_src=URL(\'static\',\'images/stock.jpeg\')), _href=URL(\'default\',\'index\')), _id="header")\nfooter = DIV("This website brought to you by the Supreme Leader, Minion #3 (Alysse), Minion #2 (Scott), and the No-Longer-Sick One (Erik)", _id="footer")\n\n@auth.requires_login()\ndef index():\n    """\n    example action using the internationalization operator T and flash\n    rendered by views/default/index.html or views/generic.html\n    """\n    \n    if ccdForm.process().accepted:\n        response.flash = \'form accepted\'\n    elif ccdForm.errors:\n        response.flash = \'form has errors\'\n    else:\n        response.flash = \'please fill out the form\'\n        \n    if rfiForm.process().accepted:\n        response.flash = \'form accepted\'\n    elif rfiForm.errors:\n        response.flash = \'form has errors\'\n    else:\n        response.flash = \'please fill out the form\'\n        \n    if submittalForm.process().accepted:\n        response.flash = \'form accepted\'\n    elif submittalForm.errors:\n        response.flash = \'form has errors\'\n    else:\n        response.flash = \'please fill out the form\'\n        \n    if proposalRequestForm.process().accepted:\n        response.flash = \'form accepted\'\n    elif proposalRequestForm.errors:\n        response.flash = \'form has errors\'\n    else:\n        response.flash = \'please fill out the form\'\n        \n    if proposalForm.process().accepted:\n        response.flash = \'form accepted\'\n    elif proposalForm.errors:\n        response.flash = \'form has errors\'\n    else:\n        response.flash = \'please fill out the form\'\n    \n    if meetingMinutesForm.process().accepted:\n        response.flash = \'form accepted\'\n    elif meetingMinutesForm.errors:\n        response.flash = \'form has errors\'\n    else:\n        response.flash = \'please fill out the form\'\n        \n    if photoForm.process().accepted:\n        response.flash = \'form accepted\'\n    elif photoForm.errors:\n        response.flash = \'form has errors\'\n    else:\n        response.flash = \'please fill out the form\'\n        \n    if myProfileForm.process().accepted:\n        response.flash = \'form accepted\'\n    elif myProfileForm.errors:\n        response.flash = \'form has errors\'\n    else:\n        response.flash = \'please fill out the form\'\n       \n    return dict(ccdForm=ccdForm,\n                projects=projects,\n                rfiForm=rfiForm,\n                submittalForm=submittalForm,\n                proposalRequestForm=proposalRequestForm,\n                proposalForm=proposalForm,\n                meetingMinutesForm=meetingMinutesForm,\n                photoForm=photoForm,\n                myProfileForm=myProfileForm,\n                header=header,\n                footer=footer)\n\ndef user():\n    """\n    exposes:\n    http://..../[app]/default/user/login\n    http://..../[app]/default/user/logout\n    http://..../[app]/default/user/register\n    http://..../[app]/default/user/profile\n    http://..../[app]/default/user/retrieve_password\n    http://..../[app]/default/user/change_password\n    use @auth.requires_login()\n        @auth.requires_membership(\'group name\')\n        @auth.requires_permission(\'read\',\'table name\',record_id)\n    to decorate functions that need access control\n    """\n    return dict(form=auth())\n\n\ndef download():\n    """\n    allows downloading of uploaded files\n    http://..../[app]/default/download/[filename]\n    """\n    return response.download(request,db)\n\n\ndef call():\n    """\n    exposes services. for example:\n    http://..../[app]/default/call/jsonrpc\n    decorate with @services.jsonrpc the functions to expose\n    supports xml, json, xmlrpc, jsonrpc, amfrpc, rss, csv\n    """\n    return service()\n\n\n@auth.requires_signature()\ndef data():\n    """\n    http://..../[app]/default/data/tables\n    http://..../[app]/default/data/create/[table]\n    http://..../[app]/default/data/read/[table]/[id]\n    http://..../[app]/default/data/update/[table]/[id]\n    http://..../[app]/default/data/delete/[table]/[id]\n    http://..../[app]/default/data/select/[table]\n    http://..../[app]/default/data/search/[table]\n    but URLs must be signed, i.e. linked with\n      A(\'table\',_href=URL(\'data/tables\',user_signature=True))\n    or with the signed load operator\n      LOAD(\'default\',\'data.load\',args=\'tables\',ajax=True,user_signature=True)\n    """\n    return dict(form=crud())\n\n@auth.requires_membership(\'Admin\')\ndef register():\n    form = SQLFORM(db.auth_user)\n    if form.validate():\n        admin_user = auth.user\n        auth.get_or_create_user(form.vars)\n        auth.add_membership(auth.id_group(role="General"),auth.user_id) \n        auth.user = admin_user\n        redirect(URL(\'default\',\'manageusers\'))\n    return dict(form=form,header=header)\n    #admin_auth = session.auth\n    #auth.is_logged_in = lambda: False\n    #def post_register(form):\n    #    auth.add_membership(auth.id_group(role="General"),auth.user_id) \n\n     #   session.auth = admin_auth\n     #   auth.user = session.auth.user\n    #auth.settings.register_onaccept = post_register\n    #return dict(form=auth.register())\n\n@auth.requires_login()\n@auth.requires_membership(\'Admin\')\ndef changepermissions():\n     rows=db(db.auth_user.id>0).select() \n     db.auth_user.id.represent=lambda id: DIV(id,SELECT(str(db(db.auth_group.id==db(db.auth_membership.user_id==id).select().first().group_id).select().first().role), XML(getOtherRoles(str(db(db.auth_group.id==db(db.auth_membership.user_id==id).select().first().group_id).select().first().role))), _name=\'%i\'%id)) # INPUT (_type=\'checkbox\',_name=\'%i\'%id)) \n     table=FORM(SQLTABLE(rows),INPUT(_type=\'submit\')) \n     if table.accepts(request.vars): \n        for item in request.vars.keys():\n            if item.isdigit():\n                if not auth.has_membership(user_id=int(item), role=request.vars[item]):\n                    auth.del_membership(auth.id_group(role=getOtherRoles(request.vars[item])),int(item))\n                    auth.add_membership(auth.id_group(role=request.vars[item]),int(item)) \n\n        redirect(URL(\'default\',\'manageusers\'))\n     return dict(table=table, footer=footer, header=header)\n\n@auth.requires_login()\n@auth.requires_membership(\'Admin\')\ndef deleteusers():\n     rows=db(db.auth_user.id>0).select() \n     db.auth_user.id.represent=lambda id: DIV(id,INPUT (_type=\'checkbox\',_name=\'%i\'%id)) \n     table=FORM(SQLTABLE(rows),INPUT(_type=\'submit\')) \n     if table.accepts(request.vars): \n        for item in request.vars.keys():\n            if item.isdigit():\n                db(db.auth_user.id == int(item)).delete()\n        redirect(URL(\'default\',\'deleteusers\'))\n            # or so something not sure what you want to do \n     return dict(table=table, footer=footer, header=header)\n \n@auth.requires_login()    \n@auth.requires_membership(\'Admin\')\ndef createproject():\n    form = SQLFORM(db.Project, labels={\'openDate\':\'Open Date\', \'closedDate\':\'Closed Date\', \'projNum\':\'Project Number\'})\n    if form.process().accepted:\n       response.flash = \'form accepted\'\n    elif form.errors:\n       response.flash = \'form has errors\'\n    else:\n       response.flash = \'please fill out the form\'\n    return dict(form=form, footer=footer, header=header)\n\n@auth.requires_login()   \n@auth.requires_membership(\'Admin\')\ndef manageprojects():\n    table = None\n    rows = db().select(db.Project.ALL)\n    #myextracolumns = [{\'label\': \'CCD Thumbnail(for testing)\',\'class\':\'\',\'selected\':False, \'width\':\'\', \'content\': lambda row, rc:     IMG(_width="40",_height="40",_src=URL(\'default\',\'download\',args=row.file))}]\n    table = SQLTABLE(rows,columns=["Project.name","Project.projNum",\'Project.openDate\',"Project.closedDate"],headers={"Project.name":"Project Name","Project.openDate":"Open Date", "Project.closedDate":"Closed Date", "Project.projNum":"Project #", "Project.archived":"Archived"})\n    return dict(table=table, footer=footer, header=header)\n    \n@auth.requires_login()\n@auth.requires_membership(\'Admin\')\n\ndef archiveprojects():\n    table = None\n    rows = db(db.Project.archived == True).select()\n    #myextracolumns = [{\'label\': \'CCD Thumbnail(for testing)\',\'class\':\'\',\'selected\':False, \'width\':\'\', \'content\': lambda row, rc:     IMG(_width="40",_height="40",_src=URL(\'default\',\'download\',args=row.file))}]\n    table = SQLTABLE(rows,columns=["Project.name","Project.projNum",\'Project.openDate\',"Project.closedDate"],headers={"Project.name":"Project Name","Project.openDate":"Open Date", "Project.closedDate":"Closed Date", "Project.projNum":"Project #", "Project.archived":"Archived"})\n    return dict(table=table, footer=footer, header=header)\n\n\n@auth.requires_login()\n@auth.requires_membership(\'Admin\')\n\ndef manageusers():\n    table = None\n    #rows = db().select(db.Users.ALL)\n    #myextracolumns = [{\'label\': \'CCD Thumbnail(for testing)\',\'class\':\'\',\'selected\':False, \'width\':\'\', \'content\': lambda row, rc:     IMG(_width="40",_height="40",_src=URL(\'default\',\'download\',args=row.file))}]\n    #table = SQLTABLE(rows,columns=["Project.name","Project.projNum",\'Project.openDate\',"Project.closedDate"],headers={"Project.name":"Project Name","Project.openDate":"Open Date", "Project.closedDate":"Closed Date", "Project.projNum":"Project #", "Project.archived":"Archived"})\n    return dict(table=table, footer=footer, header=header)\n\n@auth.requires_login()\ndef formtable():\n    formType = request.vars.formType\n    if ccdForm.process().accepted:\n        response.flash = \'form accepted\'\n    elif ccdForm.errors:\n        response.flash = \'form has errors\'\n    else:\n        response.flash = \'please fill out the form\'\n        \n    if rfiForm.process().accepted:\n        response.flash = \'form accepted\'\n    elif rfiForm.errors:\n        response.flash = \'form has errors\'\n    else:\n        response.flash = \'please fill out the form\'\n        \n    if submittalForm.process().accepted:\n        response.flash = \'form accepted\'\n    elif submittalForm.errors:\n        response.flash = \'form has errors\'\n    else:\n        response.flash = \'please fill out the form\'\n        \n    if proposalRequestForm.process().accepted:\n        response.flash = \'form accepted\'\n    elif proposalRequestForm.errors:\n        response.flash = \'form has errors\'\n    else:\n        response.flash = \'please fill out the form\'\n        \n    if proposalForm.process().accepted:\n        response.flash = \'form accepted\'\n    elif proposalForm.errors:\n        response.flash = \'form has errors\'\n    else:\n        response.flash = \'please fill out the form\'\n    \n    if meetingMinutesForm.process().accepted:\n        response.flash = \'form accepted\'\n    elif meetingMinutesForm.errors:\n        response.flash = \'form has errors\'\n    else:\n        response.flash = \'please fill out the form\'\n        \n    if photoForm.process().accepted:\n        response.flash = \'form accepted\'\n    elif photoForm.errors:\n        response.flash = \'form has errors\'\n    else:\n        response.flash = \'please fill out the form\'\n        \n    if myProfileForm.process().accepted:\n        response.flash = \'form accepted\'\n    elif myProfileForm.errors:\n        response.flash = \'form has errors\'\n    else:\n        response.flash = \'please fill out the form\'\n        \n    table = None\n    image = None\n    fullTable = True\n    if formType == "CCD":\n        rows = db(db.CCD.projectNum == str(request.vars.projectNum)).select()\n        for row in rows:\n            row.file = str(URL(\'default\',\'download\',args=row.file))[1:]\n        myextracolumns = [{\'label\': \'CCD Thumbnail(for testing)\',\'class\':\'\',\'selected\':False, \'width\':\'\', \'content\': lambda row, rc: IMG(_width="40",_height="40",_src=URL(\'default\',\'download\',args=row.file))}]\n        table = SQLTABLE(rows,columns=["CCD.ccdNum",\'CCD.file\'],headers={"CCD.ccdNum":"CCD #","CCD.file":"CCD File"},upload="http://127.0.0.1:8000")\n    elif formType == "RFI":\n        rows = db(db.RFI.projectNum == str(request.vars.projectNum)).select()\n        table = SQLTABLE(rows,_width="800px",       \n            columns=["RFI.rfiNum","RFI.dateSent","RFI.reqRefTo","RFI.dateRec","RFI.responseBy","RFI.responseDate","RFI.statusFlag"],headers=\n            {"RFI.rfiNum":"RFI #","RFI.dateSent":"Date Sent","RFI.reqRefTo":"Request Referred To","RFI.dateRec":"Date Received","RFI.responseDate":"Response Date","RFI.responseBy":"Response By","RFI.statusFlag":"Status Flag"})\n    elif formType == "Submittal":\n        rows = db(db.Submittal.projectNum == str(request.vars.projectNum)).select()\n        for row in rows:\n            row.submittal = str(URL(\'default\',\'download\',args=row.submittal))[1:]\n        table = SQLTABLE(rows, columns=["Submittal.assignedTo","Submittal.statusFlag","Submittal.submittal"],\n         headers={"Submittal.assignedTo":"Assigned To","Submittal.statusFlag":"Status Flag","Submittal.submittal":"Submitted File"},upload="http://127.0.0.1:8000")\n    elif formType == "ProposalRequest":\n        rows = db(db.ProposalRequest.projectNum == str(request.vars.projectNum)).select()\n        table = SQLTABLE(rows, columns=["ProposalRequest.reqNum","ProposalRequest.amendNum","ProposalRequest.sentTo","ProposalRequest.propDate"],\n         headers={"ProposalRequest.reqNum":"Request Number","ProposalRequest.amendNum":"Amendment Number","ProposalRequest.sentTo":"Sent To","ProposalRequest.propDate":"Proposal Request Date"})\n    elif formType == "Proposal":\n        rows = db(db.Proposal.projectNum == str(request.vars.projectNum)).select()\n        for row in rows:\n            row.file = str(URL(\'default\',\'download\',args=row.file))[1:]\n        table = SQLTABLE(rows, columns=["Proposal.reqNum","Proposal.propDate","Proposal.file"],\n        headers={"Proposal.reqNum":"Proposal Number","Proposal.propDate":"Proposal Date","Proposal.file":"File Submitted"},upload="http://127.0.0.1:8000")\n    elif formType == "MeetingMinutes":\n        rows = db().select(db.MeetingMinutes.ALL)\n        for row in rows:\n            row.file = str(URL(\'default\',\'download\',args=row.file))[1:]\n        table = SQLTABLE(rows, columns=["MeetingMinutes.meetDate","MeetingMinutes.file"],\n        headers={"MeetingMinutes.meetDate":"Meeting Date","MeetingMinutes.file":"Submitted File"},upload="http://127.0.0.1:8000")\n    elif formType == "Photo":                          #WILL NEED TO CHANGE TO SHOW PHOTOS!!!!\n        rows = db().select(db.MeetingMinutes.ALL)\n        for row in rows:\n            row.file = str(URL(\'default\',\'download\',args=row.file))[1:]\n        table = SQLTABLE(rows, columns=["MeetingMinutes.meetDate","MeetingMinutes.file"],\n        headers={"MeetingMinutes.meetDate":"Meeting Date","MeetingMinutes.file":"Submitted File"},upload="http://127.0.0.1:8000")\n\n    if len(rows)==0:\n        table = "There are no documents uploaded for this project section as of yet."\n        fullTable = False\n\n    return dict(formType=formType,\n                ccdForm=ccdForm,                \n                rfiForm=rfiForm,\n                submittalForm=submittalForm,\n                proposalRequestForm=proposalRequestForm,\n                proposalForm=proposalForm,\n                meetingMinutesForm=meetingMinutesForm,\n                photoForm=photoForm,\n                myProfileForm=myProfileForm,\n                projects=projects,\n                table= table,\n                image=image,\n                footer=footer,\n                header=header,\n                fullTable=fullTable)\n\ndef getOtherRoles(currentRole):\n    if currentRole == "General":\n        return "Admin"\n    else:\n        return "General"\n\nresponse._vars=response._caller(index)\n'
p7
sS'snapshot'
p8
(dp9
S'exception'
p10
(dp11
S'__hash__'
p12
S"<method-wrapper '__hash__' of exceptions.IndexError object>"
p13
sS'__setattr__'
p14
S"<method-wrapper '__setattr__' of exceptions.IndexError object>"
p15
sS'__reduce_ex__'
p16
S'<built-in method __reduce_ex__ of exceptions.IndexError object>'
p17
sS'__getslice__'
p18
S"<method-wrapper '__getslice__' of exceptions.IndexError object>"
p19
sS'__getitem__'
p20
S"<method-wrapper '__getitem__' of exceptions.IndexError object>"
p21
sS'__setstate__'
p22
S'<built-in method __setstate__ of exceptions.IndexError object>'
p23
sS'__reduce__'
p24
S'<built-in method __reduce__ of exceptions.IndexError object>'
p25
sS'__str__'
p26
S"<method-wrapper '__str__' of exceptions.IndexError object>"
p27
sS'__format__'
p28
S'<built-in method __format__ of exceptions.IndexError object>'
p29
sS'__getattribute__'
p30
S"<method-wrapper '__getattribute__' of exceptions.IndexError object>"
p31
sS'__class__'
p32
S"<type 'exceptions.IndexError'>"
p33
sS'__unicode__'
p34
S'<built-in method __unicode__ of exceptions.IndexError object>'
p35
sS'__delattr__'
p36
S"<method-wrapper '__delattr__' of exceptions.IndexError object>"
p37
sS'__subclasshook__'
p38
S'<built-in method __subclasshook__ of type object>'
p39
sS'__repr__'
p40
S"<method-wrapper '__repr__' of exceptions.IndexError object>"
p41
sS'args'
p42
S"('list index out of range',)"
p43
sS'__dict__'
p44
S'{}'
p45
sS'__sizeof__'
p46
S'<built-in method __sizeof__ of exceptions.IndexError object>'
p47
sS'__doc__'
p48
S"'Sequence index out of range.'"
p49
sS'__init__'
p50
S"<method-wrapper '__init__' of exceptions.IndexError object>"
p51
sS'__new__'
p52
S'<built-in method __new__ of type object>'
p53
ssS'evalue'
p54
S'list index out of range'
p55
sS'request'
p56
ccopy_reg
_reconstructor
p57
(cgluon.html
BEAUTIFY
p58
c__builtin__
object
p59
NtRp60
(dp61
S'attributes'
p62
(dp63
sS'components'
p64
(lp65
g57
(cgluon.html
TABLE
p66
g59
NtRp67
(dp68
g62
(dp69
S'level'
p70
I5
ssS'parent'
p71
Nsg64
(lp72
g57
(cgluon.html
TR
p73
g59
NtRp74
(dp75
g62
(dp76
sg71
g67
sg64
(lp77
g57
(cgluon.html
TD
p78
g59
NtRp79
(dp80
g62
(dp81
S'_style'
p82
S'font-weight:bold;vertical-align:top'
p83
ssg71
g74
sg64
(lp84
S'ajax'
p85
asbag57
(g78
g59
NtRp86
(dp87
g62
(dp88
S'_valign'
p89
S'top'
p90
ssg71
g74
sg64
(lp91
S':'
asbag57
(g78
g59
NtRp92
(dp93
g62
(dp94
sg71
g74
sg64
(lp95
g57
(g58
g59
NtRp96
(dp97
g62
(dp98
g70
I5
ssg71
g92
sg64
(lp99
S'False'
p100
asbasbasbag57
(g73
g59
NtRp101
(dp102
g62
(dp103
sg71
g67
sg64
(lp104
g57
(g78
g59
NtRp105
(dp106
g62
(dp107
g82
g83
ssg71
g101
sg64
(lp108
S'application'
p109
asbag57
(g78
g59
NtRp110
(dp111
g62
(dp112
g89
g90
ssg71
g101
sg64
(lp113
S':'
asbag57
(g78
g59
NtRp114
(dp115
g62
(dp116
sg71
g101
sg64
(lp117
g57
(g58
g59
NtRp118
(dp119
g62
(dp120
g70
I5
ssg71
g114
sg64
(lp121
S'SeniorProject'
p122
asbasbasbag57
(g73
g59
NtRp123
(dp124
g62
(dp125
sg71
g67
sg64
(lp126
g57
(g78
g59
NtRp127
(dp128
g62
(dp129
g82
g83
ssg71
g123
sg64
(lp130
g42
asbag57
(g78
g59
NtRp131
(dp132
g62
(dp133
g89
g90
ssg71
g123
sg64
(lp134
S':'
asbag57
(g78
g59
NtRp135
(dp136
g62
(dp137
sg71
g123
sg64
(lp138
g57
(g58
g59
NtRp139
(dp140
g62
(dp141
g70
I5
ssg71
g135
sg64
(lp142
g57
(g66
g59
NtRp143
(dp144
g62
(dp145
g70
I4
ssg71
Nsg64
(lp146
sbasbasbasbag57
(g73
g59
NtRp147
(dp148
g62
(dp149
sg71
g67
sg64
(lp150
g57
(g78
g59
NtRp151
(dp152
g62
(dp153
g82
g83
ssg71
g147
sg64
(lp154
S'body'
p155
asbag57
(g78
g59
NtRp156
(dp157
g62
(dp158
g89
g90
ssg71
g147
sg64
(lp159
S':'
asbag57
(g78
g59
NtRp160
(dp161
g62
(dp162
sg71
g147
sg64
(lp163
g57
(g58
g59
NtRp164
(dp165
g62
(dp166
g70
I5
ssg71
g160
sg64
(lp167
S'<cStringIO.StringO object at 0x07577800>'
p168
asbasbasbag57
(g73
g59
NtRp169
(dp170
g62
(dp171
sg71
g67
sg64
(lp172
g57
(g78
g59
NtRp173
(dp174
g62
(dp175
g82
g83
ssg71
g169
sg64
(lp176
S'client'
p177
asbag57
(g78
g59
NtRp178
(dp179
g62
(dp180
g89
g90
ssg71
g169
sg64
(lp181
S':'
asbag57
(g78
g59
NtRp182
(dp183
g62
(dp184
sg71
g169
sg64
(lp185
g57
(g58
g59
NtRp186
(dp187
g62
(dp188
g70
I5
ssg71
g182
sg64
(lp189
S'127.0.0.1'
p190
asbasbasbag57
(g73
g59
NtRp191
(dp192
g62
(dp193
sg71
g67
sg64
(lp194
g57
(g78
g59
NtRp195
(dp196
g62
(dp197
g82
g83
ssg71
g191
sg64
(lp198
S'controller'
p199
asbag57
(g78
g59
NtRp200
(dp201
g62
(dp202
g89
g90
ssg71
g191
sg64
(lp203
S':'
asbag57
(g78
g59
NtRp204
(dp205
g62
(dp206
sg71
g191
sg64
(lp207
g57
(g58
g59
NtRp208
(dp209
g62
(dp210
g70
I5
ssg71
g204
sg64
(lp211
S'default'
p212
asbasbasbag57
(g73
g59
NtRp213
(dp214
g62
(dp215
sg71
g67
sg64
(lp216
g57
(g78
g59
NtRp217
(dp218
g62
(dp219
g82
g83
ssg71
g213
sg64
(lp220
S'cookies'
p221
asbag57
(g78
g59
NtRp222
(dp223
g62
(dp224
g89
g90
ssg71
g213
sg64
(lp225
S':'
asbag57
(g78
g59
NtRp226
(dp227
g62
(dp228
sg71
g213
sg64
(lp229
g57
(g58
g59
NtRp230
(dp231
g62
(dp232
g70
I5
ssg71
g226
sg64
(lp233
g57
(g66
g59
NtRp234
(dp235
g62
(dp236
g70
I4
ssg71
Nsg64
(lp237
g57
(g73
g59
NtRp238
(dp239
g62
(dp240
sg71
g234
sg64
(lp241
g57
(g78
g59
NtRp242
(dp243
g62
(dp244
g82
g83
ssg71
g238
sg64
(lp245
S'session_id_admin'
p246
asbag57
(g78
g59
NtRp247
(dp248
g62
(dp249
g89
g90
ssg71
g238
sg64
(lp250
S':'
asbag57
(g78
g59
NtRp251
(dp252
g62
(dp253
sg71
g238
sg64
(lp254
g57
(g58
g59
NtRp255
(dp256
g62
(dp257
g70
I4
ssg71
g251
sg64
(lp258
g57
(g66
g59
NtRp259
(dp260
g62
(dp261
g70
I3
ssg71
Nsg64
(lp262
g57
(g73
g59
NtRp263
(dp264
g62
(dp265
sg71
g259
sg64
(lp266
g57
(g78
g59
NtRp267
(dp268
g62
(dp269
g82
g83
ssg71
g263
sg64
(lp270
S'comment'
p271
asbag57
(g78
g59
NtRp272
(dp273
g62
(dp274
g89
g90
ssg71
g263
sg64
(lp275
S':'
asbag57
(g78
g59
NtRp276
(dp277
g62
(dp278
sg71
g263
sg64
(lp279
g57
(g58
g59
NtRp280
(dp281
g62
(dp282
g70
I3
ssg71
g276
sg64
(lp283
S''
asbasbasbag57
(g73
g59
NtRp284
(dp285
g62
(dp286
sg71
g259
sg64
(lp287
g57
(g78
g59
NtRp288
(dp289
g62
(dp290
g82
g83
ssg71
g284
sg64
(lp291
S'domain'
p292
asbag57
(g78
g59
NtRp293
(dp294
g62
(dp295
g89
g90
ssg71
g284
sg64
(lp296
S':'
asbag57
(g78
g59
NtRp297
(dp298
g62
(dp299
sg71
g284
sg64
(lp300
g57
(g58
g59
NtRp301
(dp302
g62
(dp303
g70
I3
ssg71
g297
sg64
(lp304
S''
asbasbasbag57
(g73
g59
NtRp305
(dp306
g62
(dp307
sg71
g259
sg64
(lp308
g57
(g78
g59
NtRp309
(dp310
g62
(dp311
g82
g83
ssg71
g305
sg64
(lp312
S'expires'
p313
asbag57
(g78
g59
NtRp314
(dp315
g62
(dp316
g89
g90
ssg71
g305
sg64
(lp317
S':'
asbag57
(g78
g59
NtRp318
(dp319
g62
(dp320
sg71
g305
sg64
(lp321
g57
(g58
g59
NtRp322
(dp323
g62
(dp324
g70
I3
ssg71
g318
sg64
(lp325
S''
asbasbasbag57
(g73
g59
NtRp326
(dp327
g62
(dp328
sg71
g259
sg64
(lp329
g57
(g78
g59
NtRp330
(dp331
g62
(dp332
g82
g83
ssg71
g326
sg64
(lp333
S'httponly'
p334
asbag57
(g78
g59
NtRp335
(dp336
g62
(dp337
g89
g90
ssg71
g326
sg64
(lp338
S':'
asbag57
(g78
g59
NtRp339
(dp340
g62
(dp341
sg71
g326
sg64
(lp342
g57
(g58
g59
NtRp343
(dp344
g62
(dp345
g70
I3
ssg71
g339
sg64
(lp346
S''
asbasbasbag57
(g73
g59
NtRp347
(dp348
g62
(dp349
sg71
g259
sg64
(lp350
g57
(g78
g59
NtRp351
(dp352
g62
(dp353
g82
g83
ssg71
g347
sg64
(lp354
S'max-age'
p355
asbag57
(g78
g59
NtRp356
(dp357
g62
(dp358
g89
g90
ssg71
g347
sg64
(lp359
S':'
asbag57
(g78
g59
NtRp360
(dp361
g62
(dp362
sg71
g347
sg64
(lp363
g57
(g58
g59
NtRp364
(dp365
g62
(dp366
g70
I3
ssg71
g360
sg64
(lp367
S''
asbasbasbag57
(g73
g59
NtRp368
(dp369
g62
(dp370
sg71
g259
sg64
(lp371
g57
(g78
g59
NtRp372
(dp373
g62
(dp374
g82
g83
ssg71
g368
sg64
(lp375
S'path'
p376
asbag57
(g78
g59
NtRp377
(dp378
g62
(dp379
g89
g90
ssg71
g368
sg64
(lp380
S':'
asbag57
(g78
g59
NtRp381
(dp382
g62
(dp383
sg71
g368
sg64
(lp384
g57
(g58
g59
NtRp385
(dp386
g62
(dp387
g70
I3
ssg71
g381
sg64
(lp388
S''
asbasbasbag57
(g73
g59
NtRp389
(dp390
g62
(dp391
sg71
g259
sg64
(lp392
g57
(g78
g59
NtRp393
(dp394
g62
(dp395
g82
g83
ssg71
g389
sg64
(lp396
S'secure'
p397
asbag57
(g78
g59
NtRp398
(dp399
g62
(dp400
g89
g90
ssg71
g389
sg64
(lp401
S':'
asbag57
(g78
g59
NtRp402
(dp403
g62
(dp404
sg71
g389
sg64
(lp405
g57
(g58
g59
NtRp406
(dp407
g62
(dp408
g70
I3
ssg71
g402
sg64
(lp409
S''
asbasbasbag57
(g73
g59
NtRp410
(dp411
g62
(dp412
sg71
g259
sg64
(lp413
g57
(g78
g59
NtRp414
(dp415
g62
(dp416
g82
g83
ssg71
g410
sg64
(lp417
S'version'
p418
asbag57
(g78
g59
NtRp419
(dp420
g62
(dp421
g89
g90
ssg71
g410
sg64
(lp422
S':'
asbag57
(g78
g59
NtRp423
(dp424
g62
(dp425
sg71
g410
sg64
(lp426
g57
(g58
g59
NtRp427
(dp428
g62
(dp429
g70
I3
ssg71
g423
sg64
(lp430
S''
asbasbasbasbasbasbasbag57
(g73
g59
NtRp431
(dp432
g62
(dp433
sg71
g234
sg64
(lp434
g57
(g78
g59
NtRp435
(dp436
g62
(dp437
g82
g83
ssg71
g431
sg64
(lp438
S'session_id_seniorproject'
p439
asbag57
(g78
g59
NtRp440
(dp441
g62
(dp442
g89
g90
ssg71
g431
sg64
(lp443
S':'
asbag57
(g78
g59
NtRp444
(dp445
g62
(dp446
sg71
g431
sg64
(lp447
g57
(g58
g59
NtRp448
(dp449
g62
(dp450
g70
I4
ssg71
g444
sg64
(lp451
g57
(g66
g59
NtRp452
(dp453
g62
(dp454
g70
I3
ssg71
Nsg64
(lp455
g57
(g73
g59
NtRp456
(dp457
g62
(dp458
sg71
g452
sg64
(lp459
g57
(g78
g59
NtRp460
(dp461
g62
(dp462
g82
g83
ssg71
g456
sg64
(lp463
g271
asbag57
(g78
g59
NtRp464
(dp465
g62
(dp466
g89
g90
ssg71
g456
sg64
(lp467
S':'
asbag57
(g78
g59
NtRp468
(dp469
g62
(dp470
sg71
g456
sg64
(lp471
g57
(g58
g59
NtRp472
(dp473
g62
(dp474
g70
I3
ssg71
g468
sg64
(lp475
S''
asbasbasbag57
(g73
g59
NtRp476
(dp477
g62
(dp478
sg71
g452
sg64
(lp479
g57
(g78
g59
NtRp480
(dp481
g62
(dp482
g82
g83
ssg71
g476
sg64
(lp483
g292
asbag57
(g78
g59
NtRp484
(dp485
g62
(dp486
g89
g90
ssg71
g476
sg64
(lp487
S':'
asbag57
(g78
g59
NtRp488
(dp489
g62
(dp490
sg71
g476
sg64
(lp491
g57
(g58
g59
NtRp492
(dp493
g62
(dp494
g70
I3
ssg71
g488
sg64
(lp495
S''
asbasbasbag57
(g73
g59
NtRp496
(dp497
g62
(dp498
sg71
g452
sg64
(lp499
g57
(g78
g59
NtRp500
(dp501
g62
(dp502
g82
g83
ssg71
g496
sg64
(lp503
g313
asbag57
(g78
g59
NtRp504
(dp505
g62
(dp506
g89
g90
ssg71
g496
sg64
(lp507
S':'
asbag57
(g78
g59
NtRp508
(dp509
g62
(dp510
sg71
g496
sg64
(lp511
g57
(g58
g59
NtRp512
(dp513
g62
(dp514
g70
I3
ssg71
g508
sg64
(lp515
S''
asbasbasbag57
(g73
g59
NtRp516
(dp517
g62
(dp518
sg71
g452
sg64
(lp519
g57
(g78
g59
NtRp520
(dp521
g62
(dp522
g82
g83
ssg71
g516
sg64
(lp523
g334
asbag57
(g78
g59
NtRp524
(dp525
g62
(dp526
g89
g90
ssg71
g516
sg64
(lp527
S':'
asbag57
(g78
g59
NtRp528
(dp529
g62
(dp530
sg71
g516
sg64
(lp531
g57
(g58
g59
NtRp532
(dp533
g62
(dp534
g70
I3
ssg71
g528
sg64
(lp535
S''
asbasbasbag57
(g73
g59
NtRp536
(dp537
g62
(dp538
sg71
g452
sg64
(lp539
g57
(g78
g59
NtRp540
(dp541
g62
(dp542
g82
g83
ssg71
g536
sg64
(lp543
g355
asbag57
(g78
g59
NtRp544
(dp545
g62
(dp546
g89
g90
ssg71
g536
sg64
(lp547
S':'
asbag57
(g78
g59
NtRp548
(dp549
g62
(dp550
sg71
g536
sg64
(lp551
g57
(g58
g59
NtRp552
(dp553
g62
(dp554
g70
I3
ssg71
g548
sg64
(lp555
S''
asbasbasbag57
(g73
g59
NtRp556
(dp557
g62
(dp558
sg71
g452
sg64
(lp559
g57
(g78
g59
NtRp560
(dp561
g62
(dp562
g82
g83
ssg71
g556
sg64
(lp563
g376
asbag57
(g78
g59
NtRp564
(dp565
g62
(dp566
g89
g90
ssg71
g556
sg64
(lp567
S':'
asbag57
(g78
g59
NtRp568
(dp569
g62
(dp570
sg71
g556
sg64
(lp571
g57
(g58
g59
NtRp572
(dp573
g62
(dp574
g70
I3
ssg71
g568
sg64
(lp575
S''
asbasbasbag57
(g73
g59
NtRp576
(dp577
g62
(dp578
sg71
g452
sg64
(lp579
g57
(g78
g59
NtRp580
(dp581
g62
(dp582
g82
g83
ssg71
g576
sg64
(lp583
g397
asbag57
(g78
g59
NtRp584
(dp585
g62
(dp586
g89
g90
ssg71
g576
sg64
(lp587
S':'
asbag57
(g78
g59
NtRp588
(dp589
g62
(dp590
sg71
g576
sg64
(lp591
g57
(g58
g59
NtRp592
(dp593
g62
(dp594
g70
I3
ssg71
g588
sg64
(lp595
S''
asbasbasbag57
(g73
g59
NtRp596
(dp597
g62
(dp598
sg71
g452
sg64
(lp599
g57
(g78
g59
NtRp600
(dp601
g62
(dp602
g82
g83
ssg71
g596
sg64
(lp603
g418
asbag57
(g78
g59
NtRp604
(dp605
g62
(dp606
g89
g90
ssg71
g596
sg64
(lp607
S':'
asbag57
(g78
g59
NtRp608
(dp609
g62
(dp610
sg71
g596
sg64
(lp611
g57
(g58
g59
NtRp612
(dp613
g62
(dp614
g70
I3
ssg71
g608
sg64
(lp615
S''
asbasbasbasbasbasbasbag57
(g73
g59
NtRp616
(dp617
g62
(dp618
sg71
g234
sg64
(lp619
g57
(g78
g59
NtRp620
(dp621
g62
(dp622
g82
g83
ssg71
g616
sg64
(lp623
S'session_id_welcome'
p624
asbag57
(g78
g59
NtRp625
(dp626
g62
(dp627
g89
g90
ssg71
g616
sg64
(lp628
S':'
asbag57
(g78
g59
NtRp629
(dp630
g62
(dp631
sg71
g616
sg64
(lp632
g57
(g58
g59
NtRp633
(dp634
g62
(dp635
g70
I4
ssg71
g629
sg64
(lp636
g57
(g66
g59
NtRp637
(dp638
g62
(dp639
g70
I3
ssg71
Nsg64
(lp640
g57
(g73
g59
NtRp641
(dp642
g62
(dp643
sg71
g637
sg64
(lp644
g57
(g78
g59
NtRp645
(dp646
g62
(dp647
g82
g83
ssg71
g641
sg64
(lp648
g271
asbag57
(g78
g59
NtRp649
(dp650
g62
(dp651
g89
g90
ssg71
g641
sg64
(lp652
S':'
asbag57
(g78
g59
NtRp653
(dp654
g62
(dp655
sg71
g641
sg64
(lp656
g57
(g58
g59
NtRp657
(dp658
g62
(dp659
g70
I3
ssg71
g653
sg64
(lp660
S''
asbasbasbag57
(g73
g59
NtRp661
(dp662
g62
(dp663
sg71
g637
sg64
(lp664
g57
(g78
g59
NtRp665
(dp666
g62
(dp667
g82
g83
ssg71
g661
sg64
(lp668
g292
asbag57
(g78
g59
NtRp669
(dp670
g62
(dp671
g89
g90
ssg71
g661
sg64
(lp672
S':'
asbag57
(g78
g59
NtRp673
(dp674
g62
(dp675
sg71
g661
sg64
(lp676
g57
(g58
g59
NtRp677
(dp678
g62
(dp679
g70
I3
ssg71
g673
sg64
(lp680
S''
asbasbasbag57
(g73
g59
NtRp681
(dp682
g62
(dp683
sg71
g637
sg64
(lp684
g57
(g78
g59
NtRp685
(dp686
g62
(dp687
g82
g83
ssg71
g681
sg64
(lp688
g313
asbag57
(g78
g59
NtRp689
(dp690
g62
(dp691
g89
g90
ssg71
g681
sg64
(lp692
S':'
asbag57
(g78
g59
NtRp693
(dp694
g62
(dp695
sg71
g681
sg64
(lp696
g57
(g58
g59
NtRp697
(dp698
g62
(dp699
g70
I3
ssg71
g693
sg64
(lp700
S''
asbasbasbag57
(g73
g59
NtRp701
(dp702
g62
(dp703
sg71
g637
sg64
(lp704
g57
(g78
g59
NtRp705
(dp706
g62
(dp707
g82
g83
ssg71
g701
sg64
(lp708
g334
asbag57
(g78
g59
NtRp709
(dp710
g62
(dp711
g89
g90
ssg71
g701
sg64
(lp712
S':'
asbag57
(g78
g59
NtRp713
(dp714
g62
(dp715
sg71
g701
sg64
(lp716
g57
(g58
g59
NtRp717
(dp718
g62
(dp719
g70
I3
ssg71
g713
sg64
(lp720
S''
asbasbasbag57
(g73
g59
NtRp721
(dp722
g62
(dp723
sg71
g637
sg64
(lp724
g57
(g78
g59
NtRp725
(dp726
g62
(dp727
g82
g83
ssg71
g721
sg64
(lp728
g355
asbag57
(g78
g59
NtRp729
(dp730
g62
(dp731
g89
g90
ssg71
g721
sg64
(lp732
S':'
asbag57
(g78
g59
NtRp733
(dp734
g62
(dp735
sg71
g721
sg64
(lp736
g57
(g58
g59
NtRp737
(dp738
g62
(dp739
g70
I3
ssg71
g733
sg64
(lp740
S''
asbasbasbag57
(g73
g59
NtRp741
(dp742
g62
(dp743
sg71
g637
sg64
(lp744
g57
(g78
g59
NtRp745
(dp746
g62
(dp747
g82
g83
ssg71
g741
sg64
(lp748
g376
asbag57
(g78
g59
NtRp749
(dp750
g62
(dp751
g89
g90
ssg71
g741
sg64
(lp752
S':'
asbag57
(g78
g59
NtRp753
(dp754
g62
(dp755
sg71
g741
sg64
(lp756
g57
(g58
g59
NtRp757
(dp758
g62
(dp759
g70
I3
ssg71
g753
sg64
(lp760
S''
asbasbasbag57
(g73
g59
NtRp761
(dp762
g62
(dp763
sg71
g637
sg64
(lp764
g57
(g78
g59
NtRp765
(dp766
g62
(dp767
g82
g83
ssg71
g761
sg64
(lp768
g397
asbag57
(g78
g59
NtRp769
(dp770
g62
(dp771
g89
g90
ssg71
g761
sg64
(lp772
S':'
asbag57
(g78
g59
NtRp773
(dp774
g62
(dp775
sg71
g761
sg64
(lp776
g57
(g58
g59
NtRp777
(dp778
g62
(dp779
g70
I3
ssg71
g773
sg64
(lp780
S''
asbasbasbag57
(g73
g59
NtRp781
(dp782
g62
(dp783
sg71
g637
sg64
(lp784
g57
(g78
g59
NtRp785
(dp786
g62
(dp787
g82
g83
ssg71
g781
sg64
(lp788
g418
asbag57
(g78
g59
NtRp789
(dp790
g62
(dp791
g89
g90
ssg71
g781
sg64
(lp792
S':'
asbag57
(g78
g59
NtRp793
(dp794
g62
(dp795
sg71
g781
sg64
(lp796
g57
(g58
g59
NtRp797
(dp798
g62
(dp799
g70
I3
ssg71
g793
sg64
(lp800
S''
asbasbasbasbasbasbasbasbasbasbasbag57
(g73
g59
NtRp801
(dp802
g62
(dp803
sg71
g67
sg64
(lp804
g57
(g78
g59
NtRp805
(dp806
g62
(dp807
g82
g83
ssg71
g801
sg64
(lp808
S'env'
p809
asbag57
(g78
g59
NtRp810
(dp811
g62
(dp812
g89
g90
ssg71
g801
sg64
(lp813
S':'
asbag57
(g78
g59
NtRp814
(dp815
g62
(dp816
sg71
g801
sg64
(lp817
g57
(g58
g59
NtRp818
(dp819
g62
(dp820
g70
I5
ssg71
g814
sg64
(lp821
g57
(g66
g59
NtRp822
(dp823
g62
(dp824
g70
I4
ssg71
Nsg64
(lp825
g57
(g73
g59
NtRp826
(dp827
g62
(dp828
sg71
g822
sg64
(lp829
g57
(g78
g59
NtRp830
(dp831
g62
(dp832
g82
g83
ssg71
g826
sg64
(lp833
S'app_folders'
p834
asbag57
(g78
g59
NtRp835
(dp836
g62
(dp837
g89
g90
ssg71
g826
sg64
(lp838
S':'
asbag57
(g78
g59
NtRp839
(dp840
g62
(dp841
sg71
g826
sg64
(lp842
g57
(g58
g59
NtRp843
(dp844
g62
(dp845
g70
I4
ssg71
g839
sg64
(lp846
S"set(['C:\\\\Users\\\\Alysse\\\\Documents\\\\GitHub\\\\finholt-senior-project\\\\web2py\\\\applications\\\\admin\\\\', 'C:\\\\Users\\\\Alysse\\\\Documents\\\\GitHub\\\\finholt-senior-project\\\\web2py\\\\applications\\\\welcome\\\\', 'C:\\\\Users\\\\Alysse\\\\Documents\\\\GitHub\\\\finholt-senior-project\\\\web2py\\\\applications\\\\SeniorProject\\\\'])"
p847
asbasbasbag57
(g73
g59
NtRp848
(dp849
g62
(dp850
sg71
g822
sg64
(lp851
g57
(g78
g59
NtRp852
(dp853
g62
(dp854
g82
g83
ssg71
g848
sg64
(lp855
S'applications_parent'
p856
asbag57
(g78
g59
NtRp857
(dp858
g62
(dp859
g89
g90
ssg71
g848
sg64
(lp860
S':'
asbag57
(g78
g59
NtRp861
(dp862
g62
(dp863
sg71
g848
sg64
(lp864
g57
(g58
g59
NtRp865
(dp866
g62
(dp867
g70
I4
ssg71
g861
sg64
(lp868
S'C:\\Users\\Alysse\\Documents\\GitHub\\finholt-senior-project\\web2py'
p869
asbasbasbag57
(g73
g59
NtRp870
(dp871
g62
(dp872
sg71
g822
sg64
(lp873
g57
(g78
g59
NtRp874
(dp875
g62
(dp876
g82
g83
ssg71
g870
sg64
(lp877
S'cmd_args'
p878
asbag57
(g78
g59
NtRp879
(dp880
g62
(dp881
g89
g90
ssg71
g870
sg64
(lp882
S':'
asbag57
(g78
g59
NtRp883
(dp884
g62
(dp885
sg71
g870
sg64
(lp886
g57
(g58
g59
NtRp887
(dp888
g62
(dp889
g70
I4
ssg71
g883
sg64
(lp890
g57
(g66
g59
NtRp891
(dp892
g62
(dp893
g70
I3
ssg71
Nsg64
(lp894
sbasbasbasbag57
(g73
g59
NtRp895
(dp896
g62
(dp897
sg71
g822
sg64
(lp898
g57
(g78
g59
NtRp899
(dp900
g62
(dp901
g82
g83
ssg71
g895
sg64
(lp902
S'cmd_options'
p903
asbag57
(g78
g59
NtRp904
(dp905
g62
(dp906
g89
g90
ssg71
g895
sg64
(lp907
S':'
asbag57
(g78
g59
NtRp908
(dp909
g62
(dp910
sg71
g895
sg64
(lp911
g57
(g58
g59
NtRp912
(dp913
g62
(dp914
g70
I4
ssg71
g908
sg64
(lp915
S"<Values at 0x371f490: {'verbose': False, 'ip': '127.0.0.1', 'shutdown_timeout': 5, 'taskbar': False, 'nocron': False, 'pid_filename': 'httpserver.pid', 'maxthreads': None, 'softcron': False, 'server_name': 'Alysse-PC', 'bpython': False, 'nogui': False, 'port': 8000, 'extcron': False, 'debuglevel': 30, 'test': None, 'folder': 'C:\\\\Users\\\\Alysse\\\\Documents\\\\GitHub\\\\finholt-senior-project\\\\web2py', 'config': '', 'import_models': False, 'winservice': '', 'shell': None, 'run': '', 'log_filename': 'httpserver.log', 'args': [''], 'socket_timeout': 5, 'ssl_ca_certificate': None, 'scheduler': None, 'profiler_filename': None, 'ssl_private_key': '', 'password': '<ask>', 'request_queue_size': 5, 'ssl_certificate': '', 'cronjob': False, 'numthreads': None, 'quiet': False, 'interfaces': None, 'minthreads': None, 'timeout': 10, 'plain': False, 'nobanner': False}>"
p916
asbasbasbag57
(g73
g59
NtRp917
(dp918
g62
(dp919
sg71
g822
sg64
(lp920
g57
(g78
g59
NtRp921
(dp922
g62
(dp923
g82
g83
ssg71
g917
sg64
(lp924
S'db_sessions'
p925
asbag57
(g78
g59
NtRp926
(dp927
g62
(dp928
g89
g90
ssg71
g917
sg64
(lp929
S':'
asbag57
(g78
g59
NtRp930
(dp931
g62
(dp932
sg71
g917
sg64
(lp933
g57
(g58
g59
NtRp934
(dp935
g62
(dp936
g70
I4
ssg71
g930
sg64
(lp937
S'set([])'
p938
asbasbasbag57
(g73
g59
NtRp939
(dp940
g62
(dp941
sg71
g822
sg64
(lp942
g57
(g78
g59
NtRp943
(dp944
g62
(dp945
g82
g83
ssg71
g939
sg64
(lp946
S'debugging'
p947
asbag57
(g78
g59
NtRp948
(dp949
g62
(dp950
g89
g90
ssg71
g939
sg64
(lp951
S':'
asbag57
(g78
g59
NtRp952
(dp953
g62
(dp954
sg71
g939
sg64
(lp955
g57
(g58
g59
NtRp956
(dp957
g62
(dp958
g70
I4
ssg71
g952
sg64
(lp959
g100
asbasbasbag57
(g73
g59
NtRp960
(dp961
g62
(dp962
sg71
g822
sg64
(lp963
g57
(g78
g59
NtRp964
(dp965
g62
(dp966
g82
g83
ssg71
g960
sg64
(lp967
S'gluon_parent'
p968
asbag57
(g78
g59
NtRp969
(dp970
g62
(dp971
g89
g90
ssg71
g960
sg64
(lp972
S':'
asbag57
(g78
g59
NtRp973
(dp974
g62
(dp975
sg71
g960
sg64
(lp976
g57
(g58
g59
NtRp977
(dp978
g62
(dp979
g70
I4
ssg71
g973
sg64
(lp980
S'C:\\Users\\Alysse\\Documents\\GitHub\\finholt-senior-project\\web2py'
p981
asbasbasbag57
(g73
g59
NtRp982
(dp983
g62
(dp984
sg71
g822
sg64
(lp985
g57
(g78
g59
NtRp986
(dp987
g62
(dp988
g82
g83
ssg71
g982
sg64
(lp989
S'http_accept'
p990
asbag57
(g78
g59
NtRp991
(dp992
g62
(dp993
g89
g90
ssg71
g982
sg64
(lp994
S':'
asbag57
(g78
g59
NtRp995
(dp996
g62
(dp997
sg71
g982
sg64
(lp998
g57
(g58
g59
NtRp999
(dp1000
g62
(dp1001
g70
I4
ssg71
g995
sg64
(lp1002
S'text/html,application/xhtml+xml,application/xml;q=0.9,*/*;q=0.8'
p1003
asbasbasbag57
(g73
g59
NtRp1004
(dp1005
g62
(dp1006
sg71
g822
sg64
(lp1007
g57
(g78
g59
NtRp1008
(dp1009
g62
(dp1010
g82
g83
ssg71
g1004
sg64
(lp1011
S'http_accept_charset'
p1012
asbag57
(g78
g59
NtRp1013
(dp1014
g62
(dp1015
g89
g90
ssg71
g1004
sg64
(lp1016
S':'
asbag57
(g78
g59
NtRp1017
(dp1018
g62
(dp1019
sg71
g1004
sg64
(lp1020
g57
(g58
g59
NtRp1021
(dp1022
g62
(dp1023
g70
I4
ssg71
g1017
sg64
(lp1024
S'ISO-8859-1,utf-8;q=0.7,*;q=0.3'
p1025
asbasbasbag57
(g73
g59
NtRp1026
(dp1027
g62
(dp1028
sg71
g822
sg64
(lp1029
g57
(g78
g59
NtRp1030
(dp1031
g62
(dp1032
g82
g83
ssg71
g1026
sg64
(lp1033
S'http_accept_encoding'
p1034
asbag57
(g78
g59
NtRp1035
(dp1036
g62
(dp1037
g89
g90
ssg71
g1026
sg64
(lp1038
S':'
asbag57
(g78
g59
NtRp1039
(dp1040
g62
(dp1041
sg71
g1026
sg64
(lp1042
g57
(g58
g59
NtRp1043
(dp1044
g62
(dp1045
g70
I4
ssg71
g1039
sg64
(lp1046
S'gzip,deflate,sdch'
p1047
asbasbasbag57
(g73
g59
NtRp1048
(dp1049
g62
(dp1050
sg71
g822
sg64
(lp1051
g57
(g78
g59
NtRp1052
(dp1053
g62
(dp1054
g82
g83
ssg71
g1048
sg64
(lp1055
S'http_accept_language'
p1056
asbag57
(g78
g59
NtRp1057
(dp1058
g62
(dp1059
g89
g90
ssg71
g1048
sg64
(lp1060
S':'
asbag57
(g78
g59
NtRp1061
(dp1062
g62
(dp1063
sg71
g1048
sg64
(lp1064
g57
(g58
g59
NtRp1065
(dp1066
g62
(dp1067
g70
I4
ssg71
g1061
sg64
(lp1068
S'en-US,en;q=0.8'
p1069
asbasbasbag57
(g73
g59
NtRp1070
(dp1071
g62
(dp1072
sg71
g822
sg64
(lp1073
g57
(g78
g59
NtRp1074
(dp1075
g62
(dp1076
g82
g83
ssg71
g1070
sg64
(lp1077
S'http_cache_control'
p1078
asbag57
(g78
g59
NtRp1079
(dp1080
g62
(dp1081
g89
g90
ssg71
g1070
sg64
(lp1082
S':'
asbag57
(g78
g59
NtRp1083
(dp1084
g62
(dp1085
sg71
g1070
sg64
(lp1086
g57
(g58
g59
NtRp1087
(dp1088
g62
(dp1089
g70
I4
ssg71
g1083
sg64
(lp1090
S'max-age=0'
p1091
asbasbasbag57
(g73
g59
NtRp1092
(dp1093
g62
(dp1094
sg71
g822
sg64
(lp1095
g57
(g78
g59
NtRp1096
(dp1097
g62
(dp1098
g82
g83
ssg71
g1092
sg64
(lp1099
S'http_connection'
p1100
asbag57
(g78
g59
NtRp1101
(dp1102
g62
(dp1103
g89
g90
ssg71
g1092
sg64
(lp1104
S':'
asbag57
(g78
g59
NtRp1105
(dp1106
g62
(dp1107
sg71
g1092
sg64
(lp1108
g57
(g58
g59
NtRp1109
(dp1110
g62
(dp1111
g70
I4
ssg71
g1105
sg64
(lp1112
S'keep-alive'
p1113
asbasbasbag57
(g73
g59
NtRp1114
(dp1115
g62
(dp1116
sg71
g822
sg64
(lp1117
g57
(g78
g59
NtRp1118
(dp1119
g62
(dp1120
g82
g83
ssg71
g1114
sg64
(lp1121
S'http_cookie'
p1122
asbag57
(g78
g59
NtRp1123
(dp1124
g62
(dp1125
g89
g90
ssg71
g1114
sg64
(lp1126
S':'
asbag57
(g78
g59
NtRp1127
(dp1128
g62
(dp1129
sg71
g1114
sg64
(lp1130
g57
(g58
g59
NtRp1131
(dp1132
g62
(dp1133
g70
I4
ssg71
g1127
sg64
(lp1134
S'session_id_welcome=127.0.0.1-393c7c79-c0be-4e53-be5e-7f6ff9bd0430; session_id_seniorproject=127.0.0.1-9c3f5f36-4d0b-4079-b25e-b59716252f03; session_id_admin=127.0.0.1-76a65c3a-af72-437d-a1ab-edabd8959034'
p1135
asbasbasbag57
(g73
g59
NtRp1136
(dp1137
g62
(dp1138
sg71
g822
sg64
(lp1139
g57
(g78
g59
NtRp1140
(dp1141
g62
(dp1142
g82
g83
ssg71
g1136
sg64
(lp1143
S'http_host'
p1144
asbag57
(g78
g59
NtRp1145
(dp1146
g62
(dp1147
g89
g90
ssg71
g1136
sg64
(lp1148
S':'
asbag57
(g78
g59
NtRp1149
(dp1150
g62
(dp1151
sg71
g1136
sg64
(lp1152
g57
(g58
g59
NtRp1153
(dp1154
g62
(dp1155
g70
I4
ssg71
g1149
sg64
(lp1156
S'127.0.0.1:8000'
p1157
asbasbasbag57
(g73
g59
NtRp1158
(dp1159
g62
(dp1160
sg71
g822
sg64
(lp1161
g57
(g78
g59
NtRp1162
(dp1163
g62
(dp1164
g82
g83
ssg71
g1158
sg64
(lp1165
S'http_user_agent'
p1166
asbag57
(g78
g59
NtRp1167
(dp1168
g62
(dp1169
g89
g90
ssg71
g1158
sg64
(lp1170
S':'
asbag57
(g78
g59
NtRp1171
(dp1172
g62
(dp1173
sg71
g1158
sg64
(lp1174
g57
(g58
g59
NtRp1175
(dp1176
g62
(dp1177
g70
I4
ssg71
g1171
sg64
(lp1178
S'Mozilla/5.0 (Windows NT 6.0) AppleWebKit/537.17 (KHTML, like Gecko) Chrome/24.0.1312.57 Safari/537.17'
p1179
asbasbasbag57
(g73
g59
NtRp1180
(dp1181
g62
(dp1182
sg71
g822
sg64
(lp1183
g57
(g78
g59
NtRp1184
(dp1185
g62
(dp1186
g82
g83
ssg71
g1180
sg64
(lp1187
S'is_jython'
p1188
asbag57
(g78
g59
NtRp1189
(dp1190
g62
(dp1191
g89
g90
ssg71
g1180
sg64
(lp1192
S':'
asbag57
(g78
g59
NtRp1193
(dp1194
g62
(dp1195
sg71
g1180
sg64
(lp1196
g57
(g58
g59
NtRp1197
(dp1198
g62
(dp1199
g70
I4
ssg71
g1193
sg64
(lp1200
g100
asbasbasbag57
(g73
g59
NtRp1201
(dp1202
g62
(dp1203
sg71
g822
sg64
(lp1204
g57
(g78
g59
NtRp1205
(dp1206
g62
(dp1207
g82
g83
ssg71
g1201
sg64
(lp1208
S'is_pypy'
p1209
asbag57
(g78
g59
NtRp1210
(dp1211
g62
(dp1212
g89
g90
ssg71
g1201
sg64
(lp1213
S':'
asbag57
(g78
g59
NtRp1214
(dp1215
g62
(dp1216
sg71
g1201
sg64
(lp1217
g57
(g58
g59
NtRp1218
(dp1219
g62
(dp1220
g70
I4
ssg71
g1214
sg64
(lp1221
g100
asbasbasbag57
(g73
g59
NtRp1222
(dp1223
g62
(dp1224
sg71
g822
sg64
(lp1225
g57
(g78
g59
NtRp1226
(dp1227
g62
(dp1228
g82
g83
ssg71
g1222
sg64
(lp1229
S'path_info'
p1230
asbag57
(g78
g59
NtRp1231
(dp1232
g62
(dp1233
g89
g90
ssg71
g1222
sg64
(lp1234
S':'
asbag57
(g78
g59
NtRp1235
(dp1236
g62
(dp1237
sg71
g1222
sg64
(lp1238
g57
(g58
g59
NtRp1239
(dp1240
g62
(dp1241
g70
I4
ssg71
g1235
sg64
(lp1242
S'/SeniorProject/default/index'
p1243
asbasbasbag57
(g73
g59
NtRp1244
(dp1245
g62
(dp1246
sg71
g822
sg64
(lp1247
g57
(g78
g59
NtRp1248
(dp1249
g62
(dp1250
g82
g83
ssg71
g1244
sg64
(lp1251
S'query_string'
p1252
asbag57
(g78
g59
NtRp1253
(dp1254
g62
(dp1255
g89
g90
ssg71
g1244
sg64
(lp1256
S':'
asbag57
(g78
g59
NtRp1257
(dp1258
g62
(dp1259
sg71
g1244
sg64
(lp1260
g57
(g58
g59
NtRp1261
(dp1262
g62
(dp1263
g70
I4
ssg71
g1257
sg64
(lp1264
S''
asbasbasbag57
(g73
g59
NtRp1265
(dp1266
g62
(dp1267
sg71
g822
sg64
(lp1268
g57
(g78
g59
NtRp1269
(dp1270
g62
(dp1271
g82
g83
ssg71
g1265
sg64
(lp1272
S'remote_addr'
p1273
asbag57
(g78
g59
NtRp1274
(dp1275
g62
(dp1276
g89
g90
ssg71
g1265
sg64
(lp1277
S':'
asbag57
(g78
g59
NtRp1278
(dp1279
g62
(dp1280
sg71
g1265
sg64
(lp1281
g57
(g58
g59
NtRp1282
(dp1283
g62
(dp1284
g70
I4
ssg71
g1278
sg64
(lp1285
g190
asbasbasbag57
(g73
g59
NtRp1286
(dp1287
g62
(dp1288
sg71
g822
sg64
(lp1289
g57
(g78
g59
NtRp1290
(dp1291
g62
(dp1292
g82
g83
ssg71
g1286
sg64
(lp1293
S'remote_port'
p1294
asbag57
(g78
g59
NtRp1295
(dp1296
g62
(dp1297
g89
g90
ssg71
g1286
sg64
(lp1298
S':'
asbag57
(g78
g59
NtRp1299
(dp1300
g62
(dp1301
sg71
g1286
sg64
(lp1302
g57
(g58
g59
NtRp1303
(dp1304
g62
(dp1305
g70
I4
ssg71
g1299
sg64
(lp1306
S'63500'
p1307
asbasbasbag57
(g73
g59
NtRp1308
(dp1309
g62
(dp1310
sg71
g822
sg64
(lp1311
g57
(g78
g59
NtRp1312
(dp1313
g62
(dp1314
g82
g83
ssg71
g1308
sg64
(lp1315
S'request_method'
p1316
asbag57
(g78
g59
NtRp1317
(dp1318
g62
(dp1319
g89
g90
ssg71
g1308
sg64
(lp1320
S':'
asbag57
(g78
g59
NtRp1321
(dp1322
g62
(dp1323
sg71
g1308
sg64
(lp1324
g57
(g58
g59
NtRp1325
(dp1326
g62
(dp1327
g70
I4
ssg71
g1321
sg64
(lp1328
S'GET'
p1329
asbasbasbag57
(g73
g59
NtRp1330
(dp1331
g62
(dp1332
sg71
g822
sg64
(lp1333
g57
(g78
g59
NtRp1334
(dp1335
g62
(dp1336
g82
g83
ssg71
g1330
sg64
(lp1337
S'script_name'
p1338
asbag57
(g78
g59
NtRp1339
(dp1340
g62
(dp1341
g89
g90
ssg71
g1330
sg64
(lp1342
S':'
asbag57
(g78
g59
NtRp1343
(dp1344
g62
(dp1345
sg71
g1330
sg64
(lp1346
g57
(g58
g59
NtRp1347
(dp1348
g62
(dp1349
g70
I4
ssg71
g1343
sg64
(lp1350
S''
asbasbasbag57
(g73
g59
NtRp1351
(dp1352
g62
(dp1353
sg71
g822
sg64
(lp1354
g57
(g78
g59
NtRp1355
(dp1356
g62
(dp1357
g82
g83
ssg71
g1351
sg64
(lp1358
S'server_name'
p1359
asbag57
(g78
g59
NtRp1360
(dp1361
g62
(dp1362
g89
g90
ssg71
g1351
sg64
(lp1363
S':'
asbag57
(g78
g59
NtRp1364
(dp1365
g62
(dp1366
sg71
g1351
sg64
(lp1367
g57
(g58
g59
NtRp1368
(dp1369
g62
(dp1370
g70
I4
ssg71
g1364
sg64
(lp1371
S'Alysse-PC'
p1372
asbasbasbag57
(g73
g59
NtRp1373
(dp1374
g62
(dp1375
sg71
g822
sg64
(lp1376
g57
(g78
g59
NtRp1377
(dp1378
g62
(dp1379
g82
g83
ssg71
g1373
sg64
(lp1380
S'server_port'
p1381
asbag57
(g78
g59
NtRp1382
(dp1383
g62
(dp1384
g89
g90
ssg71
g1373
sg64
(lp1385
S':'
asbag57
(g78
g59
NtRp1386
(dp1387
g62
(dp1388
sg71
g1373
sg64
(lp1389
g57
(g58
g59
NtRp1390
(dp1391
g62
(dp1392
g70
I4
ssg71
g1386
sg64
(lp1393
S'8000'
p1394
asbasbasbag57
(g73
g59
NtRp1395
(dp1396
g62
(dp1397
sg71
g822
sg64
(lp1398
g57
(g78
g59
NtRp1399
(dp1400
g62
(dp1401
g82
g83
ssg71
g1395
sg64
(lp1402
S'server_protocol'
p1403
asbag57
(g78
g59
NtRp1404
(dp1405
g62
(dp1406
g89
g90
ssg71
g1395
sg64
(lp1407
S':'
asbag57
(g78
g59
NtRp1408
(dp1409
g62
(dp1410
sg71
g1395
sg64
(lp1411
g57
(g58
g59
NtRp1412
(dp1413
g62
(dp1414
g70
I4
ssg71
g1408
sg64
(lp1415
S'HTTP/1.1'
p1416
asbasbasbag57
(g73
g59
NtRp1417
(dp1418
g62
(dp1419
sg71
g822
sg64
(lp1420
g57
(g78
g59
NtRp1421
(dp1422
g62
(dp1423
g82
g83
ssg71
g1417
sg64
(lp1424
S'server_software'
p1425
asbag57
(g78
g59
NtRp1426
(dp1427
g62
(dp1428
g89
g90
ssg71
g1417
sg64
(lp1429
S':'
asbag57
(g78
g59
NtRp1430
(dp1431
g62
(dp1432
sg71
g1417
sg64
(lp1433
g57
(g58
g59
NtRp1434
(dp1435
g62
(dp1436
g70
I4
ssg71
g1430
sg64
(lp1437
S'Rocket 1.2.4'
p1438
asbasbasbag57
(g73
g59
NtRp1439
(dp1440
g62
(dp1441
sg71
g822
sg64
(lp1442
g57
(g78
g59
NtRp1443
(dp1444
g62
(dp1445
g82
g83
ssg71
g1439
sg64
(lp1446
S'web2py_crontype'
p1447
asbag57
(g78
g59
NtRp1448
(dp1449
g62
(dp1450
g89
g90
ssg71
g1439
sg64
(lp1451
S':'
asbag57
(g78
g59
NtRp1452
(dp1453
g62
(dp1454
sg71
g1439
sg64
(lp1455
g57
(g58
g59
NtRp1456
(dp1457
g62
(dp1458
g70
I4
ssg71
g1452
sg64
(lp1459
S'hard'
p1460
asbasbasbag57
(g73
g59
NtRp1461
(dp1462
g62
(dp1463
sg71
g822
sg64
(lp1464
g57
(g78
g59
NtRp1465
(dp1466
g62
(dp1467
g82
g83
ssg71
g1461
sg64
(lp1468
S'web2py_path'
p1469
asbag57
(g78
g59
NtRp1470
(dp1471
g62
(dp1472
g89
g90
ssg71
g1461
sg64
(lp1473
S':'
asbag57
(g78
g59
NtRp1474
(dp1475
g62
(dp1476
sg71
g1461
sg64
(lp1477
g57
(g58
g59
NtRp1478
(dp1479
g62
(dp1480
g70
I4
ssg71
g1474
sg64
(lp1481
g869
asbasbasbag57
(g73
g59
NtRp1482
(dp1483
g62
(dp1484
sg71
g822
sg64
(lp1485
g57
(g78
g59
NtRp1486
(dp1487
g62
(dp1488
g82
g83
ssg71
g1482
sg64
(lp1489
S'web2py_version'
p1490
asbag57
(g78
g59
NtRp1491
(dp1492
g62
(dp1493
g89
g90
ssg71
g1482
sg64
(lp1494
S':'
asbag57
(g78
g59
NtRp1495
(dp1496
g62
(dp1497
sg71
g1482
sg64
(lp1498
g57
(g58
g59
NtRp1499
(dp1500
g62
(dp1501
g70
I4
ssg71
g1495
sg64
(lp1502
g57
(g66
g59
NtRp1503
(dp1504
g62
(dp1505
g70
I3
ssg71
Nsg64
(lp1506
g57
(g73
g59
NtRp1507
(dp1508
g62
(dp1509
sg71
g1503
sg64
(lp1510
g57
(g78
g59
NtRp1511
(dp1512
g62
(dp1513
sg71
g1507
sg64
(lp1514
g57
(g58
g59
NtRp1515
(dp1516
g62
(dp1517
g70
I3
ssg71
g1511
sg64
(lp1518
S'1'
asbasbasbag57
(g73
g59
NtRp1519
(dp1520
g62
(dp1521
sg71
g1503
sg64
(lp1522
g57
(g78
g59
NtRp1523
(dp1524
g62
(dp1525
sg71
g1519
sg64
(lp1526
g57
(g58
g59
NtRp1527
(dp1528
g62
(dp1529
g70
I3
ssg71
g1523
sg64
(lp1530
S'99'
p1531
asbasbasbag57
(g73
g59
NtRp1532
(dp1533
g62
(dp1534
sg71
g1503
sg64
(lp1535
g57
(g78
g59
NtRp1536
(dp1537
g62
(dp1538
sg71
g1532
sg64
(lp1539
g57
(g58
g59
NtRp1540
(dp1541
g62
(dp1542
g70
I3
ssg71
g1536
sg64
(lp1543
S'7'
asbasbasbag57
(g73
g59
NtRp1544
(dp1545
g62
(dp1546
sg71
g1503
sg64
(lp1547
g57
(g78
g59
NtRp1548
(dp1549
g62
(dp1550
sg71
g1544
sg64
(lp1551
g57
(g58
g59
NtRp1552
(dp1553
g62
(dp1554
g70
I3
ssg71
g1548
sg64
(lp1555
S'datetime.datetime(2012, 3, 4, 22, 12, 8)'
p1556
asbasbasbag57
(g73
g59
NtRp1557
(dp1558
g62
(dp1559
sg71
g1503
sg64
(lp1560
g57
(g78
g59
NtRp1561
(dp1562
g62
(dp1563
sg71
g1557
sg64
(lp1564
g57
(g58
g59
NtRp1565
(dp1566
g62
(dp1567
g70
I3
ssg71
g1561
sg64
(lp1568
S'stable'
p1569
asbasbasbasbasbasbasbag57
(g73
g59
NtRp1570
(dp1571
g62
(dp1572
sg71
g822
sg64
(lp1573
g57
(g78
g59
NtRp1574
(dp1575
g62
(dp1576
g82
g83
ssg71
g1570
sg64
(lp1577
S'wsgi_errors'
p1578
asbag57
(g78
g59
NtRp1579
(dp1580
g62
(dp1581
g89
g90
ssg71
g1570
sg64
(lp1582
S':'
asbag57
(g78
g59
NtRp1583
(dp1584
g62
(dp1585
sg71
g1570
sg64
(lp1586
g57
(g58
g59
NtRp1587
(dp1588
g62
(dp1589
g70
I4
ssg71
g1583
sg64
(lp1590
S"<open file '<stderr>', mode 'w' at 0x01D150D0>"
p1591
asbasbasbag57
(g73
g59
NtRp1592
(dp1593
g62
(dp1594
sg71
g822
sg64
(lp1595
g57
(g78
g59
NtRp1596
(dp1597
g62
(dp1598
g82
g83
ssg71
g1592
sg64
(lp1599
S'wsgi_file_wrapper'
p1600
asbag57
(g78
g59
NtRp1601
(dp1602
g62
(dp1603
g89
g90
ssg71
g1592
sg64
(lp1604
S':'
asbag57
(g78
g59
NtRp1605
(dp1606
g62
(dp1607
sg71
g1592
sg64
(lp1608
g57
(g58
g59
NtRp1609
(dp1610
g62
(dp1611
g70
I4
ssg71
g1605
sg64
(lp1612
S'<class wsgiref.util.FileWrapper at 0x0363C618>'
p1613
asbasbasbag57
(g73
g59
NtRp1614
(dp1615
g62
(dp1616
sg71
g822
sg64
(lp1617
g57
(g78
g59
NtRp1618
(dp1619
g62
(dp1620
g82
g83
ssg71
g1614
sg64
(lp1621
S'wsgi_input'
p1622
asbag57
(g78
g59
NtRp1623
(dp1624
g62
(dp1625
g89
g90
ssg71
g1614
sg64
(lp1626
S':'
asbag57
(g78
g59
NtRp1627
(dp1628
g62
(dp1629
sg71
g1614
sg64
(lp1630
g57
(g58
g59
NtRp1631
(dp1632
g62
(dp1633
g70
I4
ssg71
g1627
sg64
(lp1634
S'<socket._fileobject object at 0x077772F0>'
p1635
asbasbasbag57
(g73
g59
NtRp1636
(dp1637
g62
(dp1638
sg71
g822
sg64
(lp1639
g57
(g78
g59
NtRp1640
(dp1641
g62
(dp1642
g82
g83
ssg71
g1636
sg64
(lp1643
S'wsgi_multiprocess'
p1644
asbag57
(g78
g59
NtRp1645
(dp1646
g62
(dp1647
g89
g90
ssg71
g1636
sg64
(lp1648
S':'
asbag57
(g78
g59
NtRp1649
(dp1650
g62
(dp1651
sg71
g1636
sg64
(lp1652
g57
(g58
g59
NtRp1653
(dp1654
g62
(dp1655
g70
I4
ssg71
g1649
sg64
(lp1656
g100
asbasbasbag57
(g73
g59
NtRp1657
(dp1658
g62
(dp1659
sg71
g822
sg64
(lp1660
g57
(g78
g59
NtRp1661
(dp1662
g62
(dp1663
g82
g83
ssg71
g1657
sg64
(lp1664
S'wsgi_multithread'
p1665
asbag57
(g78
g59
NtRp1666
(dp1667
g62
(dp1668
g89
g90
ssg71
g1657
sg64
(lp1669
S':'
asbag57
(g78
g59
NtRp1670
(dp1671
g62
(dp1672
sg71
g1657
sg64
(lp1673
g57
(g58
g59
NtRp1674
(dp1675
g62
(dp1676
g70
I4
ssg71
g1670
sg64
(lp1677
S'True'
p1678
asbasbasbag57
(g73
g59
NtRp1679
(dp1680
g62
(dp1681
sg71
g822
sg64
(lp1682
g57
(g78
g59
NtRp1683
(dp1684
g62
(dp1685
g82
g83
ssg71
g1679
sg64
(lp1686
S'wsgi_run_once'
p1687
asbag57
(g78
g59
NtRp1688
(dp1689
g62
(dp1690
g89
g90
ssg71
g1679
sg64
(lp1691
S':'
asbag57
(g78
g59
NtRp1692
(dp1693
g62
(dp1694
sg71
g1679
sg64
(lp1695
g57
(g58
g59
NtRp1696
(dp1697
g62
(dp1698
g70
I4
ssg71
g1692
sg64
(lp1699
g100
asbasbasbag57
(g73
g59
NtRp1700
(dp1701
g62
(dp1702
sg71
g822
sg64
(lp1703
g57
(g78
g59
NtRp1704
(dp1705
g62
(dp1706
g82
g83
ssg71
g1700
sg64
(lp1707
S'wsgi_url_scheme'
p1708
asbag57
(g78
g59
NtRp1709
(dp1710
g62
(dp1711
g89
g90
ssg71
g1700
sg64
(lp1712
S':'
asbag57
(g78
g59
NtRp1713
(dp1714
g62
(dp1715
sg71
g1700
sg64
(lp1716
g57
(g58
g59
NtRp1717
(dp1718
g62
(dp1719
g70
I4
ssg71
g1713
sg64
(lp1720
S'http'
p1721
asbasbasbag57
(g73
g59
NtRp1722
(dp1723
g62
(dp1724
sg71
g822
sg64
(lp1725
g57
(g78
g59
NtRp1726
(dp1727
g62
(dp1728
g82
g83
ssg71
g1722
sg64
(lp1729
S'wsgi_version'
p1730
asbag57
(g78
g59
NtRp1731
(dp1732
g62
(dp1733
g89
g90
ssg71
g1722
sg64
(lp1734
S':'
asbag57
(g78
g59
NtRp1735
(dp1736
g62
(dp1737
sg71
g1722
sg64
(lp1738
g57
(g58
g59
NtRp1739
(dp1740
g62
(dp1741
g70
I4
ssg71
g1735
sg64
(lp1742
g57
(g66
g59
NtRp1743
(dp1744
g62
(dp1745
g70
I3
ssg71
Nsg64
(lp1746
g57
(g73
g59
NtRp1747
(dp1748
g62
(dp1749
sg71
g1743
sg64
(lp1750
g57
(g78
g59
NtRp1751
(dp1752
g62
(dp1753
sg71
g1747
sg64
(lp1754
g57
(g58
g59
NtRp1755
(dp1756
g62
(dp1757
g70
I3
ssg71
g1751
sg64
(lp1758
S'1'
asbasbasbag57
(g73
g59
NtRp1759
(dp1760
g62
(dp1761
sg71
g1743
sg64
(lp1762
g57
(g78
g59
NtRp1763
(dp1764
g62
(dp1765
sg71
g1759
sg64
(lp1766
g57
(g58
g59
NtRp1767
(dp1768
g62
(dp1769
g70
I3
ssg71
g1763
sg64
(lp1770
S'0'
asbasbasbasbasbasbasbasbasbasbasbag57
(g73
g59
NtRp1771
(dp1772
g62
(dp1773
sg71
g67
sg64
(lp1774
g57
(g78
g59
NtRp1775
(dp1776
g62
(dp1777
g82
g83
ssg71
g1771
sg64
(lp1778
S'extension'
p1779
asbag57
(g78
g59
NtRp1780
(dp1781
g62
(dp1782
g89
g90
ssg71
g1771
sg64
(lp1783
S':'
asbag57
(g78
g59
NtRp1784
(dp1785
g62
(dp1786
sg71
g1771
sg64
(lp1787
g57
(g58
g59
NtRp1788
(dp1789
g62
(dp1790
g70
I5
ssg71
g1784
sg64
(lp1791
S'html'
p1792
asbasbasbag57
(g73
g59
NtRp1793
(dp1794
g62
(dp1795
sg71
g67
sg64
(lp1796
g57
(g78
g59
NtRp1797
(dp1798
g62
(dp1799
g82
g83
ssg71
g1793
sg64
(lp1800
S'folder'
p1801
asbag57
(g78
g59
NtRp1802
(dp1803
g62
(dp1804
g89
g90
ssg71
g1793
sg64
(lp1805
S':'
asbag57
(g78
g59
NtRp1806
(dp1807
g62
(dp1808
sg71
g1793
sg64
(lp1809
g57
(g58
g59
NtRp1810
(dp1811
g62
(dp1812
g70
I5
ssg71
g1806
sg64
(lp1813
S'C:\\Users\\Alysse\\Documents\\GitHub\\finholt-senior-project\\web2py\\applications\\SeniorProject\\'
p1814
asbasbasbag57
(g73
g59
NtRp1815
(dp1816
g62
(dp1817
sg71
g67
sg64
(lp1818
g57
(g78
g59
NtRp1819
(dp1820
g62
(dp1821
g82
g83
ssg71
g1815
sg64
(lp1822
S'function'
p1823
asbag57
(g78
g59
NtRp1824
(dp1825
g62
(dp1826
g89
g90
ssg71
g1815
sg64
(lp1827
S':'
asbag57
(g78
g59
NtRp1828
(dp1829
g62
(dp1830
sg71
g1815
sg64
(lp1831
g57
(g58
g59
NtRp1832
(dp1833
g62
(dp1834
g70
I5
ssg71
g1828
sg64
(lp1835
S'index'
p1836
asbasbasbag57
(g73
g59
NtRp1837
(dp1838
g62
(dp1839
sg71
g67
sg64
(lp1840
g57
(g78
g59
NtRp1841
(dp1842
g62
(dp1843
g82
g83
ssg71
g1837
sg64
(lp1844
S'get_vars'
p1845
asbag57
(g78
g59
NtRp1846
(dp1847
g62
(dp1848
g89
g90
ssg71
g1837
sg64
(lp1849
S':'
asbag57
(g78
g59
NtRp1850
(dp1851
g62
(dp1852
sg71
g1837
sg64
(lp1853
g57
(g58
g59
NtRp1854
(dp1855
g62
(dp1856
g70
I5
ssg71
g1850
sg64
(lp1857
g57
(g66
g59
NtRp1858
(dp1859
g62
(dp1860
g70
I4
ssg71
Nsg64
(lp1861
sbasbasbasbag57
(g73
g59
NtRp1862
(dp1863
g62
(dp1864
sg71
g67
sg64
(lp1865
g57
(g78
g59
NtRp1866
(dp1867
g62
(dp1868
g82
g83
ssg71
g1862
sg64
(lp1869
S'global_settings'
p1870
asbag57
(g78
g59
NtRp1871
(dp1872
g62
(dp1873
g89
g90
ssg71
g1862
sg64
(lp1874
S':'
asbag57
(g78
g59
NtRp1875
(dp1876
g62
(dp1877
sg71
g1862
sg64
(lp1878
g57
(g58
g59
NtRp1879
(dp1880
g62
(dp1881
g70
I5
ssg71
g1875
sg64
(lp1882
g57
(g66
g59
NtRp1883
(dp1884
g62
(dp1885
g70
I4
ssg71
Nsg64
(lp1886
g57
(g73
g59
NtRp1887
(dp1888
g62
(dp1889
sg71
g1883
sg64
(lp1890
g57
(g78
g59
NtRp1891
(dp1892
g62
(dp1893
g82
g83
ssg71
g1887
sg64
(lp1894
g834
asbag57
(g78
g59
NtRp1895
(dp1896
g62
(dp1897
g89
g90
ssg71
g1887
sg64
(lp1898
S':'
asbag57
(g78
g59
NtRp1899
(dp1900
g62
(dp1901
sg71
g1887
sg64
(lp1902
g57
(g58
g59
NtRp1903
(dp1904
g62
(dp1905
g70
I4
ssg71
g1899
sg64
(lp1906
S"set(['C:\\\\Users\\\\Alysse\\\\Documents\\\\GitHub\\\\finholt-senior-project\\\\web2py\\\\applications\\\\admin\\\\', 'C:\\\\Users\\\\Alysse\\\\Documents\\\\GitHub\\\\finholt-senior-project\\\\web2py\\\\applications\\\\welcome\\\\', 'C:\\\\Users\\\\Alysse\\\\Documents\\\\GitHub\\\\finholt-senior-project\\\\web2py\\\\applications\\\\SeniorProject\\\\'])"
p1907
asbasbasbag57
(g73
g59
NtRp1908
(dp1909
g62
(dp1910
sg71
g1883
sg64
(lp1911
g57
(g78
g59
NtRp1912
(dp1913
g62
(dp1914
g82
g83
ssg71
g1908
sg64
(lp1915
g856
asbag57
(g78
g59
NtRp1916
(dp1917
g62
(dp1918
g89
g90
ssg71
g1908
sg64
(lp1919
S':'
asbag57
(g78
g59
NtRp1920
(dp1921
g62
(dp1922
sg71
g1908
sg64
(lp1923
g57
(g58
g59
NtRp1924
(dp1925
g62
(dp1926
g70
I4
ssg71
g1920
sg64
(lp1927
g869
asbasbasbag57
(g73
g59
NtRp1928
(dp1929
g62
(dp1930
sg71
g1883
sg64
(lp1931
g57
(g78
g59
NtRp1932
(dp1933
g62
(dp1934
g82
g83
ssg71
g1928
sg64
(lp1935
g878
asbag57
(g78
g59
NtRp1936
(dp1937
g62
(dp1938
g89
g90
ssg71
g1928
sg64
(lp1939
S':'
asbag57
(g78
g59
NtRp1940
(dp1941
g62
(dp1942
sg71
g1928
sg64
(lp1943
g57
(g58
g59
NtRp1944
(dp1945
g62
(dp1946
g70
I4
ssg71
g1940
sg64
(lp1947
g57
(g66
g59
NtRp1948
(dp1949
g62
(dp1950
g70
I3
ssg71
Nsg64
(lp1951
sbasbasbasbag57
(g73
g59
NtRp1952
(dp1953
g62
(dp1954
sg71
g1883
sg64
(lp1955
g57
(g78
g59
NtRp1956
(dp1957
g62
(dp1958
g82
g83
ssg71
g1952
sg64
(lp1959
g903
asbag57
(g78
g59
NtRp1960
(dp1961
g62
(dp1962
g89
g90
ssg71
g1952
sg64
(lp1963
S':'
asbag57
(g78
g59
NtRp1964
(dp1965
g62
(dp1966
sg71
g1952
sg64
(lp1967
g57
(g58
g59
NtRp1968
(dp1969
g62
(dp1970
g70
I4
ssg71
g1964
sg64
(lp1971
S"<Values at 0x371f490: {'verbose': False, 'ip': '127.0.0.1', 'shutdown_timeout': 5, 'taskbar': False, 'nocron': False, 'pid_filename': 'httpserver.pid', 'maxthreads': None, 'softcron': False, 'server_name': 'Alysse-PC', 'bpython': False, 'nogui': False, 'port': 8000, 'extcron': False, 'debuglevel': 30, 'test': None, 'folder': 'C:\\\\Users\\\\Alysse\\\\Documents\\\\GitHub\\\\finholt-senior-project\\\\web2py', 'config': '', 'import_models': False, 'winservice': '', 'shell': None, 'run': '', 'log_filename': 'httpserver.log', 'args': [''], 'socket_timeout': 5, 'ssl_ca_certificate': None, 'scheduler': None, 'profiler_filename': None, 'ssl_private_key': '', 'password': '<ask>', 'request_queue_size': 5, 'ssl_certificate': '', 'cronjob': False, 'numthreads': None, 'quiet': False, 'interfaces': None, 'minthreads': None, 'timeout': 10, 'plain': False, 'nobanner': False}>"
p1972
asbasbasbag57
(g73
g59
NtRp1973
(dp1974
g62
(dp1975
sg71
g1883
sg64
(lp1976
g57
(g78
g59
NtRp1977
(dp1978
g62
(dp1979
g82
g83
ssg71
g1973
sg64
(lp1980
g925
asbag57
(g78
g59
NtRp1981
(dp1982
g62
(dp1983
g89
g90
ssg71
g1973
sg64
(lp1984
S':'
asbag57
(g78
g59
NtRp1985
(dp1986
g62
(dp1987
sg71
g1973
sg64
(lp1988
g57
(g58
g59
NtRp1989
(dp1990
g62
(dp1991
g70
I4
ssg71
g1985
sg64
(lp1992
S'set([])'
p1993
asbasbasbag57
(g73
g59
NtRp1994
(dp1995
g62
(dp1996
sg71
g1883
sg64
(lp1997
g57
(g78
g59
NtRp1998
(dp1999
g62
(dp2000
g82
g83
ssg71
g1994
sg64
(lp2001
g947
asbag57
(g78
g59
NtRp2002
(dp2003
g62
(dp2004
g89
g90
ssg71
g1994
sg64
(lp2005
S':'
asbag57
(g78
g59
NtRp2006
(dp2007
g62
(dp2008
sg71
g1994
sg64
(lp2009
g57
(g58
g59
NtRp2010
(dp2011
g62
(dp2012
g70
I4
ssg71
g2006
sg64
(lp2013
g100
asbasbasbag57
(g73
g59
NtRp2014
(dp2015
g62
(dp2016
sg71
g1883
sg64
(lp2017
g57
(g78
g59
NtRp2018
(dp2019
g62
(dp2020
g82
g83
ssg71
g2014
sg64
(lp2021
g968
asbag57
(g78
g59
NtRp2022
(dp2023
g62
(dp2024
g89
g90
ssg71
g2014
sg64
(lp2025
S':'
asbag57
(g78
g59
NtRp2026
(dp2027
g62
(dp2028
sg71
g2014
sg64
(lp2029
g57
(g58
g59
NtRp2030
(dp2031
g62
(dp2032
g70
I4
ssg71
g2026
sg64
(lp2033
g981
asbasbasbag57
(g73
g59
NtRp2034
(dp2035
g62
(dp2036
sg71
g1883
sg64
(lp2037
g57
(g78
g59
NtRp2038
(dp2039
g62
(dp2040
g82
g83
ssg71
g2034
sg64
(lp2041
g1188
asbag57
(g78
g59
NtRp2042
(dp2043
g62
(dp2044
g89
g90
ssg71
g2034
sg64
(lp2045
S':'
asbag57
(g78
g59
NtRp2046
(dp2047
g62
(dp2048
sg71
g2034
sg64
(lp2049
g57
(g58
g59
NtRp2050
(dp2051
g62
(dp2052
g70
I4
ssg71
g2046
sg64
(lp2053
g100
asbasbasbag57
(g73
g59
NtRp2054
(dp2055
g62
(dp2056
sg71
g1883
sg64
(lp2057
g57
(g78
g59
NtRp2058
(dp2059
g62
(dp2060
g82
g83
ssg71
g2054
sg64
(lp2061
g1209
asbag57
(g78
g59
NtRp2062
(dp2063
g62
(dp2064
g89
g90
ssg71
g2054
sg64
(lp2065
S':'
asbag57
(g78
g59
NtRp2066
(dp2067
g62
(dp2068
sg71
g2054
sg64
(lp2069
g57
(g58
g59
NtRp2070
(dp2071
g62
(dp2072
g70
I4
ssg71
g2066
sg64
(lp2073
g100
asbasbasbag57
(g73
g59
NtRp2074
(dp2075
g62
(dp2076
sg71
g1883
sg64
(lp2077
g57
(g78
g59
NtRp2078
(dp2079
g62
(dp2080
g82
g83
ssg71
g2074
sg64
(lp2081
g1447
asbag57
(g78
g59
NtRp2082
(dp2083
g62
(dp2084
g89
g90
ssg71
g2074
sg64
(lp2085
S':'
asbag57
(g78
g59
NtRp2086
(dp2087
g62
(dp2088
sg71
g2074
sg64
(lp2089
g57
(g58
g59
NtRp2090
(dp2091
g62
(dp2092
g70
I4
ssg71
g2086
sg64
(lp2093
g1460
asbasbasbag57
(g73
g59
NtRp2094
(dp2095
g62
(dp2096
sg71
g1883
sg64
(lp2097
g57
(g78
g59
NtRp2098
(dp2099
g62
(dp2100
g82
g83
ssg71
g2094
sg64
(lp2101
g1490
asbag57
(g78
g59
NtRp2102
(dp2103
g62
(dp2104
g89
g90
ssg71
g2094
sg64
(lp2105
S':'
asbag57
(g78
g59
NtRp2106
(dp2107
g62
(dp2108
sg71
g2094
sg64
(lp2109
g57
(g58
g59
NtRp2110
(dp2111
g62
(dp2112
g70
I4
ssg71
g2106
sg64
(lp2113
g57
(g66
g59
NtRp2114
(dp2115
g62
(dp2116
g70
I3
ssg71
Nsg64
(lp2117
g57
(g73
g59
NtRp2118
(dp2119
g62
(dp2120
sg71
g2114
sg64
(lp2121
g57
(g78
g59
NtRp2122
(dp2123
g62
(dp2124
sg71
g2118
sg64
(lp2125
g57
(g58
g59
NtRp2126
(dp2127
g62
(dp2128
g70
I3
ssg71
g2122
sg64
(lp2129
S'1'
asbasbasbag57
(g73
g59
NtRp2130
(dp2131
g62
(dp2132
sg71
g2114
sg64
(lp2133
g57
(g78
g59
NtRp2134
(dp2135
g62
(dp2136
sg71
g2130
sg64
(lp2137
g57
(g58
g59
NtRp2138
(dp2139
g62
(dp2140
g70
I3
ssg71
g2134
sg64
(lp2141
S'99'
p2142
asbasbasbag57
(g73
g59
NtRp2143
(dp2144
g62
(dp2145
sg71
g2114
sg64
(lp2146
g57
(g78
g59
NtRp2147
(dp2148
g62
(dp2149
sg71
g2143
sg64
(lp2150
g57
(g58
g59
NtRp2151
(dp2152
g62
(dp2153
g70
I3
ssg71
g2147
sg64
(lp2154
S'7'
asbasbasbag57
(g73
g59
NtRp2155
(dp2156
g62
(dp2157
sg71
g2114
sg64
(lp2158
g57
(g78
g59
NtRp2159
(dp2160
g62
(dp2161
sg71
g2155
sg64
(lp2162
g57
(g58
g59
NtRp2163
(dp2164
g62
(dp2165
g70
I3
ssg71
g2159
sg64
(lp2166
S'datetime.datetime(2012, 3, 4, 22, 12, 8)'
p2167
asbasbasbag57
(g73
g59
NtRp2168
(dp2169
g62
(dp2170
sg71
g2114
sg64
(lp2171
g57
(g78
g59
NtRp2172
(dp2173
g62
(dp2174
sg71
g2168
sg64
(lp2175
g57
(g58
g59
NtRp2176
(dp2177
g62
(dp2178
g70
I3
ssg71
g2172
sg64
(lp2179
g1569
asbasbasbasbasbasbasbasbasbasbasbag57
(g73
g59
NtRp2180
(dp2181
g62
(dp2182
sg71
g67
sg64
(lp2183
g57
(g78
g59
NtRp2184
(dp2185
g62
(dp2186
g82
g83
ssg71
g2180
sg64
(lp2187
S'is_https'
p2188
asbag57
(g78
g59
NtRp2189
(dp2190
g62
(dp2191
g89
g90
ssg71
g2180
sg64
(lp2192
S':'
asbag57
(g78
g59
NtRp2193
(dp2194
g62
(dp2195
sg71
g2180
sg64
(lp2196
g57
(g58
g59
NtRp2197
(dp2198
g62
(dp2199
g70
I5
ssg71
g2193
sg64
(lp2200
g100
asbasbasbag57
(g73
g59
NtRp2201
(dp2202
g62
(dp2203
sg71
g67
sg64
(lp2204
g57
(g78
g59
NtRp2205
(dp2206
g62
(dp2207
g82
g83
ssg71
g2201
sg64
(lp2208
S'is_local'
p2209
asbag57
(g78
g59
NtRp2210
(dp2211
g62
(dp2212
g89
g90
ssg71
g2201
sg64
(lp2213
S':'
asbag57
(g78
g59
NtRp2214
(dp2215
g62
(dp2216
sg71
g2201
sg64
(lp2217
g57
(g58
g59
NtRp2218
(dp2219
g62
(dp2220
g70
I5
ssg71
g2214
sg64
(lp2221
g1678
asbasbasbag57
(g73
g59
NtRp2222
(dp2223
g62
(dp2224
sg71
g67
sg64
(lp2225
g57
(g78
g59
NtRp2226
(dp2227
g62
(dp2228
g82
g83
ssg71
g2222
sg64
(lp2229
S'is_restful'
p2230
asbag57
(g78
g59
NtRp2231
(dp2232
g62
(dp2233
g89
g90
ssg71
g2222
sg64
(lp2234
S':'
asbag57
(g78
g59
NtRp2235
(dp2236
g62
(dp2237
sg71
g2222
sg64
(lp2238
g57
(g58
g59
NtRp2239
(dp2240
g62
(dp2241
g70
I5
ssg71
g2235
sg64
(lp2242
g100
asbasbasbag57
(g73
g59
NtRp2243
(dp2244
g62
(dp2245
sg71
g67
sg64
(lp2246
g57
(g78
g59
NtRp2247
(dp2248
g62
(dp2249
g82
g83
ssg71
g2243
sg64
(lp2250
S'now'
p2251
asbag57
(g78
g59
NtRp2252
(dp2253
g62
(dp2254
g89
g90
ssg71
g2243
sg64
(lp2255
S':'
asbag57
(g78
g59
NtRp2256
(dp2257
g62
(dp2258
sg71
g2243
sg64
(lp2259
g57
(g58
g59
NtRp2260
(dp2261
g62
(dp2262
g70
I5
ssg71
g2256
sg64
(lp2263
S'datetime.datetime(2013, 2, 8, 13, 47, 55, 968000)'
p2264
asbasbasbag57
(g73
g59
NtRp2265
(dp2266
g62
(dp2267
sg71
g67
sg64
(lp2268
g57
(g78
g59
NtRp2269
(dp2270
g62
(dp2271
g82
g83
ssg71
g2265
sg64
(lp2272
S'post_vars'
p2273
asbag57
(g78
g59
NtRp2274
(dp2275
g62
(dp2276
g89
g90
ssg71
g2265
sg64
(lp2277
S':'
asbag57
(g78
g59
NtRp2278
(dp2279
g62
(dp2280
sg71
g2265
sg64
(lp2281
g57
(g58
g59
NtRp2282
(dp2283
g62
(dp2284
g70
I5
ssg71
g2278
sg64
(lp2285
g57
(g66
g59
NtRp2286
(dp2287
g62
(dp2288
g70
I4
ssg71
Nsg64
(lp2289
sbasbasbasbag57
(g73
g59
NtRp2290
(dp2291
g62
(dp2292
sg71
g67
sg64
(lp2293
g57
(g78
g59
NtRp2294
(dp2295
g62
(dp2296
g82
g83
ssg71
g2290
sg64
(lp2297
S'url'
p2298
asbag57
(g78
g59
NtRp2299
(dp2300
g62
(dp2301
g89
g90
ssg71
g2290
sg64
(lp2302
S':'
asbag57
(g78
g59
NtRp2303
(dp2304
g62
(dp2305
sg71
g2290
sg64
(lp2306
g57
(g58
g59
NtRp2307
(dp2308
g62
(dp2309
g70
I5
ssg71
g2303
sg64
(lp2310
S'/SeniorProject/default/index'
p2311
asbasbasbag57
(g73
g59
NtRp2312
(dp2313
g62
(dp2314
sg71
g67
sg64
(lp2315
g57
(g78
g59
NtRp2316
(dp2317
g62
(dp2318
g82
g83
ssg71
g2312
sg64
(lp2319
S'utcnow'
p2320
asbag57
(g78
g59
NtRp2321
(dp2322
g62
(dp2323
g89
g90
ssg71
g2312
sg64
(lp2324
S':'
asbag57
(g78
g59
NtRp2325
(dp2326
g62
(dp2327
sg71
g2312
sg64
(lp2328
g57
(g58
g59
NtRp2329
(dp2330
g62
(dp2331
g70
I5
ssg71
g2325
sg64
(lp2332
S'datetime.datetime(2013, 2, 8, 19, 47, 55, 968000)'
p2333
asbasbasbag57
(g73
g59
NtRp2334
(dp2335
g62
(dp2336
sg71
g67
sg64
(lp2337
g57
(g78
g59
NtRp2338
(dp2339
g62
(dp2340
g82
g83
ssg71
g2334
sg64
(lp2341
S'uuid'
p2342
asbag57
(g78
g59
NtRp2343
(dp2344
g62
(dp2345
g89
g90
ssg71
g2334
sg64
(lp2346
S':'
asbag57
(g78
g59
NtRp2347
(dp2348
g62
(dp2349
sg71
g2334
sg64
(lp2350
g57
(g58
g59
NtRp2351
(dp2352
g62
(dp2353
g70
I5
ssg71
g2347
sg64
(lp2354
S'SeniorProject/127.0.0.1.2013-02-08.13-47-55.e769fbbe-ce7f-42ce-b039-03a0e57293ab'
p2355
asbasbasbag57
(g73
g59
NtRp2356
(dp2357
g62
(dp2358
sg71
g67
sg64
(lp2359
g57
(g78
g59
NtRp2360
(dp2361
g62
(dp2362
g82
g83
ssg71
g2356
sg64
(lp2363
S'vars'
p2364
asbag57
(g78
g59
NtRp2365
(dp2366
g62
(dp2367
g89
g90
ssg71
g2356
sg64
(lp2368
S':'
asbag57
(g78
g59
NtRp2369
(dp2370
g62
(dp2371
sg71
g2356
sg64
(lp2372
g57
(g58
g59
NtRp2373
(dp2374
g62
(dp2375
g70
I5
ssg71
g2369
sg64
(lp2376
g57
(g66
g59
NtRp2377
(dp2378
g62
(dp2379
g70
I4
ssg71
Nsg64
(lp2380
sbasbasbasbag57
(g73
g59
NtRp2381
(dp2382
g62
(dp2383
sg71
g67
sg64
(lp2384
g57
(g78
g59
NtRp2385
(dp2386
g62
(dp2387
g82
g83
ssg71
g2381
sg64
(lp2388
S'wsgi'
p2389
asbag57
(g78
g59
NtRp2390
(dp2391
g62
(dp2392
g89
g90
ssg71
g2381
sg64
(lp2393
S':'
asbag57
(g78
g59
NtRp2394
(dp2395
g62
(dp2396
sg71
g2381
sg64
(lp2397
g57
(g58
g59
NtRp2398
(dp2399
g62
(dp2400
g70
I5
ssg71
g2394
sg64
(lp2401
g57
(g66
g59
NtRp2402
(dp2403
g62
(dp2404
g70
I4
ssg71
Nsg64
(lp2405
g57
(g73
g59
NtRp2406
(dp2407
g62
(dp2408
sg71
g2402
sg64
(lp2409
g57
(g78
g59
NtRp2410
(dp2411
g62
(dp2412
g82
g83
ssg71
g2406
sg64
(lp2413
S'environ'
p2414
asbag57
(g78
g59
NtRp2415
(dp2416
g62
(dp2417
g89
g90
ssg71
g2406
sg64
(lp2418
S':'
asbag57
(g78
g59
NtRp2419
(dp2420
g62
(dp2421
sg71
g2406
sg64
(lp2422
g57
(g58
g59
NtRp2423
(dp2424
g62
(dp2425
g70
I4
ssg71
g2419
sg64
(lp2426
g57
(g66
g59
NtRp2427
(dp2428
g62
(dp2429
g70
I3
ssg71
Nsg64
(lp2430
g57
(g73
g59
NtRp2431
(dp2432
g62
(dp2433
sg71
g2427
sg64
(lp2434
g57
(g78
g59
NtRp2435
(dp2436
g62
(dp2437
g82
g83
ssg71
g2431
sg64
(lp2438
S'HTTP_ACCEPT'
p2439
asbag57
(g78
g59
NtRp2440
(dp2441
g62
(dp2442
g89
g90
ssg71
g2431
sg64
(lp2443
S':'
asbag57
(g78
g59
NtRp2444
(dp2445
g62
(dp2446
sg71
g2431
sg64
(lp2447
g57
(g58
g59
NtRp2448
(dp2449
g62
(dp2450
g70
I3
ssg71
g2444
sg64
(lp2451
g1003
asbasbasbag57
(g73
g59
NtRp2452
(dp2453
g62
(dp2454
sg71
g2427
sg64
(lp2455
g57
(g78
g59
NtRp2456
(dp2457
g62
(dp2458
g82
g83
ssg71
g2452
sg64
(lp2459
S'HTTP_ACCEPT_CHARSET'
p2460
asbag57
(g78
g59
NtRp2461
(dp2462
g62
(dp2463
g89
g90
ssg71
g2452
sg64
(lp2464
S':'
asbag57
(g78
g59
NtRp2465
(dp2466
g62
(dp2467
sg71
g2452
sg64
(lp2468
g57
(g58
g59
NtRp2469
(dp2470
g62
(dp2471
g70
I3
ssg71
g2465
sg64
(lp2472
g1025
asbasbasbag57
(g73
g59
NtRp2473
(dp2474
g62
(dp2475
sg71
g2427
sg64
(lp2476
g57
(g78
g59
NtRp2477
(dp2478
g62
(dp2479
g82
g83
ssg71
g2473
sg64
(lp2480
S'HTTP_ACCEPT_ENCODING'
p2481
asbag57
(g78
g59
NtRp2482
(dp2483
g62
(dp2484
g89
g90
ssg71
g2473
sg64
(lp2485
S':'
asbag57
(g78
g59
NtRp2486
(dp2487
g62
(dp2488
sg71
g2473
sg64
(lp2489
g57
(g58
g59
NtRp2490
(dp2491
g62
(dp2492
g70
I3
ssg71
g2486
sg64
(lp2493
g1047
asbasbasbag57
(g73
g59
NtRp2494
(dp2495
g62
(dp2496
sg71
g2427
sg64
(lp2497
g57
(g78
g59
NtRp2498
(dp2499
g62
(dp2500
g82
g83
ssg71
g2494
sg64
(lp2501
S'HTTP_ACCEPT_LANGUAGE'
p2502
asbag57
(g78
g59
NtRp2503
(dp2504
g62
(dp2505
g89
g90
ssg71
g2494
sg64
(lp2506
S':'
asbag57
(g78
g59
NtRp2507
(dp2508
g62
(dp2509
sg71
g2494
sg64
(lp2510
g57
(g58
g59
NtRp2511
(dp2512
g62
(dp2513
g70
I3
ssg71
g2507
sg64
(lp2514
g1069
asbasbasbag57
(g73
g59
NtRp2515
(dp2516
g62
(dp2517
sg71
g2427
sg64
(lp2518
g57
(g78
g59
NtRp2519
(dp2520
g62
(dp2521
g82
g83
ssg71
g2515
sg64
(lp2522
S'HTTP_CACHE_CONTROL'
p2523
asbag57
(g78
g59
NtRp2524
(dp2525
g62
(dp2526
g89
g90
ssg71
g2515
sg64
(lp2527
S':'
asbag57
(g78
g59
NtRp2528
(dp2529
g62
(dp2530
sg71
g2515
sg64
(lp2531
g57
(g58
g59
NtRp2532
(dp2533
g62
(dp2534
g70
I3
ssg71
g2528
sg64
(lp2535
g1091
asbasbasbag57
(g73
g59
NtRp2536
(dp2537
g62
(dp2538
sg71
g2427
sg64
(lp2539
g57
(g78
g59
NtRp2540
(dp2541
g62
(dp2542
g82
g83
ssg71
g2536
sg64
(lp2543
S'HTTP_CONNECTION'
p2544
asbag57
(g78
g59
NtRp2545
(dp2546
g62
(dp2547
g89
g90
ssg71
g2536
sg64
(lp2548
S':'
asbag57
(g78
g59
NtRp2549
(dp2550
g62
(dp2551
sg71
g2536
sg64
(lp2552
g57
(g58
g59
NtRp2553
(dp2554
g62
(dp2555
g70
I3
ssg71
g2549
sg64
(lp2556
g1113
asbasbasbag57
(g73
g59
NtRp2557
(dp2558
g62
(dp2559
sg71
g2427
sg64
(lp2560
g57
(g78
g59
NtRp2561
(dp2562
g62
(dp2563
g82
g83
ssg71
g2557
sg64
(lp2564
S'HTTP_COOKIE'
p2565
asbag57
(g78
g59
NtRp2566
(dp2567
g62
(dp2568
g89
g90
ssg71
g2557
sg64
(lp2569
S':'
asbag57
(g78
g59
NtRp2570
(dp2571
g62
(dp2572
sg71
g2557
sg64
(lp2573
g57
(g58
g59
NtRp2574
(dp2575
g62
(dp2576
g70
I3
ssg71
g2570
sg64
(lp2577
g1135
asbasbasbag57
(g73
g59
NtRp2578
(dp2579
g62
(dp2580
sg71
g2427
sg64
(lp2581
g57
(g78
g59
NtRp2582
(dp2583
g62
(dp2584
g82
g83
ssg71
g2578
sg64
(lp2585
S'HTTP_HOST'
p2586
asbag57
(g78
g59
NtRp2587
(dp2588
g62
(dp2589
g89
g90
ssg71
g2578
sg64
(lp2590
S':'
asbag57
(g78
g59
NtRp2591
(dp2592
g62
(dp2593
sg71
g2578
sg64
(lp2594
g57
(g58
g59
NtRp2595
(dp2596
g62
(dp2597
g70
I3
ssg71
g2591
sg64
(lp2598
g1157
asbasbasbag57
(g73
g59
NtRp2599
(dp2600
g62
(dp2601
sg71
g2427
sg64
(lp2602
g57
(g78
g59
NtRp2603
(dp2604
g62
(dp2605
g82
g83
ssg71
g2599
sg64
(lp2606
S'HTTP_USER_AGENT'
p2607
asbag57
(g78
g59
NtRp2608
(dp2609
g62
(dp2610
g89
g90
ssg71
g2599
sg64
(lp2611
S':'
asbag57
(g78
g59
NtRp2612
(dp2613
g62
(dp2614
sg71
g2599
sg64
(lp2615
g57
(g58
g59
NtRp2616
(dp2617
g62
(dp2618
g70
I3
ssg71
g2612
sg64
(lp2619
g1179
asbasbasbag57
(g73
g59
NtRp2620
(dp2621
g62
(dp2622
sg71
g2427
sg64
(lp2623
g57
(g78
g59
NtRp2624
(dp2625
g62
(dp2626
g82
g83
ssg71
g2620
sg64
(lp2627
S'PATH_INFO'
p2628
asbag57
(g78
g59
NtRp2629
(dp2630
g62
(dp2631
g89
g90
ssg71
g2620
sg64
(lp2632
S':'
asbag57
(g78
g59
NtRp2633
(dp2634
g62
(dp2635
sg71
g2620
sg64
(lp2636
g57
(g58
g59
NtRp2637
(dp2638
g62
(dp2639
g70
I3
ssg71
g2633
sg64
(lp2640
g1243
asbasbasbag57
(g73
g59
NtRp2641
(dp2642
g62
(dp2643
sg71
g2427
sg64
(lp2644
g57
(g78
g59
NtRp2645
(dp2646
g62
(dp2647
g82
g83
ssg71
g2641
sg64
(lp2648
S'QUERY_STRING'
p2649
asbag57
(g78
g59
NtRp2650
(dp2651
g62
(dp2652
g89
g90
ssg71
g2641
sg64
(lp2653
S':'
asbag57
(g78
g59
NtRp2654
(dp2655
g62
(dp2656
sg71
g2641
sg64
(lp2657
g57
(g58
g59
NtRp2658
(dp2659
g62
(dp2660
g70
I3
ssg71
g2654
sg64
(lp2661
S''
asbasbasbag57
(g73
g59
NtRp2662
(dp2663
g62
(dp2664
sg71
g2427
sg64
(lp2665
g57
(g78
g59
NtRp2666
(dp2667
g62
(dp2668
g82
g83
ssg71
g2662
sg64
(lp2669
S'REMOTE_ADDR'
p2670
asbag57
(g78
g59
NtRp2671
(dp2672
g62
(dp2673
g89
g90
ssg71
g2662
sg64
(lp2674
S':'
asbag57
(g78
g59
NtRp2675
(dp2676
g62
(dp2677
sg71
g2662
sg64
(lp2678
g57
(g58
g59
NtRp2679
(dp2680
g62
(dp2681
g70
I3
ssg71
g2675
sg64
(lp2682
g190
asbasbasbag57
(g73
g59
NtRp2683
(dp2684
g62
(dp2685
sg71
g2427
sg64
(lp2686
g57
(g78
g59
NtRp2687
(dp2688
g62
(dp2689
g82
g83
ssg71
g2683
sg64
(lp2690
S'REMOTE_PORT'
p2691
asbag57
(g78
g59
NtRp2692
(dp2693
g62
(dp2694
g89
g90
ssg71
g2683
sg64
(lp2695
S':'
asbag57
(g78
g59
NtRp2696
(dp2697
g62
(dp2698
sg71
g2683
sg64
(lp2699
g57
(g58
g59
NtRp2700
(dp2701
g62
(dp2702
g70
I3
ssg71
g2696
sg64
(lp2703
g1307
asbasbasbag57
(g73
g59
NtRp2704
(dp2705
g62
(dp2706
sg71
g2427
sg64
(lp2707
g57
(g78
g59
NtRp2708
(dp2709
g62
(dp2710
g82
g83
ssg71
g2704
sg64
(lp2711
S'REQUEST_METHOD'
p2712
asbag57
(g78
g59
NtRp2713
(dp2714
g62
(dp2715
g89
g90
ssg71
g2704
sg64
(lp2716
S':'
asbag57
(g78
g59
NtRp2717
(dp2718
g62
(dp2719
sg71
g2704
sg64
(lp2720
g57
(g58
g59
NtRp2721
(dp2722
g62
(dp2723
g70
I3
ssg71
g2717
sg64
(lp2724
g1329
asbasbasbag57
(g73
g59
NtRp2725
(dp2726
g62
(dp2727
sg71
g2427
sg64
(lp2728
g57
(g78
g59
NtRp2729
(dp2730
g62
(dp2731
g82
g83
ssg71
g2725
sg64
(lp2732
S'SCRIPT_NAME'
p2733
asbag57
(g78
g59
NtRp2734
(dp2735
g62
(dp2736
g89
g90
ssg71
g2725
sg64
(lp2737
S':'
asbag57
(g78
g59
NtRp2738
(dp2739
g62
(dp2740
sg71
g2725
sg64
(lp2741
g57
(g58
g59
NtRp2742
(dp2743
g62
(dp2744
g70
I3
ssg71
g2738
sg64
(lp2745
S''
asbasbasbag57
(g73
g59
NtRp2746
(dp2747
g62
(dp2748
sg71
g2427
sg64
(lp2749
g57
(g78
g59
NtRp2750
(dp2751
g62
(dp2752
g82
g83
ssg71
g2746
sg64
(lp2753
S'SERVER_NAME'
p2754
asbag57
(g78
g59
NtRp2755
(dp2756
g62
(dp2757
g89
g90
ssg71
g2746
sg64
(lp2758
S':'
asbag57
(g78
g59
NtRp2759
(dp2760
g62
(dp2761
sg71
g2746
sg64
(lp2762
g57
(g58
g59
NtRp2763
(dp2764
g62
(dp2765
g70
I3
ssg71
g2759
sg64
(lp2766
g1372
asbasbasbag57
(g73
g59
NtRp2767
(dp2768
g62
(dp2769
sg71
g2427
sg64
(lp2770
g57
(g78
g59
NtRp2771
(dp2772
g62
(dp2773
g82
g83
ssg71
g2767
sg64
(lp2774
S'SERVER_PORT'
p2775
asbag57
(g78
g59
NtRp2776
(dp2777
g62
(dp2778
g89
g90
ssg71
g2767
sg64
(lp2779
S':'
asbag57
(g78
g59
NtRp2780
(dp2781
g62
(dp2782
sg71
g2767
sg64
(lp2783
g57
(g58
g59
NtRp2784
(dp2785
g62
(dp2786
g70
I3
ssg71
g2780
sg64
(lp2787
g1394
asbasbasbag57
(g73
g59
NtRp2788
(dp2789
g62
(dp2790
sg71
g2427
sg64
(lp2791
g57
(g78
g59
NtRp2792
(dp2793
g62
(dp2794
g82
g83
ssg71
g2788
sg64
(lp2795
S'SERVER_PROTOCOL'
p2796
asbag57
(g78
g59
NtRp2797
(dp2798
g62
(dp2799
g89
g90
ssg71
g2788
sg64
(lp2800
S':'
asbag57
(g78
g59
NtRp2801
(dp2802
g62
(dp2803
sg71
g2788
sg64
(lp2804
g57
(g58
g59
NtRp2805
(dp2806
g62
(dp2807
g70
I3
ssg71
g2801
sg64
(lp2808
g1416
asbasbasbag57
(g73
g59
NtRp2809
(dp2810
g62
(dp2811
sg71
g2427
sg64
(lp2812
g57
(g78
g59
NtRp2813
(dp2814
g62
(dp2815
g82
g83
ssg71
g2809
sg64
(lp2816
S'SERVER_SOFTWARE'
p2817
asbag57
(g78
g59
NtRp2818
(dp2819
g62
(dp2820
g89
g90
ssg71
g2809
sg64
(lp2821
S':'
asbag57
(g78
g59
NtRp2822
(dp2823
g62
(dp2824
sg71
g2809
sg64
(lp2825
g57
(g58
g59
NtRp2826
(dp2827
g62
(dp2828
g70
I3
ssg71
g2822
sg64
(lp2829
g1438
asbasbasbag57
(g73
g59
NtRp2830
(dp2831
g62
(dp2832
sg71
g2427
sg64
(lp2833
g57
(g78
g59
NtRp2834
(dp2835
g62
(dp2836
g82
g83
ssg71
g2830
sg64
(lp2837
S'wsgi.errors'
p2838
asbag57
(g78
g59
NtRp2839
(dp2840
g62
(dp2841
g89
g90
ssg71
g2830
sg64
(lp2842
S':'
asbag57
(g78
g59
NtRp2843
(dp2844
g62
(dp2845
sg71
g2830
sg64
(lp2846
g57
(g58
g59
NtRp2847
(dp2848
g62
(dp2849
g70
I3
ssg71
g2843
sg64
(lp2850
S"<open file '<stderr>', mode 'w' at 0x01D150D0>"
p2851
asbasbasbag57
(g73
g59
NtRp2852
(dp2853
g62
(dp2854
sg71
g2427
sg64
(lp2855
g57
(g78
g59
NtRp2856
(dp2857
g62
(dp2858
g82
g83
ssg71
g2852
sg64
(lp2859
S'wsgi.file_wrapper'
p2860
asbag57
(g78
g59
NtRp2861
(dp2862
g62
(dp2863
g89
g90
ssg71
g2852
sg64
(lp2864
S':'
asbag57
(g78
g59
NtRp2865
(dp2866
g62
(dp2867
sg71
g2852
sg64
(lp2868
g57
(g58
g59
NtRp2869
(dp2870
g62
(dp2871
g70
I3
ssg71
g2865
sg64
(lp2872
S'<class wsgiref.util.FileWrapper at 0x0363C618>'
p2873
asbasbasbag57
(g73
g59
NtRp2874
(dp2875
g62
(dp2876
sg71
g2427
sg64
(lp2877
g57
(g78
g59
NtRp2878
(dp2879
g62
(dp2880
g82
g83
ssg71
g2874
sg64
(lp2881
S'wsgi.input'
p2882
asbag57
(g78
g59
NtRp2883
(dp2884
g62
(dp2885
g89
g90
ssg71
g2874
sg64
(lp2886
S':'
asbag57
(g78
g59
NtRp2887
(dp2888
g62
(dp2889
sg71
g2874
sg64
(lp2890
g57
(g58
g59
NtRp2891
(dp2892
g62
(dp2893
g70
I3
ssg71
g2887
sg64
(lp2894
S'<cStringIO.StringO object at 0x07577800>'
p2895
asbasbasbag57
(g73
g59
NtRp2896
(dp2897
g62
(dp2898
sg71
g2427
sg64
(lp2899
g57
(g78
g59
NtRp2900
(dp2901
g62
(dp2902
g82
g83
ssg71
g2896
sg64
(lp2903
S'wsgi.multiprocess'
p2904
asbag57
(g78
g59
NtRp2905
(dp2906
g62
(dp2907
g89
g90
ssg71
g2896
sg64
(lp2908
S':'
asbag57
(g78
g59
NtRp2909
(dp2910
g62
(dp2911
sg71
g2896
sg64
(lp2912
g57
(g58
g59
NtRp2913
(dp2914
g62
(dp2915
g70
I3
ssg71
g2909
sg64
(lp2916
g100
asbasbasbag57
(g73
g59
NtRp2917
(dp2918
g62
(dp2919
sg71
g2427
sg64
(lp2920
g57
(g78
g59
NtRp2921
(dp2922
g62
(dp2923
g82
g83
ssg71
g2917
sg64
(lp2924
S'wsgi.multithread'
p2925
asbag57
(g78
g59
NtRp2926
(dp2927
g62
(dp2928
g89
g90
ssg71
g2917
sg64
(lp2929
S':'
asbag57
(g78
g59
NtRp2930
(dp2931
g62
(dp2932
sg71
g2917
sg64
(lp2933
g57
(g58
g59
NtRp2934
(dp2935
g62
(dp2936
g70
I3
ssg71
g2930
sg64
(lp2937
g1678
asbasbasbag57
(g73
g59
NtRp2938
(dp2939
g62
(dp2940
sg71
g2427
sg64
(lp2941
g57
(g78
g59
NtRp2942
(dp2943
g62
(dp2944
g82
g83
ssg71
g2938
sg64
(lp2945
S'wsgi.run_once'
p2946
asbag57
(g78
g59
NtRp2947
(dp2948
g62
(dp2949
g89
g90
ssg71
g2938
sg64
(lp2950
S':'
asbag57
(g78
g59
NtRp2951
(dp2952
g62
(dp2953
sg71
g2938
sg64
(lp2954
g57
(g58
g59
NtRp2955
(dp2956
g62
(dp2957
g70
I3
ssg71
g2951
sg64
(lp2958
g100
asbasbasbag57
(g73
g59
NtRp2959
(dp2960
g62
(dp2961
sg71
g2427
sg64
(lp2962
g57
(g78
g59
NtRp2963
(dp2964
g62
(dp2965
g82
g83
ssg71
g2959
sg64
(lp2966
S'wsgi.url_scheme'
p2967
asbag57
(g78
g59
NtRp2968
(dp2969
g62
(dp2970
g89
g90
ssg71
g2959
sg64
(lp2971
S':'
asbag57
(g78
g59
NtRp2972
(dp2973
g62
(dp2974
sg71
g2959
sg64
(lp2975
g57
(g58
g59
NtRp2976
(dp2977
g62
(dp2978
g70
I3
ssg71
g2972
sg64
(lp2979
g1721
asbasbasbag57
(g73
g59
NtRp2980
(dp2981
g62
(dp2982
sg71
g2427
sg64
(lp2983
g57
(g78
g59
NtRp2984
(dp2985
g62
(dp2986
g82
g83
ssg71
g2980
sg64
(lp2987
S'wsgi.version'
p2988
asbag57
(g78
g59
NtRp2989
(dp2990
g62
(dp2991
g89
g90
ssg71
g2980
sg64
(lp2992
S':'
asbag57
(g78
g59
NtRp2993
(dp2994
g62
(dp2995
sg71
g2980
sg64
(lp2996
g57
(g58
g59
NtRp2997
(dp2998
g62
(dp2999
g70
I3
ssg71
g2993
sg64
(lp3000
S'1'
asbasbasbasbasbasbasbasbasbasbasbasbasbsS'frames'
p3001
(lp3002
(dp3003
S'file'
p3004
S'C:\\Users\\Alysse\\Documents\\GitHub\\finholt-senior-project\\web2py\\gluon\\restricted.py'
p3005
sS'dump'
p3006
(dp3007
S'environment'
p3008
S"{'A': <class 'gluon.html.A'>, 'Auth': <class 'gluon.tools.Auth'>, 'B': <class 'gluon.html.B'>, 'BEAUTIFY': <class 'gluon.html.BEAUTIFY'>, 'BODY': <class 'gluon.html.BODY'>, 'BR': <class 'gluon.html.BR'>, 'BUTTON': <class 'gluon.html.BUTTON'>, 'CAT': <class 'gluon.html.CAT'>, 'CENTER': <class 'gluon.html.CENTER'>, 'CLEANUP': <class 'gluon.validators.CLEANUP'>, ...}"
p3009
sS'ccode'
p3010
S'<code object <module> at 07796C38, file "C:\\User...s\\SeniorProject\\controllers/default.py", line 11>'
p3011
ssS'lnum'
p3012
I205
sS'lines'
p3013
(dp3014
I200
S'    try:'
p3015
sI201
S'        if type(code) == types.CodeType:'
p3016
sI202
S'            ccode = code'
p3017
sI203
S'        else:'
p3018
sI204
S'            ccode = compile2(code,layer)'
p3019
sI205
S'        exec ccode in environment'
p3020
sI206
S'    except HTTP:'
p3021
sI207
S'        raise'
p3022
sI208
S'    except RestrictedError:'
p3023
sI209
S'        # do not encapsulate (obfuscate) the original RestrictedError'
p3024
ssS'call'
p3025
S'(code=\'# -*- coding: utf-8 -*-\\n# this file is released ...General"\\n\\nresponse._vars=response._caller(index)\\n\', environment={\'A\': <class \'gluon.html.A\'>, \'Auth\': <class \'gluon.tools.Auth\'>, \'B\': <class \'gluon.html.B\'>, \'BEAUTIFY\': <class \'gluon.html.BEAUTIFY\'>, \'BODY\': <class \'gluon.html.BODY\'>, \'BR\': <class \'gluon.html.BR\'>, \'BUTTON\': <class \'gluon.html.BUTTON\'>, \'CAT\': <class \'gluon.html.CAT\'>, \'CENTER\': <class \'gluon.html.CENTER\'>, \'CLEANUP\': <class \'gluon.validators.CLEANUP\'>, ...}, layer=r\'C:\\Users\\Alysse\\Documents\\GitHub\\finholt-senior-...applications\\SeniorProject\\controllers/default.py\')'
p3026
sS'func'
p3027
S'restricted'
p3028
sa(dp3029
g3004
S'C:\\Users\\Alysse\\Documents\\GitHub\\finholt-senior-project\\web2py\\applications\\SeniorProject\\controllers\\default.py'
p3030
sg3006
(dp3031
S'auth.user'
p3032
S"<Storage {'first_name': 'Alysse', 'last_name': '...a19aa02f5f0e8', 'registration_key': '', 'id': 5}>"
p3033
sS'record'
p3034
S'undefined'
p3035
sS'auth.user.id'
p3036
S'5'
sS'auth'
p3037
S'<gluon.tools.Auth object>'
p3038
ssg3012
I23
sg3013
(dp3039
I18
S''
sI19
S"proposalForm = SQLFORM(db.Proposal, labels={'reqNum':'Request #', 'projectNum':'Project Number', 'propDate':'Proposal Date'})"
p3040
sI20
S''
sI21
S"meetingMinutesForm = SQLFORM(db.MeetingMinutes, labels={'meetDate':'Meeting Date'})"
p3041
sI22
S''
sI23
S'photoForm = SQLFORM(db.MeetingMinutes, fields = [])'
p3042
sI24
S''
sI25
S'if auth.user != None:'
p3043
sI26
S'    record = auth.user.id     #Gets the info for the current user'
p3044
sI27
S'    myProfileForm = SQLFORM(db.auth_user, record, showid=False, labels={\'first_name\':\'First Name\', \'last_name\':\'Last Name\', \'email\':\'E-mail\', \'phone\':\'Phone Number\', \'password\':\'New Password\'}, fields = [\'first_name\',\'last_name\',\'email\',\'phone\'],_id="profileForm")'
p3045
ssg3025
S'()'
p3046
sg3027
S'<module>'
p3047
sa(dp3048
g3004
S'C:\\Users\\Alysse\\Documents\\GitHub\\finholt-senior-project\\web2py\\gluon\\sqlhtml.py'
p3049
sg3006
(dp3050
S'global Table'
p3051
S"<class 'gluon.dal.Table'>"
p3052
sS'self'
p3053
S'<gluon.sqlhtml.SQLFORM object>'
p3054
sS'keyed'
p3055
g100
sS'builtinisinstance'
p3056
S'<built-in function isinstance>'
p3057
sS'table.fields'
p3058
S"['id', 'meetDate', 'file']"
p3059
sS'self.fields'
p3060
S'[]'
p3061
sS'table'
p3062
S"<Table {'ALL': <gluon.dal.SQLALL object at 0x076...>, 'id': <gluon.dal.Field object at 0x0768A9D0>}>"
p3063
ssg3012
I740
sg3013
(dp3064
I736
S'            fields = [f.name for f in table if (ignore_rw or f.writable or f.readable) and not f.compute]'
p3065
sI737
S'        self.fields = fields'
p3066
sI738
S''
sI739
S'        # make sure we have an id'
p3067
sI740
S'        if self.fields[0] != table.fields[0] and \\'
p3068
sI741
S'                isinstance(table,Table) and not keyed:'
p3069
sI742
S'            self.fields.insert(0, table.fields[0])'
p3070
sI743
S''
sI744
S'        self.table = table'
p3071
sI735
S'        if fields is None:'
p3072
ssg3025
S"(self=<gluon.sqlhtml.SQLFORM object>, table=<Table {'ALL': <gluon.dal.SQLALL object at 0x076...>, 'id': <gluon.dal.Field object at 0x0768A9D0>}>, record=None, deletable=False, linkto=None, upload=None, fields=[], labels=None, col3={}, submit_button='Submit', delete_label='Check to delete', showid=True, readonly=False, comments=True, keepopts=[], ignore_rw=False, record_id=None, formstyle='table3cols', buttons=['submit'], separator=': ', **attributes={})"
p3073
sg3027
g50
sasS'pyver'
p3074
S'Python 2.7.3: C:\\Python27\\python.exe'
p3075
sS'session'
p3076
g57
(g58
g59
NtRp3077
(dp3078
g62
(dp3079
sg64
(lp3080
g57
(g66
g59
NtRp3081
(dp3082
g62
(dp3083
g70
I5
ssg71
Nsg64
(lp3084
g57
(g73
g59
NtRp3085
(dp3086
g62
(dp3087
sg71
g3081
sg64
(lp3088
g57
(g78
g59
NtRp3089
(dp3090
g62
(dp3091
g82
g83
ssg71
g3085
sg64
(lp3092
S'auth'
p3093
asbag57
(g78
g59
NtRp3094
(dp3095
g62
(dp3096
g89
g90
ssg71
g3085
sg64
(lp3097
S':'
asbag57
(g78
g59
NtRp3098
(dp3099
g62
(dp3100
sg71
g3085
sg64
(lp3101
g57
(g58
g59
NtRp3102
(dp3103
g62
(dp3104
g70
I5
ssg71
g3098
sg64
(lp3105
g57
(g66
g59
NtRp3106
(dp3107
g62
(dp3108
g70
I4
ssg71
Nsg64
(lp3109
g57
(g73
g59
NtRp3110
(dp3111
g62
(dp3112
sg71
g3106
sg64
(lp3113
g57
(g78
g59
NtRp3114
(dp3115
g62
(dp3116
g82
g83
ssg71
g3110
sg64
(lp3117
S'expiration'
p3118
asbag57
(g78
g59
NtRp3119
(dp3120
g62
(dp3121
g89
g90
ssg71
g3110
sg64
(lp3122
S':'
asbag57
(g78
g59
NtRp3123
(dp3124
g62
(dp3125
sg71
g3110
sg64
(lp3126
g57
(g58
g59
NtRp3127
(dp3128
g62
(dp3129
g70
I4
ssg71
g3123
sg64
(lp3130
S'3600'
p3131
asbasbasbag57
(g73
g59
NtRp3132
(dp3133
g62
(dp3134
sg71
g3106
sg64
(lp3135
g57
(g78
g59
NtRp3136
(dp3137
g62
(dp3138
g82
g83
ssg71
g3132
sg64
(lp3139
S'hmac_key'
p3140
asbag57
(g78
g59
NtRp3141
(dp3142
g62
(dp3143
g89
g90
ssg71
g3132
sg64
(lp3144
S':'
asbag57
(g78
g59
NtRp3145
(dp3146
g62
(dp3147
sg71
g3132
sg64
(lp3148
g57
(g58
g59
NtRp3149
(dp3150
g62
(dp3151
g70
I4
ssg71
g3145
sg64
(lp3152
S'ea4ed65e-7108-4892-be4b-0741536f9bd1'
p3153
asbasbasbag57
(g73
g59
NtRp3154
(dp3155
g62
(dp3156
sg71
g3106
sg64
(lp3157
g57
(g78
g59
NtRp3158
(dp3159
g62
(dp3160
g82
g83
ssg71
g3154
sg64
(lp3161
S'last_visit'
p3162
asbag57
(g78
g59
NtRp3163
(dp3164
g62
(dp3165
g89
g90
ssg71
g3154
sg64
(lp3166
S':'
asbag57
(g78
g59
NtRp3167
(dp3168
g62
(dp3169
sg71
g3154
sg64
(lp3170
g57
(g58
g59
NtRp3171
(dp3172
g62
(dp3173
g70
I4
ssg71
g3167
sg64
(lp3174
S'datetime.datetime(2013, 2, 8, 13, 47, 55, 968000)'
p3175
asbasbasbag57
(g73
g59
NtRp3176
(dp3177
g62
(dp3178
sg71
g3106
sg64
(lp3179
g57
(g78
g59
NtRp3180
(dp3181
g62
(dp3182
g82
g83
ssg71
g3176
sg64
(lp3183
S'remember'
p3184
asbag57
(g78
g59
NtRp3185
(dp3186
g62
(dp3187
g89
g90
ssg71
g3176
sg64
(lp3188
S':'
asbag57
(g78
g59
NtRp3189
(dp3190
g62
(dp3191
sg71
g3176
sg64
(lp3192
g57
(g58
g59
NtRp3193
(dp3194
g62
(dp3195
g70
I4
ssg71
g3189
sg64
(lp3196
g100
asbasbasbag57
(g73
g59
NtRp3197
(dp3198
g62
(dp3199
sg71
g3106
sg64
(lp3200
g57
(g78
g59
NtRp3201
(dp3202
g62
(dp3203
g82
g83
ssg71
g3197
sg64
(lp3204
S'user'
p3205
asbag57
(g78
g59
NtRp3206
(dp3207
g62
(dp3208
g89
g90
ssg71
g3197
sg64
(lp3209
S':'
asbag57
(g78
g59
NtRp3210
(dp3211
g62
(dp3212
sg71
g3197
sg64
(lp3213
g57
(g58
g59
NtRp3214
(dp3215
g62
(dp3216
g70
I4
ssg71
g3210
sg64
(lp3217
g57
(g66
g59
NtRp3218
(dp3219
g62
(dp3220
g70
I3
ssg71
Nsg64
(lp3221
g57
(g73
g59
NtRp3222
(dp3223
g62
(dp3224
sg71
g3218
sg64
(lp3225
g57
(g78
g59
NtRp3226
(dp3227
g62
(dp3228
g82
g83
ssg71
g3222
sg64
(lp3229
S'email'
p3230
asbag57
(g78
g59
NtRp3231
(dp3232
g62
(dp3233
g89
g90
ssg71
g3222
sg64
(lp3234
S':'
asbag57
(g78
g59
NtRp3235
(dp3236
g62
(dp3237
sg71
g3222
sg64
(lp3238
g57
(g58
g59
NtRp3239
(dp3240
g62
(dp3241
g70
I3
ssg71
g3235
sg64
(lp3242
S'hafeal01@luther.edu'
p3243
asbasbasbag57
(g73
g59
NtRp3244
(dp3245
g62
(dp3246
sg71
g3218
sg64
(lp3247
g57
(g78
g59
NtRp3248
(dp3249
g62
(dp3250
g82
g83
ssg71
g3244
sg64
(lp3251
S'first_name'
p3252
asbag57
(g78
g59
NtRp3253
(dp3254
g62
(dp3255
g89
g90
ssg71
g3244
sg64
(lp3256
S':'
asbag57
(g78
g59
NtRp3257
(dp3258
g62
(dp3259
sg71
g3244
sg64
(lp3260
g57
(g58
g59
NtRp3261
(dp3262
g62
(dp3263
g70
I3
ssg71
g3257
sg64
(lp3264
S'Alysse'
p3265
asbasbasbag57
(g73
g59
NtRp3266
(dp3267
g62
(dp3268
sg71
g3218
sg64
(lp3269
g57
(g78
g59
NtRp3270
(dp3271
g62
(dp3272
g82
g83
ssg71
g3266
sg64
(lp3273
S'id'
p3274
asbag57
(g78
g59
NtRp3275
(dp3276
g62
(dp3277
g89
g90
ssg71
g3266
sg64
(lp3278
S':'
asbag57
(g78
g59
NtRp3279
(dp3280
g62
(dp3281
sg71
g3266
sg64
(lp3282
g57
(g58
g59
NtRp3283
(dp3284
g62
(dp3285
g70
I3
ssg71
g3279
sg64
(lp3286
S'5'
asbasbasbag57
(g73
g59
NtRp3287
(dp3288
g62
(dp3289
sg71
g3218
sg64
(lp3290
g57
(g78
g59
NtRp3291
(dp3292
g62
(dp3293
g82
g83
ssg71
g3287
sg64
(lp3294
S'last_name'
p3295
asbag57
(g78
g59
NtRp3296
(dp3297
g62
(dp3298
g89
g90
ssg71
g3287
sg64
(lp3299
S':'
asbag57
(g78
g59
NtRp3300
(dp3301
g62
(dp3302
sg71
g3287
sg64
(lp3303
g57
(g58
g59
NtRp3304
(dp3305
g62
(dp3306
g70
I3
ssg71
g3300
sg64
(lp3307
S'Haferman'
p3308
asbasbasbag57
(g73
g59
NtRp3309
(dp3310
g62
(dp3311
sg71
g3218
sg64
(lp3312
g57
(g78
g59
NtRp3313
(dp3314
g62
(dp3315
g82
g83
ssg71
g3309
sg64
(lp3316
S'password'
p3317
asbag57
(g78
g59
NtRp3318
(dp3319
g62
(dp3320
g89
g90
ssg71
g3309
sg64
(lp3321
S':'
asbag57
(g78
g59
NtRp3322
(dp3323
g62
(dp3324
sg71
g3309
sg64
(lp3325
g57
(g58
g59
NtRp3326
(dp3327
g62
(dp3328
g70
I3
ssg71
g3322
sg64
(lp3329
S'fcba5b1408a9b4c374da19aa02f5f0e8'
p3330
asbasbasbag57
(g73
g59
NtRp3331
(dp3332
g62
(dp3333
sg71
g3218
sg64
(lp3334
g57
(g78
g59
NtRp3335
(dp3336
g62
(dp3337
g82
g83
ssg71
g3331
sg64
(lp3338
S'phone'
p3339
asbag57
(g78
g59
NtRp3340
(dp3341
g62
(dp3342
g89
g90
ssg71
g3331
sg64
(lp3343
S':'
asbag57
(g78
g59
NtRp3344
(dp3345
g62
(dp3346
sg71
g3331
sg64
(lp3347
g57
(g58
g59
NtRp3348
(dp3349
g62
(dp3350
g70
I3
ssg71
g3344
sg64
(lp3351
S'4142487871'
p3352
asbasbasbag57
(g73
g59
NtRp3353
(dp3354
g62
(dp3355
sg71
g3218
sg64
(lp3356
g57
(g78
g59
NtRp3357
(dp3358
g62
(dp3359
g82
g83
ssg71
g3353
sg64
(lp3360
S'registration_id'
p3361
asbag57
(g78
g59
NtRp3362
(dp3363
g62
(dp3364
g89
g90
ssg71
g3353
sg64
(lp3365
S':'
asbag57
(g78
g59
NtRp3366
(dp3367
g62
(dp3368
sg71
g3353
sg64
(lp3369
g57
(g58
g59
NtRp3370
(dp3371
g62
(dp3372
g70
I3
ssg71
g3366
sg64
(lp3373
S''
asbasbasbag57
(g73
g59
NtRp3374
(dp3375
g62
(dp3376
sg71
g3218
sg64
(lp3377
g57
(g78
g59
NtRp3378
(dp3379
g62
(dp3380
g82
g83
ssg71
g3374
sg64
(lp3381
S'registration_key'
p3382
asbag57
(g78
g59
NtRp3383
(dp3384
g62
(dp3385
g89
g90
ssg71
g3374
sg64
(lp3386
S':'
asbag57
(g78
g59
NtRp3387
(dp3388
g62
(dp3389
sg71
g3374
sg64
(lp3390
g57
(g58
g59
NtRp3391
(dp3392
g62
(dp3393
g70
I3
ssg71
g3387
sg64
(lp3394
S''
asbasbasbag57
(g73
g59
NtRp3395
(dp3396
g62
(dp3397
sg71
g3218
sg64
(lp3398
g57
(g78
g59
NtRp3399
(dp3400
g62
(dp3401
g82
g83
ssg71
g3395
sg64
(lp3402
S'reset_password_key'
p3403
asbag57
(g78
g59
NtRp3404
(dp3405
g62
(dp3406
g89
g90
ssg71
g3395
sg64
(lp3407
S':'
asbag57
(g78
g59
NtRp3408
(dp3409
g62
(dp3410
sg71
g3395
sg64
(lp3411
g57
(g58
g59
NtRp3412
(dp3413
g62
(dp3414
g70
I3
ssg71
g3408
sg64
(lp3415
S''
asbasbasbag57
(g73
g59
NtRp3416
(dp3417
g62
(dp3418
sg71
g3218
sg64
(lp3419
g57
(g78
g59
NtRp3420
(dp3421
g62
(dp3422
g82
g83
ssg71
g3416
sg64
(lp3423
S'role'
p3424
asbag57
(g78
g59
NtRp3425
(dp3426
g62
(dp3427
g89
g90
ssg71
g3416
sg64
(lp3428
S':'
asbag57
(g78
g59
NtRp3429
(dp3430
g62
(dp3431
sg71
g3416
sg64
(lp3432
g57
(g58
g59
NtRp3433
(dp3434
g62
(dp3435
g70
I3
ssg71
g3429
sg64
(lp3436
S'Minion'
p3437
asbasbasbasbasbasbasbag57
(g73
g59
NtRp3438
(dp3439
g62
(dp3440
sg71
g3106
sg64
(lp3441
g57
(g78
g59
NtRp3442
(dp3443
g62
(dp3444
g82
g83
ssg71
g3438
sg64
(lp3445
S'user_groups'
p3446
asbag57
(g78
g59
NtRp3447
(dp3448
g62
(dp3449
g89
g90
ssg71
g3438
sg64
(lp3450
S':'
asbag57
(g78
g59
NtRp3451
(dp3452
g62
(dp3453
sg71
g3438
sg64
(lp3454
g57
(g58
g59
NtRp3455
(dp3456
g62
(dp3457
g70
I4
ssg71
g3451
sg64
(lp3458
g57
(g66
g59
NtRp3459
(dp3460
g62
(dp3461
g70
I3
ssg71
Nsg64
(lp3462
g57
(g73
g59
NtRp3463
(dp3464
g62
(dp3465
sg71
g3459
sg64
(lp3466
g57
(g78
g59
NtRp3467
(dp3468
g62
(dp3469
g82
g83
ssg71
g3463
sg64
(lp3470
S'19'
p3471
asbag57
(g78
g59
NtRp3472
(dp3473
g62
(dp3474
g89
g90
ssg71
g3463
sg64
(lp3475
S':'
asbag57
(g78
g59
NtRp3476
(dp3477
g62
(dp3478
sg71
g3463
sg64
(lp3479
g57
(g58
g59
NtRp3480
(dp3481
g62
(dp3482
g70
I3
ssg71
g3476
sg64
(lp3483
S'Admin'
p3484
asbasbasbasbasbasbasbasbasbasbasbasbasbsS'etype'
p3485
S"<type 'exceptions.IndexError'>"
p3486
sS'date'
p3487
S'Fri Feb 08 13:47:56 2013'
p3488
sS'response'
p3489
g57
(g58
g59
NtRp3490
(dp3491
g62
(dp3492
sg64
(lp3493
g57
(g66
g59
NtRp3494
(dp3495
g62
(dp3496
g70
I5
ssg71
Nsg64
(lp3497
g57
(g73
g59
NtRp3498
(dp3499
g62
(dp3500
sg71
g3494
sg64
(lp3501
g57
(g78
g59
NtRp3502
(dp3503
g62
(dp3504
g82
g83
ssg71
g3498
sg64
(lp3505
g155
asbag57
(g78
g59
NtRp3506
(dp3507
g62
(dp3508
g89
g90
ssg71
g3498
sg64
(lp3509
S':'
asbag57
(g78
g59
NtRp3510
(dp3511
g62
(dp3512
sg71
g3498
sg64
(lp3513
g57
(g58
g59
NtRp3514
(dp3515
g62
(dp3516
g70
I5
ssg71
g3510
sg64
(lp3517
S'<cStringIO.StringO object at 0x03D2F860>'
p3518
asbasbasbag57
(g73
g59
NtRp3519
(dp3520
g62
(dp3521
sg71
g3494
sg64
(lp3522
g57
(g78
g59
NtRp3523
(dp3524
g62
(dp3525
g82
g83
ssg71
g3519
sg64
(lp3526
g221
asbag57
(g78
g59
NtRp3527
(dp3528
g62
(dp3529
g89
g90
ssg71
g3519
sg64
(lp3530
S':'
asbag57
(g78
g59
NtRp3531
(dp3532
g62
(dp3533
sg71
g3519
sg64
(lp3534
g57
(g58
g59
NtRp3535
(dp3536
g62
(dp3537
g70
I5
ssg71
g3531
sg64
(lp3538
g57
(g66
g59
NtRp3539
(dp3540
g62
(dp3541
g70
I4
ssg71
Nsg64
(lp3542
g57
(g73
g59
NtRp3543
(dp3544
g62
(dp3545
sg71
g3539
sg64
(lp3546
g57
(g78
g59
NtRp3547
(dp3548
g62
(dp3549
g82
g83
ssg71
g3543
sg64
(lp3550
S'session_id_seniorproject'
p3551
asbag57
(g78
g59
NtRp3552
(dp3553
g62
(dp3554
g89
g90
ssg71
g3543
sg64
(lp3555
S':'
asbag57
(g78
g59
NtRp3556
(dp3557
g62
(dp3558
sg71
g3543
sg64
(lp3559
g57
(g58
g59
NtRp3560
(dp3561
g62
(dp3562
g70
I4
ssg71
g3556
sg64
(lp3563
g57
(g66
g59
NtRp3564
(dp3565
g62
(dp3566
g70
I3
ssg71
Nsg64
(lp3567
g57
(g73
g59
NtRp3568
(dp3569
g62
(dp3570
sg71
g3564
sg64
(lp3571
g57
(g78
g59
NtRp3572
(dp3573
g62
(dp3574
g82
g83
ssg71
g3568
sg64
(lp3575
g271
asbag57
(g78
g59
NtRp3576
(dp3577
g62
(dp3578
g89
g90
ssg71
g3568
sg64
(lp3579
S':'
asbag57
(g78
g59
NtRp3580
(dp3581
g62
(dp3582
sg71
g3568
sg64
(lp3583
g57
(g58
g59
NtRp3584
(dp3585
g62
(dp3586
g70
I3
ssg71
g3580
sg64
(lp3587
S''
asbasbasbag57
(g73
g59
NtRp3588
(dp3589
g62
(dp3590
sg71
g3564
sg64
(lp3591
g57
(g78
g59
NtRp3592
(dp3593
g62
(dp3594
g82
g83
ssg71
g3588
sg64
(lp3595
g292
asbag57
(g78
g59
NtRp3596
(dp3597
g62
(dp3598
g89
g90
ssg71
g3588
sg64
(lp3599
S':'
asbag57
(g78
g59
NtRp3600
(dp3601
g62
(dp3602
sg71
g3588
sg64
(lp3603
g57
(g58
g59
NtRp3604
(dp3605
g62
(dp3606
g70
I3
ssg71
g3600
sg64
(lp3607
S''
asbasbasbag57
(g73
g59
NtRp3608
(dp3609
g62
(dp3610
sg71
g3564
sg64
(lp3611
g57
(g78
g59
NtRp3612
(dp3613
g62
(dp3614
g82
g83
ssg71
g3608
sg64
(lp3615
g313
asbag57
(g78
g59
NtRp3616
(dp3617
g62
(dp3618
g89
g90
ssg71
g3608
sg64
(lp3619
S':'
asbag57
(g78
g59
NtRp3620
(dp3621
g62
(dp3622
sg71
g3608
sg64
(lp3623
g57
(g58
g59
NtRp3624
(dp3625
g62
(dp3626
g70
I3
ssg71
g3620
sg64
(lp3627
S''
asbasbasbag57
(g73
g59
NtRp3628
(dp3629
g62
(dp3630
sg71
g3564
sg64
(lp3631
g57
(g78
g59
NtRp3632
(dp3633
g62
(dp3634
g82
g83
ssg71
g3628
sg64
(lp3635
g334
asbag57
(g78
g59
NtRp3636
(dp3637
g62
(dp3638
g89
g90
ssg71
g3628
sg64
(lp3639
S':'
asbag57
(g78
g59
NtRp3640
(dp3641
g62
(dp3642
sg71
g3628
sg64
(lp3643
g57
(g58
g59
NtRp3644
(dp3645
g62
(dp3646
g70
I3
ssg71
g3640
sg64
(lp3647
S''
asbasbasbag57
(g73
g59
NtRp3648
(dp3649
g62
(dp3650
sg71
g3564
sg64
(lp3651
g57
(g78
g59
NtRp3652
(dp3653
g62
(dp3654
g82
g83
ssg71
g3648
sg64
(lp3655
g355
asbag57
(g78
g59
NtRp3656
(dp3657
g62
(dp3658
g89
g90
ssg71
g3648
sg64
(lp3659
S':'
asbag57
(g78
g59
NtRp3660
(dp3661
g62
(dp3662
sg71
g3648
sg64
(lp3663
g57
(g58
g59
NtRp3664
(dp3665
g62
(dp3666
g70
I3
ssg71
g3660
sg64
(lp3667
S''
asbasbasbag57
(g73
g59
NtRp3668
(dp3669
g62
(dp3670
sg71
g3564
sg64
(lp3671
g57
(g78
g59
NtRp3672
(dp3673
g62
(dp3674
g82
g83
ssg71
g3668
sg64
(lp3675
g376
asbag57
(g78
g59
NtRp3676
(dp3677
g62
(dp3678
g89
g90
ssg71
g3668
sg64
(lp3679
S':'
asbag57
(g78
g59
NtRp3680
(dp3681
g62
(dp3682
sg71
g3668
sg64
(lp3683
g57
(g58
g59
NtRp3684
(dp3685
g62
(dp3686
g70
I3
ssg71
g3680
sg64
(lp3687
S'/'
asbasbasbag57
(g73
g59
NtRp3688
(dp3689
g62
(dp3690
sg71
g3564
sg64
(lp3691
g57
(g78
g59
NtRp3692
(dp3693
g62
(dp3694
g82
g83
ssg71
g3688
sg64
(lp3695
g397
asbag57
(g78
g59
NtRp3696
(dp3697
g62
(dp3698
g89
g90
ssg71
g3688
sg64
(lp3699
S':'
asbag57
(g78
g59
NtRp3700
(dp3701
g62
(dp3702
sg71
g3688
sg64
(lp3703
g57
(g58
g59
NtRp3704
(dp3705
g62
(dp3706
g70
I3
ssg71
g3700
sg64
(lp3707
S''
asbasbasbag57
(g73
g59
NtRp3708
(dp3709
g62
(dp3710
sg71
g3564
sg64
(lp3711
g57
(g78
g59
NtRp3712
(dp3713
g62
(dp3714
g82
g83
ssg71
g3708
sg64
(lp3715
g418
asbag57
(g78
g59
NtRp3716
(dp3717
g62
(dp3718
g89
g90
ssg71
g3708
sg64
(lp3719
S':'
asbag57
(g78
g59
NtRp3720
(dp3721
g62
(dp3722
sg71
g3708
sg64
(lp3723
g57
(g58
g59
NtRp3724
(dp3725
g62
(dp3726
g70
I3
ssg71
g3720
sg64
(lp3727
S''
asbasbasbasbasbasbasbasbasbasbasbag57
(g73
g59
NtRp3728
(dp3729
g62
(dp3730
sg71
g3494
sg64
(lp3731
g57
(g78
g59
NtRp3732
(dp3733
g62
(dp3734
g82
g83
ssg71
g3728
sg64
(lp3735
S'delimiters'
p3736
asbag57
(g78
g59
NtRp3737
(dp3738
g62
(dp3739
g89
g90
ssg71
g3728
sg64
(lp3740
S':'
asbag57
(g78
g59
NtRp3741
(dp3742
g62
(dp3743
sg71
g3728
sg64
(lp3744
g57
(g58
g59
NtRp3745
(dp3746
g62
(dp3747
g70
I5
ssg71
g3741
sg64
(lp3748
g57
(g66
g59
NtRp3749
(dp3750
g62
(dp3751
g70
I4
ssg71
Nsg64
(lp3752
g57
(g73
g59
NtRp3753
(dp3754
g62
(dp3755
sg71
g3749
sg64
(lp3756
g57
(g78
g59
NtRp3757
(dp3758
g62
(dp3759
sg71
g3753
sg64
(lp3760
g57
(g58
g59
NtRp3761
(dp3762
g62
(dp3763
g70
I4
ssg71
g3757
sg64
(lp3764
S'{{'
p3765
asbasbasbag57
(g73
g59
NtRp3766
(dp3767
g62
(dp3768
sg71
g3749
sg64
(lp3769
g57
(g78
g59
NtRp3770
(dp3771
g62
(dp3772
sg71
g3766
sg64
(lp3773
g57
(g58
g59
NtRp3774
(dp3775
g62
(dp3776
g70
I4
ssg71
g3770
sg64
(lp3777
S'}}'
p3778
asbasbasbasbasbasbasbag57
(g73
g59
NtRp3779
(dp3780
g62
(dp3781
sg71
g3494
sg64
(lp3782
g57
(g78
g59
NtRp3783
(dp3784
g62
(dp3785
g82
g83
ssg71
g3779
sg64
(lp3786
S'files'
p3787
asbag57
(g78
g59
NtRp3788
(dp3789
g62
(dp3790
g89
g90
ssg71
g3779
sg64
(lp3791
S':'
asbag57
(g78
g59
NtRp3792
(dp3793
g62
(dp3794
sg71
g3779
sg64
(lp3795
g57
(g58
g59
NtRp3796
(dp3797
g62
(dp3798
g70
I5
ssg71
g3792
sg64
(lp3799
g57
(g66
g59
NtRp3800
(dp3801
g62
(dp3802
g70
I4
ssg71
Nsg64
(lp3803
sbasbasbasbag57
(g73
g59
NtRp3804
(dp3805
g62
(dp3806
sg71
g3494
sg64
(lp3807
g57
(g78
g59
NtRp3808
(dp3809
g62
(dp3810
g82
g83
ssg71
g3804
sg64
(lp3811
S'flash'
p3812
asbag57
(g78
g59
NtRp3813
(dp3814
g62
(dp3815
g89
g90
ssg71
g3804
sg64
(lp3816
S':'
asbag57
(g78
g59
NtRp3817
(dp3818
g62
(dp3819
sg71
g3804
sg64
(lp3820
g57
(g58
g59
NtRp3821
(dp3822
g62
(dp3823
g70
I5
ssg71
g3817
sg64
(lp3824
S''
asbasbasbag57
(g73
g59
NtRp3825
(dp3826
g62
(dp3827
sg71
g3494
sg64
(lp3828
g57
(g78
g59
NtRp3829
(dp3830
g62
(dp3831
g82
g83
ssg71
g3825
sg64
(lp3832
S'generic_patterns'
p3833
asbag57
(g78
g59
NtRp3834
(dp3835
g62
(dp3836
g89
g90
ssg71
g3825
sg64
(lp3837
S':'
asbag57
(g78
g59
NtRp3838
(dp3839
g62
(dp3840
sg71
g3825
sg64
(lp3841
g57
(g58
g59
NtRp3842
(dp3843
g62
(dp3844
g70
I5
ssg71
g3838
sg64
(lp3845
g57
(g66
g59
NtRp3846
(dp3847
g62
(dp3848
g70
I4
ssg71
Nsg64
(lp3849
g57
(g73
g59
NtRp3850
(dp3851
g62
(dp3852
sg71
g3846
sg64
(lp3853
g57
(g78
g59
NtRp3854
(dp3855
g62
(dp3856
sg71
g3850
sg64
(lp3857
g57
(g58
g59
NtRp3858
(dp3859
g62
(dp3860
g70
I4
ssg71
g3854
sg64
(lp3861
S'*'
asbasbasbasbasbasbasbag57
(g73
g59
NtRp3862
(dp3863
g62
(dp3864
sg71
g3494
sg64
(lp3865
g57
(g78
g59
NtRp3866
(dp3867
g62
(dp3868
g82
g83
ssg71
g3862
sg64
(lp3869
S'headers'
p3870
asbag57
(g78
g59
NtRp3871
(dp3872
g62
(dp3873
g89
g90
ssg71
g3862
sg64
(lp3874
S':'
asbag57
(g78
g59
NtRp3875
(dp3876
g62
(dp3877
sg71
g3862
sg64
(lp3878
g57
(g58
g59
NtRp3879
(dp3880
g62
(dp3881
g70
I5
ssg71
g3875
sg64
(lp3882
g57
(g66
g59
NtRp3883
(dp3884
g62
(dp3885
g70
I4
ssg71
Nsg64
(lp3886
g57
(g73
g59
NtRp3887
(dp3888
g62
(dp3889
sg71
g3883
sg64
(lp3890
g57
(g78
g59
NtRp3891
(dp3892
g62
(dp3893
g82
g83
ssg71
g3887
sg64
(lp3894
S'Cache-Control'
p3895
asbag57
(g78
g59
NtRp3896
(dp3897
g62
(dp3898
g89
g90
ssg71
g3887
sg64
(lp3899
S':'
asbag57
(g78
g59
NtRp3900
(dp3901
g62
(dp3902
sg71
g3887
sg64
(lp3903
g57
(g58
g59
NtRp3904
(dp3905
g62
(dp3906
g70
I4
ssg71
g3900
sg64
(lp3907
S'no-store, no-cache, must-revalidate, post-check=0, pre-check=0'
p3908
asbasbasbag57
(g73
g59
NtRp3909
(dp3910
g62
(dp3911
sg71
g3883
sg64
(lp3912
g57
(g78
g59
NtRp3913
(dp3914
g62
(dp3915
g82
g83
ssg71
g3909
sg64
(lp3916
S'Content-Type'
p3917
asbag57
(g78
g59
NtRp3918
(dp3919
g62
(dp3920
g89
g90
ssg71
g3909
sg64
(lp3921
S':'
asbag57
(g78
g59
NtRp3922
(dp3923
g62
(dp3924
sg71
g3909
sg64
(lp3925
g57
(g58
g59
NtRp3926
(dp3927
g62
(dp3928
g70
I4
ssg71
g3922
sg64
(lp3929
S'text/html; charset=utf-8'
p3930
asbasbasbag57
(g73
g59
NtRp3931
(dp3932
g62
(dp3933
sg71
g3883
sg64
(lp3934
g57
(g78
g59
NtRp3935
(dp3936
g62
(dp3937
g82
g83
ssg71
g3931
sg64
(lp3938
S'Expires'
p3939
asbag57
(g78
g59
NtRp3940
(dp3941
g62
(dp3942
g89
g90
ssg71
g3931
sg64
(lp3943
S':'
asbag57
(g78
g59
NtRp3944
(dp3945
g62
(dp3946
sg71
g3931
sg64
(lp3947
g57
(g58
g59
NtRp3948
(dp3949
g62
(dp3950
g70
I4
ssg71
g3944
sg64
(lp3951
S'Fri, 08 Feb 2013 19:47:55 GMT'
p3952
asbasbasbag57
(g73
g59
NtRp3953
(dp3954
g62
(dp3955
sg71
g3883
sg64
(lp3956
g57
(g78
g59
NtRp3957
(dp3958
g62
(dp3959
g82
g83
ssg71
g3953
sg64
(lp3960
S'Pragma'
p3961
asbag57
(g78
g59
NtRp3962
(dp3963
g62
(dp3964
g89
g90
ssg71
g3953
sg64
(lp3965
S':'
asbag57
(g78
g59
NtRp3966
(dp3967
g62
(dp3968
sg71
g3953
sg64
(lp3969
g57
(g58
g59
NtRp3970
(dp3971
g62
(dp3972
g70
I4
ssg71
g3966
sg64
(lp3973
S'no-cache'
p3974
asbasbasbag57
(g73
g59
NtRp3975
(dp3976
g62
(dp3977
sg71
g3883
sg64
(lp3978
g57
(g78
g59
NtRp3979
(dp3980
g62
(dp3981
g82
g83
ssg71
g3975
sg64
(lp3982
S'X-Powered-By'
p3983
asbag57
(g78
g59
NtRp3984
(dp3985
g62
(dp3986
g89
g90
ssg71
g3975
sg64
(lp3987
S':'
asbag57
(g78
g59
NtRp3988
(dp3989
g62
(dp3990
sg71
g3975
sg64
(lp3991
g57
(g58
g59
NtRp3992
(dp3993
g62
(dp3994
g70
I4
ssg71
g3988
sg64
(lp3995
S'web2py'
p3996
asbasbasbasbasbasbasbag57
(g73
g59
NtRp3997
(dp3998
g62
(dp3999
sg71
g3494
sg64
(lp4000
g57
(g78
g59
NtRp4001
(dp4002
g62
(dp4003
g82
g83
ssg71
g3997
sg64
(lp4004
S'menu'
p4005
asbag57
(g78
g59
NtRp4006
(dp4007
g62
(dp4008
g89
g90
ssg71
g3997
sg64
(lp4009
S':'
asbag57
(g78
g59
NtRp4010
(dp4011
g62
(dp4012
sg71
g3997
sg64
(lp4013
g57
(g58
g59
NtRp4014
(dp4015
g62
(dp4016
g70
I5
ssg71
g4010
sg64
(lp4017
g57
(g66
g59
NtRp4018
(dp4019
g62
(dp4020
g70
I4
ssg71
Nsg64
(lp4021
g57
(g73
g59
NtRp4022
(dp4023
g62
(dp4024
sg71
g4018
sg64
(lp4025
g57
(g78
g59
NtRp4026
(dp4027
g62
(dp4028
sg71
g4022
sg64
(lp4029
g57
(g58
g59
NtRp4030
(dp4031
g62
(dp4032
g70
I4
ssg71
g4026
sg64
(lp4033
g57
(g66
g59
NtRp4034
(dp4035
g62
(dp4036
g70
I3
ssg71
Nsg64
(lp4037
g57
(g73
g59
NtRp4038
(dp4039
g62
(dp4040
sg71
g4034
sg64
(lp4041
g57
(g78
g59
NtRp4042
(dp4043
g62
(dp4044
sg71
g4038
sg64
(lp4045
g57
(g58
g59
NtRp4046
(dp4047
g62
(dp4048
g70
I3
ssg71
g4042
sg64
(lp4049
cgluon.languages
lazyT_unpickle
p4050
(S't\x04\x00\x00\x00Home'
tRp4051
asbasbasbag57
(g73
g59
NtRp4052
(dp4053
g62
(dp4054
sg71
g4034
sg64
(lp4055
g57
(g78
g59
NtRp4056
(dp4057
g62
(dp4058
sg71
g4052
sg64
(lp4059
g57
(g58
g59
NtRp4060
(dp4061
g62
(dp4062
g70
I3
ssg71
g4056
sg64
(lp4063
g100
asbasbasbag57
(g73
g59
NtRp4064
(dp4065
g62
(dp4066
sg71
g4034
sg64
(lp4067
g57
(g78
g59
NtRp4068
(dp4069
g62
(dp4070
sg71
g4064
sg64
(lp4071
g57
(g58
g59
NtRp4072
(dp4073
g62
(dp4074
g70
I3
ssg71
g4068
sg64
(lp4075
S'/SeniorProject/default/index'
p4076
asbasbasbag57
(g73
g59
NtRp4077
(dp4078
g62
(dp4079
sg71
g4034
sg64
(lp4080
g57
(g78
g59
NtRp4081
(dp4082
g62
(dp4083
sg71
g4077
sg64
(lp4084
g57
(g58
g59
NtRp4085
(dp4086
g62
(dp4087
g70
I3
ssg71
g4081
sg64
(lp4088
g57
(g66
g59
NtRp4089
(dp4090
g62
(dp4091
g70
I2
ssg71
Nsg64
(lp4092
sbasbasbasbasbasbasbasbag57
(g73
g59
NtRp4093
(dp4094
g62
(dp4095
sg71
g4018
sg64
(lp4096
g57
(g78
g59
NtRp4097
(dp4098
g62
(dp4099
sg71
g4093
sg64
(lp4100
g57
(g58
g59
NtRp4101
(dp4102
g62
(dp4103
g70
I4
ssg71
g4097
sg64
(lp4104
g57
(g66
g59
NtRp4105
(dp4106
g62
(dp4107
g70
I3
ssg71
Nsg64
(lp4108
g57
(g73
g59
NtRp4109
(dp4110
g62
(dp4111
sg71
g4105
sg64
(lp4112
g57
(g78
g59
NtRp4113
(dp4114
g62
(dp4115
sg71
g4109
sg64
(lp4116
g57
(g58
g59
NtRp4117
(dp4118
g62
(dp4119
g70
I3
ssg71
g4113
sg64
(lp4120
g57
(cgluon.html
SPAN
p4121
g59
NtRp4122
(dp4123
g62
(dp4124
g82
S'color:yellow'
p4125
ssg71
Nsg64
(lp4126
g3996
asbasbasbasbag57
(g73
g59
NtRp4127
(dp4128
g62
(dp4129
sg71
g4105
sg64
(lp4130
g57
(g78
g59
NtRp4131
(dp4132
g62
(dp4133
sg71
g4127
sg64
(lp4134
g57
(g58
g59
NtRp4135
(dp4136
g62
(dp4137
g70
I3
ssg71
g4131
sg64
(lp4138
g100
asbasbasbag57
(g73
g59
NtRp4139
(dp4140
g62
(dp4141
sg71
g4105
sg64
(lp4142
g57
(g78
g59
NtRp4143
(dp4144
g62
(dp4145
sg71
g4139
sg64
(lp4146
g57
(g58
g59
NtRp4147
(dp4148
g62
(dp4149
g70
I3
ssg71
g4143
sg64
(lp4150
S'None'
p4151
asbasbasbag57
(g73
g59
NtRp4152
(dp4153
g62
(dp4154
sg71
g4105
sg64
(lp4155
g57
(g78
g59
NtRp4156
(dp4157
g62
(dp4158
sg71
g4152
sg64
(lp4159
g57
(g58
g59
NtRp4160
(dp4161
g62
(dp4162
g70
I3
ssg71
g4156
sg64
(lp4163
g57
(g66
g59
NtRp4164
(dp4165
g62
(dp4166
g70
I2
ssg71
Nsg64
(lp4167
g57
(g73
g59
NtRp4168
(dp4169
g62
(dp4170
sg71
g4164
sg64
(lp4171
g57
(g78
g59
NtRp4172
(dp4173
g62
(dp4174
sg71
g4168
sg64
(lp4175
g57
(g58
g59
NtRp4176
(dp4177
g62
(dp4178
g70
I2
ssg71
g4172
sg64
(lp4179
g57
(g66
g59
NtRp4180
(dp4181
g62
(dp4182
g70
I1
ssg71
Nsg64
(lp4183
g57
(g73
g59
NtRp4184
(dp4185
g62
(dp4186
sg71
g4180
sg64
(lp4187
g57
(g78
g59
NtRp4188
(dp4189
g62
(dp4190
sg71
g4184
sg64
(lp4191
g57
(g58
g59
NtRp4192
(dp4193
g62
(dp4194
g70
I1
ssg71
g4188
sg64
(lp4195
g4050
(S's\x08\x00\x00\x00My Sites'
tRp4196
asbasbasbag57
(g73
g59
NtRp4197
(dp4198
g62
(dp4199
sg71
g4180
sg64
(lp4200
g57
(g78
g59
NtRp4201
(dp4202
g62
(dp4203
sg71
g4197
sg64
(lp4204
g57
(g58
g59
NtRp4205
(dp4206
g62
(dp4207
g70
I1
ssg71
g4201
sg64
(lp4208
I00
asbasbasbag57
(g73
g59
NtRp4209
(dp4210
g62
(dp4211
sg71
g4180
sg64
(lp4212
g57
(g78
g59
NtRp4213
(dp4214
g62
(dp4215
sg71
g4209
sg64
(lp4216
g57
(g58
g59
NtRp4217
(dp4218
g62
(dp4219
g70
I1
ssg71
g4213
sg64
(lp4220
S'/admin/default/site'
p4221
asbasbasbasbasbasbasbag57
(g73
g59
NtRp4222
(dp4223
g62
(dp4224
sg71
g4164
sg64
(lp4225
g57
(g78
g59
NtRp4226
(dp4227
g62
(dp4228
sg71
g4222
sg64
(lp4229
g57
(g58
g59
NtRp4230
(dp4231
g62
(dp4232
g70
I2
ssg71
g4226
sg64
(lp4233
g57
(g66
g59
NtRp4234
(dp4235
g62
(dp4236
g70
I1
ssg71
Nsg64
(lp4237
g57
(g73
g59
NtRp4238
(dp4239
g62
(dp4240
sg71
g4234
sg64
(lp4241
g57
(g78
g59
NtRp4242
(dp4243
g62
(dp4244
sg71
g4238
sg64
(lp4245
g57
(g58
g59
NtRp4246
(dp4247
g62
(dp4248
g70
I1
ssg71
g4242
sg64
(lp4249
g4050
(S's\x08\x00\x00\x00This App'
tRp4250
asbasbasbag57
(g73
g59
NtRp4251
(dp4252
g62
(dp4253
sg71
g4234
sg64
(lp4254
g57
(g78
g59
NtRp4255
(dp4256
g62
(dp4257
sg71
g4251
sg64
(lp4258
g57
(g58
g59
NtRp4259
(dp4260
g62
(dp4261
g70
I1
ssg71
g4255
sg64
(lp4262
I00
asbasbasbag57
(g73
g59
NtRp4263
(dp4264
g62
(dp4265
sg71
g4234
sg64
(lp4266
g57
(g78
g59
NtRp4267
(dp4268
g62
(dp4269
sg71
g4263
sg64
(lp4270
g57
(g58
g59
NtRp4271
(dp4272
g62
(dp4273
g70
I1
ssg71
g4267
sg64
(lp4274
S'/admin/default/design/SeniorProject'
p4275
asbasbasbag57
(g73
g59
NtRp4276
(dp4277
g62
(dp4278
sg71
g4234
sg64
(lp4279
g57
(g78
g59
NtRp4280
(dp4281
g62
(dp4282
sg71
g4276
sg64
(lp4283
g57
(g58
g59
NtRp4284
(dp4285
g62
(dp4286
g70
I1
ssg71
g4280
sg64
(lp4287
(lp4288
(g4050
(S't\n\x00\x00\x00Controller'
tRp4289
I00
S'/admin/default/edit/SeniorProject/controllers/default.py'
tp4290
a(g4050
(S't\x04\x00\x00\x00View'
tRp4291
I00
S'/admin/default/edit/SeniorProject/views/default/index.html'
tp4292
a(g4050
(S't\x06\x00\x00\x00Layout'
tRp4293
I00
S'/admin/default/edit/SeniorProject/views/layout.html'
tp4294
a(g4050
(S't\n\x00\x00\x00Stylesheet'
tRp4295
I00
S'/admin/default/edit/SeniorProject/static/css/web2py.css'
tp4296
a(g4050
(S's\x08\x00\x00\x00DB Model'
tRp4297
I00
S'/admin/default/edit/SeniorProject/models/db.py'
tp4298
a(g4050
(S's\n\x00\x00\x00Menu Model'
tRp4299
I00
S'/admin/default/edit/SeniorProject/models/menu.py'
tp4300
a(g4050
(S't\x08\x00\x00\x00Database'
tRp4301
I00
S'/SeniorProject/appadmin/index'
tp4302
a(g4050
(S't\x06\x00\x00\x00Errors'
tRp4303
I00
S'/admin/default/errors/SeniorProject'
tp4304
a(g4050
(S't\x05\x00\x00\x00About'
tRp4305
I00
S'/admin/default/about/SeniorProject'
tp4306
aasbasbasbasbasbasbasbag57
(g73
g59
NtRp4307
(dp4308
g62
(dp4309
sg71
g4164
sg64
(lp4310
g57
(g78
g59
NtRp4311
(dp4312
g62
(dp4313
sg71
g4307
sg64
(lp4314
g57
(g58
g59
NtRp4315
(dp4316
g62
(dp4317
g70
I2
ssg71
g4311
sg64
(lp4318
g57
(g66
g59
NtRp4319
(dp4320
g62
(dp4321
g70
I1
ssg71
Nsg64
(lp4322
g57
(g73
g59
NtRp4323
(dp4324
g62
(dp4325
sg71
g4319
sg64
(lp4326
g57
(g78
g59
NtRp4327
(dp4328
g62
(dp4329
sg71
g4323
sg64
(lp4330
g57
(g58
g59
NtRp4331
(dp4332
g62
(dp4333
g70
I1
ssg71
g4327
sg64
(lp4334
S'web2py.com'
p4335
asbasbasbag57
(g73
g59
NtRp4336
(dp4337
g62
(dp4338
sg71
g4319
sg64
(lp4339
g57
(g78
g59
NtRp4340
(dp4341
g62
(dp4342
sg71
g4336
sg64
(lp4343
g57
(g58
g59
NtRp4344
(dp4345
g62
(dp4346
g70
I1
ssg71
g4340
sg64
(lp4347
I00
asbasbasbag57
(g73
g59
NtRp4348
(dp4349
g62
(dp4350
sg71
g4319
sg64
(lp4351
g57
(g78
g59
NtRp4352
(dp4353
g62
(dp4354
sg71
g4348
sg64
(lp4355
g57
(g58
g59
NtRp4356
(dp4357
g62
(dp4358
g70
I1
ssg71
g4352
sg64
(lp4359
S'http://www.web2py.com'
p4360
asbasbasbag57
(g73
g59
NtRp4361
(dp4362
g62
(dp4363
sg71
g4319
sg64
(lp4364
g57
(g78
g59
NtRp4365
(dp4366
g62
(dp4367
sg71
g4361
sg64
(lp4368
g57
(g58
g59
NtRp4369
(dp4370
g62
(dp4371
g70
I1
ssg71
g4365
sg64
(lp4372
(lp4373
(g4050
(S't\x08\x00\x00\x00Download'
tRp4374
I00
S'http://www.web2py.com/examples/default/download'
p4375
tp4376
a(g4050
(S't\x07\x00\x00\x00Support'
tRp4377
I00
S'http://www.web2py.com/examples/default/support'
p4378
tp4379
a(g4050
(S't\x04\x00\x00\x00Demo'
tRp4380
I00
S'http://web2py.com/demo_admin'
p4381
tp4382
a(g4050
(S's\x0e\x00\x00\x00Quick Examples'
tRp4383
I00
S'http://web2py.com/examples/default/examples'
p4384
tp4385
a(g4050
(S't\x03\x00\x00\x00FAQ'
tRp4386
I00
S'http://web2py.com/AlterEgo'
p4387
tp4388
a(g4050
(S't\x06\x00\x00\x00Videos'
tRp4389
I00
S'http://www.web2py.com/examples/default/videos/'
p4390
tp4391
a(g4050
(S's\x11\x00\x00\x00Free Applications'
tRp4392
I00
S'http://web2py.com/appliances'
p4393
tp4394
a(g4050
(S't\x07\x00\x00\x00Plugins'
tRp4395
I00
S'http://web2py.com/plugins'
p4396
tp4397
a(g4050
(S't\x07\x00\x00\x00Layouts'
tRp4398
I00
S'http://web2py.com/layouts'
p4399
tp4400
a(g4050
(S't\x07\x00\x00\x00Recipes'
tRp4401
I00
S'http://web2pyslices.com/'
p4402
tp4403
a(g4050
(S't\x08\x00\x00\x00Semantic'
tRp4404
I00
S'http://web2py.com/semantic'
p4405
tp4406
aasbasbasbasbasbasbasbag57
(g73
g59
NtRp4407
(dp4408
g62
(dp4409
sg71
g4164
sg64
(lp4410
g57
(g78
g59
NtRp4411
(dp4412
g62
(dp4413
sg71
g4407
sg64
(lp4414
g57
(g58
g59
NtRp4415
(dp4416
g62
(dp4417
g70
I2
ssg71
g4411
sg64
(lp4418
g57
(g66
g59
NtRp4419
(dp4420
g62
(dp4421
g70
I1
ssg71
Nsg64
(lp4422
g57
(g73
g59
NtRp4423
(dp4424
g62
(dp4425
sg71
g4419
sg64
(lp4426
g57
(g78
g59
NtRp4427
(dp4428
g62
(dp4429
sg71
g4423
sg64
(lp4430
g57
(g58
g59
NtRp4431
(dp4432
g62
(dp4433
g70
I1
ssg71
g4427
sg64
(lp4434
g4050
(S't\r\x00\x00\x00Documentation'
tRp4435
asbasbasbag57
(g73
g59
NtRp4436
(dp4437
g62
(dp4438
sg71
g4419
sg64
(lp4439
g57
(g78
g59
NtRp4440
(dp4441
g62
(dp4442
sg71
g4436
sg64
(lp4443
g57
(g58
g59
NtRp4444
(dp4445
g62
(dp4446
g70
I1
ssg71
g4440
sg64
(lp4447
I00
asbasbasbag57
(g73
g59
NtRp4448
(dp4449
g62
(dp4450
sg71
g4419
sg64
(lp4451
g57
(g78
g59
NtRp4452
(dp4453
g62
(dp4454
sg71
g4448
sg64
(lp4455
g57
(g58
g59
NtRp4456
(dp4457
g62
(dp4458
g70
I1
ssg71
g4452
sg64
(lp4459
S'http://www.web2py.com/book'
p4460
asbasbasbag57
(g73
g59
NtRp4461
(dp4462
g62
(dp4463
sg71
g4419
sg64
(lp4464
g57
(g78
g59
NtRp4465
(dp4466
g62
(dp4467
sg71
g4461
sg64
(lp4468
g57
(g58
g59
NtRp4469
(dp4470
g62
(dp4471
g70
I1
ssg71
g4465
sg64
(lp4472
(lp4473
(g4050
(S't\x07\x00\x00\x00Preface'
tRp4474
I00
S'http://www.web2py.com/book/default/chapter/00'
p4475
tp4476
a(g4050
(S't\x0c\x00\x00\x00Introduction'
tRp4477
I00
S'http://www.web2py.com/book/default/chapter/01'
p4478
tp4479
a(g4050
(S't\x06\x00\x00\x00Python'
tRp4480
I00
S'http://www.web2py.com/book/default/chapter/02'
p4481
tp4482
a(g4050
(S't\x08\x00\x00\x00Overview'
tRp4483
I00
S'http://www.web2py.com/book/default/chapter/03'
p4484
tp4485
a(g4050
(S's\x08\x00\x00\x00The Core'
tRp4486
I00
S'http://www.web2py.com/book/default/chapter/04'
p4487
tp4488
a(g4050
(S's\t\x00\x00\x00The Views'
tRp4489
I00
S'http://www.web2py.com/book/default/chapter/05'
p4490
tp4491
a(g4050
(S't\x08\x00\x00\x00Database'
tRp4492
I00
S'http://www.web2py.com/book/default/chapter/06'
p4493
tp4494
a(g4050
(S's\x14\x00\x00\x00Forms and Validators'
tRp4495
I00
S'http://www.web2py.com/book/default/chapter/07'
p4496
tp4497
a(g4050
(S's\r\x00\x00\x00Email and SMS'
tRp4498
I00
S'http://www.web2py.com/book/default/chapter/08'
p4499
tp4500
a(g4050
(S's\x0e\x00\x00\x00Access Control'
tRp4501
I00
S'http://www.web2py.com/book/default/chapter/09'
p4502
tp4503
a(g4050
(S't\x08\x00\x00\x00Services'
tRp4504
I00
S'http://www.web2py.com/book/default/chapter/10'
p4505
tp4506
a(g4050
(S's\x0c\x00\x00\x00Ajax Recipes'
tRp4507
I00
S'http://www.web2py.com/book/default/chapter/11'
p4508
tp4509
a(g4050
(S's\x16\x00\x00\x00Components and Plugins'
tRp4510
I00
S'http://www.web2py.com/book/default/chapter/12'
p4511
tp4512
a(g4050
(S's\x12\x00\x00\x00Deployment Recipes'
tRp4513
I00
S'http://www.web2py.com/book/default/chapter/13'
p4514
tp4515
a(g4050
(S's\r\x00\x00\x00Other Recipes'
tRp4516
I00
S'http://www.web2py.com/book/default/chapter/14'
p4517
tp4518
a(g4050
(S's\r\x00\x00\x00Buy this book'
tRp4519
I00
S'http://stores.lulu.com/web2py'
p4520
tp4521
aasbasbasbasbasbasbasbag57
(g73
g59
NtRp4522
(dp4523
g62
(dp4524
sg71
g4164
sg64
(lp4525
g57
(g78
g59
NtRp4526
(dp4527
g62
(dp4528
sg71
g4522
sg64
(lp4529
g57
(g58
g59
NtRp4530
(dp4531
g62
(dp4532
g70
I2
ssg71
g4526
sg64
(lp4533
g57
(g66
g59
NtRp4534
(dp4535
g62
(dp4536
g70
I1
ssg71
Nsg64
(lp4537
g57
(g73
g59
NtRp4538
(dp4539
g62
(dp4540
sg71
g4534
sg64
(lp4541
g57
(g78
g59
NtRp4542
(dp4543
g62
(dp4544
sg71
g4538
sg64
(lp4545
g57
(g58
g59
NtRp4546
(dp4547
g62
(dp4548
g70
I1
ssg71
g4542
sg64
(lp4549
g4050
(S't\t\x00\x00\x00Community'
tRp4550
asbasbasbag57
(g73
g59
NtRp4551
(dp4552
g62
(dp4553
sg71
g4534
sg64
(lp4554
g57
(g78
g59
NtRp4555
(dp4556
g62
(dp4557
sg71
g4551
sg64
(lp4558
g57
(g58
g59
NtRp4559
(dp4560
g62
(dp4561
g70
I1
ssg71
g4555
sg64
(lp4562
I00
asbasbasbag57
(g73
g59
NtRp4563
(dp4564
g62
(dp4565
sg71
g4534
sg64
(lp4566
g57
(g78
g59
NtRp4567
(dp4568
g62
(dp4569
sg71
g4563
sg64
(lp4570
g57
(g58
g59
NtRp4571
(dp4572
g62
(dp4573
g70
I1
ssg71
g4567
sg64
(lp4574
Nasbasbasbag57
(g73
g59
NtRp4575
(dp4576
g62
(dp4577
sg71
g4534
sg64
(lp4578
g57
(g78
g59
NtRp4579
(dp4580
g62
(dp4581
sg71
g4575
sg64
(lp4582
g57
(g58
g59
NtRp4583
(dp4584
g62
(dp4585
g70
I1
ssg71
g4579
sg64
(lp4586
(lp4587
(g4050
(S't\x06\x00\x00\x00Groups'
tRp4588
I00
S'http://www.web2py.com/examples/default/usergroups'
p4589
tp4590
a(g4050
(S't\x07\x00\x00\x00Twitter'
tRp4591
I00
S'http://twitter.com/web2py'
p4592
tp4593
a(g4050
(S's\t\x00\x00\x00Live Chat'
tRp4594
I00
S'http://webchat.freenode.net/?channels=web2py'
p4595
tp4596
aasbasbasbasbasbasbasbag57
(g73
g59
NtRp4597
(dp4598
g62
(dp4599
sg71
g4164
sg64
(lp4600
g57
(g78
g59
NtRp4601
(dp4602
g62
(dp4603
sg71
g4597
sg64
(lp4604
g57
(g58
g59
NtRp4605
(dp4606
g62
(dp4607
g70
I2
ssg71
g4601
sg64
(lp4608
g57
(g66
g59
NtRp4609
(dp4610
g62
(dp4611
g70
I1
ssg71
Nsg64
(lp4612
g57
(g73
g59
NtRp4613
(dp4614
g62
(dp4615
sg71
g4609
sg64
(lp4616
g57
(g78
g59
NtRp4617
(dp4618
g62
(dp4619
sg71
g4613
sg64
(lp4620
g57
(g58
g59
NtRp4621
(dp4622
g62
(dp4623
g70
I1
ssg71
g4617
sg64
(lp4624
g4050
(S't\x07\x00\x00\x00Plugins'
tRp4625
asbasbasbag57
(g73
g59
NtRp4626
(dp4627
g62
(dp4628
sg71
g4609
sg64
(lp4629
g57
(g78
g59
NtRp4630
(dp4631
g62
(dp4632
sg71
g4626
sg64
(lp4633
g57
(g58
g59
NtRp4634
(dp4635
g62
(dp4636
g70
I1
ssg71
g4630
sg64
(lp4637
I00
asbasbasbag57
(g73
g59
NtRp4638
(dp4639
g62
(dp4640
sg71
g4609
sg64
(lp4641
g57
(g78
g59
NtRp4642
(dp4643
g62
(dp4644
sg71
g4638
sg64
(lp4645
g57
(g58
g59
NtRp4646
(dp4647
g62
(dp4648
g70
I1
ssg71
g4642
sg64
(lp4649
Nasbasbasbag57
(g73
g59
NtRp4650
(dp4651
g62
(dp4652
sg71
g4609
sg64
(lp4653
g57
(g78
g59
NtRp4654
(dp4655
g62
(dp4656
sg71
g4650
sg64
(lp4657
g57
(g58
g59
NtRp4658
(dp4659
g62
(dp4660
g70
I1
ssg71
g4654
sg64
(lp4661
(lp4662
(S'plugin_wiki'
p4663
I00
S'http://web2py.com/examples/default/download'
p4664
tp4665
a(g4050
(S's\r\x00\x00\x00Other Plugins'
tRp4666
I00
g4396
tp4667
a(g4050
(S's\x0e\x00\x00\x00Layout Plugins'
tRp4668
I00
g4399
tp4669
aasbasbasbasbasbasbasbasbasbasbasbasbasbasbasbasbasbasbasbag57
(g73
g59
NtRp4670
(dp4671
g62
(dp4672
sg71
g3494
sg64
(lp4673
g57
(g78
g59
NtRp4674
(dp4675
g62
(dp4676
g82
g83
ssg71
g4670
sg64
(lp4677
S'meta'
p4678
asbag57
(g78
g59
NtRp4679
(dp4680
g62
(dp4681
g89
g90
ssg71
g4670
sg64
(lp4682
S':'
asbag57
(g78
g59
NtRp4683
(dp4684
g62
(dp4685
sg71
g4670
sg64
(lp4686
g57
(g58
g59
NtRp4687
(dp4688
g62
(dp4689
g70
I5
ssg71
g4683
sg64
(lp4690
g57
(g66
g59
NtRp4691
(dp4692
g62
(dp4693
g70
I4
ssg71
Nsg64
(lp4694
g57
(g73
g59
NtRp4695
(dp4696
g62
(dp4697
sg71
g4691
sg64
(lp4698
g57
(g78
g59
NtRp4699
(dp4700
g62
(dp4701
g82
g83
ssg71
g4695
sg64
(lp4702
S'author'
p4703
asbag57
(g78
g59
NtRp4704
(dp4705
g62
(dp4706
g89
g90
ssg71
g4695
sg64
(lp4707
S':'
asbag57
(g78
g59
NtRp4708
(dp4709
g62
(dp4710
sg71
g4695
sg64
(lp4711
g57
(g58
g59
NtRp4712
(dp4713
g62
(dp4714
g70
I4
ssg71
g4708
sg64
(lp4715
S'Your Name <you@example.com>'
p4716
asbasbasbag57
(g73
g59
NtRp4717
(dp4718
g62
(dp4719
sg71
g4691
sg64
(lp4720
g57
(g78
g59
NtRp4721
(dp4722
g62
(dp4723
g82
g83
ssg71
g4717
sg64
(lp4724
S'copyright'
p4725
asbag57
(g78
g59
NtRp4726
(dp4727
g62
(dp4728
g89
g90
ssg71
g4717
sg64
(lp4729
S':'
asbag57
(g78
g59
NtRp4730
(dp4731
g62
(dp4732
sg71
g4717
sg64
(lp4733
g57
(g58
g59
NtRp4734
(dp4735
g62
(dp4736
g70
I4
ssg71
g4730
sg64
(lp4737
S'Copyright 2011'
p4738
asbasbasbag57
(g73
g59
NtRp4739
(dp4740
g62
(dp4741
sg71
g4691
sg64
(lp4742
g57
(g78
g59
NtRp4743
(dp4744
g62
(dp4745
g82
g83
ssg71
g4739
sg64
(lp4746
S'description'
p4747
asbag57
(g78
g59
NtRp4748
(dp4749
g62
(dp4750
g89
g90
ssg71
g4739
sg64
(lp4751
S':'
asbag57
(g78
g59
NtRp4752
(dp4753
g62
(dp4754
sg71
g4739
sg64
(lp4755
g57
(g58
g59
NtRp4756
(dp4757
g62
(dp4758
g70
I4
ssg71
g4752
sg64
(lp4759
S'a cool new app'
p4760
asbasbasbag57
(g73
g59
NtRp4761
(dp4762
g62
(dp4763
sg71
g4691
sg64
(lp4764
g57
(g78
g59
NtRp4765
(dp4766
g62
(dp4767
g82
g83
ssg71
g4761
sg64
(lp4768
S'generator'
p4769
asbag57
(g78
g59
NtRp4770
(dp4771
g62
(dp4772
g89
g90
ssg71
g4761
sg64
(lp4773
S':'
asbag57
(g78
g59
NtRp4774
(dp4775
g62
(dp4776
sg71
g4761
sg64
(lp4777
g57
(g58
g59
NtRp4778
(dp4779
g62
(dp4780
g70
I4
ssg71
g4774
sg64
(lp4781
S'Web2py Web Framework'
p4782
asbasbasbag57
(g73
g59
NtRp4783
(dp4784
g62
(dp4785
sg71
g4691
sg64
(lp4786
g57
(g78
g59
NtRp4787
(dp4788
g62
(dp4789
g82
g83
ssg71
g4783
sg64
(lp4790
S'keywords'
p4791
asbag57
(g78
g59
NtRp4792
(dp4793
g62
(dp4794
g89
g90
ssg71
g4783
sg64
(lp4795
S':'
asbag57
(g78
g59
NtRp4796
(dp4797
g62
(dp4798
sg71
g4783
sg64
(lp4799
g57
(g58
g59
NtRp4800
(dp4801
g62
(dp4802
g70
I4
ssg71
g4796
sg64
(lp4803
S'web2py, python, framework'
p4804
asbasbasbasbasbasbasbag57
(g73
g59
NtRp4805
(dp4806
g62
(dp4807
sg71
g3494
sg64
(lp4808
g57
(g78
g59
NtRp4809
(dp4810
g62
(dp4811
g82
g83
ssg71
g4805
sg64
(lp4812
S'postprocessing'
p4813
asbag57
(g78
g59
NtRp4814
(dp4815
g62
(dp4816
g89
g90
ssg71
g4805
sg64
(lp4817
S':'
asbag57
(g78
g59
NtRp4818
(dp4819
g62
(dp4820
sg71
g4805
sg64
(lp4821
g57
(g58
g59
NtRp4822
(dp4823
g62
(dp4824
g70
I5
ssg71
g4818
sg64
(lp4825
g57
(g66
g59
NtRp4826
(dp4827
g62
(dp4828
g70
I4
ssg71
Nsg64
(lp4829
sbasbasbasbag57
(g73
g59
NtRp4830
(dp4831
g62
(dp4832
sg71
g3494
sg64
(lp4833
g57
(g78
g59
NtRp4834
(dp4835
g62
(dp4836
g82
g83
ssg71
g4830
sg64
(lp4837
S'session_file'
p4838
asbag57
(g78
g59
NtRp4839
(dp4840
g62
(dp4841
g89
g90
ssg71
g4830
sg64
(lp4842
S':'
asbag57
(g78
g59
NtRp4843
(dp4844
g62
(dp4845
sg71
g4830
sg64
(lp4846
g57
(g58
g59
NtRp4847
(dp4848
g62
(dp4849
g70
I5
ssg71
g4843
sg64
(lp4850
S"<open file 'C:\\Users\\Alysse\\Documents\\GitHub\\finholt-senior-project\\web2py\\applications\\SeniorProject\\sessions\\127.0.0.1-9c3f5f36-4d0b-4079-b25e-b59716252f03', mode 'rb+' at 0x0777C6A8>"
p4851
asbasbasbag57
(g73
g59
NtRp4852
(dp4853
g62
(dp4854
sg71
g3494
sg64
(lp4855
g57
(g78
g59
NtRp4856
(dp4857
g62
(dp4858
g82
g83
ssg71
g4852
sg64
(lp4859
S'session_filename'
p4860
asbag57
(g78
g59
NtRp4861
(dp4862
g62
(dp4863
g89
g90
ssg71
g4852
sg64
(lp4864
S':'
asbag57
(g78
g59
NtRp4865
(dp4866
g62
(dp4867
sg71
g4852
sg64
(lp4868
g57
(g58
g59
NtRp4869
(dp4870
g62
(dp4871
g70
I5
ssg71
g4865
sg64
(lp4872
S'C:\\Users\\Alysse\\Documents\\GitHub\\finholt-senior-project\\web2py\\applications\\SeniorProject\\sessions\\127.0.0.1-9c3f5f36-4d0b-4079-b25e-b59716252f03'
p4873
asbasbasbag57
(g73
g59
NtRp4874
(dp4875
g62
(dp4876
sg71
g3494
sg64
(lp4877
g57
(g78
g59
NtRp4878
(dp4879
g62
(dp4880
g82
g83
ssg71
g4874
sg64
(lp4881
S'session_id'
p4882
asbag57
(g78
g59
NtRp4883
(dp4884
g62
(dp4885
g89
g90
ssg71
g4874
sg64
(lp4886
S':'
asbag57
(g78
g59
NtRp4887
(dp4888
g62
(dp4889
sg71
g4874
sg64
(lp4890
g57
(g58
g59
NtRp4891
(dp4892
g62
(dp4893
g70
I5
ssg71
g4887
sg64
(lp4894
S'127.0.0.1-9c3f5f36-4d0b-4079-b25e-b59716252f03'
p4895
asbasbasbag57
(g73
g59
NtRp4896
(dp4897
g62
(dp4898
sg71
g3494
sg64
(lp4899
g57
(g78
g59
NtRp4900
(dp4901
g62
(dp4902
g82
g83
ssg71
g4896
sg64
(lp4903
S'session_id_name'
p4904
asbag57
(g78
g59
NtRp4905
(dp4906
g62
(dp4907
g89
g90
ssg71
g4896
sg64
(lp4908
S':'
asbag57
(g78
g59
NtRp4909
(dp4910
g62
(dp4911
sg71
g4896
sg64
(lp4912
g57
(g58
g59
NtRp4913
(dp4914
g62
(dp4915
g70
I5
ssg71
g4909
sg64
(lp4916
g3551
asbasbasbag57
(g73
g59
NtRp4917
(dp4918
g62
(dp4919
sg71
g3494
sg64
(lp4920
g57
(g78
g59
NtRp4921
(dp4922
g62
(dp4923
g82
g83
ssg71
g4917
sg64
(lp4924
S'session_locked'
p4925
asbag57
(g78
g59
NtRp4926
(dp4927
g62
(dp4928
g89
g90
ssg71
g4917
sg64
(lp4929
S':'
asbag57
(g78
g59
NtRp4930
(dp4931
g62
(dp4932
sg71
g4917
sg64
(lp4933
g57
(g58
g59
NtRp4934
(dp4935
g62
(dp4936
g70
I5
ssg71
g4930
sg64
(lp4937
g1678
asbasbasbag57
(g73
g59
NtRp4938
(dp4939
g62
(dp4940
sg71
g3494
sg64
(lp4941
g57
(g78
g59
NtRp4942
(dp4943
g62
(dp4944
g82
g83
ssg71
g4938
sg64
(lp4945
S'session_new'
p4946
asbag57
(g78
g59
NtRp4947
(dp4948
g62
(dp4949
g89
g90
ssg71
g4938
sg64
(lp4950
S':'
asbag57
(g78
g59
NtRp4951
(dp4952
g62
(dp4953
sg71
g4938
sg64
(lp4954
g57
(g58
g59
NtRp4955
(dp4956
g62
(dp4957
g70
I5
ssg71
g4951
sg64
(lp4958
g100
asbasbasbag57
(g73
g59
NtRp4959
(dp4960
g62
(dp4961
sg71
g3494
sg64
(lp4962
g57
(g78
g59
NtRp4963
(dp4964
g62
(dp4965
g82
g83
ssg71
g4959
sg64
(lp4966
S'status'
p4967
asbag57
(g78
g59
NtRp4968
(dp4969
g62
(dp4970
g89
g90
ssg71
g4959
sg64
(lp4971
S':'
asbag57
(g78
g59
NtRp4972
(dp4973
g62
(dp4974
sg71
g4959
sg64
(lp4975
g57
(g58
g59
NtRp4976
(dp4977
g62
(dp4978
g70
I5
ssg71
g4972
sg64
(lp4979
S'200'
p4980
asbasbasbag57
(g73
g59
NtRp4981
(dp4982
g62
(dp4983
sg71
g3494
sg64
(lp4984
g57
(g78
g59
NtRp4985
(dp4986
g62
(dp4987
g82
g83
ssg71
g4981
sg64
(lp4988
S'subtitle'
p4989
asbag57
(g78
g59
NtRp4990
(dp4991
g62
(dp4992
g89
g90
ssg71
g4981
sg64
(lp4993
S':'
asbag57
(g78
g59
NtRp4994
(dp4995
g62
(dp4996
sg71
g4981
sg64
(lp4997
g57
(g58
g59
NtRp4998
(dp4999
g62
(dp5000
g70
I5
ssg71
g4994
sg64
(lp5001
g4050
(S's\r\x00\x00\x00customize me!'
tRp5002
asbasbasbag57
(g73
g59
NtRp5003
(dp5004
g62
(dp5005
sg71
g3494
sg64
(lp5006
g57
(g78
g59
NtRp5007
(dp5008
g62
(dp5009
g82
g83
ssg71
g5003
sg64
(lp5010
S'title'
p5011
asbag57
(g78
g59
NtRp5012
(dp5013
g62
(dp5014
g89
g90
ssg71
g5003
sg64
(lp5015
S':'
asbag57
(g78
g59
NtRp5016
(dp5017
g62
(dp5018
sg71
g5003
sg64
(lp5019
g57
(g58
g59
NtRp5020
(dp5021
g62
(dp5022
g70
I5
ssg71
g5016
sg64
(lp5023
S'Seniorproject'
p5024
asbasbasbag57
(g73
g59
NtRp5025
(dp5026
g62
(dp5027
sg71
g3494
sg64
(lp5028
g57
(g78
g59
NtRp5029
(dp5030
g62
(dp5031
g82
g83
ssg71
g5025
sg64
(lp5032
g2342
asbag57
(g78
g59
NtRp5033
(dp5034
g62
(dp5035
g89
g90
ssg71
g5025
sg64
(lp5036
S':'
asbag57
(g78
g59
NtRp5037
(dp5038
g62
(dp5039
sg71
g5025
sg64
(lp5040
g57
(g58
g59
NtRp5041
(dp5042
g62
(dp5043
g70
I5
ssg71
g5037
sg64
(lp5044
g2355
asbasbasbag57
(g73
g59
NtRp5045
(dp5046
g62
(dp5047
sg71
g3494
sg64
(lp5048
g57
(g78
g59
NtRp5049
(dp5050
g62
(dp5051
g82
g83
ssg71
g5045
sg64
(lp5052
S'view'
p5053
asbag57
(g78
g59
NtRp5054
(dp5055
g62
(dp5056
g89
g90
ssg71
g5045
sg64
(lp5057
S':'
asbag57
(g78
g59
NtRp5058
(dp5059
g62
(dp5060
sg71
g5045
sg64
(lp5061
g57
(g58
g59
NtRp5062
(dp5063
g62
(dp5064
g70
I5
ssg71
g5058
sg64
(lp5065
S'default/index.html'
p5066
asbasbasbasbasbsS'locals'
p5067
(dp5068
S'showid'
p5069
g1678
sS'ofields'
p5070
S'[]'
p5071
sS'delete_label'
p5072
S"'Check to delete'"
p5073
sS'nbsp'
p5074
S'<gluon.html.XML object>'
p5075
sS'submit_button'
p5076
S"'Submit'"
p5077
sS'table'
p5078
S"<Table {'ALL': <gluon.dal.SQLALL object at 0x076...>, 'id': <gluon.dal.Field object at 0x0768A9D0>}>"
p5079
sS'formstyle'
p5080
S"'table3cols'"
p5081
sS'self'
p5082
S'<gluon.sqlhtml.SQLFORM object>'
p5083
sS'comments'
p5084
g1678
sS'buttons'
p5085
S"['submit']"
p5086
sS'ignore_rw'
p5087
g100
sS'readonly'
p5088
g100
sS'record_id'
p5089
S'None'
p5090
sS'labels'
p5091
S'None'
p5092
sS'col3'
p5093
g45
sS'deletable'
p5094
g100
sS'linkto'
p5095
S'None'
p5096
sS'fields'
p5097
S'[]'
p5098
sS'upload'
p5099
S'None'
p5100
sS'keyed'
p5101
g100
sS'record'
p5102
S'None'
p5103
sS'separator'
p5104
S"': '"
p5105
sS'keepopts'
p5106
S'[]'
p5107
sg62
g45
sssS'traceback'
p5108
S'Traceback (most recent call last):\n  File "C:\\Users\\Alysse\\Documents\\GitHub\\finholt-senior-project\\web2py\\gluon\\restricted.py", line 205, in restricted\n    exec ccode in environment\n  File "C:\\Users\\Alysse\\Documents\\GitHub\\finholt-senior-project\\web2py\\applications\\SeniorProject\\controllers/default.py", line 23, in <module>\n    photoForm = SQLFORM(db.MeetingMinutes, fields = [])\n  File "C:\\Users\\Alysse\\Documents\\GitHub\\finholt-senior-project\\web2py\\gluon\\sqlhtml.py", line 740, in __init__\n    if self.fields[0] != table.fields[0] and \\\nIndexError: list index out of range\n'
p5109
s.