(dp1
S'output'
p2
S"<type 'exceptions.IOError'> [Errno 13] Permission denied: '/home/seniorproj/Documents/finholt-senior-project/web2py/applications/SeniorProject/databases/sql.log'"
p3
sS'layer'
p4
S'/home/seniorproj/Documents/finholt-senior-project/web2py/applications/SeniorProject/models/db.py'
p5
sS'code'
p6
S'# -*- coding: utf-8 -*-\r\n\r\n#########################################################################\r\n## This scaffolding model makes your app work on Google App Engine too\r\n## File is released under public domain and you can use without limitations\r\n#########################################################################\r\n\r\n## if SSL/HTTPS is properly configured and you want all HTTP requests to\r\n## be redirected to HTTPS, uncomment the line below:\r\n# request.requires_https()\r\n\r\nif not request.env.web2py_runtime_gae:\r\n    ## if NOT running on Google App Engine use SQLite or other DB\r\n    # db = DAL(\'sqlite://storage.sqlite\')\r\n    db = DAL(\'mysql://seniorproj:web2py2012@10.24.6.23/finholt\')\r\nelse:\r\n    ## connect to Google BigTable (optional \'google:datastore://namespace\')\r\n    db = DAL(\'google:datastore\')\r\n    ## store sessions and tickets there\r\n    session.connect(request, response, db = db)\r\n    ## or store session in Memcache, Redis, etc.\r\n    ## from gluon.contrib.memdb import MEMDB\r\n    ## from google.appengine.api.memcache import Client\r\n    ## session.connect(request, response, db = MEMDB(Client()))\r\n\r\n## by default give a view/generic.extension to all actions from localhost\r\n## none otherwise. a pattern can be \'controller/function.extension\'\r\nresponse.generic_patterns = [\'*\'] if request.is_local else []\r\n## (optional) optimize handling of static files\r\n# response.optimize_css = \'concat,minify,inline\'\r\n# response.optimize_js = \'concat,minify,inline\'\r\n\r\n#########################################################################\r\n## Here is sample code if you need for\r\n## - email capabilities\r\n## - authentication (registration, login, logout, ... )\r\n## - authorization (role based authorization)\r\n## - services (xml, csv, json, xmlrpc, jsonrpc, amf, rss)\r\n## - old style crud actions\r\n## (more options discussed in gluon/tools.py)\r\n#########################################################################\r\n\r\nfrom gluon.tools import Auth, Crud, Service, PluginManager, prettydate\r\nauth = Auth(db, hmac_key=Auth.get_or_create_key())\r\ncrud, service, plugins = Crud(db), Service(), PluginManager()\r\n\r\ndb.define_table(\r\n    auth.settings.table_user_name,\r\n    Field(\'first_name\', label=\'First Name\', length=128, default=\'\'),\r\n    Field(\'last_name\', label=\'Last Name\', length=128, default=\'\'),\r\n    Field(\'email\', label=\'Email\',length=128, default=\'\', unique=True),\r\n    Field(\'password\', \'password\', length=512,            \r\n          readable=False, label=\'Password\'),\r\n    Field(\'phone\',label="Phone Number"),\r\n    Field(\'registration_key\', length=512,                # required\r\n          writable=False, readable=False, default=\'\'),\r\n    Field(\'reset_password_key\', length=512,              # required\r\n          writable=False, readable=False, default=\'\'),\r\n    Field(\'registration_id\', length=512,                 # required\r\n          writable=False, readable=False, default=\'\'),\r\n    Field(\'role\', length=512, label="Role"))\r\n\r\ncustom_auth_table = db[auth.settings.table_user_name] # get the custom_auth_table\r\ncustom_auth_table.first_name.requires = \\\r\n  IS_NOT_EMPTY(error_message=auth.messages.is_empty)\r\ncustom_auth_table.last_name.requires = \\\r\n  IS_NOT_EMPTY(error_message=auth.messages.is_empty)\r\ncustom_auth_table.password.requires = [IS_STRONG(), CRYPT()]\r\ncustom_auth_table.email.requires = [\r\n  IS_EMAIL(error_message=auth.messages.invalid_email),\r\n  IS_NOT_IN_DB(db, custom_auth_table.email)]\r\n\r\n## create all tables needed by auth if not custom tables\r\nauth.define_tables()\r\n\r\n## configure email\r\nmail=auth.settings.mailer\r\nmail.settings.server = \'logging\' or \'smtp.gmail.com:587\'\r\nmail.settings.sender = \'you@gmail.com\'\r\nmail.settings.login = \'username:password\'\r\n\r\n## configure auth policy\r\ngeneralAuth = auth.id_group(role="General");\r\nif auth.id_group(role="General")<=0:\r\n    generalAuth = auth.add_group(role="General")\r\nif auth.id_group(role="Admin")<=0:\r\n    adminAuth = auth.add_group(role="Admin")\r\nauth.settings.registration_requires_verification = False\r\nauth.settings.registration_requires_approval = False\r\nauth.settings.reset_password_requires_verification = True\r\n##auth.settings.everybody_group_id = 5\r\n\r\n## if you need to use OpenID, Facebook, MySpace, Twitter, Linkedin, etc.\r\n## register with janrain.com, write your domain:api_key in private/janrain.key\r\nfrom gluon.contrib.login_methods.rpx_account import use_janrain\r\nuse_janrain(auth,filename=\'private/janrain.key\')\r\n\r\n#########################################################################\r\n## Define your tables below (or better in another model file) for example\r\n##\r\n## >>> db.define_table(\'mytable\',Field(\'myfield\',\'string\'))\r\n##\r\n## Fields can be \'string\',\'text\',\'password\',\'integer\',\'double\',\'boolean\'\r\n##       \'date\',\'time\',\'datetime\',\'blob\',\'upload\', \'reference TABLENAME\'\r\n## There is an implicit \'id integer autoincrement\' field\r\n## Consult manual for more options, validators, etc.\r\n##\r\n## More API examples for controllers:\r\n##\r\n## >>> db.mytable.insert(myfield=\'value\')\r\n## >>> rows=db(db.mytable.myfield==\'value\').select(db.mytable.ALL)\r\n## >>> for row in rows: print row.id, row.myfield\r\n#########################################################################\r\n\r\ndb.define_table("Project", Field(\'name\',\'string\'), Field(\'openDate\',\'date\'), Field(\'closedDate\',\'date\'), Field(\'projNum\', \'integer\'), Field(\'archived\',\'boolean\',readable=False, writable=False, default=False))\r\n\r\ndb.define_table("ProjectUser", Field(\'userRole\',\'string\'), Field(\'projectId\',\'string\'))\r\n\r\n#db.define_table("User", Field(\'name\',\'string\'), Field(\'role\',\'string\'))          More stuff? Taken care of already?\r\n\r\ndb.define_table("CCD", Field(\'ccdNum\',\'string\'), Field(\'projectNum\',\'string\'), Field(\'file\',\'upload\'))\r\n\r\ndb.define_table("Submittal", Field(\'statusFlag\',\'string\'), Field(\'projectNum\',\'string\'), Field(\'assignedTo\',\'string\'), Field(\'submittal\',\'upload\'))\r\n\r\ndb.define_table("RFI", Field(\'rfiNum\',\'string\'), Field(\'requestBy\',\'string\'), Field(\'dateSent\',\'date\'), Field(\'reqRefTo\',\'string\'), Field(\'dateRec\',\'date\'), Field(\'drawingNum\',\'integer\'), Field(\'detailNum\',\'integer\'), Field(\'specSection\',\'integer\'), Field(\'sheetName\',\'string\'), Field(\'grids\',\'string\'), Field(\'sectionPage\',\'integer\'), Field(\'description\',\'text\'), Field(\'suggestion\',\'text\'), Field(\'reply\',\'text\'), Field(\'responseBy\',\'string\'), Field(\'responseDate\',\'date\'), Field(\'statusFlag\',\'string\'),Field(\'projectNum\',\'string\'))\r\n\r\ndb.define_table("ProposalRequest", Field(\'reqNum\',\'string\'), Field(\'amendNum\',\'string\'), Field(\'projectNum\',\'string\'), Field(\'subject\',\'text\'), Field(\'propDate\',\'date\'), Field(\'sentTo\',\'string\'), Field(\'cc\',\'string\'), Field(\'description\',\'text\'))\r\n\r\ndb.define_table("Proposal", Field(\'reqNum\',\'integer\'), Field(\'propDate\',\'date\'), Field(\'file\',\'upload\'),Field(\'projectNum\',\'string\'))\r\n\r\ndb.define_table("MeetingMinutes", Field(\'meetDate\',\'date\'), Field(\'file\',\'upload\'))\r\n'
p7
sS'snapshot'
p8
(dp9
S'exception'
p10
(dp11
S'__getslice__'
p12
S"<method-wrapper '__getslice__' of exceptions.IOError object at 0x2298441c>"
p13
sS'__str__'
p14
S"<method-wrapper '__str__' of exceptions.IOError object at 0x2298441c>"
p15
sS'__reduce__'
p16
S'<built-in method __reduce__ of exceptions.IOError object at 0x2298441c>'
p17
sS'__dict__'
p18
S'{}'
p19
sS'__sizeof__'
p20
S'<built-in method __sizeof__ of exceptions.IOError object at 0x2298441c>'
p21
sS'__init__'
p22
S"<method-wrapper '__init__' of exceptions.IOError object at 0x2298441c>"
p23
sS'__setattr__'
p24
S"<method-wrapper '__setattr__' of exceptions.IOError object at 0x2298441c>"
p25
sS'__reduce_ex__'
p26
S'<built-in method __reduce_ex__ of exceptions.IOError object at 0x2298441c>'
p27
sS'__new__'
p28
S'<built-in method __new__ of type object at 0x19653d20>'
p29
sS'errno'
p30
S'13'
p31
sS'__format__'
p32
S'<built-in method __format__ of exceptions.IOError object at 0x2298441c>'
p33
sS'__class__'
p34
S"<type 'exceptions.IOError'>"
p35
sS'filename'
p36
S"'/home/seniorproj/Documents/finholt-senior-projec...b2py/applications/SeniorProject/databases/sql.log'"
p37
sS'__doc__'
p38
S"'I/O operation failed.'"
p39
sS'__getitem__'
p40
S"<method-wrapper '__getitem__' of exceptions.IOError object at 0x2298441c>"
p41
sS'__setstate__'
p42
S'<built-in method __setstate__ of exceptions.IOError object at 0x2298441c>'
p43
sS'__getattribute__'
p44
S"<method-wrapper '__getattribute__' of exceptions.IOError object at 0x2298441c>"
p45
sS'args'
p46
S"(13, 'Permission denied')"
p47
sS'__subclasshook__'
p48
S'<built-in method __subclasshook__ of type object at 0x19653d20>'
p49
sS'__unicode__'
p50
S'<built-in method __unicode__ of exceptions.IOError object at 0x2298441c>'
p51
sS'strerror'
p52
S"'Permission denied'"
p53
sS'__delattr__'
p54
S"<method-wrapper '__delattr__' of exceptions.IOError object at 0x2298441c>"
p55
sS'__repr__'
p56
S"<method-wrapper '__repr__' of exceptions.IOError object at 0x2298441c>"
p57
sS'__hash__'
p58
S"<method-wrapper '__hash__' of exceptions.IOError object at 0x2298441c>"
p59
ssS'evalue'
p60
S"[Errno 13] Permission denied: '/home/seniorproj/Documents/finholt-senior-project/web2py/applications/SeniorProject/databases/sql.log'"
p61
sS'request'
p62
ccopy_reg
_reconstructor
p63
(cgluon.html
BEAUTIFY
p64
c__builtin__
object
p65
NtRp66
(dp67
S'attributes'
p68
(dp69
sS'components'
p70
(lp71
g63
(cgluon.html
TABLE
p72
g65
NtRp73
(dp74
g68
(dp75
S'level'
p76
I5
ssS'parent'
p77
Nsg70
(lp78
g63
(cgluon.html
TR
p79
g65
NtRp80
(dp81
g68
(dp82
sg77
g73
sg70
(lp83
g63
(cgluon.html
TD
p84
g65
NtRp85
(dp86
g68
(dp87
S'_style'
p88
S'font-weight:bold;vertical-align:top'
p89
ssg77
g80
sg70
(lp90
S'ajax'
p91
asbag63
(g84
g65
NtRp92
(dp93
g68
(dp94
S'_valign'
p95
S'top'
p96
ssg77
g80
sg70
(lp97
S':'
asbag63
(g84
g65
NtRp98
(dp99
g68
(dp100
sg77
g80
sg70
(lp101
g63
(g64
g65
NtRp102
(dp103
g68
(dp104
g76
I5
ssg77
g98
sg70
(lp105
S'False'
p106
asbasbasbag63
(g79
g65
NtRp107
(dp108
g68
(dp109
sg77
g73
sg70
(lp110
g63
(g84
g65
NtRp111
(dp112
g68
(dp113
g88
g89
ssg77
g107
sg70
(lp114
S'application'
p115
asbag63
(g84
g65
NtRp116
(dp117
g68
(dp118
g95
g96
ssg77
g107
sg70
(lp119
S':'
asbag63
(g84
g65
NtRp120
(dp121
g68
(dp122
sg77
g107
sg70
(lp123
g63
(g64
g65
NtRp124
(dp125
g68
(dp126
g76
I5
ssg77
g120
sg70
(lp127
S'SeniorProject'
p128
asbasbasbag63
(g79
g65
NtRp129
(dp130
g68
(dp131
sg77
g73
sg70
(lp132
g63
(g84
g65
NtRp133
(dp134
g68
(dp135
g88
g89
ssg77
g129
sg70
(lp136
g46
asbag63
(g84
g65
NtRp137
(dp138
g68
(dp139
g95
g96
ssg77
g129
sg70
(lp140
S':'
asbag63
(g84
g65
NtRp141
(dp142
g68
(dp143
sg77
g129
sg70
(lp144
g63
(g64
g65
NtRp145
(dp146
g68
(dp147
g76
I5
ssg77
g141
sg70
(lp148
g63
(g72
g65
NtRp149
(dp150
g68
(dp151
g76
I4
ssg77
Nsg70
(lp152
sbasbasbasbag63
(g79
g65
NtRp153
(dp154
g68
(dp155
sg77
g73
sg70
(lp156
g63
(g84
g65
NtRp157
(dp158
g68
(dp159
g88
g89
ssg77
g153
sg70
(lp160
S'body'
p161
asbag63
(g84
g65
NtRp162
(dp163
g68
(dp164
g95
g96
ssg77
g153
sg70
(lp165
S':'
asbag63
(g84
g65
NtRp166
(dp167
g68
(dp168
sg77
g153
sg70
(lp169
g63
(g64
g65
NtRp170
(dp171
g68
(dp172
g76
I5
ssg77
g166
sg70
(lp173
S'<cStringIO.StringO object at 0x2297ec40>'
p174
asbasbasbag63
(g79
g65
NtRp175
(dp176
g68
(dp177
sg77
g73
sg70
(lp178
g63
(g84
g65
NtRp179
(dp180
g68
(dp181
g88
g89
ssg77
g175
sg70
(lp182
S'client'
p183
asbag63
(g84
g65
NtRp184
(dp185
g68
(dp186
g95
g96
ssg77
g175
sg70
(lp187
S':'
asbag63
(g84
g65
NtRp188
(dp189
g68
(dp190
sg77
g175
sg70
(lp191
g63
(g64
g65
NtRp192
(dp193
g68
(dp194
g76
I5
ssg77
g188
sg70
(lp195
S'127.0.0.1'
p196
asbasbasbag63
(g79
g65
NtRp197
(dp198
g68
(dp199
sg77
g73
sg70
(lp200
g63
(g84
g65
NtRp201
(dp202
g68
(dp203
g88
g89
ssg77
g197
sg70
(lp204
S'controller'
p205
asbag63
(g84
g65
NtRp206
(dp207
g68
(dp208
g95
g96
ssg77
g197
sg70
(lp209
S':'
asbag63
(g84
g65
NtRp210
(dp211
g68
(dp212
sg77
g197
sg70
(lp213
g63
(g64
g65
NtRp214
(dp215
g68
(dp216
g76
I5
ssg77
g210
sg70
(lp217
S'default'
p218
asbasbasbag63
(g79
g65
NtRp219
(dp220
g68
(dp221
sg77
g73
sg70
(lp222
g63
(g84
g65
NtRp223
(dp224
g68
(dp225
g88
g89
ssg77
g219
sg70
(lp226
S'cookies'
p227
asbag63
(g84
g65
NtRp228
(dp229
g68
(dp230
g95
g96
ssg77
g219
sg70
(lp231
S':'
asbag63
(g84
g65
NtRp232
(dp233
g68
(dp234
sg77
g219
sg70
(lp235
g63
(g64
g65
NtRp236
(dp237
g68
(dp238
g76
I5
ssg77
g232
sg70
(lp239
g63
(g72
g65
NtRp240
(dp241
g68
(dp242
g76
I4
ssg77
Nsg70
(lp243
g63
(g79
g65
NtRp244
(dp245
g68
(dp246
sg77
g240
sg70
(lp247
g63
(g84
g65
NtRp248
(dp249
g68
(dp250
g88
g89
ssg77
g244
sg70
(lp251
S'session_id_admin'
p252
asbag63
(g84
g65
NtRp253
(dp254
g68
(dp255
g95
g96
ssg77
g244
sg70
(lp256
S':'
asbag63
(g84
g65
NtRp257
(dp258
g68
(dp259
sg77
g244
sg70
(lp260
g63
(g64
g65
NtRp261
(dp262
g68
(dp263
g76
I4
ssg77
g257
sg70
(lp264
g63
(g72
g65
NtRp265
(dp266
g68
(dp267
g76
I3
ssg77
Nsg70
(lp268
g63
(g79
g65
NtRp269
(dp270
g68
(dp271
sg77
g265
sg70
(lp272
g63
(g84
g65
NtRp273
(dp274
g68
(dp275
g88
g89
ssg77
g269
sg70
(lp276
S'comment'
p277
asbag63
(g84
g65
NtRp278
(dp279
g68
(dp280
g95
g96
ssg77
g269
sg70
(lp281
S':'
asbag63
(g84
g65
NtRp282
(dp283
g68
(dp284
sg77
g269
sg70
(lp285
g63
(g64
g65
NtRp286
(dp287
g68
(dp288
g76
I3
ssg77
g282
sg70
(lp289
S''
asbasbasbag63
(g79
g65
NtRp290
(dp291
g68
(dp292
sg77
g265
sg70
(lp293
g63
(g84
g65
NtRp294
(dp295
g68
(dp296
g88
g89
ssg77
g290
sg70
(lp297
S'domain'
p298
asbag63
(g84
g65
NtRp299
(dp300
g68
(dp301
g95
g96
ssg77
g290
sg70
(lp302
S':'
asbag63
(g84
g65
NtRp303
(dp304
g68
(dp305
sg77
g290
sg70
(lp306
g63
(g64
g65
NtRp307
(dp308
g68
(dp309
g76
I3
ssg77
g303
sg70
(lp310
S''
asbasbasbag63
(g79
g65
NtRp311
(dp312
g68
(dp313
sg77
g265
sg70
(lp314
g63
(g84
g65
NtRp315
(dp316
g68
(dp317
g88
g89
ssg77
g311
sg70
(lp318
S'expires'
p319
asbag63
(g84
g65
NtRp320
(dp321
g68
(dp322
g95
g96
ssg77
g311
sg70
(lp323
S':'
asbag63
(g84
g65
NtRp324
(dp325
g68
(dp326
sg77
g311
sg70
(lp327
g63
(g64
g65
NtRp328
(dp329
g68
(dp330
g76
I3
ssg77
g324
sg70
(lp331
S''
asbasbasbag63
(g79
g65
NtRp332
(dp333
g68
(dp334
sg77
g265
sg70
(lp335
g63
(g84
g65
NtRp336
(dp337
g68
(dp338
g88
g89
ssg77
g332
sg70
(lp339
S'httponly'
p340
asbag63
(g84
g65
NtRp341
(dp342
g68
(dp343
g95
g96
ssg77
g332
sg70
(lp344
S':'
asbag63
(g84
g65
NtRp345
(dp346
g68
(dp347
sg77
g332
sg70
(lp348
g63
(g64
g65
NtRp349
(dp350
g68
(dp351
g76
I3
ssg77
g345
sg70
(lp352
S''
asbasbasbag63
(g79
g65
NtRp353
(dp354
g68
(dp355
sg77
g265
sg70
(lp356
g63
(g84
g65
NtRp357
(dp358
g68
(dp359
g88
g89
ssg77
g353
sg70
(lp360
S'max-age'
p361
asbag63
(g84
g65
NtRp362
(dp363
g68
(dp364
g95
g96
ssg77
g353
sg70
(lp365
S':'
asbag63
(g84
g65
NtRp366
(dp367
g68
(dp368
sg77
g353
sg70
(lp369
g63
(g64
g65
NtRp370
(dp371
g68
(dp372
g76
I3
ssg77
g366
sg70
(lp373
S''
asbasbasbag63
(g79
g65
NtRp374
(dp375
g68
(dp376
sg77
g265
sg70
(lp377
g63
(g84
g65
NtRp378
(dp379
g68
(dp380
g88
g89
ssg77
g374
sg70
(lp381
S'path'
p382
asbag63
(g84
g65
NtRp383
(dp384
g68
(dp385
g95
g96
ssg77
g374
sg70
(lp386
S':'
asbag63
(g84
g65
NtRp387
(dp388
g68
(dp389
sg77
g374
sg70
(lp390
g63
(g64
g65
NtRp391
(dp392
g68
(dp393
g76
I3
ssg77
g387
sg70
(lp394
S''
asbasbasbag63
(g79
g65
NtRp395
(dp396
g68
(dp397
sg77
g265
sg70
(lp398
g63
(g84
g65
NtRp399
(dp400
g68
(dp401
g88
g89
ssg77
g395
sg70
(lp402
S'secure'
p403
asbag63
(g84
g65
NtRp404
(dp405
g68
(dp406
g95
g96
ssg77
g395
sg70
(lp407
S':'
asbag63
(g84
g65
NtRp408
(dp409
g68
(dp410
sg77
g395
sg70
(lp411
g63
(g64
g65
NtRp412
(dp413
g68
(dp414
g76
I3
ssg77
g408
sg70
(lp415
S''
asbasbasbag63
(g79
g65
NtRp416
(dp417
g68
(dp418
sg77
g265
sg70
(lp419
g63
(g84
g65
NtRp420
(dp421
g68
(dp422
g88
g89
ssg77
g416
sg70
(lp423
S'version'
p424
asbag63
(g84
g65
NtRp425
(dp426
g68
(dp427
g95
g96
ssg77
g416
sg70
(lp428
S':'
asbag63
(g84
g65
NtRp429
(dp430
g68
(dp431
sg77
g416
sg70
(lp432
g63
(g64
g65
NtRp433
(dp434
g68
(dp435
g76
I3
ssg77
g429
sg70
(lp436
S''
asbasbasbasbasbasbasbag63
(g79
g65
NtRp437
(dp438
g68
(dp439
sg77
g240
sg70
(lp440
g63
(g84
g65
NtRp441
(dp442
g68
(dp443
g88
g89
ssg77
g437
sg70
(lp444
S'session_id_seniorproject'
p445
asbag63
(g84
g65
NtRp446
(dp447
g68
(dp448
g95
g96
ssg77
g437
sg70
(lp449
S':'
asbag63
(g84
g65
NtRp450
(dp451
g68
(dp452
sg77
g437
sg70
(lp453
g63
(g64
g65
NtRp454
(dp455
g68
(dp456
g76
I4
ssg77
g450
sg70
(lp457
g63
(g72
g65
NtRp458
(dp459
g68
(dp460
g76
I3
ssg77
Nsg70
(lp461
g63
(g79
g65
NtRp462
(dp463
g68
(dp464
sg77
g458
sg70
(lp465
g63
(g84
g65
NtRp466
(dp467
g68
(dp468
g88
g89
ssg77
g462
sg70
(lp469
g277
asbag63
(g84
g65
NtRp470
(dp471
g68
(dp472
g95
g96
ssg77
g462
sg70
(lp473
S':'
asbag63
(g84
g65
NtRp474
(dp475
g68
(dp476
sg77
g462
sg70
(lp477
g63
(g64
g65
NtRp478
(dp479
g68
(dp480
g76
I3
ssg77
g474
sg70
(lp481
S''
asbasbasbag63
(g79
g65
NtRp482
(dp483
g68
(dp484
sg77
g458
sg70
(lp485
g63
(g84
g65
NtRp486
(dp487
g68
(dp488
g88
g89
ssg77
g482
sg70
(lp489
g298
asbag63
(g84
g65
NtRp490
(dp491
g68
(dp492
g95
g96
ssg77
g482
sg70
(lp493
S':'
asbag63
(g84
g65
NtRp494
(dp495
g68
(dp496
sg77
g482
sg70
(lp497
g63
(g64
g65
NtRp498
(dp499
g68
(dp500
g76
I3
ssg77
g494
sg70
(lp501
S''
asbasbasbag63
(g79
g65
NtRp502
(dp503
g68
(dp504
sg77
g458
sg70
(lp505
g63
(g84
g65
NtRp506
(dp507
g68
(dp508
g88
g89
ssg77
g502
sg70
(lp509
g319
asbag63
(g84
g65
NtRp510
(dp511
g68
(dp512
g95
g96
ssg77
g502
sg70
(lp513
S':'
asbag63
(g84
g65
NtRp514
(dp515
g68
(dp516
sg77
g502
sg70
(lp517
g63
(g64
g65
NtRp518
(dp519
g68
(dp520
g76
I3
ssg77
g514
sg70
(lp521
S''
asbasbasbag63
(g79
g65
NtRp522
(dp523
g68
(dp524
sg77
g458
sg70
(lp525
g63
(g84
g65
NtRp526
(dp527
g68
(dp528
g88
g89
ssg77
g522
sg70
(lp529
g340
asbag63
(g84
g65
NtRp530
(dp531
g68
(dp532
g95
g96
ssg77
g522
sg70
(lp533
S':'
asbag63
(g84
g65
NtRp534
(dp535
g68
(dp536
sg77
g522
sg70
(lp537
g63
(g64
g65
NtRp538
(dp539
g68
(dp540
g76
I3
ssg77
g534
sg70
(lp541
S''
asbasbasbag63
(g79
g65
NtRp542
(dp543
g68
(dp544
sg77
g458
sg70
(lp545
g63
(g84
g65
NtRp546
(dp547
g68
(dp548
g88
g89
ssg77
g542
sg70
(lp549
g361
asbag63
(g84
g65
NtRp550
(dp551
g68
(dp552
g95
g96
ssg77
g542
sg70
(lp553
S':'
asbag63
(g84
g65
NtRp554
(dp555
g68
(dp556
sg77
g542
sg70
(lp557
g63
(g64
g65
NtRp558
(dp559
g68
(dp560
g76
I3
ssg77
g554
sg70
(lp561
S''
asbasbasbag63
(g79
g65
NtRp562
(dp563
g68
(dp564
sg77
g458
sg70
(lp565
g63
(g84
g65
NtRp566
(dp567
g68
(dp568
g88
g89
ssg77
g562
sg70
(lp569
g382
asbag63
(g84
g65
NtRp570
(dp571
g68
(dp572
g95
g96
ssg77
g562
sg70
(lp573
S':'
asbag63
(g84
g65
NtRp574
(dp575
g68
(dp576
sg77
g562
sg70
(lp577
g63
(g64
g65
NtRp578
(dp579
g68
(dp580
g76
I3
ssg77
g574
sg70
(lp581
S''
asbasbasbag63
(g79
g65
NtRp582
(dp583
g68
(dp584
sg77
g458
sg70
(lp585
g63
(g84
g65
NtRp586
(dp587
g68
(dp588
g88
g89
ssg77
g582
sg70
(lp589
g403
asbag63
(g84
g65
NtRp590
(dp591
g68
(dp592
g95
g96
ssg77
g582
sg70
(lp593
S':'
asbag63
(g84
g65
NtRp594
(dp595
g68
(dp596
sg77
g582
sg70
(lp597
g63
(g64
g65
NtRp598
(dp599
g68
(dp600
g76
I3
ssg77
g594
sg70
(lp601
S''
asbasbasbag63
(g79
g65
NtRp602
(dp603
g68
(dp604
sg77
g458
sg70
(lp605
g63
(g84
g65
NtRp606
(dp607
g68
(dp608
g88
g89
ssg77
g602
sg70
(lp609
g424
asbag63
(g84
g65
NtRp610
(dp611
g68
(dp612
g95
g96
ssg77
g602
sg70
(lp613
S':'
asbag63
(g84
g65
NtRp614
(dp615
g68
(dp616
sg77
g602
sg70
(lp617
g63
(g64
g65
NtRp618
(dp619
g68
(dp620
g76
I3
ssg77
g614
sg70
(lp621
S''
asbasbasbasbasbasbasbasbasbasbasbag63
(g79
g65
NtRp622
(dp623
g68
(dp624
sg77
g73
sg70
(lp625
g63
(g84
g65
NtRp626
(dp627
g68
(dp628
g88
g89
ssg77
g622
sg70
(lp629
S'env'
p630
asbag63
(g84
g65
NtRp631
(dp632
g68
(dp633
g95
g96
ssg77
g622
sg70
(lp634
S':'
asbag63
(g84
g65
NtRp635
(dp636
g68
(dp637
sg77
g622
sg70
(lp638
g63
(g64
g65
NtRp639
(dp640
g68
(dp641
g76
I5
ssg77
g635
sg70
(lp642
g63
(g72
g65
NtRp643
(dp644
g68
(dp645
g76
I4
ssg77
Nsg70
(lp646
g63
(g79
g65
NtRp647
(dp648
g68
(dp649
sg77
g643
sg70
(lp650
g63
(g84
g65
NtRp651
(dp652
g68
(dp653
g88
g89
ssg77
g647
sg70
(lp654
S'app_folders'
p655
asbag63
(g84
g65
NtRp656
(dp657
g68
(dp658
g95
g96
ssg77
g647
sg70
(lp659
S':'
asbag63
(g84
g65
NtRp660
(dp661
g68
(dp662
sg77
g647
sg70
(lp663
g63
(g64
g65
NtRp664
(dp665
g68
(dp666
g76
I4
ssg77
g660
sg70
(lp667
S"set(['/home/seniorproj/Documents/finholt-senior-project/web2py/applications/SeniorProject/'])"
p668
asbasbasbag63
(g79
g65
NtRp669
(dp670
g68
(dp671
sg77
g643
sg70
(lp672
g63
(g84
g65
NtRp673
(dp674
g68
(dp675
g88
g89
ssg77
g669
sg70
(lp676
S'applications_parent'
p677
asbag63
(g84
g65
NtRp678
(dp679
g68
(dp680
g95
g96
ssg77
g669
sg70
(lp681
S':'
asbag63
(g84
g65
NtRp682
(dp683
g68
(dp684
sg77
g669
sg70
(lp685
g63
(g64
g65
NtRp686
(dp687
g68
(dp688
g76
I4
ssg77
g682
sg70
(lp689
S'/home/seniorproj/Documents/finholt-senior-project/web2py'
p690
asbasbasbag63
(g79
g65
NtRp691
(dp692
g68
(dp693
sg77
g643
sg70
(lp694
g63
(g84
g65
NtRp695
(dp696
g68
(dp697
g88
g89
ssg77
g691
sg70
(lp698
S'db_sessions'
p699
asbag63
(g84
g65
NtRp700
(dp701
g68
(dp702
g95
g96
ssg77
g691
sg70
(lp703
S':'
asbag63
(g84
g65
NtRp704
(dp705
g68
(dp706
sg77
g691
sg70
(lp707
g63
(g64
g65
NtRp708
(dp709
g68
(dp710
g76
I4
ssg77
g704
sg70
(lp711
S'set([])'
p712
asbasbasbag63
(g79
g65
NtRp713
(dp714
g68
(dp715
sg77
g643
sg70
(lp716
g63
(g84
g65
NtRp717
(dp718
g68
(dp719
g88
g89
ssg77
g713
sg70
(lp720
S'debugging'
p721
asbag63
(g84
g65
NtRp722
(dp723
g68
(dp724
g95
g96
ssg77
g713
sg70
(lp725
S':'
asbag63
(g84
g65
NtRp726
(dp727
g68
(dp728
sg77
g713
sg70
(lp729
g63
(g64
g65
NtRp730
(dp731
g68
(dp732
g76
I4
ssg77
g726
sg70
(lp733
g106
asbasbasbag63
(g79
g65
NtRp734
(dp735
g68
(dp736
sg77
g643
sg70
(lp737
g63
(g84
g65
NtRp738
(dp739
g68
(dp740
g88
g89
ssg77
g734
sg70
(lp741
S'document_root'
p742
asbag63
(g84
g65
NtRp743
(dp744
g68
(dp745
g95
g96
ssg77
g734
sg70
(lp746
S':'
asbag63
(g84
g65
NtRp747
(dp748
g68
(dp749
sg77
g734
sg70
(lp750
g63
(g64
g65
NtRp751
(dp752
g68
(dp753
g76
I4
ssg77
g747
sg70
(lp754
S'/home/seniorproj/Documents/finholt-senior-project/web2py/applications/SeniorProject/'
p755
asbasbasbag63
(g79
g65
NtRp756
(dp757
g68
(dp758
sg77
g643
sg70
(lp759
g63
(g84
g65
NtRp760
(dp761
g68
(dp762
g88
g89
ssg77
g756
sg70
(lp763
S'gateway_interface'
p764
asbag63
(g84
g65
NtRp765
(dp766
g68
(dp767
g95
g96
ssg77
g756
sg70
(lp768
S':'
asbag63
(g84
g65
NtRp769
(dp770
g68
(dp771
sg77
g756
sg70
(lp772
g63
(g64
g65
NtRp773
(dp774
g68
(dp775
g76
I4
ssg77
g769
sg70
(lp776
S'CGI/1.1'
p777
asbasbasbag63
(g79
g65
NtRp778
(dp779
g68
(dp780
sg77
g643
sg70
(lp781
g63
(g84
g65
NtRp782
(dp783
g68
(dp784
g88
g89
ssg77
g778
sg70
(lp785
S'gluon_parent'
p786
asbag63
(g84
g65
NtRp787
(dp788
g68
(dp789
g95
g96
ssg77
g778
sg70
(lp790
S':'
asbag63
(g84
g65
NtRp791
(dp792
g68
(dp793
sg77
g778
sg70
(lp794
g63
(g64
g65
NtRp795
(dp796
g68
(dp797
g76
I4
ssg77
g791
sg70
(lp798
g690
asbasbasbag63
(g79
g65
NtRp799
(dp800
g68
(dp801
sg77
g643
sg70
(lp802
g63
(g84
g65
NtRp803
(dp804
g68
(dp805
g88
g89
ssg77
g799
sg70
(lp806
S'http_accept'
p807
asbag63
(g84
g65
NtRp808
(dp809
g68
(dp810
g95
g96
ssg77
g799
sg70
(lp811
S':'
asbag63
(g84
g65
NtRp812
(dp813
g68
(dp814
sg77
g799
sg70
(lp815
g63
(g64
g65
NtRp816
(dp817
g68
(dp818
g76
I4
ssg77
g812
sg70
(lp819
S'text/html,application/xhtml+xml,application/xml;q=0.9,*/*;q=0.8'
p820
asbasbasbag63
(g79
g65
NtRp821
(dp822
g68
(dp823
sg77
g643
sg70
(lp824
g63
(g84
g65
NtRp825
(dp826
g68
(dp827
g88
g89
ssg77
g821
sg70
(lp828
S'http_accept_encoding'
p829
asbag63
(g84
g65
NtRp830
(dp831
g68
(dp832
g95
g96
ssg77
g821
sg70
(lp833
S':'
asbag63
(g84
g65
NtRp834
(dp835
g68
(dp836
sg77
g821
sg70
(lp837
g63
(g64
g65
NtRp838
(dp839
g68
(dp840
g76
I4
ssg77
g834
sg70
(lp841
S'gzip, deflate'
p842
asbasbasbag63
(g79
g65
NtRp843
(dp844
g68
(dp845
sg77
g643
sg70
(lp846
g63
(g84
g65
NtRp847
(dp848
g68
(dp849
g88
g89
ssg77
g843
sg70
(lp850
S'http_accept_language'
p851
asbag63
(g84
g65
NtRp852
(dp853
g68
(dp854
g95
g96
ssg77
g843
sg70
(lp855
S':'
asbag63
(g84
g65
NtRp856
(dp857
g68
(dp858
sg77
g843
sg70
(lp859
g63
(g64
g65
NtRp860
(dp861
g68
(dp862
g76
I4
ssg77
g856
sg70
(lp863
S'en-US,en;q=0.5'
p864
asbasbasbag63
(g79
g65
NtRp865
(dp866
g68
(dp867
sg77
g643
sg70
(lp868
g63
(g84
g65
NtRp869
(dp870
g68
(dp871
g88
g89
ssg77
g865
sg70
(lp872
S'http_connection'
p873
asbag63
(g84
g65
NtRp874
(dp875
g68
(dp876
g95
g96
ssg77
g865
sg70
(lp877
S':'
asbag63
(g84
g65
NtRp878
(dp879
g68
(dp880
sg77
g865
sg70
(lp881
g63
(g64
g65
NtRp882
(dp883
g68
(dp884
g76
I4
ssg77
g878
sg70
(lp885
S'keep-alive'
p886
asbasbasbag63
(g79
g65
NtRp887
(dp888
g68
(dp889
sg77
g643
sg70
(lp890
g63
(g84
g65
NtRp891
(dp892
g68
(dp893
g88
g89
ssg77
g887
sg70
(lp894
S'http_cookie'
p895
asbag63
(g84
g65
NtRp896
(dp897
g68
(dp898
g95
g96
ssg77
g887
sg70
(lp899
S':'
asbag63
(g84
g65
NtRp900
(dp901
g68
(dp902
sg77
g887
sg70
(lp903
g63
(g64
g65
NtRp904
(dp905
g68
(dp906
g76
I4
ssg77
g900
sg70
(lp907
S'session_id_seniorproject=127.0.0.1-3e754ec6-0274-459e-b790-e5e3126aa93a; session_id_admin=127.0.0.1-7e318bf1-1489-4a93-9cb5-eb4b8bdf897e'
p908
asbasbasbag63
(g79
g65
NtRp909
(dp910
g68
(dp911
sg77
g643
sg70
(lp912
g63
(g84
g65
NtRp913
(dp914
g68
(dp915
g88
g89
ssg77
g909
sg70
(lp916
S'http_host'
p917
asbag63
(g84
g65
NtRp918
(dp919
g68
(dp920
g95
g96
ssg77
g909
sg70
(lp921
S':'
asbag63
(g84
g65
NtRp922
(dp923
g68
(dp924
sg77
g909
sg70
(lp925
g63
(g64
g65
NtRp926
(dp927
g68
(dp928
g76
I4
ssg77
g922
sg70
(lp929
S'www.finholt.dev'
p930
asbasbasbag63
(g79
g65
NtRp931
(dp932
g68
(dp933
sg77
g643
sg70
(lp934
g63
(g84
g65
NtRp935
(dp936
g68
(dp937
g88
g89
ssg77
g931
sg70
(lp938
S'http_user_agent'
p939
asbag63
(g84
g65
NtRp940
(dp941
g68
(dp942
g95
g96
ssg77
g931
sg70
(lp943
S':'
asbag63
(g84
g65
NtRp944
(dp945
g68
(dp946
sg77
g931
sg70
(lp947
g63
(g64
g65
NtRp948
(dp949
g68
(dp950
g76
I4
ssg77
g944
sg70
(lp951
S'Mozilla/5.0 (X11; Ubuntu; Linux i686; rv:18.0) Gecko/20100101 Firefox/18.0'
p952
asbasbasbag63
(g79
g65
NtRp953
(dp954
g68
(dp955
sg77
g643
sg70
(lp956
g63
(g84
g65
NtRp957
(dp958
g68
(dp959
g88
g89
ssg77
g953
sg70
(lp960
S'is_jython'
p961
asbag63
(g84
g65
NtRp962
(dp963
g68
(dp964
g95
g96
ssg77
g953
sg70
(lp965
S':'
asbag63
(g84
g65
NtRp966
(dp967
g68
(dp968
sg77
g953
sg70
(lp969
g63
(g64
g65
NtRp970
(dp971
g68
(dp972
g76
I4
ssg77
g966
sg70
(lp973
g106
asbasbasbag63
(g79
g65
NtRp974
(dp975
g68
(dp976
sg77
g643
sg70
(lp977
g63
(g84
g65
NtRp978
(dp979
g68
(dp980
g88
g89
ssg77
g974
sg70
(lp981
S'is_pypy'
p982
asbag63
(g84
g65
NtRp983
(dp984
g68
(dp985
g95
g96
ssg77
g974
sg70
(lp986
S':'
asbag63
(g84
g65
NtRp987
(dp988
g68
(dp989
sg77
g974
sg70
(lp990
g63
(g64
g65
NtRp991
(dp992
g68
(dp993
g76
I4
ssg77
g987
sg70
(lp994
g106
asbasbasbag63
(g79
g65
NtRp995
(dp996
g68
(dp997
sg77
g643
sg70
(lp998
g63
(g84
g65
NtRp999
(dp1000
g68
(dp1001
g88
g89
ssg77
g995
sg70
(lp1002
S'mod_wsgi_application_group'
p1003
asbag63
(g84
g65
NtRp1004
(dp1005
g68
(dp1006
g95
g96
ssg77
g995
sg70
(lp1007
S':'
asbag63
(g84
g65
NtRp1008
(dp1009
g68
(dp1010
sg77
g995
sg70
(lp1011
g63
(g64
g65
NtRp1012
(dp1013
g68
(dp1014
g76
I4
ssg77
g1008
sg70
(lp1015
S'www.finholt.dev|'
p1016
asbasbasbag63
(g79
g65
NtRp1017
(dp1018
g68
(dp1019
sg77
g643
sg70
(lp1020
g63
(g84
g65
NtRp1021
(dp1022
g68
(dp1023
g88
g89
ssg77
g1017
sg70
(lp1024
S'mod_wsgi_callable_object'
p1025
asbag63
(g84
g65
NtRp1026
(dp1027
g68
(dp1028
g95
g96
ssg77
g1017
sg70
(lp1029
S':'
asbag63
(g84
g65
NtRp1030
(dp1031
g68
(dp1032
sg77
g1017
sg70
(lp1033
g63
(g64
g65
NtRp1034
(dp1035
g68
(dp1036
g76
I4
ssg77
g1030
sg70
(lp1037
S'application'
p1038
asbasbasbag63
(g79
g65
NtRp1039
(dp1040
g68
(dp1041
sg77
g643
sg70
(lp1042
g63
(g84
g65
NtRp1043
(dp1044
g68
(dp1045
g88
g89
ssg77
g1039
sg70
(lp1046
S'mod_wsgi_listener_host'
p1047
asbag63
(g84
g65
NtRp1048
(dp1049
g68
(dp1050
g95
g96
ssg77
g1039
sg70
(lp1051
S':'
asbag63
(g84
g65
NtRp1052
(dp1053
g68
(dp1054
sg77
g1039
sg70
(lp1055
g63
(g64
g65
NtRp1056
(dp1057
g68
(dp1058
g76
I4
ssg77
g1052
sg70
(lp1059
S''
asbasbasbag63
(g79
g65
NtRp1060
(dp1061
g68
(dp1062
sg77
g643
sg70
(lp1063
g63
(g84
g65
NtRp1064
(dp1065
g68
(dp1066
g88
g89
ssg77
g1060
sg70
(lp1067
S'mod_wsgi_listener_port'
p1068
asbag63
(g84
g65
NtRp1069
(dp1070
g68
(dp1071
g95
g96
ssg77
g1060
sg70
(lp1072
S':'
asbag63
(g84
g65
NtRp1073
(dp1074
g68
(dp1075
sg77
g1060
sg70
(lp1076
g63
(g64
g65
NtRp1077
(dp1078
g68
(dp1079
g76
I4
ssg77
g1073
sg70
(lp1080
S'80'
p1081
asbasbasbag63
(g79
g65
NtRp1082
(dp1083
g68
(dp1084
sg77
g643
sg70
(lp1085
g63
(g84
g65
NtRp1086
(dp1087
g68
(dp1088
g88
g89
ssg77
g1082
sg70
(lp1089
S'mod_wsgi_process_group'
p1090
asbag63
(g84
g65
NtRp1091
(dp1092
g68
(dp1093
g95
g96
ssg77
g1082
sg70
(lp1094
S':'
asbag63
(g84
g65
NtRp1095
(dp1096
g68
(dp1097
sg77
g1082
sg70
(lp1098
g63
(g64
g65
NtRp1099
(dp1100
g68
(dp1101
g76
I4
ssg77
g1095
sg70
(lp1102
S''
asbasbasbag63
(g79
g65
NtRp1103
(dp1104
g68
(dp1105
sg77
g643
sg70
(lp1106
g63
(g84
g65
NtRp1107
(dp1108
g68
(dp1109
g88
g89
ssg77
g1103
sg70
(lp1110
S'mod_wsgi_reload_mechanism'
p1111
asbag63
(g84
g65
NtRp1112
(dp1113
g68
(dp1114
g95
g96
ssg77
g1103
sg70
(lp1115
S':'
asbag63
(g84
g65
NtRp1116
(dp1117
g68
(dp1118
sg77
g1103
sg70
(lp1119
g63
(g64
g65
NtRp1120
(dp1121
g68
(dp1122
g76
I4
ssg77
g1116
sg70
(lp1123
S'0'
asbasbasbag63
(g79
g65
NtRp1124
(dp1125
g68
(dp1126
sg77
g643
sg70
(lp1127
g63
(g84
g65
NtRp1128
(dp1129
g68
(dp1130
g88
g89
ssg77
g1124
sg70
(lp1131
S'mod_wsgi_script_reloading'
p1132
asbag63
(g84
g65
NtRp1133
(dp1134
g68
(dp1135
g95
g96
ssg77
g1124
sg70
(lp1136
S':'
asbag63
(g84
g65
NtRp1137
(dp1138
g68
(dp1139
sg77
g1124
sg70
(lp1140
g63
(g64
g65
NtRp1141
(dp1142
g68
(dp1143
g76
I4
ssg77
g1137
sg70
(lp1144
S'1'
asbasbasbag63
(g79
g65
NtRp1145
(dp1146
g68
(dp1147
sg77
g643
sg70
(lp1148
g63
(g84
g65
NtRp1149
(dp1150
g68
(dp1151
g88
g89
ssg77
g1145
sg70
(lp1152
S'mod_wsgi_version'
p1153
asbag63
(g84
g65
NtRp1154
(dp1155
g68
(dp1156
g95
g96
ssg77
g1145
sg70
(lp1157
S':'
asbag63
(g84
g65
NtRp1158
(dp1159
g68
(dp1160
sg77
g1145
sg70
(lp1161
g63
(g64
g65
NtRp1162
(dp1163
g68
(dp1164
g76
I4
ssg77
g1158
sg70
(lp1165
g63
(g72
g65
NtRp1166
(dp1167
g68
(dp1168
g76
I3
ssg77
Nsg70
(lp1169
g63
(g79
g65
NtRp1170
(dp1171
g68
(dp1172
sg77
g1166
sg70
(lp1173
g63
(g84
g65
NtRp1174
(dp1175
g68
(dp1176
sg77
g1170
sg70
(lp1177
g63
(g64
g65
NtRp1178
(dp1179
g68
(dp1180
g76
I3
ssg77
g1174
sg70
(lp1181
S'2'
asbasbasbag63
(g79
g65
NtRp1182
(dp1183
g68
(dp1184
sg77
g1166
sg70
(lp1185
g63
(g84
g65
NtRp1186
(dp1187
g68
(dp1188
sg77
g1182
sg70
(lp1189
g63
(g64
g65
NtRp1190
(dp1191
g68
(dp1192
g76
I3
ssg77
g1186
sg70
(lp1193
S'8'
asbasbasbasbasbasbasbag63
(g79
g65
NtRp1194
(dp1195
g68
(dp1196
sg77
g643
sg70
(lp1197
g63
(g84
g65
NtRp1198
(dp1199
g68
(dp1200
g88
g89
ssg77
g1194
sg70
(lp1201
S'path'
p1202
asbag63
(g84
g65
NtRp1203
(dp1204
g68
(dp1205
g95
g96
ssg77
g1194
sg70
(lp1206
S':'
asbag63
(g84
g65
NtRp1207
(dp1208
g68
(dp1209
sg77
g1194
sg70
(lp1210
g63
(g64
g65
NtRp1211
(dp1212
g68
(dp1213
g76
I4
ssg77
g1207
sg70
(lp1214
S'/usr/local/bin:/usr/bin:/bin'
p1215
asbasbasbag63
(g79
g65
NtRp1216
(dp1217
g68
(dp1218
sg77
g643
sg70
(lp1219
g63
(g84
g65
NtRp1220
(dp1221
g68
(dp1222
g88
g89
ssg77
g1216
sg70
(lp1223
S'path_info'
p1224
asbag63
(g84
g65
NtRp1225
(dp1226
g68
(dp1227
g95
g96
ssg77
g1216
sg70
(lp1228
S':'
asbag63
(g84
g65
NtRp1229
(dp1230
g68
(dp1231
sg77
g1216
sg70
(lp1232
g63
(g64
g65
NtRp1233
(dp1234
g68
(dp1235
g76
I4
ssg77
g1229
sg70
(lp1236
S'/SeniorProject'
p1237
asbasbasbag63
(g79
g65
NtRp1238
(dp1239
g68
(dp1240
sg77
g643
sg70
(lp1241
g63
(g84
g65
NtRp1242
(dp1243
g68
(dp1244
g88
g89
ssg77
g1238
sg70
(lp1245
S'path_translated'
p1246
asbag63
(g84
g65
NtRp1247
(dp1248
g68
(dp1249
g95
g96
ssg77
g1238
sg70
(lp1250
S':'
asbag63
(g84
g65
NtRp1251
(dp1252
g68
(dp1253
sg77
g1238
sg70
(lp1254
g63
(g64
g65
NtRp1255
(dp1256
g68
(dp1257
g76
I4
ssg77
g1251
sg70
(lp1258
S'/home/seniorproj/Documents/finholt-senior-project/web2py/wsgihandler.py/SeniorProject'
p1259
asbasbasbag63
(g79
g65
NtRp1260
(dp1261
g68
(dp1262
sg77
g643
sg70
(lp1263
g63
(g84
g65
NtRp1264
(dp1265
g68
(dp1266
g88
g89
ssg77
g1260
sg70
(lp1267
S'query_string'
p1268
asbag63
(g84
g65
NtRp1269
(dp1270
g68
(dp1271
g95
g96
ssg77
g1260
sg70
(lp1272
S':'
asbag63
(g84
g65
NtRp1273
(dp1274
g68
(dp1275
sg77
g1260
sg70
(lp1276
g63
(g64
g65
NtRp1277
(dp1278
g68
(dp1279
g76
I4
ssg77
g1273
sg70
(lp1280
S''
asbasbasbag63
(g79
g65
NtRp1281
(dp1282
g68
(dp1283
sg77
g643
sg70
(lp1284
g63
(g84
g65
NtRp1285
(dp1286
g68
(dp1287
g88
g89
ssg77
g1281
sg70
(lp1288
S'remote_addr'
p1289
asbag63
(g84
g65
NtRp1290
(dp1291
g68
(dp1292
g95
g96
ssg77
g1281
sg70
(lp1293
S':'
asbag63
(g84
g65
NtRp1294
(dp1295
g68
(dp1296
sg77
g1281
sg70
(lp1297
g63
(g64
g65
NtRp1298
(dp1299
g68
(dp1300
g76
I4
ssg77
g1294
sg70
(lp1301
g196
asbasbasbag63
(g79
g65
NtRp1302
(dp1303
g68
(dp1304
sg77
g643
sg70
(lp1305
g63
(g84
g65
NtRp1306
(dp1307
g68
(dp1308
g88
g89
ssg77
g1302
sg70
(lp1309
S'remote_port'
p1310
asbag63
(g84
g65
NtRp1311
(dp1312
g68
(dp1313
g95
g96
ssg77
g1302
sg70
(lp1314
S':'
asbag63
(g84
g65
NtRp1315
(dp1316
g68
(dp1317
sg77
g1302
sg70
(lp1318
g63
(g64
g65
NtRp1319
(dp1320
g68
(dp1321
g76
I4
ssg77
g1315
sg70
(lp1322
S'48176'
p1323
asbasbasbag63
(g79
g65
NtRp1324
(dp1325
g68
(dp1326
sg77
g643
sg70
(lp1327
g63
(g84
g65
NtRp1328
(dp1329
g68
(dp1330
g88
g89
ssg77
g1324
sg70
(lp1331
S'request_method'
p1332
asbag63
(g84
g65
NtRp1333
(dp1334
g68
(dp1335
g95
g96
ssg77
g1324
sg70
(lp1336
S':'
asbag63
(g84
g65
NtRp1337
(dp1338
g68
(dp1339
sg77
g1324
sg70
(lp1340
g63
(g64
g65
NtRp1341
(dp1342
g68
(dp1343
g76
I4
ssg77
g1337
sg70
(lp1344
S'GET'
p1345
asbasbasbag63
(g79
g65
NtRp1346
(dp1347
g68
(dp1348
sg77
g643
sg70
(lp1349
g63
(g84
g65
NtRp1350
(dp1351
g68
(dp1352
g88
g89
ssg77
g1346
sg70
(lp1353
S'request_uri'
p1354
asbag63
(g84
g65
NtRp1355
(dp1356
g68
(dp1357
g95
g96
ssg77
g1346
sg70
(lp1358
S':'
asbag63
(g84
g65
NtRp1359
(dp1360
g68
(dp1361
sg77
g1346
sg70
(lp1362
g63
(g64
g65
NtRp1363
(dp1364
g68
(dp1365
g76
I4
ssg77
g1359
sg70
(lp1366
S'/SeniorProject'
p1367
asbasbasbag63
(g79
g65
NtRp1368
(dp1369
g68
(dp1370
sg77
g643
sg70
(lp1371
g63
(g84
g65
NtRp1372
(dp1373
g68
(dp1374
g88
g89
ssg77
g1368
sg70
(lp1375
S'script_filename'
p1376
asbag63
(g84
g65
NtRp1377
(dp1378
g68
(dp1379
g95
g96
ssg77
g1368
sg70
(lp1380
S':'
asbag63
(g84
g65
NtRp1381
(dp1382
g68
(dp1383
sg77
g1368
sg70
(lp1384
g63
(g64
g65
NtRp1385
(dp1386
g68
(dp1387
g76
I4
ssg77
g1381
sg70
(lp1388
S'/home/seniorproj/Documents/finholt-senior-project/web2py/wsgihandler.py'
p1389
asbasbasbag63
(g79
g65
NtRp1390
(dp1391
g68
(dp1392
sg77
g643
sg70
(lp1393
g63
(g84
g65
NtRp1394
(dp1395
g68
(dp1396
g88
g89
ssg77
g1390
sg70
(lp1397
S'script_name'
p1398
asbag63
(g84
g65
NtRp1399
(dp1400
g68
(dp1401
g95
g96
ssg77
g1390
sg70
(lp1402
S':'
asbag63
(g84
g65
NtRp1403
(dp1404
g68
(dp1405
sg77
g1390
sg70
(lp1406
g63
(g64
g65
NtRp1407
(dp1408
g68
(dp1409
g76
I4
ssg77
g1403
sg70
(lp1410
S''
asbasbasbag63
(g79
g65
NtRp1411
(dp1412
g68
(dp1413
sg77
g643
sg70
(lp1414
g63
(g84
g65
NtRp1415
(dp1416
g68
(dp1417
g88
g89
ssg77
g1411
sg70
(lp1418
S'server_addr'
p1419
asbag63
(g84
g65
NtRp1420
(dp1421
g68
(dp1422
g95
g96
ssg77
g1411
sg70
(lp1423
S':'
asbag63
(g84
g65
NtRp1424
(dp1425
g68
(dp1426
sg77
g1411
sg70
(lp1427
g63
(g64
g65
NtRp1428
(dp1429
g68
(dp1430
g76
I4
ssg77
g1424
sg70
(lp1431
S'127.0.0.1'
p1432
asbasbasbag63
(g79
g65
NtRp1433
(dp1434
g68
(dp1435
sg77
g643
sg70
(lp1436
g63
(g84
g65
NtRp1437
(dp1438
g68
(dp1439
g88
g89
ssg77
g1433
sg70
(lp1440
S'server_admin'
p1441
asbag63
(g84
g65
NtRp1442
(dp1443
g68
(dp1444
g95
g96
ssg77
g1433
sg70
(lp1445
S':'
asbag63
(g84
g65
NtRp1446
(dp1447
g68
(dp1448
sg77
g1433
sg70
(lp1449
g63
(g64
g65
NtRp1450
(dp1451
g68
(dp1452
g76
I4
ssg77
g1446
sg70
(lp1453
S'[no address given]'
p1454
asbasbasbag63
(g79
g65
NtRp1455
(dp1456
g68
(dp1457
sg77
g643
sg70
(lp1458
g63
(g84
g65
NtRp1459
(dp1460
g68
(dp1461
g88
g89
ssg77
g1455
sg70
(lp1462
S'server_name'
p1463
asbag63
(g84
g65
NtRp1464
(dp1465
g68
(dp1466
g95
g96
ssg77
g1455
sg70
(lp1467
S':'
asbag63
(g84
g65
NtRp1468
(dp1469
g68
(dp1470
sg77
g1455
sg70
(lp1471
g63
(g64
g65
NtRp1472
(dp1473
g68
(dp1474
g76
I4
ssg77
g1468
sg70
(lp1475
S'www.finholt.dev'
p1476
asbasbasbag63
(g79
g65
NtRp1477
(dp1478
g68
(dp1479
sg77
g643
sg70
(lp1480
g63
(g84
g65
NtRp1481
(dp1482
g68
(dp1483
g88
g89
ssg77
g1477
sg70
(lp1484
S'server_port'
p1485
asbag63
(g84
g65
NtRp1486
(dp1487
g68
(dp1488
g95
g96
ssg77
g1477
sg70
(lp1489
S':'
asbag63
(g84
g65
NtRp1490
(dp1491
g68
(dp1492
sg77
g1477
sg70
(lp1493
g63
(g64
g65
NtRp1494
(dp1495
g68
(dp1496
g76
I4
ssg77
g1490
sg70
(lp1497
S'80'
p1498
asbasbasbag63
(g79
g65
NtRp1499
(dp1500
g68
(dp1501
sg77
g643
sg70
(lp1502
g63
(g84
g65
NtRp1503
(dp1504
g68
(dp1505
g88
g89
ssg77
g1499
sg70
(lp1506
S'server_protocol'
p1507
asbag63
(g84
g65
NtRp1508
(dp1509
g68
(dp1510
g95
g96
ssg77
g1499
sg70
(lp1511
S':'
asbag63
(g84
g65
NtRp1512
(dp1513
g68
(dp1514
sg77
g1499
sg70
(lp1515
g63
(g64
g65
NtRp1516
(dp1517
g68
(dp1518
g76
I4
ssg77
g1512
sg70
(lp1519
S'HTTP/1.1'
p1520
asbasbasbag63
(g79
g65
NtRp1521
(dp1522
g68
(dp1523
sg77
g643
sg70
(lp1524
g63
(g84
g65
NtRp1525
(dp1526
g68
(dp1527
g88
g89
ssg77
g1521
sg70
(lp1528
S'server_signature'
p1529
asbag63
(g84
g65
NtRp1530
(dp1531
g68
(dp1532
g95
g96
ssg77
g1521
sg70
(lp1533
S':'
asbag63
(g84
g65
NtRp1534
(dp1535
g68
(dp1536
sg77
g1521
sg70
(lp1537
g63
(g64
g65
NtRp1538
(dp1539
g68
(dp1540
g76
I4
ssg77
g1534
sg70
(lp1541
S'<address>Apache/2.2.14 (Ubuntu) Server at www.finholt.dev Port 80</address>\n'
p1542
asbasbasbag63
(g79
g65
NtRp1543
(dp1544
g68
(dp1545
sg77
g643
sg70
(lp1546
g63
(g84
g65
NtRp1547
(dp1548
g68
(dp1549
g88
g89
ssg77
g1543
sg70
(lp1550
S'server_software'
p1551
asbag63
(g84
g65
NtRp1552
(dp1553
g68
(dp1554
g95
g96
ssg77
g1543
sg70
(lp1555
S':'
asbag63
(g84
g65
NtRp1556
(dp1557
g68
(dp1558
sg77
g1543
sg70
(lp1559
g63
(g64
g65
NtRp1560
(dp1561
g68
(dp1562
g76
I4
ssg77
g1556
sg70
(lp1563
S'Apache/2.2.14 (Ubuntu)'
p1564
asbasbasbag63
(g79
g65
NtRp1565
(dp1566
g68
(dp1567
sg77
g643
sg70
(lp1568
g63
(g84
g65
NtRp1569
(dp1570
g68
(dp1571
g88
g89
ssg77
g1565
sg70
(lp1572
S'web2py_path'
p1573
asbag63
(g84
g65
NtRp1574
(dp1575
g68
(dp1576
g95
g96
ssg77
g1565
sg70
(lp1577
S':'
asbag63
(g84
g65
NtRp1578
(dp1579
g68
(dp1580
sg77
g1565
sg70
(lp1581
g63
(g64
g65
NtRp1582
(dp1583
g68
(dp1584
g76
I4
ssg77
g1578
sg70
(lp1585
g690
asbasbasbag63
(g79
g65
NtRp1586
(dp1587
g68
(dp1588
sg77
g643
sg70
(lp1589
g63
(g84
g65
NtRp1590
(dp1591
g68
(dp1592
g88
g89
ssg77
g1586
sg70
(lp1593
S'web2py_version'
p1594
asbag63
(g84
g65
NtRp1595
(dp1596
g68
(dp1597
g95
g96
ssg77
g1586
sg70
(lp1598
S':'
asbag63
(g84
g65
NtRp1599
(dp1600
g68
(dp1601
sg77
g1586
sg70
(lp1602
g63
(g64
g65
NtRp1603
(dp1604
g68
(dp1605
g76
I4
ssg77
g1599
sg70
(lp1606
g63
(g72
g65
NtRp1607
(dp1608
g68
(dp1609
g76
I3
ssg77
Nsg70
(lp1610
g63
(g79
g65
NtRp1611
(dp1612
g68
(dp1613
sg77
g1607
sg70
(lp1614
g63
(g84
g65
NtRp1615
(dp1616
g68
(dp1617
sg77
g1611
sg70
(lp1618
g63
(g64
g65
NtRp1619
(dp1620
g68
(dp1621
g76
I3
ssg77
g1615
sg70
(lp1622
S'1'
asbasbasbag63
(g79
g65
NtRp1623
(dp1624
g68
(dp1625
sg77
g1607
sg70
(lp1626
g63
(g84
g65
NtRp1627
(dp1628
g68
(dp1629
sg77
g1623
sg70
(lp1630
g63
(g64
g65
NtRp1631
(dp1632
g68
(dp1633
g76
I3
ssg77
g1627
sg70
(lp1634
S'99'
p1635
asbasbasbag63
(g79
g65
NtRp1636
(dp1637
g68
(dp1638
sg77
g1607
sg70
(lp1639
g63
(g84
g65
NtRp1640
(dp1641
g68
(dp1642
sg77
g1636
sg70
(lp1643
g63
(g64
g65
NtRp1644
(dp1645
g68
(dp1646
g76
I3
ssg77
g1640
sg70
(lp1647
S'7'
asbasbasbag63
(g79
g65
NtRp1648
(dp1649
g68
(dp1650
sg77
g1607
sg70
(lp1651
g63
(g84
g65
NtRp1652
(dp1653
g68
(dp1654
sg77
g1648
sg70
(lp1655
g63
(g64
g65
NtRp1656
(dp1657
g68
(dp1658
g76
I3
ssg77
g1652
sg70
(lp1659
S'datetime.datetime(2012, 3, 4, 22, 12, 8)'
p1660
asbasbasbag63
(g79
g65
NtRp1661
(dp1662
g68
(dp1663
sg77
g1607
sg70
(lp1664
g63
(g84
g65
NtRp1665
(dp1666
g68
(dp1667
sg77
g1661
sg70
(lp1668
g63
(g64
g65
NtRp1669
(dp1670
g68
(dp1671
g76
I3
ssg77
g1665
sg70
(lp1672
S'stable'
p1673
asbasbasbasbasbasbasbag63
(g79
g65
NtRp1674
(dp1675
g68
(dp1676
sg77
g643
sg70
(lp1677
g63
(g84
g65
NtRp1678
(dp1679
g68
(dp1680
g88
g89
ssg77
g1674
sg70
(lp1681
S'wsgi_errors'
p1682
asbag63
(g84
g65
NtRp1683
(dp1684
g68
(dp1685
g95
g96
ssg77
g1674
sg70
(lp1686
S':'
asbag63
(g84
g65
NtRp1687
(dp1688
g68
(dp1689
sg77
g1674
sg70
(lp1690
g63
(g64
g65
NtRp1691
(dp1692
g68
(dp1693
g76
I4
ssg77
g1687
sg70
(lp1694
S'<mod_wsgi.Log object at 0x22381440>'
p1695
asbasbasbag63
(g79
g65
NtRp1696
(dp1697
g68
(dp1698
sg77
g643
sg70
(lp1699
g63
(g84
g65
NtRp1700
(dp1701
g68
(dp1702
g88
g89
ssg77
g1696
sg70
(lp1703
S'wsgi_file_wrapper'
p1704
asbag63
(g84
g65
NtRp1705
(dp1706
g68
(dp1707
g95
g96
ssg77
g1696
sg70
(lp1708
S':'
asbag63
(g84
g65
NtRp1709
(dp1710
g68
(dp1711
sg77
g1696
sg70
(lp1712
g63
(g64
g65
NtRp1713
(dp1714
g68
(dp1715
g76
I4
ssg77
g1709
sg70
(lp1716
S'<built-in method file_wrapper of mod_wsgi.Adapter object at 0x22a3b9f8>'
p1717
asbasbasbag63
(g79
g65
NtRp1718
(dp1719
g68
(dp1720
sg77
g643
sg70
(lp1721
g63
(g84
g65
NtRp1722
(dp1723
g68
(dp1724
g88
g89
ssg77
g1718
sg70
(lp1725
S'wsgi_input'
p1726
asbag63
(g84
g65
NtRp1727
(dp1728
g68
(dp1729
g95
g96
ssg77
g1718
sg70
(lp1730
S':'
asbag63
(g84
g65
NtRp1731
(dp1732
g68
(dp1733
sg77
g1718
sg70
(lp1734
g63
(g64
g65
NtRp1735
(dp1736
g68
(dp1737
g76
I4
ssg77
g1731
sg70
(lp1738
S'<mod_wsgi.Input object at 0x2298d6d8>'
p1739
asbasbasbag63
(g79
g65
NtRp1740
(dp1741
g68
(dp1742
sg77
g643
sg70
(lp1743
g63
(g84
g65
NtRp1744
(dp1745
g68
(dp1746
g88
g89
ssg77
g1740
sg70
(lp1747
S'wsgi_multiprocess'
p1748
asbag63
(g84
g65
NtRp1749
(dp1750
g68
(dp1751
g95
g96
ssg77
g1740
sg70
(lp1752
S':'
asbag63
(g84
g65
NtRp1753
(dp1754
g68
(dp1755
sg77
g1740
sg70
(lp1756
g63
(g64
g65
NtRp1757
(dp1758
g68
(dp1759
g76
I4
ssg77
g1753
sg70
(lp1760
S'True'
p1761
asbasbasbag63
(g79
g65
NtRp1762
(dp1763
g68
(dp1764
sg77
g643
sg70
(lp1765
g63
(g84
g65
NtRp1766
(dp1767
g68
(dp1768
g88
g89
ssg77
g1762
sg70
(lp1769
S'wsgi_multithread'
p1770
asbag63
(g84
g65
NtRp1771
(dp1772
g68
(dp1773
g95
g96
ssg77
g1762
sg70
(lp1774
S':'
asbag63
(g84
g65
NtRp1775
(dp1776
g68
(dp1777
sg77
g1762
sg70
(lp1778
g63
(g64
g65
NtRp1779
(dp1780
g68
(dp1781
g76
I4
ssg77
g1775
sg70
(lp1782
g106
asbasbasbag63
(g79
g65
NtRp1783
(dp1784
g68
(dp1785
sg77
g643
sg70
(lp1786
g63
(g84
g65
NtRp1787
(dp1788
g68
(dp1789
g88
g89
ssg77
g1783
sg70
(lp1790
S'wsgi_run_once'
p1791
asbag63
(g84
g65
NtRp1792
(dp1793
g68
(dp1794
g95
g96
ssg77
g1783
sg70
(lp1795
S':'
asbag63
(g84
g65
NtRp1796
(dp1797
g68
(dp1798
sg77
g1783
sg70
(lp1799
g63
(g64
g65
NtRp1800
(dp1801
g68
(dp1802
g76
I4
ssg77
g1796
sg70
(lp1803
g106
asbasbasbag63
(g79
g65
NtRp1804
(dp1805
g68
(dp1806
sg77
g643
sg70
(lp1807
g63
(g84
g65
NtRp1808
(dp1809
g68
(dp1810
g88
g89
ssg77
g1804
sg70
(lp1811
S'wsgi_url_scheme'
p1812
asbag63
(g84
g65
NtRp1813
(dp1814
g68
(dp1815
g95
g96
ssg77
g1804
sg70
(lp1816
S':'
asbag63
(g84
g65
NtRp1817
(dp1818
g68
(dp1819
sg77
g1804
sg70
(lp1820
g63
(g64
g65
NtRp1821
(dp1822
g68
(dp1823
g76
I4
ssg77
g1817
sg70
(lp1824
S'http'
p1825
asbasbasbag63
(g79
g65
NtRp1826
(dp1827
g68
(dp1828
sg77
g643
sg70
(lp1829
g63
(g84
g65
NtRp1830
(dp1831
g68
(dp1832
g88
g89
ssg77
g1826
sg70
(lp1833
S'wsgi_version'
p1834
asbag63
(g84
g65
NtRp1835
(dp1836
g68
(dp1837
g95
g96
ssg77
g1826
sg70
(lp1838
S':'
asbag63
(g84
g65
NtRp1839
(dp1840
g68
(dp1841
sg77
g1826
sg70
(lp1842
g63
(g64
g65
NtRp1843
(dp1844
g68
(dp1845
g76
I4
ssg77
g1839
sg70
(lp1846
g63
(g72
g65
NtRp1847
(dp1848
g68
(dp1849
g76
I3
ssg77
Nsg70
(lp1850
g63
(g79
g65
NtRp1851
(dp1852
g68
(dp1853
sg77
g1847
sg70
(lp1854
g63
(g84
g65
NtRp1855
(dp1856
g68
(dp1857
sg77
g1851
sg70
(lp1858
g63
(g64
g65
NtRp1859
(dp1860
g68
(dp1861
g76
I3
ssg77
g1855
sg70
(lp1862
S'1'
asbasbasbag63
(g79
g65
NtRp1863
(dp1864
g68
(dp1865
sg77
g1847
sg70
(lp1866
g63
(g84
g65
NtRp1867
(dp1868
g68
(dp1869
sg77
g1863
sg70
(lp1870
g63
(g64
g65
NtRp1871
(dp1872
g68
(dp1873
g76
I3
ssg77
g1867
sg70
(lp1874
S'0'
asbasbasbasbasbasbasbasbasbasbasbag63
(g79
g65
NtRp1875
(dp1876
g68
(dp1877
sg77
g73
sg70
(lp1878
g63
(g84
g65
NtRp1879
(dp1880
g68
(dp1881
g88
g89
ssg77
g1875
sg70
(lp1882
S'extension'
p1883
asbag63
(g84
g65
NtRp1884
(dp1885
g68
(dp1886
g95
g96
ssg77
g1875
sg70
(lp1887
S':'
asbag63
(g84
g65
NtRp1888
(dp1889
g68
(dp1890
sg77
g1875
sg70
(lp1891
g63
(g64
g65
NtRp1892
(dp1893
g68
(dp1894
g76
I5
ssg77
g1888
sg70
(lp1895
S'html'
p1896
asbasbasbag63
(g79
g65
NtRp1897
(dp1898
g68
(dp1899
sg77
g73
sg70
(lp1900
g63
(g84
g65
NtRp1901
(dp1902
g68
(dp1903
g88
g89
ssg77
g1897
sg70
(lp1904
S'folder'
p1905
asbag63
(g84
g65
NtRp1906
(dp1907
g68
(dp1908
g95
g96
ssg77
g1897
sg70
(lp1909
S':'
asbag63
(g84
g65
NtRp1910
(dp1911
g68
(dp1912
sg77
g1897
sg70
(lp1913
g63
(g64
g65
NtRp1914
(dp1915
g68
(dp1916
g76
I5
ssg77
g1910
sg70
(lp1917
S'/home/seniorproj/Documents/finholt-senior-project/web2py/applications/SeniorProject/'
p1918
asbasbasbag63
(g79
g65
NtRp1919
(dp1920
g68
(dp1921
sg77
g73
sg70
(lp1922
g63
(g84
g65
NtRp1923
(dp1924
g68
(dp1925
g88
g89
ssg77
g1919
sg70
(lp1926
S'function'
p1927
asbag63
(g84
g65
NtRp1928
(dp1929
g68
(dp1930
g95
g96
ssg77
g1919
sg70
(lp1931
S':'
asbag63
(g84
g65
NtRp1932
(dp1933
g68
(dp1934
sg77
g1919
sg70
(lp1935
g63
(g64
g65
NtRp1936
(dp1937
g68
(dp1938
g76
I5
ssg77
g1932
sg70
(lp1939
S'index'
p1940
asbasbasbag63
(g79
g65
NtRp1941
(dp1942
g68
(dp1943
sg77
g73
sg70
(lp1944
g63
(g84
g65
NtRp1945
(dp1946
g68
(dp1947
g88
g89
ssg77
g1941
sg70
(lp1948
S'get_vars'
p1949
asbag63
(g84
g65
NtRp1950
(dp1951
g68
(dp1952
g95
g96
ssg77
g1941
sg70
(lp1953
S':'
asbag63
(g84
g65
NtRp1954
(dp1955
g68
(dp1956
sg77
g1941
sg70
(lp1957
g63
(g64
g65
NtRp1958
(dp1959
g68
(dp1960
g76
I5
ssg77
g1954
sg70
(lp1961
g63
(g72
g65
NtRp1962
(dp1963
g68
(dp1964
g76
I4
ssg77
Nsg70
(lp1965
sbasbasbasbag63
(g79
g65
NtRp1966
(dp1967
g68
(dp1968
sg77
g73
sg70
(lp1969
g63
(g84
g65
NtRp1970
(dp1971
g68
(dp1972
g88
g89
ssg77
g1966
sg70
(lp1973
S'global_settings'
p1974
asbag63
(g84
g65
NtRp1975
(dp1976
g68
(dp1977
g95
g96
ssg77
g1966
sg70
(lp1978
S':'
asbag63
(g84
g65
NtRp1979
(dp1980
g68
(dp1981
sg77
g1966
sg70
(lp1982
g63
(g64
g65
NtRp1983
(dp1984
g68
(dp1985
g76
I5
ssg77
g1979
sg70
(lp1986
g63
(g72
g65
NtRp1987
(dp1988
g68
(dp1989
g76
I4
ssg77
Nsg70
(lp1990
g63
(g79
g65
NtRp1991
(dp1992
g68
(dp1993
sg77
g1987
sg70
(lp1994
g63
(g84
g65
NtRp1995
(dp1996
g68
(dp1997
g88
g89
ssg77
g1991
sg70
(lp1998
g655
asbag63
(g84
g65
NtRp1999
(dp2000
g68
(dp2001
g95
g96
ssg77
g1991
sg70
(lp2002
S':'
asbag63
(g84
g65
NtRp2003
(dp2004
g68
(dp2005
sg77
g1991
sg70
(lp2006
g63
(g64
g65
NtRp2007
(dp2008
g68
(dp2009
g76
I4
ssg77
g2003
sg70
(lp2010
S"set(['/home/seniorproj/Documents/finholt-senior-project/web2py/applications/SeniorProject/'])"
p2011
asbasbasbag63
(g79
g65
NtRp2012
(dp2013
g68
(dp2014
sg77
g1987
sg70
(lp2015
g63
(g84
g65
NtRp2016
(dp2017
g68
(dp2018
g88
g89
ssg77
g2012
sg70
(lp2019
g677
asbag63
(g84
g65
NtRp2020
(dp2021
g68
(dp2022
g95
g96
ssg77
g2012
sg70
(lp2023
S':'
asbag63
(g84
g65
NtRp2024
(dp2025
g68
(dp2026
sg77
g2012
sg70
(lp2027
g63
(g64
g65
NtRp2028
(dp2029
g68
(dp2030
g76
I4
ssg77
g2024
sg70
(lp2031
g690
asbasbasbag63
(g79
g65
NtRp2032
(dp2033
g68
(dp2034
sg77
g1987
sg70
(lp2035
g63
(g84
g65
NtRp2036
(dp2037
g68
(dp2038
g88
g89
ssg77
g2032
sg70
(lp2039
g699
asbag63
(g84
g65
NtRp2040
(dp2041
g68
(dp2042
g95
g96
ssg77
g2032
sg70
(lp2043
S':'
asbag63
(g84
g65
NtRp2044
(dp2045
g68
(dp2046
sg77
g2032
sg70
(lp2047
g63
(g64
g65
NtRp2048
(dp2049
g68
(dp2050
g76
I4
ssg77
g2044
sg70
(lp2051
S'set([])'
p2052
asbasbasbag63
(g79
g65
NtRp2053
(dp2054
g68
(dp2055
sg77
g1987
sg70
(lp2056
g63
(g84
g65
NtRp2057
(dp2058
g68
(dp2059
g88
g89
ssg77
g2053
sg70
(lp2060
g721
asbag63
(g84
g65
NtRp2061
(dp2062
g68
(dp2063
g95
g96
ssg77
g2053
sg70
(lp2064
S':'
asbag63
(g84
g65
NtRp2065
(dp2066
g68
(dp2067
sg77
g2053
sg70
(lp2068
g63
(g64
g65
NtRp2069
(dp2070
g68
(dp2071
g76
I4
ssg77
g2065
sg70
(lp2072
g106
asbasbasbag63
(g79
g65
NtRp2073
(dp2074
g68
(dp2075
sg77
g1987
sg70
(lp2076
g63
(g84
g65
NtRp2077
(dp2078
g68
(dp2079
g88
g89
ssg77
g2073
sg70
(lp2080
g786
asbag63
(g84
g65
NtRp2081
(dp2082
g68
(dp2083
g95
g96
ssg77
g2073
sg70
(lp2084
S':'
asbag63
(g84
g65
NtRp2085
(dp2086
g68
(dp2087
sg77
g2073
sg70
(lp2088
g63
(g64
g65
NtRp2089
(dp2090
g68
(dp2091
g76
I4
ssg77
g2085
sg70
(lp2092
g690
asbasbasbag63
(g79
g65
NtRp2093
(dp2094
g68
(dp2095
sg77
g1987
sg70
(lp2096
g63
(g84
g65
NtRp2097
(dp2098
g68
(dp2099
g88
g89
ssg77
g2093
sg70
(lp2100
g961
asbag63
(g84
g65
NtRp2101
(dp2102
g68
(dp2103
g95
g96
ssg77
g2093
sg70
(lp2104
S':'
asbag63
(g84
g65
NtRp2105
(dp2106
g68
(dp2107
sg77
g2093
sg70
(lp2108
g63
(g64
g65
NtRp2109
(dp2110
g68
(dp2111
g76
I4
ssg77
g2105
sg70
(lp2112
g106
asbasbasbag63
(g79
g65
NtRp2113
(dp2114
g68
(dp2115
sg77
g1987
sg70
(lp2116
g63
(g84
g65
NtRp2117
(dp2118
g68
(dp2119
g88
g89
ssg77
g2113
sg70
(lp2120
g982
asbag63
(g84
g65
NtRp2121
(dp2122
g68
(dp2123
g95
g96
ssg77
g2113
sg70
(lp2124
S':'
asbag63
(g84
g65
NtRp2125
(dp2126
g68
(dp2127
sg77
g2113
sg70
(lp2128
g63
(g64
g65
NtRp2129
(dp2130
g68
(dp2131
g76
I4
ssg77
g2125
sg70
(lp2132
g106
asbasbasbag63
(g79
g65
NtRp2133
(dp2134
g68
(dp2135
sg77
g1987
sg70
(lp2136
g63
(g84
g65
NtRp2137
(dp2138
g68
(dp2139
g88
g89
ssg77
g2133
sg70
(lp2140
g1594
asbag63
(g84
g65
NtRp2141
(dp2142
g68
(dp2143
g95
g96
ssg77
g2133
sg70
(lp2144
S':'
asbag63
(g84
g65
NtRp2145
(dp2146
g68
(dp2147
sg77
g2133
sg70
(lp2148
g63
(g64
g65
NtRp2149
(dp2150
g68
(dp2151
g76
I4
ssg77
g2145
sg70
(lp2152
g63
(g72
g65
NtRp2153
(dp2154
g68
(dp2155
g76
I3
ssg77
Nsg70
(lp2156
g63
(g79
g65
NtRp2157
(dp2158
g68
(dp2159
sg77
g2153
sg70
(lp2160
g63
(g84
g65
NtRp2161
(dp2162
g68
(dp2163
sg77
g2157
sg70
(lp2164
g63
(g64
g65
NtRp2165
(dp2166
g68
(dp2167
g76
I3
ssg77
g2161
sg70
(lp2168
S'1'
asbasbasbag63
(g79
g65
NtRp2169
(dp2170
g68
(dp2171
sg77
g2153
sg70
(lp2172
g63
(g84
g65
NtRp2173
(dp2174
g68
(dp2175
sg77
g2169
sg70
(lp2176
g63
(g64
g65
NtRp2177
(dp2178
g68
(dp2179
g76
I3
ssg77
g2173
sg70
(lp2180
S'99'
p2181
asbasbasbag63
(g79
g65
NtRp2182
(dp2183
g68
(dp2184
sg77
g2153
sg70
(lp2185
g63
(g84
g65
NtRp2186
(dp2187
g68
(dp2188
sg77
g2182
sg70
(lp2189
g63
(g64
g65
NtRp2190
(dp2191
g68
(dp2192
g76
I3
ssg77
g2186
sg70
(lp2193
S'7'
asbasbasbag63
(g79
g65
NtRp2194
(dp2195
g68
(dp2196
sg77
g2153
sg70
(lp2197
g63
(g84
g65
NtRp2198
(dp2199
g68
(dp2200
sg77
g2194
sg70
(lp2201
g63
(g64
g65
NtRp2202
(dp2203
g68
(dp2204
g76
I3
ssg77
g2198
sg70
(lp2205
S'datetime.datetime(2012, 3, 4, 22, 12, 8)'
p2206
asbasbasbag63
(g79
g65
NtRp2207
(dp2208
g68
(dp2209
sg77
g2153
sg70
(lp2210
g63
(g84
g65
NtRp2211
(dp2212
g68
(dp2213
sg77
g2207
sg70
(lp2214
g63
(g64
g65
NtRp2215
(dp2216
g68
(dp2217
g76
I3
ssg77
g2211
sg70
(lp2218
g1673
asbasbasbasbasbasbasbasbasbasbasbag63
(g79
g65
NtRp2219
(dp2220
g68
(dp2221
sg77
g73
sg70
(lp2222
g63
(g84
g65
NtRp2223
(dp2224
g68
(dp2225
g88
g89
ssg77
g2219
sg70
(lp2226
S'is_https'
p2227
asbag63
(g84
g65
NtRp2228
(dp2229
g68
(dp2230
g95
g96
ssg77
g2219
sg70
(lp2231
S':'
asbag63
(g84
g65
NtRp2232
(dp2233
g68
(dp2234
sg77
g2219
sg70
(lp2235
g63
(g64
g65
NtRp2236
(dp2237
g68
(dp2238
g76
I5
ssg77
g2232
sg70
(lp2239
g106
asbasbasbag63
(g79
g65
NtRp2240
(dp2241
g68
(dp2242
sg77
g73
sg70
(lp2243
g63
(g84
g65
NtRp2244
(dp2245
g68
(dp2246
g88
g89
ssg77
g2240
sg70
(lp2247
S'is_local'
p2248
asbag63
(g84
g65
NtRp2249
(dp2250
g68
(dp2251
g95
g96
ssg77
g2240
sg70
(lp2252
S':'
asbag63
(g84
g65
NtRp2253
(dp2254
g68
(dp2255
sg77
g2240
sg70
(lp2256
g63
(g64
g65
NtRp2257
(dp2258
g68
(dp2259
g76
I5
ssg77
g2253
sg70
(lp2260
g1761
asbasbasbag63
(g79
g65
NtRp2261
(dp2262
g68
(dp2263
sg77
g73
sg70
(lp2264
g63
(g84
g65
NtRp2265
(dp2266
g68
(dp2267
g88
g89
ssg77
g2261
sg70
(lp2268
S'is_restful'
p2269
asbag63
(g84
g65
NtRp2270
(dp2271
g68
(dp2272
g95
g96
ssg77
g2261
sg70
(lp2273
S':'
asbag63
(g84
g65
NtRp2274
(dp2275
g68
(dp2276
sg77
g2261
sg70
(lp2277
g63
(g64
g65
NtRp2278
(dp2279
g68
(dp2280
g76
I5
ssg77
g2274
sg70
(lp2281
g106
asbasbasbag63
(g79
g65
NtRp2282
(dp2283
g68
(dp2284
sg77
g73
sg70
(lp2285
g63
(g84
g65
NtRp2286
(dp2287
g68
(dp2288
g88
g89
ssg77
g2282
sg70
(lp2289
S'now'
p2290
asbag63
(g84
g65
NtRp2291
(dp2292
g68
(dp2293
g95
g96
ssg77
g2282
sg70
(lp2294
S':'
asbag63
(g84
g65
NtRp2295
(dp2296
g68
(dp2297
sg77
g2282
sg70
(lp2298
g63
(g64
g65
NtRp2299
(dp2300
g68
(dp2301
g76
I5
ssg77
g2295
sg70
(lp2302
S'datetime.datetime(2013, 2, 20, 17, 0, 14, 922928)'
p2303
asbasbasbag63
(g79
g65
NtRp2304
(dp2305
g68
(dp2306
sg77
g73
sg70
(lp2307
g63
(g84
g65
NtRp2308
(dp2309
g68
(dp2310
g88
g89
ssg77
g2304
sg70
(lp2311
S'post_vars'
p2312
asbag63
(g84
g65
NtRp2313
(dp2314
g68
(dp2315
g95
g96
ssg77
g2304
sg70
(lp2316
S':'
asbag63
(g84
g65
NtRp2317
(dp2318
g68
(dp2319
sg77
g2304
sg70
(lp2320
g63
(g64
g65
NtRp2321
(dp2322
g68
(dp2323
g76
I5
ssg77
g2317
sg70
(lp2324
g63
(g72
g65
NtRp2325
(dp2326
g68
(dp2327
g76
I4
ssg77
Nsg70
(lp2328
sbasbasbasbag63
(g79
g65
NtRp2329
(dp2330
g68
(dp2331
sg77
g73
sg70
(lp2332
g63
(g84
g65
NtRp2333
(dp2334
g68
(dp2335
g88
g89
ssg77
g2329
sg70
(lp2336
S'url'
p2337
asbag63
(g84
g65
NtRp2338
(dp2339
g68
(dp2340
g95
g96
ssg77
g2329
sg70
(lp2341
S':'
asbag63
(g84
g65
NtRp2342
(dp2343
g68
(dp2344
sg77
g2329
sg70
(lp2345
g63
(g64
g65
NtRp2346
(dp2347
g68
(dp2348
g76
I5
ssg77
g2342
sg70
(lp2349
S'/SeniorProject/default/index'
p2350
asbasbasbag63
(g79
g65
NtRp2351
(dp2352
g68
(dp2353
sg77
g73
sg70
(lp2354
g63
(g84
g65
NtRp2355
(dp2356
g68
(dp2357
g88
g89
ssg77
g2351
sg70
(lp2358
S'utcnow'
p2359
asbag63
(g84
g65
NtRp2360
(dp2361
g68
(dp2362
g95
g96
ssg77
g2351
sg70
(lp2363
S':'
asbag63
(g84
g65
NtRp2364
(dp2365
g68
(dp2366
sg77
g2351
sg70
(lp2367
g63
(g64
g65
NtRp2368
(dp2369
g68
(dp2370
g76
I5
ssg77
g2364
sg70
(lp2371
S'datetime.datetime(2013, 2, 20, 23, 0, 14, 922946)'
p2372
asbasbasbag63
(g79
g65
NtRp2373
(dp2374
g68
(dp2375
sg77
g73
sg70
(lp2376
g63
(g84
g65
NtRp2377
(dp2378
g68
(dp2379
g88
g89
ssg77
g2373
sg70
(lp2380
S'uuid'
p2381
asbag63
(g84
g65
NtRp2382
(dp2383
g68
(dp2384
g95
g96
ssg77
g2373
sg70
(lp2385
S':'
asbag63
(g84
g65
NtRp2386
(dp2387
g68
(dp2388
sg77
g2373
sg70
(lp2389
g63
(g64
g65
NtRp2390
(dp2391
g68
(dp2392
g76
I5
ssg77
g2386
sg70
(lp2393
S'SeniorProject/127.0.0.1.2013-02-20.17-00-14.71484c4f-c3b0-4e1e-a4f7-56d61948f6c5'
p2394
asbasbasbag63
(g79
g65
NtRp2395
(dp2396
g68
(dp2397
sg77
g73
sg70
(lp2398
g63
(g84
g65
NtRp2399
(dp2400
g68
(dp2401
g88
g89
ssg77
g2395
sg70
(lp2402
S'vars'
p2403
asbag63
(g84
g65
NtRp2404
(dp2405
g68
(dp2406
g95
g96
ssg77
g2395
sg70
(lp2407
S':'
asbag63
(g84
g65
NtRp2408
(dp2409
g68
(dp2410
sg77
g2395
sg70
(lp2411
g63
(g64
g65
NtRp2412
(dp2413
g68
(dp2414
g76
I5
ssg77
g2408
sg70
(lp2415
g63
(g72
g65
NtRp2416
(dp2417
g68
(dp2418
g76
I4
ssg77
Nsg70
(lp2419
sbasbasbasbag63
(g79
g65
NtRp2420
(dp2421
g68
(dp2422
sg77
g73
sg70
(lp2423
g63
(g84
g65
NtRp2424
(dp2425
g68
(dp2426
g88
g89
ssg77
g2420
sg70
(lp2427
S'wsgi'
p2428
asbag63
(g84
g65
NtRp2429
(dp2430
g68
(dp2431
g95
g96
ssg77
g2420
sg70
(lp2432
S':'
asbag63
(g84
g65
NtRp2433
(dp2434
g68
(dp2435
sg77
g2420
sg70
(lp2436
g63
(g64
g65
NtRp2437
(dp2438
g68
(dp2439
g76
I5
ssg77
g2433
sg70
(lp2440
g63
(g72
g65
NtRp2441
(dp2442
g68
(dp2443
g76
I4
ssg77
Nsg70
(lp2444
g63
(g79
g65
NtRp2445
(dp2446
g68
(dp2447
sg77
g2441
sg70
(lp2448
g63
(g84
g65
NtRp2449
(dp2450
g68
(dp2451
g88
g89
ssg77
g2445
sg70
(lp2452
S'environ'
p2453
asbag63
(g84
g65
NtRp2454
(dp2455
g68
(dp2456
g95
g96
ssg77
g2445
sg70
(lp2457
S':'
asbag63
(g84
g65
NtRp2458
(dp2459
g68
(dp2460
sg77
g2445
sg70
(lp2461
g63
(g64
g65
NtRp2462
(dp2463
g68
(dp2464
g76
I4
ssg77
g2458
sg70
(lp2465
g63
(g72
g65
NtRp2466
(dp2467
g68
(dp2468
g76
I3
ssg77
Nsg70
(lp2469
g63
(g79
g65
NtRp2470
(dp2471
g68
(dp2472
sg77
g2466
sg70
(lp2473
g63
(g84
g65
NtRp2474
(dp2475
g68
(dp2476
g88
g89
ssg77
g2470
sg70
(lp2477
S'DOCUMENT_ROOT'
p2478
asbag63
(g84
g65
NtRp2479
(dp2480
g68
(dp2481
g95
g96
ssg77
g2470
sg70
(lp2482
S':'
asbag63
(g84
g65
NtRp2483
(dp2484
g68
(dp2485
sg77
g2470
sg70
(lp2486
g63
(g64
g65
NtRp2487
(dp2488
g68
(dp2489
g76
I3
ssg77
g2483
sg70
(lp2490
g755
asbasbasbag63
(g79
g65
NtRp2491
(dp2492
g68
(dp2493
sg77
g2466
sg70
(lp2494
g63
(g84
g65
NtRp2495
(dp2496
g68
(dp2497
g88
g89
ssg77
g2491
sg70
(lp2498
S'GATEWAY_INTERFACE'
p2499
asbag63
(g84
g65
NtRp2500
(dp2501
g68
(dp2502
g95
g96
ssg77
g2491
sg70
(lp2503
S':'
asbag63
(g84
g65
NtRp2504
(dp2505
g68
(dp2506
sg77
g2491
sg70
(lp2507
g63
(g64
g65
NtRp2508
(dp2509
g68
(dp2510
g76
I3
ssg77
g2504
sg70
(lp2511
g777
asbasbasbag63
(g79
g65
NtRp2512
(dp2513
g68
(dp2514
sg77
g2466
sg70
(lp2515
g63
(g84
g65
NtRp2516
(dp2517
g68
(dp2518
g88
g89
ssg77
g2512
sg70
(lp2519
S'HTTP_ACCEPT'
p2520
asbag63
(g84
g65
NtRp2521
(dp2522
g68
(dp2523
g95
g96
ssg77
g2512
sg70
(lp2524
S':'
asbag63
(g84
g65
NtRp2525
(dp2526
g68
(dp2527
sg77
g2512
sg70
(lp2528
g63
(g64
g65
NtRp2529
(dp2530
g68
(dp2531
g76
I3
ssg77
g2525
sg70
(lp2532
g820
asbasbasbag63
(g79
g65
NtRp2533
(dp2534
g68
(dp2535
sg77
g2466
sg70
(lp2536
g63
(g84
g65
NtRp2537
(dp2538
g68
(dp2539
g88
g89
ssg77
g2533
sg70
(lp2540
S'HTTP_ACCEPT_ENCODING'
p2541
asbag63
(g84
g65
NtRp2542
(dp2543
g68
(dp2544
g95
g96
ssg77
g2533
sg70
(lp2545
S':'
asbag63
(g84
g65
NtRp2546
(dp2547
g68
(dp2548
sg77
g2533
sg70
(lp2549
g63
(g64
g65
NtRp2550
(dp2551
g68
(dp2552
g76
I3
ssg77
g2546
sg70
(lp2553
g842
asbasbasbag63
(g79
g65
NtRp2554
(dp2555
g68
(dp2556
sg77
g2466
sg70
(lp2557
g63
(g84
g65
NtRp2558
(dp2559
g68
(dp2560
g88
g89
ssg77
g2554
sg70
(lp2561
S'HTTP_ACCEPT_LANGUAGE'
p2562
asbag63
(g84
g65
NtRp2563
(dp2564
g68
(dp2565
g95
g96
ssg77
g2554
sg70
(lp2566
S':'
asbag63
(g84
g65
NtRp2567
(dp2568
g68
(dp2569
sg77
g2554
sg70
(lp2570
g63
(g64
g65
NtRp2571
(dp2572
g68
(dp2573
g76
I3
ssg77
g2567
sg70
(lp2574
g864
asbasbasbag63
(g79
g65
NtRp2575
(dp2576
g68
(dp2577
sg77
g2466
sg70
(lp2578
g63
(g84
g65
NtRp2579
(dp2580
g68
(dp2581
g88
g89
ssg77
g2575
sg70
(lp2582
S'HTTP_CONNECTION'
p2583
asbag63
(g84
g65
NtRp2584
(dp2585
g68
(dp2586
g95
g96
ssg77
g2575
sg70
(lp2587
S':'
asbag63
(g84
g65
NtRp2588
(dp2589
g68
(dp2590
sg77
g2575
sg70
(lp2591
g63
(g64
g65
NtRp2592
(dp2593
g68
(dp2594
g76
I3
ssg77
g2588
sg70
(lp2595
g886
asbasbasbag63
(g79
g65
NtRp2596
(dp2597
g68
(dp2598
sg77
g2466
sg70
(lp2599
g63
(g84
g65
NtRp2600
(dp2601
g68
(dp2602
g88
g89
ssg77
g2596
sg70
(lp2603
S'HTTP_COOKIE'
p2604
asbag63
(g84
g65
NtRp2605
(dp2606
g68
(dp2607
g95
g96
ssg77
g2596
sg70
(lp2608
S':'
asbag63
(g84
g65
NtRp2609
(dp2610
g68
(dp2611
sg77
g2596
sg70
(lp2612
g63
(g64
g65
NtRp2613
(dp2614
g68
(dp2615
g76
I3
ssg77
g2609
sg70
(lp2616
g908
asbasbasbag63
(g79
g65
NtRp2617
(dp2618
g68
(dp2619
sg77
g2466
sg70
(lp2620
g63
(g84
g65
NtRp2621
(dp2622
g68
(dp2623
g88
g89
ssg77
g2617
sg70
(lp2624
S'HTTP_HOST'
p2625
asbag63
(g84
g65
NtRp2626
(dp2627
g68
(dp2628
g95
g96
ssg77
g2617
sg70
(lp2629
S':'
asbag63
(g84
g65
NtRp2630
(dp2631
g68
(dp2632
sg77
g2617
sg70
(lp2633
g63
(g64
g65
NtRp2634
(dp2635
g68
(dp2636
g76
I3
ssg77
g2630
sg70
(lp2637
g930
asbasbasbag63
(g79
g65
NtRp2638
(dp2639
g68
(dp2640
sg77
g2466
sg70
(lp2641
g63
(g84
g65
NtRp2642
(dp2643
g68
(dp2644
g88
g89
ssg77
g2638
sg70
(lp2645
S'HTTP_USER_AGENT'
p2646
asbag63
(g84
g65
NtRp2647
(dp2648
g68
(dp2649
g95
g96
ssg77
g2638
sg70
(lp2650
S':'
asbag63
(g84
g65
NtRp2651
(dp2652
g68
(dp2653
sg77
g2638
sg70
(lp2654
g63
(g64
g65
NtRp2655
(dp2656
g68
(dp2657
g76
I3
ssg77
g2651
sg70
(lp2658
g952
asbasbasbag63
(g79
g65
NtRp2659
(dp2660
g68
(dp2661
sg77
g2466
sg70
(lp2662
g63
(g84
g65
NtRp2663
(dp2664
g68
(dp2665
g88
g89
ssg77
g2659
sg70
(lp2666
S'PATH'
p2667
asbag63
(g84
g65
NtRp2668
(dp2669
g68
(dp2670
g95
g96
ssg77
g2659
sg70
(lp2671
S':'
asbag63
(g84
g65
NtRp2672
(dp2673
g68
(dp2674
sg77
g2659
sg70
(lp2675
g63
(g64
g65
NtRp2676
(dp2677
g68
(dp2678
g76
I3
ssg77
g2672
sg70
(lp2679
g1215
asbasbasbag63
(g79
g65
NtRp2680
(dp2681
g68
(dp2682
sg77
g2466
sg70
(lp2683
g63
(g84
g65
NtRp2684
(dp2685
g68
(dp2686
g88
g89
ssg77
g2680
sg70
(lp2687
S'PATH_INFO'
p2688
asbag63
(g84
g65
NtRp2689
(dp2690
g68
(dp2691
g95
g96
ssg77
g2680
sg70
(lp2692
S':'
asbag63
(g84
g65
NtRp2693
(dp2694
g68
(dp2695
sg77
g2680
sg70
(lp2696
g63
(g64
g65
NtRp2697
(dp2698
g68
(dp2699
g76
I3
ssg77
g2693
sg70
(lp2700
g1237
asbasbasbag63
(g79
g65
NtRp2701
(dp2702
g68
(dp2703
sg77
g2466
sg70
(lp2704
g63
(g84
g65
NtRp2705
(dp2706
g68
(dp2707
g88
g89
ssg77
g2701
sg70
(lp2708
S'PATH_TRANSLATED'
p2709
asbag63
(g84
g65
NtRp2710
(dp2711
g68
(dp2712
g95
g96
ssg77
g2701
sg70
(lp2713
S':'
asbag63
(g84
g65
NtRp2714
(dp2715
g68
(dp2716
sg77
g2701
sg70
(lp2717
g63
(g64
g65
NtRp2718
(dp2719
g68
(dp2720
g76
I3
ssg77
g2714
sg70
(lp2721
g1259
asbasbasbag63
(g79
g65
NtRp2722
(dp2723
g68
(dp2724
sg77
g2466
sg70
(lp2725
g63
(g84
g65
NtRp2726
(dp2727
g68
(dp2728
g88
g89
ssg77
g2722
sg70
(lp2729
S'QUERY_STRING'
p2730
asbag63
(g84
g65
NtRp2731
(dp2732
g68
(dp2733
g95
g96
ssg77
g2722
sg70
(lp2734
S':'
asbag63
(g84
g65
NtRp2735
(dp2736
g68
(dp2737
sg77
g2722
sg70
(lp2738
g63
(g64
g65
NtRp2739
(dp2740
g68
(dp2741
g76
I3
ssg77
g2735
sg70
(lp2742
S''
asbasbasbag63
(g79
g65
NtRp2743
(dp2744
g68
(dp2745
sg77
g2466
sg70
(lp2746
g63
(g84
g65
NtRp2747
(dp2748
g68
(dp2749
g88
g89
ssg77
g2743
sg70
(lp2750
S'REMOTE_ADDR'
p2751
asbag63
(g84
g65
NtRp2752
(dp2753
g68
(dp2754
g95
g96
ssg77
g2743
sg70
(lp2755
S':'
asbag63
(g84
g65
NtRp2756
(dp2757
g68
(dp2758
sg77
g2743
sg70
(lp2759
g63
(g64
g65
NtRp2760
(dp2761
g68
(dp2762
g76
I3
ssg77
g2756
sg70
(lp2763
g196
asbasbasbag63
(g79
g65
NtRp2764
(dp2765
g68
(dp2766
sg77
g2466
sg70
(lp2767
g63
(g84
g65
NtRp2768
(dp2769
g68
(dp2770
g88
g89
ssg77
g2764
sg70
(lp2771
S'REMOTE_PORT'
p2772
asbag63
(g84
g65
NtRp2773
(dp2774
g68
(dp2775
g95
g96
ssg77
g2764
sg70
(lp2776
S':'
asbag63
(g84
g65
NtRp2777
(dp2778
g68
(dp2779
sg77
g2764
sg70
(lp2780
g63
(g64
g65
NtRp2781
(dp2782
g68
(dp2783
g76
I3
ssg77
g2777
sg70
(lp2784
g1323
asbasbasbag63
(g79
g65
NtRp2785
(dp2786
g68
(dp2787
sg77
g2466
sg70
(lp2788
g63
(g84
g65
NtRp2789
(dp2790
g68
(dp2791
g88
g89
ssg77
g2785
sg70
(lp2792
S'REQUEST_METHOD'
p2793
asbag63
(g84
g65
NtRp2794
(dp2795
g68
(dp2796
g95
g96
ssg77
g2785
sg70
(lp2797
S':'
asbag63
(g84
g65
NtRp2798
(dp2799
g68
(dp2800
sg77
g2785
sg70
(lp2801
g63
(g64
g65
NtRp2802
(dp2803
g68
(dp2804
g76
I3
ssg77
g2798
sg70
(lp2805
g1345
asbasbasbag63
(g79
g65
NtRp2806
(dp2807
g68
(dp2808
sg77
g2466
sg70
(lp2809
g63
(g84
g65
NtRp2810
(dp2811
g68
(dp2812
g88
g89
ssg77
g2806
sg70
(lp2813
S'REQUEST_URI'
p2814
asbag63
(g84
g65
NtRp2815
(dp2816
g68
(dp2817
g95
g96
ssg77
g2806
sg70
(lp2818
S':'
asbag63
(g84
g65
NtRp2819
(dp2820
g68
(dp2821
sg77
g2806
sg70
(lp2822
g63
(g64
g65
NtRp2823
(dp2824
g68
(dp2825
g76
I3
ssg77
g2819
sg70
(lp2826
g1367
asbasbasbag63
(g79
g65
NtRp2827
(dp2828
g68
(dp2829
sg77
g2466
sg70
(lp2830
g63
(g84
g65
NtRp2831
(dp2832
g68
(dp2833
g88
g89
ssg77
g2827
sg70
(lp2834
S'SCRIPT_FILENAME'
p2835
asbag63
(g84
g65
NtRp2836
(dp2837
g68
(dp2838
g95
g96
ssg77
g2827
sg70
(lp2839
S':'
asbag63
(g84
g65
NtRp2840
(dp2841
g68
(dp2842
sg77
g2827
sg70
(lp2843
g63
(g64
g65
NtRp2844
(dp2845
g68
(dp2846
g76
I3
ssg77
g2840
sg70
(lp2847
g1389
asbasbasbag63
(g79
g65
NtRp2848
(dp2849
g68
(dp2850
sg77
g2466
sg70
(lp2851
g63
(g84
g65
NtRp2852
(dp2853
g68
(dp2854
g88
g89
ssg77
g2848
sg70
(lp2855
S'SCRIPT_NAME'
p2856
asbag63
(g84
g65
NtRp2857
(dp2858
g68
(dp2859
g95
g96
ssg77
g2848
sg70
(lp2860
S':'
asbag63
(g84
g65
NtRp2861
(dp2862
g68
(dp2863
sg77
g2848
sg70
(lp2864
g63
(g64
g65
NtRp2865
(dp2866
g68
(dp2867
g76
I3
ssg77
g2861
sg70
(lp2868
S''
asbasbasbag63
(g79
g65
NtRp2869
(dp2870
g68
(dp2871
sg77
g2466
sg70
(lp2872
g63
(g84
g65
NtRp2873
(dp2874
g68
(dp2875
g88
g89
ssg77
g2869
sg70
(lp2876
S'SERVER_ADDR'
p2877
asbag63
(g84
g65
NtRp2878
(dp2879
g68
(dp2880
g95
g96
ssg77
g2869
sg70
(lp2881
S':'
asbag63
(g84
g65
NtRp2882
(dp2883
g68
(dp2884
sg77
g2869
sg70
(lp2885
g63
(g64
g65
NtRp2886
(dp2887
g68
(dp2888
g76
I3
ssg77
g2882
sg70
(lp2889
g1432
asbasbasbag63
(g79
g65
NtRp2890
(dp2891
g68
(dp2892
sg77
g2466
sg70
(lp2893
g63
(g84
g65
NtRp2894
(dp2895
g68
(dp2896
g88
g89
ssg77
g2890
sg70
(lp2897
S'SERVER_ADMIN'
p2898
asbag63
(g84
g65
NtRp2899
(dp2900
g68
(dp2901
g95
g96
ssg77
g2890
sg70
(lp2902
S':'
asbag63
(g84
g65
NtRp2903
(dp2904
g68
(dp2905
sg77
g2890
sg70
(lp2906
g63
(g64
g65
NtRp2907
(dp2908
g68
(dp2909
g76
I3
ssg77
g2903
sg70
(lp2910
g1454
asbasbasbag63
(g79
g65
NtRp2911
(dp2912
g68
(dp2913
sg77
g2466
sg70
(lp2914
g63
(g84
g65
NtRp2915
(dp2916
g68
(dp2917
g88
g89
ssg77
g2911
sg70
(lp2918
S'SERVER_NAME'
p2919
asbag63
(g84
g65
NtRp2920
(dp2921
g68
(dp2922
g95
g96
ssg77
g2911
sg70
(lp2923
S':'
asbag63
(g84
g65
NtRp2924
(dp2925
g68
(dp2926
sg77
g2911
sg70
(lp2927
g63
(g64
g65
NtRp2928
(dp2929
g68
(dp2930
g76
I3
ssg77
g2924
sg70
(lp2931
g1476
asbasbasbag63
(g79
g65
NtRp2932
(dp2933
g68
(dp2934
sg77
g2466
sg70
(lp2935
g63
(g84
g65
NtRp2936
(dp2937
g68
(dp2938
g88
g89
ssg77
g2932
sg70
(lp2939
S'SERVER_PORT'
p2940
asbag63
(g84
g65
NtRp2941
(dp2942
g68
(dp2943
g95
g96
ssg77
g2932
sg70
(lp2944
S':'
asbag63
(g84
g65
NtRp2945
(dp2946
g68
(dp2947
sg77
g2932
sg70
(lp2948
g63
(g64
g65
NtRp2949
(dp2950
g68
(dp2951
g76
I3
ssg77
g2945
sg70
(lp2952
g1498
asbasbasbag63
(g79
g65
NtRp2953
(dp2954
g68
(dp2955
sg77
g2466
sg70
(lp2956
g63
(g84
g65
NtRp2957
(dp2958
g68
(dp2959
g88
g89
ssg77
g2953
sg70
(lp2960
S'SERVER_PROTOCOL'
p2961
asbag63
(g84
g65
NtRp2962
(dp2963
g68
(dp2964
g95
g96
ssg77
g2953
sg70
(lp2965
S':'
asbag63
(g84
g65
NtRp2966
(dp2967
g68
(dp2968
sg77
g2953
sg70
(lp2969
g63
(g64
g65
NtRp2970
(dp2971
g68
(dp2972
g76
I3
ssg77
g2966
sg70
(lp2973
g1520
asbasbasbag63
(g79
g65
NtRp2974
(dp2975
g68
(dp2976
sg77
g2466
sg70
(lp2977
g63
(g84
g65
NtRp2978
(dp2979
g68
(dp2980
g88
g89
ssg77
g2974
sg70
(lp2981
S'SERVER_SIGNATURE'
p2982
asbag63
(g84
g65
NtRp2983
(dp2984
g68
(dp2985
g95
g96
ssg77
g2974
sg70
(lp2986
S':'
asbag63
(g84
g65
NtRp2987
(dp2988
g68
(dp2989
sg77
g2974
sg70
(lp2990
g63
(g64
g65
NtRp2991
(dp2992
g68
(dp2993
g76
I3
ssg77
g2987
sg70
(lp2994
g1542
asbasbasbag63
(g79
g65
NtRp2995
(dp2996
g68
(dp2997
sg77
g2466
sg70
(lp2998
g63
(g84
g65
NtRp2999
(dp3000
g68
(dp3001
g88
g89
ssg77
g2995
sg70
(lp3002
S'SERVER_SOFTWARE'
p3003
asbag63
(g84
g65
NtRp3004
(dp3005
g68
(dp3006
g95
g96
ssg77
g2995
sg70
(lp3007
S':'
asbag63
(g84
g65
NtRp3008
(dp3009
g68
(dp3010
sg77
g2995
sg70
(lp3011
g63
(g64
g65
NtRp3012
(dp3013
g68
(dp3014
g76
I3
ssg77
g3008
sg70
(lp3015
g1564
asbasbasbag63
(g79
g65
NtRp3016
(dp3017
g68
(dp3018
sg77
g2466
sg70
(lp3019
g63
(g84
g65
NtRp3020
(dp3021
g68
(dp3022
g88
g89
ssg77
g3016
sg70
(lp3023
S'mod_wsgi.application_group'
p3024
asbag63
(g84
g65
NtRp3025
(dp3026
g68
(dp3027
g95
g96
ssg77
g3016
sg70
(lp3028
S':'
asbag63
(g84
g65
NtRp3029
(dp3030
g68
(dp3031
sg77
g3016
sg70
(lp3032
g63
(g64
g65
NtRp3033
(dp3034
g68
(dp3035
g76
I3
ssg77
g3029
sg70
(lp3036
g1016
asbasbasbag63
(g79
g65
NtRp3037
(dp3038
g68
(dp3039
sg77
g2466
sg70
(lp3040
g63
(g84
g65
NtRp3041
(dp3042
g68
(dp3043
g88
g89
ssg77
g3037
sg70
(lp3044
S'mod_wsgi.callable_object'
p3045
asbag63
(g84
g65
NtRp3046
(dp3047
g68
(dp3048
g95
g96
ssg77
g3037
sg70
(lp3049
S':'
asbag63
(g84
g65
NtRp3050
(dp3051
g68
(dp3052
sg77
g3037
sg70
(lp3053
g63
(g64
g65
NtRp3054
(dp3055
g68
(dp3056
g76
I3
ssg77
g3050
sg70
(lp3057
g1038
asbasbasbag63
(g79
g65
NtRp3058
(dp3059
g68
(dp3060
sg77
g2466
sg70
(lp3061
g63
(g84
g65
NtRp3062
(dp3063
g68
(dp3064
g88
g89
ssg77
g3058
sg70
(lp3065
S'mod_wsgi.listener_host'
p3066
asbag63
(g84
g65
NtRp3067
(dp3068
g68
(dp3069
g95
g96
ssg77
g3058
sg70
(lp3070
S':'
asbag63
(g84
g65
NtRp3071
(dp3072
g68
(dp3073
sg77
g3058
sg70
(lp3074
g63
(g64
g65
NtRp3075
(dp3076
g68
(dp3077
g76
I3
ssg77
g3071
sg70
(lp3078
S''
asbasbasbag63
(g79
g65
NtRp3079
(dp3080
g68
(dp3081
sg77
g2466
sg70
(lp3082
g63
(g84
g65
NtRp3083
(dp3084
g68
(dp3085
g88
g89
ssg77
g3079
sg70
(lp3086
S'mod_wsgi.listener_port'
p3087
asbag63
(g84
g65
NtRp3088
(dp3089
g68
(dp3090
g95
g96
ssg77
g3079
sg70
(lp3091
S':'
asbag63
(g84
g65
NtRp3092
(dp3093
g68
(dp3094
sg77
g3079
sg70
(lp3095
g63
(g64
g65
NtRp3096
(dp3097
g68
(dp3098
g76
I3
ssg77
g3092
sg70
(lp3099
g1081
asbasbasbag63
(g79
g65
NtRp3100
(dp3101
g68
(dp3102
sg77
g2466
sg70
(lp3103
g63
(g84
g65
NtRp3104
(dp3105
g68
(dp3106
g88
g89
ssg77
g3100
sg70
(lp3107
S'mod_wsgi.process_group'
p3108
asbag63
(g84
g65
NtRp3109
(dp3110
g68
(dp3111
g95
g96
ssg77
g3100
sg70
(lp3112
S':'
asbag63
(g84
g65
NtRp3113
(dp3114
g68
(dp3115
sg77
g3100
sg70
(lp3116
g63
(g64
g65
NtRp3117
(dp3118
g68
(dp3119
g76
I3
ssg77
g3113
sg70
(lp3120
S''
asbasbasbag63
(g79
g65
NtRp3121
(dp3122
g68
(dp3123
sg77
g2466
sg70
(lp3124
g63
(g84
g65
NtRp3125
(dp3126
g68
(dp3127
g88
g89
ssg77
g3121
sg70
(lp3128
S'mod_wsgi.reload_mechanism'
p3129
asbag63
(g84
g65
NtRp3130
(dp3131
g68
(dp3132
g95
g96
ssg77
g3121
sg70
(lp3133
S':'
asbag63
(g84
g65
NtRp3134
(dp3135
g68
(dp3136
sg77
g3121
sg70
(lp3137
g63
(g64
g65
NtRp3138
(dp3139
g68
(dp3140
g76
I3
ssg77
g3134
sg70
(lp3141
S'0'
asbasbasbag63
(g79
g65
NtRp3142
(dp3143
g68
(dp3144
sg77
g2466
sg70
(lp3145
g63
(g84
g65
NtRp3146
(dp3147
g68
(dp3148
g88
g89
ssg77
g3142
sg70
(lp3149
S'mod_wsgi.script_reloading'
p3150
asbag63
(g84
g65
NtRp3151
(dp3152
g68
(dp3153
g95
g96
ssg77
g3142
sg70
(lp3154
S':'
asbag63
(g84
g65
NtRp3155
(dp3156
g68
(dp3157
sg77
g3142
sg70
(lp3158
g63
(g64
g65
NtRp3159
(dp3160
g68
(dp3161
g76
I3
ssg77
g3155
sg70
(lp3162
S'1'
asbasbasbag63
(g79
g65
NtRp3163
(dp3164
g68
(dp3165
sg77
g2466
sg70
(lp3166
g63
(g84
g65
NtRp3167
(dp3168
g68
(dp3169
g88
g89
ssg77
g3163
sg70
(lp3170
S'mod_wsgi.version'
p3171
asbag63
(g84
g65
NtRp3172
(dp3173
g68
(dp3174
g95
g96
ssg77
g3163
sg70
(lp3175
S':'
asbag63
(g84
g65
NtRp3176
(dp3177
g68
(dp3178
sg77
g3163
sg70
(lp3179
g63
(g64
g65
NtRp3180
(dp3181
g68
(dp3182
g76
I3
ssg77
g3176
sg70
(lp3183
g63
(g72
g65
NtRp3184
(dp3185
g68
(dp3186
g76
I2
ssg77
Nsg70
(lp3187
g63
(g79
g65
NtRp3188
(dp3189
g68
(dp3190
sg77
g3184
sg70
(lp3191
g63
(g84
g65
NtRp3192
(dp3193
g68
(dp3194
sg77
g3188
sg70
(lp3195
g63
(g64
g65
NtRp3196
(dp3197
g68
(dp3198
g76
I2
ssg77
g3192
sg70
(lp3199
S'2'
asbasbasbag63
(g79
g65
NtRp3200
(dp3201
g68
(dp3202
sg77
g3184
sg70
(lp3203
g63
(g84
g65
NtRp3204
(dp3205
g68
(dp3206
sg77
g3200
sg70
(lp3207
g63
(g64
g65
NtRp3208
(dp3209
g68
(dp3210
g76
I2
ssg77
g3204
sg70
(lp3211
S'8'
asbasbasbasbasbasbasbag63
(g79
g65
NtRp3212
(dp3213
g68
(dp3214
sg77
g2466
sg70
(lp3215
g63
(g84
g65
NtRp3216
(dp3217
g68
(dp3218
g88
g89
ssg77
g3212
sg70
(lp3219
S'wsgi.errors'
p3220
asbag63
(g84
g65
NtRp3221
(dp3222
g68
(dp3223
g95
g96
ssg77
g3212
sg70
(lp3224
S':'
asbag63
(g84
g65
NtRp3225
(dp3226
g68
(dp3227
sg77
g3212
sg70
(lp3228
g63
(g64
g65
NtRp3229
(dp3230
g68
(dp3231
g76
I3
ssg77
g3225
sg70
(lp3232
S'<mod_wsgi.Log object at 0x22381440>'
p3233
asbasbasbag63
(g79
g65
NtRp3234
(dp3235
g68
(dp3236
sg77
g2466
sg70
(lp3237
g63
(g84
g65
NtRp3238
(dp3239
g68
(dp3240
g88
g89
ssg77
g3234
sg70
(lp3241
S'wsgi.file_wrapper'
p3242
asbag63
(g84
g65
NtRp3243
(dp3244
g68
(dp3245
g95
g96
ssg77
g3234
sg70
(lp3246
S':'
asbag63
(g84
g65
NtRp3247
(dp3248
g68
(dp3249
sg77
g3234
sg70
(lp3250
g63
(g64
g65
NtRp3251
(dp3252
g68
(dp3253
g76
I3
ssg77
g3247
sg70
(lp3254
S'<built-in method file_wrapper of mod_wsgi.Adapter object at 0x22a3b9f8>'
p3255
asbasbasbag63
(g79
g65
NtRp3256
(dp3257
g68
(dp3258
sg77
g2466
sg70
(lp3259
g63
(g84
g65
NtRp3260
(dp3261
g68
(dp3262
g88
g89
ssg77
g3256
sg70
(lp3263
S'wsgi.input'
p3264
asbag63
(g84
g65
NtRp3265
(dp3266
g68
(dp3267
g95
g96
ssg77
g3256
sg70
(lp3268
S':'
asbag63
(g84
g65
NtRp3269
(dp3270
g68
(dp3271
sg77
g3256
sg70
(lp3272
g63
(g64
g65
NtRp3273
(dp3274
g68
(dp3275
g76
I3
ssg77
g3269
sg70
(lp3276
S'<cStringIO.StringO object at 0x2297ec40>'
p3277
asbasbasbag63
(g79
g65
NtRp3278
(dp3279
g68
(dp3280
sg77
g2466
sg70
(lp3281
g63
(g84
g65
NtRp3282
(dp3283
g68
(dp3284
g88
g89
ssg77
g3278
sg70
(lp3285
S'wsgi.multiprocess'
p3286
asbag63
(g84
g65
NtRp3287
(dp3288
g68
(dp3289
g95
g96
ssg77
g3278
sg70
(lp3290
S':'
asbag63
(g84
g65
NtRp3291
(dp3292
g68
(dp3293
sg77
g3278
sg70
(lp3294
g63
(g64
g65
NtRp3295
(dp3296
g68
(dp3297
g76
I3
ssg77
g3291
sg70
(lp3298
g1761
asbasbasbag63
(g79
g65
NtRp3299
(dp3300
g68
(dp3301
sg77
g2466
sg70
(lp3302
g63
(g84
g65
NtRp3303
(dp3304
g68
(dp3305
g88
g89
ssg77
g3299
sg70
(lp3306
S'wsgi.multithread'
p3307
asbag63
(g84
g65
NtRp3308
(dp3309
g68
(dp3310
g95
g96
ssg77
g3299
sg70
(lp3311
S':'
asbag63
(g84
g65
NtRp3312
(dp3313
g68
(dp3314
sg77
g3299
sg70
(lp3315
g63
(g64
g65
NtRp3316
(dp3317
g68
(dp3318
g76
I3
ssg77
g3312
sg70
(lp3319
g106
asbasbasbag63
(g79
g65
NtRp3320
(dp3321
g68
(dp3322
sg77
g2466
sg70
(lp3323
g63
(g84
g65
NtRp3324
(dp3325
g68
(dp3326
g88
g89
ssg77
g3320
sg70
(lp3327
S'wsgi.run_once'
p3328
asbag63
(g84
g65
NtRp3329
(dp3330
g68
(dp3331
g95
g96
ssg77
g3320
sg70
(lp3332
S':'
asbag63
(g84
g65
NtRp3333
(dp3334
g68
(dp3335
sg77
g3320
sg70
(lp3336
g63
(g64
g65
NtRp3337
(dp3338
g68
(dp3339
g76
I3
ssg77
g3333
sg70
(lp3340
g106
asbasbasbag63
(g79
g65
NtRp3341
(dp3342
g68
(dp3343
sg77
g2466
sg70
(lp3344
g63
(g84
g65
NtRp3345
(dp3346
g68
(dp3347
g88
g89
ssg77
g3341
sg70
(lp3348
S'wsgi.url_scheme'
p3349
asbag63
(g84
g65
NtRp3350
(dp3351
g68
(dp3352
g95
g96
ssg77
g3341
sg70
(lp3353
S':'
asbag63
(g84
g65
NtRp3354
(dp3355
g68
(dp3356
sg77
g3341
sg70
(lp3357
g63
(g64
g65
NtRp3358
(dp3359
g68
(dp3360
g76
I3
ssg77
g3354
sg70
(lp3361
g1825
asbasbasbag63
(g79
g65
NtRp3362
(dp3363
g68
(dp3364
sg77
g2466
sg70
(lp3365
g63
(g84
g65
NtRp3366
(dp3367
g68
(dp3368
g88
g89
ssg77
g3362
sg70
(lp3369
S'wsgi.version'
p3370
asbag63
(g84
g65
NtRp3371
(dp3372
g68
(dp3373
g95
g96
ssg77
g3362
sg70
(lp3374
S':'
asbag63
(g84
g65
NtRp3375
(dp3376
g68
(dp3377
sg77
g3362
sg70
(lp3378
g63
(g64
g65
NtRp3379
(dp3380
g68
(dp3381
g76
I3
ssg77
g3375
sg70
(lp3382
S'1'
asbasbasbasbasbasbasbasbasbasbasbasbasbsS'frames'
p3383
(lp3384
(dp3385
S'file'
p3386
S'/home/seniorproj/Documents/finholt-senior-project/web2py/gluon/restricted.py'
p3387
sS'dump'
p3388
(dp3389
S'environment'
p3390
S"{'A': <class 'gluon.html.A'>, 'Auth': <class 'gluon.tools.Auth'>, 'B': <class 'gluon.html.B'>, 'BEAUTIFY': <class 'gluon.html.BEAUTIFY'>, 'BODY': <class 'gluon.html.BODY'>, 'BR': <class 'gluon.html.BR'>, 'BUTTON': <class 'gluon.html.BUTTON'>, 'CAT': <class 'gluon.html.CAT'>, 'CENTER': <class 'gluon.html.CENTER'>, 'CLEANUP': <class 'gluon.validators.CLEANUP'>, ...}"
p3391
sS'ccode'
p3392
S'<code object <module> at 0x22a3bb60, file "/home...pplications/SeniorProject/models/db.py", line 12>'
p3393
ssS'lnum'
p3394
I205
sS'lines'
p3395
(dp3396
I200
S'    try:'
p3397
sI201
S'        if type(code) == types.CodeType:'
p3398
sI202
S'            ccode = code'
p3399
sI203
S'        else:'
p3400
sI204
S'            ccode = compile2(code,layer)'
p3401
sI205
S'        exec ccode in environment'
p3402
sI206
S'    except HTTP:'
p3403
sI207
S'        raise'
p3404
sI208
S'    except RestrictedError:'
p3405
sI209
S'        # do not encapsulate (obfuscate) the original RestrictedError'
p3406
ssS'call'
p3407
S'(code="# -*- coding: utf-8 -*-\\r\\n\\r\\n#####################...eld(\'meetDate\',\'date\'), Field(\'file\',\'upload\'))\\r\\n", environment={\'A\': <class \'gluon.html.A\'>, \'Auth\': <class \'gluon.tools.Auth\'>, \'B\': <class \'gluon.html.B\'>, \'BEAUTIFY\': <class \'gluon.html.BEAUTIFY\'>, \'BODY\': <class \'gluon.html.BODY\'>, \'BR\': <class \'gluon.html.BR\'>, \'BUTTON\': <class \'gluon.html.BUTTON\'>, \'CAT\': <class \'gluon.html.CAT\'>, \'CENTER\': <class \'gluon.html.CENTER\'>, \'CLEANUP\': <class \'gluon.validators.CLEANUP\'>, ...}, layer=\'/home/seniorproj/Documents/finholt-senior-project/web2py/applications/SeniorProject/models/db.py\')'
p3408
sS'func'
p3409
S'restricted'
p3410
sa(dp3411
g3386
S'/home/seniorproj/Documents/finholt-senior-project/web2py/applications/SeniorProject/models/db.py'
p3412
sg3388
(dp3413
S'Field'
p3414
S"<class 'gluon.dal.Field'>"
p3415
sS'length'
p3416
S'undefined'
p3417
sS'label'
p3418
g3417
ssg3394
I61
sg3395
(dp3419
I64
S'custom_auth_table.first_name.requires = \\'
p3420
sI65
S'  IS_NOT_EMPTY(error_message=auth.messages.is_empty)'
p3421
sI56
S"          writable=False, readable=False, default=''),"
p3422
sI57
S"    Field('reset_password_key', length=512,              # required"
p3423
sI58
S"          writable=False, readable=False, default=''),"
p3424
sI59
S"    Field('registration_id', length=512,                 # required"
p3425
sI60
S"          writable=False, readable=False, default=''),"
p3426
sI61
S'    Field(\'role\', length=512, label="Role"))'
p3427
sI62
S''
sI63
S'custom_auth_table = db[auth.settings.table_user_name] # get the custom_auth_table'
p3428
ssg3407
S'()'
p3429
sg3409
S'<module>'
p3430
sa(dp3431
g3386
S'/home/seniorproj/Documents/finholt-senior-project/web2py/gluon/dal.py'
p3432
sg3388
(dp3433
S'polymodel'
p3434
S'None'
p3435
ssg3394
I6320
sg3395
(dp3436
I6315
S"        if migrate or self._adapter.dbengine=='google:datastore':"
p3437
sI6316
S'            try:'
p3438
sI6317
S'                sql_locker.acquire()'
p3439
sI6318
S'                self._adapter.create_table(t,migrate=migrate,'
p3440
sI6319
S'                                           fake_migrate=fake_migrate,'
p3441
sI6320
S'                                           polymodel=polymodel)'
p3442
sI6321
S'            finally:'
p3443
sI6322
S'                sql_locker.release()'
p3444
sI6323
S'        else:'
p3445
sI6324
S'            t._dbt = None'
p3446
ssg3407
S'(self=<DAL {\'_migrate_enabled\': True, \'_lastsql\': "SET...\'_uri_hash\': \'cbffdc356ef1b00d597d86905e06f35d\'}>, tablename=\'auth_user\', *fields=(<gluon.dal.Field object at 0x2238d5ec>, <gluon.dal.Field object at 0x229ab1ec>, <gluon.dal.Field object at 0x229ab22c>, <gluon.dal.Field object at 0x229ab26c>, <gluon.dal.Field object at 0x229ab2ac>, <gluon.dal.Field object at 0x229ab2ec>, <gluon.dal.Field object at 0x229ab32c>, <gluon.dal.Field object at 0x229ab36c>, <gluon.dal.Field object at 0x229ab3ac>), **args={})'
p3447
sg3409
S'define_table'
p3448
sa(dp3449
g3386
S'/home/seniorproj/Documents/finholt-senior-project/web2py/gluon/dal.py'
p3450
sg3388
(dp3451
S'table'
p3452
S"<Table {'last_name': <gluon.dal.Field object at ...on_key': <gluon.dal.Field object at 0x229ab2ec>}>"
p3453
sS'self'
p3454
S'<gluon.dal.MySQLAdapter object at 0x2297ee4c>'
p3455
sS'logfile'
p3456
g3417
sS'table._loggername'
p3457
S"'/home/seniorproj/Documents/finholt-senior-projec...b2py/applications/SeniorProject/databases/sql.log'"
p3458
sS'self.file_open'
p3459
S'<bound method MySQLAdapter.file_open of <gluon.dal.MySQLAdapter object at 0x2297ee4c>>'
p3460
ssg3394
I710
sg3395
(dp3461
I705
S'        else:'
p3462
sI706
S"            table._dbt = os.path.join(dbpath, '%s_%s.table' \\"
p3463
sI707
S'                                          % (table._db._uri_hash, tablename))'
p3464
sI708
S'        if table._dbt:'
p3465
sI709
S"            table._loggername = os.path.join(dbpath, 'sql.log')"
p3466
sI710
S"            logfile = self.file_open(table._loggername, 'a')"
p3467
sI711
S'        else:'
p3468
sI712
S'            logfile = None'
p3469
sI713
S'        if not table._dbt or not self.file_exists(table._dbt):'
p3470
sI714
S'            if table._dbt:'
p3471
ssg3407
S"(self=<gluon.dal.MySQLAdapter object at 0x2297ee4c>, table=<Table {'last_name': <gluon.dal.Field object at ...on_key': <gluon.dal.Field object at 0x229ab2ec>}>, migrate=True, fake_migrate=False, polymodel=None)"
p3472
sg3409
S'create_table'
p3473
sa(dp3474
g3386
S'/home/seniorproj/Documents/finholt-senior-project/web2py/gluon/dal.py'
p3475
sg3388
(dp3476
S'mode'
p3477
S"'a'"
p3478
sS'portalocker.LockedFile'
p3479
S"<class 'gluon.portalocker.LockedFile'>"
p3480
sS'global portalocker'
p3481
S"<module 'gluon.portalocker' from '/home/seniorpr...holt-senior-project/web2py/gluon/portalocker.py'>"
p3482
sS'fileobj'
p3483
g3417
sS'filename'
p3484
S"'/home/seniorproj/Documents/finholt-senior-projec...b2py/applications/SeniorProject/databases/sql.log'"
p3485
ssg3394
I545
sg3395
(dp3486
I544
S'        if have_portalocker and lock:'
p3487
sI545
S'            fileobj = portalocker.LockedFile(filename,mode)'
p3488
sI546
S'        else:'
p3489
sI547
S'            fileobj = open(filename,mode)'
p3490
sI548
S'        return fileobj'
p3491
sI549
S''
sI540
S"    def file_open(self, filename, mode='rb', lock=True):"
p3492
sI541
S'        """'
p3493
sI542
S'        to be used ONLY for files that on GAE may not be on filesystem'
p3494
sI543
S'        """'
p3495
ssg3407
S"(self=<gluon.dal.MySQLAdapter object at 0x2297ee4c>, filename='/home/seniorproj/Documents/finholt-senior-projec...b2py/applications/SeniorProject/databases/sql.log', mode='a', lock=True)"
p3496
sg3409
S'file_open'
p3497
sa(dp3498
g3386
S'/home/seniorproj/Documents/finholt-senior-project/web2py/gluon/portalocker.py'
p3499
sg3388
(dp3500
S'mode.replace'
p3501
S'<built-in method replace of str object at 0x21dc7760>'
p3502
sS'self'
p3503
S'<gluon.portalocker.LockedFile object at 0x229ab4ac>'
p3504
sS'filename'
p3505
S"'/home/seniorproj/Documents/finholt-senior-projec...b2py/applications/SeniorProject/databases/sql.log'"
p3506
sS'mode'
p3507
S"'a'"
p3508
sS'self.file'
p3509
S'None'
p3510
sS'builtinopen'
p3511
S'<built-in function open>'
p3512
ssg3394
I120
sg3395
(dp3513
I115
S'        self.file = None'
p3514
sI116
S"        if 'r' in mode:"
p3515
sI117
S'            self.file = open(filename,mode)'
p3516
sI118
S'            lock(self.file,LOCK_SH)'
p3517
sI119
S"        elif 'w' in mode or 'a' in mode:"
p3518
sI120
S"            self.file = open(filename,mode.replace('w','a'))"
p3519
sI121
S'            lock(self.file,LOCK_EX)'
p3520
sI122
S"            if not 'a' in mode:"
p3521
sI123
S'                self.file.seek(0)'
p3522
sI124
S'                self.file.truncate()'
p3523
ssg3407
S"(self=<gluon.portalocker.LockedFile object at 0x229ab4ac>, filename='/home/seniorproj/Documents/finholt-senior-projec...b2py/applications/SeniorProject/databases/sql.log', mode='a')"
p3524
sg3409
g22
sasS'pyver'
p3525
S'Python 2.6.5: /usr/local/bin/python'
p3526
sS'session'
p3527
g63
(g64
g65
NtRp3528
(dp3529
g68
(dp3530
sg70
(lp3531
g63
(g72
g65
NtRp3532
(dp3533
g68
(dp3534
g76
I5
ssg77
Nsg70
(lp3535
sbasbsS'etype'
p3536
S"<type 'exceptions.IOError'>"
p3537
sS'date'
p3538
S'Wed Feb 20 17:00:14 2013'
p3539
sS'response'
p3540
g63
(g64
g65
NtRp3541
(dp3542
g68
(dp3543
sg70
(lp3544
g63
(g72
g65
NtRp3545
(dp3546
g68
(dp3547
g76
I5
ssg77
Nsg70
(lp3548
g63
(g79
g65
NtRp3549
(dp3550
g68
(dp3551
sg77
g3545
sg70
(lp3552
g63
(g84
g65
NtRp3553
(dp3554
g68
(dp3555
g88
g89
ssg77
g3549
sg70
(lp3556
g161
asbag63
(g84
g65
NtRp3557
(dp3558
g68
(dp3559
g95
g96
ssg77
g3549
sg70
(lp3560
S':'
asbag63
(g84
g65
NtRp3561
(dp3562
g68
(dp3563
sg77
g3549
sg70
(lp3564
g63
(g64
g65
NtRp3565
(dp3566
g68
(dp3567
g76
I5
ssg77
g3561
sg70
(lp3568
S'<cStringIO.StringO object at 0x2297eb80>'
p3569
asbasbasbag63
(g79
g65
NtRp3570
(dp3571
g68
(dp3572
sg77
g3545
sg70
(lp3573
g63
(g84
g65
NtRp3574
(dp3575
g68
(dp3576
g88
g89
ssg77
g3570
sg70
(lp3577
g227
asbag63
(g84
g65
NtRp3578
(dp3579
g68
(dp3580
g95
g96
ssg77
g3570
sg70
(lp3581
S':'
asbag63
(g84
g65
NtRp3582
(dp3583
g68
(dp3584
sg77
g3570
sg70
(lp3585
g63
(g64
g65
NtRp3586
(dp3587
g68
(dp3588
g76
I5
ssg77
g3582
sg70
(lp3589
g63
(g72
g65
NtRp3590
(dp3591
g68
(dp3592
g76
I4
ssg77
Nsg70
(lp3593
g63
(g79
g65
NtRp3594
(dp3595
g68
(dp3596
sg77
g3590
sg70
(lp3597
g63
(g84
g65
NtRp3598
(dp3599
g68
(dp3600
g88
g89
ssg77
g3594
sg70
(lp3601
S'session_id_seniorproject'
p3602
asbag63
(g84
g65
NtRp3603
(dp3604
g68
(dp3605
g95
g96
ssg77
g3594
sg70
(lp3606
S':'
asbag63
(g84
g65
NtRp3607
(dp3608
g68
(dp3609
sg77
g3594
sg70
(lp3610
g63
(g64
g65
NtRp3611
(dp3612
g68
(dp3613
g76
I4
ssg77
g3607
sg70
(lp3614
g63
(g72
g65
NtRp3615
(dp3616
g68
(dp3617
g76
I3
ssg77
Nsg70
(lp3618
g63
(g79
g65
NtRp3619
(dp3620
g68
(dp3621
sg77
g3615
sg70
(lp3622
g63
(g84
g65
NtRp3623
(dp3624
g68
(dp3625
g88
g89
ssg77
g3619
sg70
(lp3626
g277
asbag63
(g84
g65
NtRp3627
(dp3628
g68
(dp3629
g95
g96
ssg77
g3619
sg70
(lp3630
S':'
asbag63
(g84
g65
NtRp3631
(dp3632
g68
(dp3633
sg77
g3619
sg70
(lp3634
g63
(g64
g65
NtRp3635
(dp3636
g68
(dp3637
g76
I3
ssg77
g3631
sg70
(lp3638
S''
asbasbasbag63
(g79
g65
NtRp3639
(dp3640
g68
(dp3641
sg77
g3615
sg70
(lp3642
g63
(g84
g65
NtRp3643
(dp3644
g68
(dp3645
g88
g89
ssg77
g3639
sg70
(lp3646
g298
asbag63
(g84
g65
NtRp3647
(dp3648
g68
(dp3649
g95
g96
ssg77
g3639
sg70
(lp3650
S':'
asbag63
(g84
g65
NtRp3651
(dp3652
g68
(dp3653
sg77
g3639
sg70
(lp3654
g63
(g64
g65
NtRp3655
(dp3656
g68
(dp3657
g76
I3
ssg77
g3651
sg70
(lp3658
S''
asbasbasbag63
(g79
g65
NtRp3659
(dp3660
g68
(dp3661
sg77
g3615
sg70
(lp3662
g63
(g84
g65
NtRp3663
(dp3664
g68
(dp3665
g88
g89
ssg77
g3659
sg70
(lp3666
g319
asbag63
(g84
g65
NtRp3667
(dp3668
g68
(dp3669
g95
g96
ssg77
g3659
sg70
(lp3670
S':'
asbag63
(g84
g65
NtRp3671
(dp3672
g68
(dp3673
sg77
g3659
sg70
(lp3674
g63
(g64
g65
NtRp3675
(dp3676
g68
(dp3677
g76
I3
ssg77
g3671
sg70
(lp3678
S''
asbasbasbag63
(g79
g65
NtRp3679
(dp3680
g68
(dp3681
sg77
g3615
sg70
(lp3682
g63
(g84
g65
NtRp3683
(dp3684
g68
(dp3685
g88
g89
ssg77
g3679
sg70
(lp3686
g340
asbag63
(g84
g65
NtRp3687
(dp3688
g68
(dp3689
g95
g96
ssg77
g3679
sg70
(lp3690
S':'
asbag63
(g84
g65
NtRp3691
(dp3692
g68
(dp3693
sg77
g3679
sg70
(lp3694
g63
(g64
g65
NtRp3695
(dp3696
g68
(dp3697
g76
I3
ssg77
g3691
sg70
(lp3698
S''
asbasbasbag63
(g79
g65
NtRp3699
(dp3700
g68
(dp3701
sg77
g3615
sg70
(lp3702
g63
(g84
g65
NtRp3703
(dp3704
g68
(dp3705
g88
g89
ssg77
g3699
sg70
(lp3706
g361
asbag63
(g84
g65
NtRp3707
(dp3708
g68
(dp3709
g95
g96
ssg77
g3699
sg70
(lp3710
S':'
asbag63
(g84
g65
NtRp3711
(dp3712
g68
(dp3713
sg77
g3699
sg70
(lp3714
g63
(g64
g65
NtRp3715
(dp3716
g68
(dp3717
g76
I3
ssg77
g3711
sg70
(lp3718
S''
asbasbasbag63
(g79
g65
NtRp3719
(dp3720
g68
(dp3721
sg77
g3615
sg70
(lp3722
g63
(g84
g65
NtRp3723
(dp3724
g68
(dp3725
g88
g89
ssg77
g3719
sg70
(lp3726
g382
asbag63
(g84
g65
NtRp3727
(dp3728
g68
(dp3729
g95
g96
ssg77
g3719
sg70
(lp3730
S':'
asbag63
(g84
g65
NtRp3731
(dp3732
g68
(dp3733
sg77
g3719
sg70
(lp3734
g63
(g64
g65
NtRp3735
(dp3736
g68
(dp3737
g76
I3
ssg77
g3731
sg70
(lp3738
S'/'
asbasbasbag63
(g79
g65
NtRp3739
(dp3740
g68
(dp3741
sg77
g3615
sg70
(lp3742
g63
(g84
g65
NtRp3743
(dp3744
g68
(dp3745
g88
g89
ssg77
g3739
sg70
(lp3746
g403
asbag63
(g84
g65
NtRp3747
(dp3748
g68
(dp3749
g95
g96
ssg77
g3739
sg70
(lp3750
S':'
asbag63
(g84
g65
NtRp3751
(dp3752
g68
(dp3753
sg77
g3739
sg70
(lp3754
g63
(g64
g65
NtRp3755
(dp3756
g68
(dp3757
g76
I3
ssg77
g3751
sg70
(lp3758
S''
asbasbasbag63
(g79
g65
NtRp3759
(dp3760
g68
(dp3761
sg77
g3615
sg70
(lp3762
g63
(g84
g65
NtRp3763
(dp3764
g68
(dp3765
g88
g89
ssg77
g3759
sg70
(lp3766
g424
asbag63
(g84
g65
NtRp3767
(dp3768
g68
(dp3769
g95
g96
ssg77
g3759
sg70
(lp3770
S':'
asbag63
(g84
g65
NtRp3771
(dp3772
g68
(dp3773
sg77
g3759
sg70
(lp3774
g63
(g64
g65
NtRp3775
(dp3776
g68
(dp3777
g76
I3
ssg77
g3771
sg70
(lp3778
S''
asbasbasbasbasbasbasbasbasbasbasbag63
(g79
g65
NtRp3779
(dp3780
g68
(dp3781
sg77
g3545
sg70
(lp3782
g63
(g84
g65
NtRp3783
(dp3784
g68
(dp3785
g88
g89
ssg77
g3779
sg70
(lp3786
S'delimiters'
p3787
asbag63
(g84
g65
NtRp3788
(dp3789
g68
(dp3790
g95
g96
ssg77
g3779
sg70
(lp3791
S':'
asbag63
(g84
g65
NtRp3792
(dp3793
g68
(dp3794
sg77
g3779
sg70
(lp3795
g63
(g64
g65
NtRp3796
(dp3797
g68
(dp3798
g76
I5
ssg77
g3792
sg70
(lp3799
g63
(g72
g65
NtRp3800
(dp3801
g68
(dp3802
g76
I4
ssg77
Nsg70
(lp3803
g63
(g79
g65
NtRp3804
(dp3805
g68
(dp3806
sg77
g3800
sg70
(lp3807
g63
(g84
g65
NtRp3808
(dp3809
g68
(dp3810
sg77
g3804
sg70
(lp3811
g63
(g64
g65
NtRp3812
(dp3813
g68
(dp3814
g76
I4
ssg77
g3808
sg70
(lp3815
S'{{'
p3816
asbasbasbag63
(g79
g65
NtRp3817
(dp3818
g68
(dp3819
sg77
g3800
sg70
(lp3820
g63
(g84
g65
NtRp3821
(dp3822
g68
(dp3823
sg77
g3817
sg70
(lp3824
g63
(g64
g65
NtRp3825
(dp3826
g68
(dp3827
g76
I4
ssg77
g3821
sg70
(lp3828
S'}}'
p3829
asbasbasbasbasbasbasbag63
(g79
g65
NtRp3830
(dp3831
g68
(dp3832
sg77
g3545
sg70
(lp3833
g63
(g84
g65
NtRp3834
(dp3835
g68
(dp3836
g88
g89
ssg77
g3830
sg70
(lp3837
S'files'
p3838
asbag63
(g84
g65
NtRp3839
(dp3840
g68
(dp3841
g95
g96
ssg77
g3830
sg70
(lp3842
S':'
asbag63
(g84
g65
NtRp3843
(dp3844
g68
(dp3845
sg77
g3830
sg70
(lp3846
g63
(g64
g65
NtRp3847
(dp3848
g68
(dp3849
g76
I5
ssg77
g3843
sg70
(lp3850
g63
(g72
g65
NtRp3851
(dp3852
g68
(dp3853
g76
I4
ssg77
Nsg70
(lp3854
sbasbasbasbag63
(g79
g65
NtRp3855
(dp3856
g68
(dp3857
sg77
g3545
sg70
(lp3858
g63
(g84
g65
NtRp3859
(dp3860
g68
(dp3861
g88
g89
ssg77
g3855
sg70
(lp3862
S'flash'
p3863
asbag63
(g84
g65
NtRp3864
(dp3865
g68
(dp3866
g95
g96
ssg77
g3855
sg70
(lp3867
S':'
asbag63
(g84
g65
NtRp3868
(dp3869
g68
(dp3870
sg77
g3855
sg70
(lp3871
g63
(g64
g65
NtRp3872
(dp3873
g68
(dp3874
g76
I5
ssg77
g3868
sg70
(lp3875
S''
asbasbasbag63
(g79
g65
NtRp3876
(dp3877
g68
(dp3878
sg77
g3545
sg70
(lp3879
g63
(g84
g65
NtRp3880
(dp3881
g68
(dp3882
g88
g89
ssg77
g3876
sg70
(lp3883
S'generic_patterns'
p3884
asbag63
(g84
g65
NtRp3885
(dp3886
g68
(dp3887
g95
g96
ssg77
g3876
sg70
(lp3888
S':'
asbag63
(g84
g65
NtRp3889
(dp3890
g68
(dp3891
sg77
g3876
sg70
(lp3892
g63
(g64
g65
NtRp3893
(dp3894
g68
(dp3895
g76
I5
ssg77
g3889
sg70
(lp3896
g63
(g72
g65
NtRp3897
(dp3898
g68
(dp3899
g76
I4
ssg77
Nsg70
(lp3900
g63
(g79
g65
NtRp3901
(dp3902
g68
(dp3903
sg77
g3897
sg70
(lp3904
g63
(g84
g65
NtRp3905
(dp3906
g68
(dp3907
sg77
g3901
sg70
(lp3908
g63
(g64
g65
NtRp3909
(dp3910
g68
(dp3911
g76
I4
ssg77
g3905
sg70
(lp3912
S'*'
asbasbasbasbasbasbasbag63
(g79
g65
NtRp3913
(dp3914
g68
(dp3915
sg77
g3545
sg70
(lp3916
g63
(g84
g65
NtRp3917
(dp3918
g68
(dp3919
g88
g89
ssg77
g3913
sg70
(lp3920
S'headers'
p3921
asbag63
(g84
g65
NtRp3922
(dp3923
g68
(dp3924
g95
g96
ssg77
g3913
sg70
(lp3925
S':'
asbag63
(g84
g65
NtRp3926
(dp3927
g68
(dp3928
sg77
g3913
sg70
(lp3929
g63
(g64
g65
NtRp3930
(dp3931
g68
(dp3932
g76
I5
ssg77
g3926
sg70
(lp3933
g63
(g72
g65
NtRp3934
(dp3935
g68
(dp3936
g76
I4
ssg77
Nsg70
(lp3937
g63
(g79
g65
NtRp3938
(dp3939
g68
(dp3940
sg77
g3934
sg70
(lp3941
g63
(g84
g65
NtRp3942
(dp3943
g68
(dp3944
g88
g89
ssg77
g3938
sg70
(lp3945
S'Cache-Control'
p3946
asbag63
(g84
g65
NtRp3947
(dp3948
g68
(dp3949
g95
g96
ssg77
g3938
sg70
(lp3950
S':'
asbag63
(g84
g65
NtRp3951
(dp3952
g68
(dp3953
sg77
g3938
sg70
(lp3954
g63
(g64
g65
NtRp3955
(dp3956
g68
(dp3957
g76
I4
ssg77
g3951
sg70
(lp3958
S'no-store, no-cache, must-revalidate, post-check=0, pre-check=0'
p3959
asbasbasbag63
(g79
g65
NtRp3960
(dp3961
g68
(dp3962
sg77
g3934
sg70
(lp3963
g63
(g84
g65
NtRp3964
(dp3965
g68
(dp3966
g88
g89
ssg77
g3960
sg70
(lp3967
S'Content-Type'
p3968
asbag63
(g84
g65
NtRp3969
(dp3970
g68
(dp3971
g95
g96
ssg77
g3960
sg70
(lp3972
S':'
asbag63
(g84
g65
NtRp3973
(dp3974
g68
(dp3975
sg77
g3960
sg70
(lp3976
g63
(g64
g65
NtRp3977
(dp3978
g68
(dp3979
g76
I4
ssg77
g3973
sg70
(lp3980
S'text/html; charset=utf-8'
p3981
asbasbasbag63
(g79
g65
NtRp3982
(dp3983
g68
(dp3984
sg77
g3934
sg70
(lp3985
g63
(g84
g65
NtRp3986
(dp3987
g68
(dp3988
g88
g89
ssg77
g3982
sg70
(lp3989
S'Expires'
p3990
asbag63
(g84
g65
NtRp3991
(dp3992
g68
(dp3993
g95
g96
ssg77
g3982
sg70
(lp3994
S':'
asbag63
(g84
g65
NtRp3995
(dp3996
g68
(dp3997
sg77
g3982
sg70
(lp3998
g63
(g64
g65
NtRp3999
(dp4000
g68
(dp4001
g76
I4
ssg77
g3995
sg70
(lp4002
S'Wed, 20 Feb 2013 23:00:14 GMT'
p4003
asbasbasbag63
(g79
g65
NtRp4004
(dp4005
g68
(dp4006
sg77
g3934
sg70
(lp4007
g63
(g84
g65
NtRp4008
(dp4009
g68
(dp4010
g88
g89
ssg77
g4004
sg70
(lp4011
S'Pragma'
p4012
asbag63
(g84
g65
NtRp4013
(dp4014
g68
(dp4015
g95
g96
ssg77
g4004
sg70
(lp4016
S':'
asbag63
(g84
g65
NtRp4017
(dp4018
g68
(dp4019
sg77
g4004
sg70
(lp4020
g63
(g64
g65
NtRp4021
(dp4022
g68
(dp4023
g76
I4
ssg77
g4017
sg70
(lp4024
S'no-cache'
p4025
asbasbasbag63
(g79
g65
NtRp4026
(dp4027
g68
(dp4028
sg77
g3934
sg70
(lp4029
g63
(g84
g65
NtRp4030
(dp4031
g68
(dp4032
g88
g89
ssg77
g4026
sg70
(lp4033
S'X-Powered-By'
p4034
asbag63
(g84
g65
NtRp4035
(dp4036
g68
(dp4037
g95
g96
ssg77
g4026
sg70
(lp4038
S':'
asbag63
(g84
g65
NtRp4039
(dp4040
g68
(dp4041
sg77
g4026
sg70
(lp4042
g63
(g64
g65
NtRp4043
(dp4044
g68
(dp4045
g76
I4
ssg77
g4039
sg70
(lp4046
S'web2py'
p4047
asbasbasbasbasbasbasbag63
(g79
g65
NtRp4048
(dp4049
g68
(dp4050
sg77
g3545
sg70
(lp4051
g63
(g84
g65
NtRp4052
(dp4053
g68
(dp4054
g88
g89
ssg77
g4048
sg70
(lp4055
S'menu'
p4056
asbag63
(g84
g65
NtRp4057
(dp4058
g68
(dp4059
g95
g96
ssg77
g4048
sg70
(lp4060
S':'
asbag63
(g84
g65
NtRp4061
(dp4062
g68
(dp4063
sg77
g4048
sg70
(lp4064
g63
(g64
g65
NtRp4065
(dp4066
g68
(dp4067
g76
I5
ssg77
g4061
sg70
(lp4068
g63
(g72
g65
NtRp4069
(dp4070
g68
(dp4071
g76
I4
ssg77
Nsg70
(lp4072
sbasbasbasbag63
(g79
g65
NtRp4073
(dp4074
g68
(dp4075
sg77
g3545
sg70
(lp4076
g63
(g84
g65
NtRp4077
(dp4078
g68
(dp4079
g88
g89
ssg77
g4073
sg70
(lp4080
S'meta'
p4081
asbag63
(g84
g65
NtRp4082
(dp4083
g68
(dp4084
g95
g96
ssg77
g4073
sg70
(lp4085
S':'
asbag63
(g84
g65
NtRp4086
(dp4087
g68
(dp4088
sg77
g4073
sg70
(lp4089
g63
(g64
g65
NtRp4090
(dp4091
g68
(dp4092
g76
I5
ssg77
g4086
sg70
(lp4093
g63
(g72
g65
NtRp4094
(dp4095
g68
(dp4096
g76
I4
ssg77
Nsg70
(lp4097
sbasbasbasbag63
(g79
g65
NtRp4098
(dp4099
g68
(dp4100
sg77
g3545
sg70
(lp4101
g63
(g84
g65
NtRp4102
(dp4103
g68
(dp4104
g88
g89
ssg77
g4098
sg70
(lp4105
S'postprocessing'
p4106
asbag63
(g84
g65
NtRp4107
(dp4108
g68
(dp4109
g95
g96
ssg77
g4098
sg70
(lp4110
S':'
asbag63
(g84
g65
NtRp4111
(dp4112
g68
(dp4113
sg77
g4098
sg70
(lp4114
g63
(g64
g65
NtRp4115
(dp4116
g68
(dp4117
g76
I5
ssg77
g4111
sg70
(lp4118
g63
(g72
g65
NtRp4119
(dp4120
g68
(dp4121
g76
I4
ssg77
Nsg70
(lp4122
sbasbasbasbag63
(g79
g65
NtRp4123
(dp4124
g68
(dp4125
sg77
g3545
sg70
(lp4126
g63
(g84
g65
NtRp4127
(dp4128
g68
(dp4129
g88
g89
ssg77
g4123
sg70
(lp4130
S'session_file'
p4131
asbag63
(g84
g65
NtRp4132
(dp4133
g68
(dp4134
g95
g96
ssg77
g4123
sg70
(lp4135
S':'
asbag63
(g84
g65
NtRp4136
(dp4137
g68
(dp4138
sg77
g4123
sg70
(lp4139
g63
(g64
g65
NtRp4140
(dp4141
g68
(dp4142
g76
I5
ssg77
g4136
sg70
(lp4143
S"<open file '/home/seniorproj/Documents/finholt-senior-project/web2py/applications/SeniorProject/sessions/127.0.0.1-3e754ec6-0274-459e-b790-e5e3126aa93a', mode 'rb+' at 0x223c2f98>"
p4144
asbasbasbag63
(g79
g65
NtRp4145
(dp4146
g68
(dp4147
sg77
g3545
sg70
(lp4148
g63
(g84
g65
NtRp4149
(dp4150
g68
(dp4151
g88
g89
ssg77
g4145
sg70
(lp4152
S'session_filename'
p4153
asbag63
(g84
g65
NtRp4154
(dp4155
g68
(dp4156
g95
g96
ssg77
g4145
sg70
(lp4157
S':'
asbag63
(g84
g65
NtRp4158
(dp4159
g68
(dp4160
sg77
g4145
sg70
(lp4161
g63
(g64
g65
NtRp4162
(dp4163
g68
(dp4164
g76
I5
ssg77
g4158
sg70
(lp4165
S'/home/seniorproj/Documents/finholt-senior-project/web2py/applications/SeniorProject/sessions/127.0.0.1-3e754ec6-0274-459e-b790-e5e3126aa93a'
p4166
asbasbasbag63
(g79
g65
NtRp4167
(dp4168
g68
(dp4169
sg77
g3545
sg70
(lp4170
g63
(g84
g65
NtRp4171
(dp4172
g68
(dp4173
g88
g89
ssg77
g4167
sg70
(lp4174
S'session_id'
p4175
asbag63
(g84
g65
NtRp4176
(dp4177
g68
(dp4178
g95
g96
ssg77
g4167
sg70
(lp4179
S':'
asbag63
(g84
g65
NtRp4180
(dp4181
g68
(dp4182
sg77
g4167
sg70
(lp4183
g63
(g64
g65
NtRp4184
(dp4185
g68
(dp4186
g76
I5
ssg77
g4180
sg70
(lp4187
S'127.0.0.1-3e754ec6-0274-459e-b790-e5e3126aa93a'
p4188
asbasbasbag63
(g79
g65
NtRp4189
(dp4190
g68
(dp4191
sg77
g3545
sg70
(lp4192
g63
(g84
g65
NtRp4193
(dp4194
g68
(dp4195
g88
g89
ssg77
g4189
sg70
(lp4196
S'session_id_name'
p4197
asbag63
(g84
g65
NtRp4198
(dp4199
g68
(dp4200
g95
g96
ssg77
g4189
sg70
(lp4201
S':'
asbag63
(g84
g65
NtRp4202
(dp4203
g68
(dp4204
sg77
g4189
sg70
(lp4205
g63
(g64
g65
NtRp4206
(dp4207
g68
(dp4208
g76
I5
ssg77
g4202
sg70
(lp4209
g3602
asbasbasbag63
(g79
g65
NtRp4210
(dp4211
g68
(dp4212
sg77
g3545
sg70
(lp4213
g63
(g84
g65
NtRp4214
(dp4215
g68
(dp4216
g88
g89
ssg77
g4210
sg70
(lp4217
S'session_locked'
p4218
asbag63
(g84
g65
NtRp4219
(dp4220
g68
(dp4221
g95
g96
ssg77
g4210
sg70
(lp4222
S':'
asbag63
(g84
g65
NtRp4223
(dp4224
g68
(dp4225
sg77
g4210
sg70
(lp4226
g63
(g64
g65
NtRp4227
(dp4228
g68
(dp4229
g76
I5
ssg77
g4223
sg70
(lp4230
g1761
asbasbasbag63
(g79
g65
NtRp4231
(dp4232
g68
(dp4233
sg77
g3545
sg70
(lp4234
g63
(g84
g65
NtRp4235
(dp4236
g68
(dp4237
g88
g89
ssg77
g4231
sg70
(lp4238
S'session_new'
p4239
asbag63
(g84
g65
NtRp4240
(dp4241
g68
(dp4242
g95
g96
ssg77
g4231
sg70
(lp4243
S':'
asbag63
(g84
g65
NtRp4244
(dp4245
g68
(dp4246
sg77
g4231
sg70
(lp4247
g63
(g64
g65
NtRp4248
(dp4249
g68
(dp4250
g76
I5
ssg77
g4244
sg70
(lp4251
g106
asbasbasbag63
(g79
g65
NtRp4252
(dp4253
g68
(dp4254
sg77
g3545
sg70
(lp4255
g63
(g84
g65
NtRp4256
(dp4257
g68
(dp4258
g88
g89
ssg77
g4252
sg70
(lp4259
S'status'
p4260
asbag63
(g84
g65
NtRp4261
(dp4262
g68
(dp4263
g95
g96
ssg77
g4252
sg70
(lp4264
S':'
asbag63
(g84
g65
NtRp4265
(dp4266
g68
(dp4267
sg77
g4252
sg70
(lp4268
g63
(g64
g65
NtRp4269
(dp4270
g68
(dp4271
g76
I5
ssg77
g4265
sg70
(lp4272
S'200'
p4273
asbasbasbag63
(g79
g65
NtRp4274
(dp4275
g68
(dp4276
sg77
g3545
sg70
(lp4277
g63
(g84
g65
NtRp4278
(dp4279
g68
(dp4280
g88
g89
ssg77
g4274
sg70
(lp4281
g2381
asbag63
(g84
g65
NtRp4282
(dp4283
g68
(dp4284
g95
g96
ssg77
g4274
sg70
(lp4285
S':'
asbag63
(g84
g65
NtRp4286
(dp4287
g68
(dp4288
sg77
g4274
sg70
(lp4289
g63
(g64
g65
NtRp4290
(dp4291
g68
(dp4292
g76
I5
ssg77
g4286
sg70
(lp4293
g2394
asbasbasbag63
(g79
g65
NtRp4294
(dp4295
g68
(dp4296
sg77
g3545
sg70
(lp4297
g63
(g84
g65
NtRp4298
(dp4299
g68
(dp4300
g88
g89
ssg77
g4294
sg70
(lp4301
S'view'
p4302
asbag63
(g84
g65
NtRp4303
(dp4304
g68
(dp4305
g95
g96
ssg77
g4294
sg70
(lp4306
S':'
asbag63
(g84
g65
NtRp4307
(dp4308
g68
(dp4309
sg77
g4294
sg70
(lp4310
g63
(g64
g65
NtRp4311
(dp4312
g68
(dp4313
g76
I5
ssg77
g4307
sg70
(lp4314
S'default/index.html'
p4315
asbasbasbasbasbsS'locals'
p4316
(dp4317
S'self'
p4318
S'<gluon.portalocker.LockedFile object at 0x229ab4ac>'
p4319
sS'mode'
p4320
S"'a'"
p4321
sg36
S"'/home/seniorproj/Documents/finholt-senior-projec...b2py/applications/SeniorProject/databases/sql.log'"
p4322
sssS'traceback'
p4323
S'Traceback (most recent call last):\n  File "/home/seniorproj/Documents/finholt-senior-project/web2py/gluon/restricted.py", line 205, in restricted\n    exec ccode in environment\n  File "/home/seniorproj/Documents/finholt-senior-project/web2py/applications/SeniorProject/models/db.py", line 61, in <module>\n    Field(\'role\', length=512, label="Role"))\n  File "/home/seniorproj/Documents/finholt-senior-project/web2py/gluon/dal.py", line 6320, in define_table\n    polymodel=polymodel)\n  File "/home/seniorproj/Documents/finholt-senior-project/web2py/gluon/dal.py", line 710, in create_table\n    logfile = self.file_open(table._loggername, \'a\')\n  File "/home/seniorproj/Documents/finholt-senior-project/web2py/gluon/dal.py", line 545, in file_open\n    fileobj = portalocker.LockedFile(filename,mode)\n  File "/home/seniorproj/Documents/finholt-senior-project/web2py/gluon/portalocker.py", line 120, in __init__\n    self.file = open(filename,mode.replace(\'w\',\'a\'))\nIOError: [Errno 13] Permission denied: \'/home/seniorproj/Documents/finholt-senior-project/web2py/applications/SeniorProject/databases/sql.log\'\n'
p4324
s.