(dp1
S'output'
p2
S"<type 'exceptions.SyntaxError'> invalid syntax (formtable.html, line 35)"
p3
sS'layer'
p4
S'/Users/hainna01/Desktop/SeniorProject/finholt-senior-project/web2py/applications/SeniorProject/views/default/formtable.html'
p5
sS'code'
p6
S'response.write(\'<!DOCTYPE html>\\r\\n<html>\\r\\n\\r\\n<head>\\r\\n<title>Senior Project</title>\\r\\n<link rel="stylesheet" href="\', escape=False)\nresponse.write(URL(\'static\',\'css/style.css\'))\nresponse.write(\'" type="text/css" media="all" />\\r\\n<link rel="stylesheet" href="\', escape=False)\nresponse.write(URL(\'static\',\'css/jquery.datatables.css\'))\nresponse.write(\'" type="text/css" media="all" />\\r\\n<link rel="stylesheet" href="http://code.jquery.com/ui/1.9.0/themes/base/jquery-ui.css" />\\r\\n<link rel="stylesheet" href="\', escape=False)\nresponse.write(URL(\'static\',\'jqTree/jqtree.css\'))\nresponse.write(\'"/>\\r\\n\\r\\n  <script src="http://ajax.googleapis.com/ajax/libs/jqueryui/1.8.16/jquery-ui.min.js" type="text/javascript"></script>\\r\\n  <script src="\', escape=False)\nresponse.write(URL(\'static\',\'js/jquery.js\'))\nresponse.write(\'"></script> \\r\\n  <script src="\', escape=False)\nresponse.write(URL(\'static\',\'js/jquery.ui.accordion.js\'))\nresponse.write(\'"></script> \\r\\n  <script src="\', escape=False)\nresponse.write(URL(\'static\',\'js/jquery.datatables.js\'))\nresponse.write(\'"></script> \\r\\n  <script src="\', escape=False)\nresponse.write(URL(\'static\',\'js/jquery-ui-1.9.0.custom.min.js\'))\nresponse.write(\'"></script> \\r\\n  <script src="\', escape=False)\nresponse.write(URL(\'static\',\'jqTree/tree.jquery.js\'))\nresponse.write(\'"></script>\\r\\n<script type="text/javascript">\\r\\n$(document).ready(function(){\\r\\n\\r\\n$("#CCD").click(function(){\\r\\n$("#content").html(\\\'\', escape=False)\nresponse.write(ccdForm)\nresponse.write(\'\\\')\\r\\n})\\r\\n\\r\\n$("#RFI").click(function(){\\r\\n$("#content").html(\\\'\', escape=False)\nresponse.write(rfiForm)\nresponse.write(\'\\\')\\r\\n$("#RFI_dateSent").datepicker({"dateFormat": "yy-mm-dd"})\\r\\n$("#RFI_dateRec").datepicker({"dateFormat": "yy-mm-dd"})\\r\\n$("#RFI_responseDate").datepicker({"dateFormat": "yy-mm-dd"})\\r\\n})\\r\\n\\r\\n$("#Submittal").click(function(){\\r\\n$("#content").html(\\\'\', escape=False)\nresponse.write(submittalForm)\nresponse.write(\'\\\')\\r\\n})\\r\\n\\r\\n$("#ProposalRequest").click(function(){\\r\\n$("#content").html(\\\'\', escape=False)\nresponse.write(proposalRequestForm)\nresponse.write(\'\\\')\\r\\n$("#ProposalRequest_propDate").datepicker({"dateFormat": "yy-mm-dd"})\\r\\n})\\r\\n\\r\\n$("#Proposal").click(function(){\\r\\n$("#content").html(\\\'\', escape=False)\nresponse.write(proposalForm)\nresponse.write(\'\\\')\\r\\n$("#Proposal_propDate").datepicker({"dateFormat": "yy-mm-dd"})\\r\\n})\\r\\n\\r\\n$("#MeetingMinutes").click(function(){\\r\\n$("#content").html(\\\'\', escape=False)\nresponse.write(meetingMinutesForm)\nresponse.write(\'\\\')\\r\\n$("#MeetingMinutes_meetDate").datepicker({"dateFormat": "yy-mm-dd"})\\r\\n})\\r\\n\\r\\n\\r\\nvar data = [];\\r\\n\\r\\n\\r\\n\', escape=False)\nfor index  in range(len(projects)):\n    response.write(\'\\r\\n  data.push({label:"Project "+"\', escape=False)\n    response.write(T(projects[index].name))\n    response.write(\'",id:\', escape=False)\n    response.write(T(projects[index].id)\n    response.write(\'), children:[{label:"<a href=\\\'\', escape=False)\n    response.write(URL(\'default\',\'formtable\',vars=dict(formType=\'RFI\',projectNum=projects[index].id)))\n    response.write(\'\\\'>RFIs</a>"},\\r\\n  {label:"<a href=\\\'\', escape=False)\n    response.write(URL(\'default\',\'formtable\',vars=dict(formType=\'Submittal\',projectNum=projects[index].id)))\n    response.write(\'\\\'>Submittals</a>"},\\r\\n  {label:"<a href=\\\'\', escape=False)\n    response.write(URL(\'default\',\'formtable\',vars=dict(formType=\'CCD\',projectNum=projects[index].id)))\n    response.write(\'\\\'>CCDs</a>"},\\r\\n  {label:"<a href=\\\'\', escape=False)\n    response.write(URL(\'default\',\'formtable\',vars=dict(formType=\'ProposalRequest\',projectNum=projects[index].id)))\n    response.write(\'\\\'>Proposal Requests</a>"},\\r\\n  {label:"<a href=\\\'\', escape=False)\n    response.write(URL(\'default\',\'formtable\',vars=dict(formType=\'Proposal\',projectNum=projects[index].id)))\n    response.write(\'\\\'>Proposals</a>"},\\r\\n  {label:"<a href=\\\'\', escape=False)\n    response.write(URL(\'default\',\'formtable\',vars=dict(formType=\'MeetingMinutes\',projectNum=projects[index].id)))\n    response.write(\'\\\'>Meeting Minutes</a>"} ]});\\r\\n  \', escape=False)\n    pass\nresponse.write(" \\r\\n\\r\\n\\r\\n\\r\\n\\r\\n$(function() {\\r\\n    $(\'#projectsidebar\').tree({\\r\\n        data: data,\\r\\n        autoEscape:false\\r\\n    });\\r\\n});\\r\\nvar node = $(\'#projectsidebar\').tree(\'getNodeById\', ", escape=False)\nresponse.write(request.vars.projectNum)\nresponse.write(\');\\r\\n$(\\\'#projectsidebar\\\').tree(\\\'openNode\\\', node);\\r\\n\\r\\n$("#content").append(\\\'\', escape=False)\nresponse.write(table)\nresponse.write("\');\\r\\n\\r\\n", escape=False)\nif fullTable==True:\n    response.write(\'\\r\\n$("#content table").dataTable(\\r\\n  );\\r\\n\', escape=False)\n    pass\nresponse.write(\'\\r\\n\\r\\n\\r\\n});\\r\\n</script>\\r\\n\\r\\n</head>\\r\\n\\r\\n<body>\\r\\n\\r\\n    <div id="header">\\r\\n      <img src="\', escape=False)\nresponse.write(URL(\'static\',\'images/stock.jpeg\'))\nresponse.write(\'"/>\\r\\n    </div>\\r\\n\\r\\n    <ul id = "projecttabs">\\r\\n        <li>Calendar</li>\\r\\n        <li id="CCD">Upload CCD</li>\\r\\n        <li id="RFI">Generate RFI</li>\\r\\n        <li id="Submittal">Upload Submittal</li>\\r\\n        <li id="ProposalRequest">Generate Proposal Request</li>\\r\\n        <li id="Proposal">Upload Proposal</li>\\r\\n        <li id="MeetingMinutes">Meeting Minutes</li>\\r\\n        <li>Upload Photo</li>\\r\\n    </ul>\\r\\n    <hr>\\r\\n    <div id="projectsidebar">\\r\\n    \\r\\n\\r\\n    </div>\\r\\n    <div id="content">\\r\\n      \\r\\n    </div>\\r\\n    <div id="adminsidebar">\\r\\n    <ul>\\r\\n        <li><a href="\', escape=False)\nresponse.write(URL(\'default\',\'createproject\'))\nresponse.write(\'">Add Project</a></li>\\r\\n    </ul>\\r\\n\\r\\n    </div>\\r\\n    \\r\\n\\r\\n    \', escape=False)\nresponse.write(footer)\nresponse.write(\'\\r\\n</body>\\r\\n\\r\\n\\r\\n\\r\\n  </html>\\r\\n\', escape=False)'
p7
sS'snapshot'
p8
(dp9
S'exception'
p10
(dp11
S'__getslice__'
p12
S"<method-wrapper '__getslice__' of exceptions.SyntaxError object>"
p13
sS'text'
p14
S'\'    response.write(\\\'), children:[{label:"<a href=\\\\\\\'\\\', escape=False)\\n\''
p15
sS'__str__'
p16
S"<method-wrapper '__str__' of exceptions.SyntaxError object>"
p17
sS'__reduce__'
p18
S'<built-in method __reduce__ of exceptions.SyntaxError object>'
p19
sS'__dict__'
p20
S'{}'
p21
sS'__sizeof__'
p22
S'<built-in method __sizeof__ of exceptions.SyntaxError object>'
p23
sS'__init__'
p24
S"<method-wrapper '__init__' of exceptions.SyntaxError object>"
p25
sS'__setattr__'
p26
S"<method-wrapper '__setattr__' of exceptions.SyntaxError object>"
p27
sS'__reduce_ex__'
p28
S'<built-in method __reduce_ex__ of exceptions.SyntaxError object>'
p29
sS'__new__'
p30
S'<built-in method __new__ of type object>'
p31
sS'__format__'
p32
S'<built-in method __format__ of exceptions.SyntaxError object>'
p33
sS'__class__'
p34
S"<type 'exceptions.SyntaxError'>"
p35
sS'filename'
p36
S"'/Users/hainna01/Desktop/SeniorProject/finholt-se...ations/SeniorProject/views/default/formtable.html'"
p37
sS'lineno'
p38
S'35'
p39
sS'msg'
p40
S"'invalid syntax'"
p41
sS'__doc__'
p42
S"'Invalid syntax.'"
p43
sS'__getitem__'
p44
S"<method-wrapper '__getitem__' of exceptions.SyntaxError object>"
p45
sS'__setstate__'
p46
S'<built-in method __setstate__ of exceptions.SyntaxError object>'
p47
sS'__getattribute__'
p48
S"<method-wrapper '__getattribute__' of exceptions.SyntaxError object>"
p49
sS'print_file_and_line'
p50
S'None'
p51
sS'args'
p52
S'(\'invalid syntax\', (\'/Users/hainna01/Desktop/SeniorProject/finholt-se...ations/SeniorProject/views/default/formtable.html\', 35, 12, \'    response.write(\\\'), children:[{label:"<a href=\\\\\\\'\\\', escape=False)\\n\'))'
p53
sS'__subclasshook__'
p54
S'<built-in method __subclasshook__ of type object>'
p55
sS'offset'
p56
S'12'
p57
sS'__unicode__'
p58
S'<built-in method __unicode__ of exceptions.SyntaxError object>'
p59
sS'__delattr__'
p60
S"<method-wrapper '__delattr__' of exceptions.SyntaxError object>"
p61
sS'__repr__'
p62
S"<method-wrapper '__repr__' of exceptions.SyntaxError object>"
p63
sS'__hash__'
p64
S"<method-wrapper '__hash__' of exceptions.SyntaxError object>"
p65
ssS'evalue'
p66
S'invalid syntax (formtable.html, line 35)'
p67
sS'request'
p68
ccopy_reg
_reconstructor
p69
(cgluon.html
BEAUTIFY
p70
c__builtin__
object
p71
NtRp72
(dp73
S'attributes'
p74
(dp75
sS'components'
p76
(lp77
g69
(cgluon.html
TABLE
p78
g71
NtRp79
(dp80
g74
(dp81
S'level'
p82
I5
ssS'parent'
p83
Nsg76
(lp84
g69
(cgluon.html
TR
p85
g71
NtRp86
(dp87
g74
(dp88
sg83
g79
sg76
(lp89
g69
(cgluon.html
TD
p90
g71
NtRp91
(dp92
g74
(dp93
S'_style'
p94
S'font-weight:bold;vertical-align:top'
p95
ssg83
g86
sg76
(lp96
S'ajax'
p97
asbag69
(g90
g71
NtRp98
(dp99
g74
(dp100
S'_valign'
p101
S'top'
p102
ssg83
g86
sg76
(lp103
S':'
asbag69
(g90
g71
NtRp104
(dp105
g74
(dp106
sg83
g86
sg76
(lp107
g69
(g70
g71
NtRp108
(dp109
g74
(dp110
g82
I5
ssg83
g104
sg76
(lp111
S'False'
p112
asbasbasbag69
(g85
g71
NtRp113
(dp114
g74
(dp115
sg83
g79
sg76
(lp116
g69
(g90
g71
NtRp117
(dp118
g74
(dp119
g94
g95
ssg83
g113
sg76
(lp120
S'application'
p121
asbag69
(g90
g71
NtRp122
(dp123
g74
(dp124
g101
g102
ssg83
g113
sg76
(lp125
S':'
asbag69
(g90
g71
NtRp126
(dp127
g74
(dp128
sg83
g113
sg76
(lp129
g69
(g70
g71
NtRp130
(dp131
g74
(dp132
g82
I5
ssg83
g126
sg76
(lp133
S'SeniorProject'
p134
asbasbasbag69
(g85
g71
NtRp135
(dp136
g74
(dp137
sg83
g79
sg76
(lp138
g69
(g90
g71
NtRp139
(dp140
g74
(dp141
g94
g95
ssg83
g135
sg76
(lp142
g52
asbag69
(g90
g71
NtRp143
(dp144
g74
(dp145
g101
g102
ssg83
g135
sg76
(lp146
S':'
asbag69
(g90
g71
NtRp147
(dp148
g74
(dp149
sg83
g135
sg76
(lp150
g69
(g70
g71
NtRp151
(dp152
g74
(dp153
g82
I5
ssg83
g147
sg76
(lp154
g69
(g78
g71
NtRp155
(dp156
g74
(dp157
g82
I4
ssg83
Nsg76
(lp158
sbasbasbasbag69
(g85
g71
NtRp159
(dp160
g74
(dp161
sg83
g79
sg76
(lp162
g69
(g90
g71
NtRp163
(dp164
g74
(dp165
g94
g95
ssg83
g159
sg76
(lp166
S'body'
p167
asbag69
(g90
g71
NtRp168
(dp169
g74
(dp170
g101
g102
ssg83
g159
sg76
(lp171
S':'
asbag69
(g90
g71
NtRp172
(dp173
g74
(dp174
sg83
g159
sg76
(lp175
g69
(g70
g71
NtRp176
(dp177
g74
(dp178
g82
I5
ssg83
g172
sg76
(lp179
S'<cStringIO.StringO object at 0x10c4d2d18>'
p180
asbasbasbag69
(g85
g71
NtRp181
(dp182
g74
(dp183
sg83
g79
sg76
(lp184
g69
(g90
g71
NtRp185
(dp186
g74
(dp187
g94
g95
ssg83
g181
sg76
(lp188
S'client'
p189
asbag69
(g90
g71
NtRp190
(dp191
g74
(dp192
g101
g102
ssg83
g181
sg76
(lp193
S':'
asbag69
(g90
g71
NtRp194
(dp195
g74
(dp196
sg83
g181
sg76
(lp197
g69
(g70
g71
NtRp198
(dp199
g74
(dp200
g82
I5
ssg83
g194
sg76
(lp201
S'127.0.0.1'
p202
asbasbasbag69
(g85
g71
NtRp203
(dp204
g74
(dp205
sg83
g79
sg76
(lp206
g69
(g90
g71
NtRp207
(dp208
g74
(dp209
g94
g95
ssg83
g203
sg76
(lp210
S'controller'
p211
asbag69
(g90
g71
NtRp212
(dp213
g74
(dp214
g101
g102
ssg83
g203
sg76
(lp215
S':'
asbag69
(g90
g71
NtRp216
(dp217
g74
(dp218
sg83
g203
sg76
(lp219
g69
(g70
g71
NtRp220
(dp221
g74
(dp222
g82
I5
ssg83
g216
sg76
(lp223
S'default'
p224
asbasbasbag69
(g85
g71
NtRp225
(dp226
g74
(dp227
sg83
g79
sg76
(lp228
g69
(g90
g71
NtRp229
(dp230
g74
(dp231
g94
g95
ssg83
g225
sg76
(lp232
S'cookies'
p233
asbag69
(g90
g71
NtRp234
(dp235
g74
(dp236
g101
g102
ssg83
g225
sg76
(lp237
S':'
asbag69
(g90
g71
NtRp238
(dp239
g74
(dp240
sg83
g225
sg76
(lp241
g69
(g70
g71
NtRp242
(dp243
g74
(dp244
g82
I5
ssg83
g238
sg76
(lp245
g69
(g78
g71
NtRp246
(dp247
g74
(dp248
g82
I4
ssg83
Nsg76
(lp249
g69
(g85
g71
NtRp250
(dp251
g74
(dp252
sg83
g246
sg76
(lp253
g69
(g90
g71
NtRp254
(dp255
g74
(dp256
g94
g95
ssg83
g250
sg76
(lp257
S'session_id_admin'
p258
asbag69
(g90
g71
NtRp259
(dp260
g74
(dp261
g101
g102
ssg83
g250
sg76
(lp262
S':'
asbag69
(g90
g71
NtRp263
(dp264
g74
(dp265
sg83
g250
sg76
(lp266
g69
(g70
g71
NtRp267
(dp268
g74
(dp269
g82
I4
ssg83
g263
sg76
(lp270
g69
(g78
g71
NtRp271
(dp272
g74
(dp273
g82
I3
ssg83
Nsg76
(lp274
g69
(g85
g71
NtRp275
(dp276
g74
(dp277
sg83
g271
sg76
(lp278
g69
(g90
g71
NtRp279
(dp280
g74
(dp281
g94
g95
ssg83
g275
sg76
(lp282
S'comment'
p283
asbag69
(g90
g71
NtRp284
(dp285
g74
(dp286
g101
g102
ssg83
g275
sg76
(lp287
S':'
asbag69
(g90
g71
NtRp288
(dp289
g74
(dp290
sg83
g275
sg76
(lp291
g69
(g70
g71
NtRp292
(dp293
g74
(dp294
g82
I3
ssg83
g288
sg76
(lp295
S''
asbasbasbag69
(g85
g71
NtRp296
(dp297
g74
(dp298
sg83
g271
sg76
(lp299
g69
(g90
g71
NtRp300
(dp301
g74
(dp302
g94
g95
ssg83
g296
sg76
(lp303
S'domain'
p304
asbag69
(g90
g71
NtRp305
(dp306
g74
(dp307
g101
g102
ssg83
g296
sg76
(lp308
S':'
asbag69
(g90
g71
NtRp309
(dp310
g74
(dp311
sg83
g296
sg76
(lp312
g69
(g70
g71
NtRp313
(dp314
g74
(dp315
g82
I3
ssg83
g309
sg76
(lp316
S''
asbasbasbag69
(g85
g71
NtRp317
(dp318
g74
(dp319
sg83
g271
sg76
(lp320
g69
(g90
g71
NtRp321
(dp322
g74
(dp323
g94
g95
ssg83
g317
sg76
(lp324
S'expires'
p325
asbag69
(g90
g71
NtRp326
(dp327
g74
(dp328
g101
g102
ssg83
g317
sg76
(lp329
S':'
asbag69
(g90
g71
NtRp330
(dp331
g74
(dp332
sg83
g317
sg76
(lp333
g69
(g70
g71
NtRp334
(dp335
g74
(dp336
g82
I3
ssg83
g330
sg76
(lp337
S''
asbasbasbag69
(g85
g71
NtRp338
(dp339
g74
(dp340
sg83
g271
sg76
(lp341
g69
(g90
g71
NtRp342
(dp343
g74
(dp344
g94
g95
ssg83
g338
sg76
(lp345
S'httponly'
p346
asbag69
(g90
g71
NtRp347
(dp348
g74
(dp349
g101
g102
ssg83
g338
sg76
(lp350
S':'
asbag69
(g90
g71
NtRp351
(dp352
g74
(dp353
sg83
g338
sg76
(lp354
g69
(g70
g71
NtRp355
(dp356
g74
(dp357
g82
I3
ssg83
g351
sg76
(lp358
S''
asbasbasbag69
(g85
g71
NtRp359
(dp360
g74
(dp361
sg83
g271
sg76
(lp362
g69
(g90
g71
NtRp363
(dp364
g74
(dp365
g94
g95
ssg83
g359
sg76
(lp366
S'max-age'
p367
asbag69
(g90
g71
NtRp368
(dp369
g74
(dp370
g101
g102
ssg83
g359
sg76
(lp371
S':'
asbag69
(g90
g71
NtRp372
(dp373
g74
(dp374
sg83
g359
sg76
(lp375
g69
(g70
g71
NtRp376
(dp377
g74
(dp378
g82
I3
ssg83
g372
sg76
(lp379
S''
asbasbasbag69
(g85
g71
NtRp380
(dp381
g74
(dp382
sg83
g271
sg76
(lp383
g69
(g90
g71
NtRp384
(dp385
g74
(dp386
g94
g95
ssg83
g380
sg76
(lp387
S'path'
p388
asbag69
(g90
g71
NtRp389
(dp390
g74
(dp391
g101
g102
ssg83
g380
sg76
(lp392
S':'
asbag69
(g90
g71
NtRp393
(dp394
g74
(dp395
sg83
g380
sg76
(lp396
g69
(g70
g71
NtRp397
(dp398
g74
(dp399
g82
I3
ssg83
g393
sg76
(lp400
S''
asbasbasbag69
(g85
g71
NtRp401
(dp402
g74
(dp403
sg83
g271
sg76
(lp404
g69
(g90
g71
NtRp405
(dp406
g74
(dp407
g94
g95
ssg83
g401
sg76
(lp408
S'secure'
p409
asbag69
(g90
g71
NtRp410
(dp411
g74
(dp412
g101
g102
ssg83
g401
sg76
(lp413
S':'
asbag69
(g90
g71
NtRp414
(dp415
g74
(dp416
sg83
g401
sg76
(lp417
g69
(g70
g71
NtRp418
(dp419
g74
(dp420
g82
I3
ssg83
g414
sg76
(lp421
S''
asbasbasbag69
(g85
g71
NtRp422
(dp423
g74
(dp424
sg83
g271
sg76
(lp425
g69
(g90
g71
NtRp426
(dp427
g74
(dp428
g94
g95
ssg83
g422
sg76
(lp429
S'version'
p430
asbag69
(g90
g71
NtRp431
(dp432
g74
(dp433
g101
g102
ssg83
g422
sg76
(lp434
S':'
asbag69
(g90
g71
NtRp435
(dp436
g74
(dp437
sg83
g422
sg76
(lp438
g69
(g70
g71
NtRp439
(dp440
g74
(dp441
g82
I3
ssg83
g435
sg76
(lp442
S''
asbasbasbasbasbasbasbag69
(g85
g71
NtRp443
(dp444
g74
(dp445
sg83
g246
sg76
(lp446
g69
(g90
g71
NtRp447
(dp448
g74
(dp449
g94
g95
ssg83
g443
sg76
(lp450
S'session_id_seniorproject'
p451
asbag69
(g90
g71
NtRp452
(dp453
g74
(dp454
g101
g102
ssg83
g443
sg76
(lp455
S':'
asbag69
(g90
g71
NtRp456
(dp457
g74
(dp458
sg83
g443
sg76
(lp459
g69
(g70
g71
NtRp460
(dp461
g74
(dp462
g82
I4
ssg83
g456
sg76
(lp463
g69
(g78
g71
NtRp464
(dp465
g74
(dp466
g82
I3
ssg83
Nsg76
(lp467
g69
(g85
g71
NtRp468
(dp469
g74
(dp470
sg83
g464
sg76
(lp471
g69
(g90
g71
NtRp472
(dp473
g74
(dp474
g94
g95
ssg83
g468
sg76
(lp475
g283
asbag69
(g90
g71
NtRp476
(dp477
g74
(dp478
g101
g102
ssg83
g468
sg76
(lp479
S':'
asbag69
(g90
g71
NtRp480
(dp481
g74
(dp482
sg83
g468
sg76
(lp483
g69
(g70
g71
NtRp484
(dp485
g74
(dp486
g82
I3
ssg83
g480
sg76
(lp487
S''
asbasbasbag69
(g85
g71
NtRp488
(dp489
g74
(dp490
sg83
g464
sg76
(lp491
g69
(g90
g71
NtRp492
(dp493
g74
(dp494
g94
g95
ssg83
g488
sg76
(lp495
g304
asbag69
(g90
g71
NtRp496
(dp497
g74
(dp498
g101
g102
ssg83
g488
sg76
(lp499
S':'
asbag69
(g90
g71
NtRp500
(dp501
g74
(dp502
sg83
g488
sg76
(lp503
g69
(g70
g71
NtRp504
(dp505
g74
(dp506
g82
I3
ssg83
g500
sg76
(lp507
S''
asbasbasbag69
(g85
g71
NtRp508
(dp509
g74
(dp510
sg83
g464
sg76
(lp511
g69
(g90
g71
NtRp512
(dp513
g74
(dp514
g94
g95
ssg83
g508
sg76
(lp515
g325
asbag69
(g90
g71
NtRp516
(dp517
g74
(dp518
g101
g102
ssg83
g508
sg76
(lp519
S':'
asbag69
(g90
g71
NtRp520
(dp521
g74
(dp522
sg83
g508
sg76
(lp523
g69
(g70
g71
NtRp524
(dp525
g74
(dp526
g82
I3
ssg83
g520
sg76
(lp527
S''
asbasbasbag69
(g85
g71
NtRp528
(dp529
g74
(dp530
sg83
g464
sg76
(lp531
g69
(g90
g71
NtRp532
(dp533
g74
(dp534
g94
g95
ssg83
g528
sg76
(lp535
g346
asbag69
(g90
g71
NtRp536
(dp537
g74
(dp538
g101
g102
ssg83
g528
sg76
(lp539
S':'
asbag69
(g90
g71
NtRp540
(dp541
g74
(dp542
sg83
g528
sg76
(lp543
g69
(g70
g71
NtRp544
(dp545
g74
(dp546
g82
I3
ssg83
g540
sg76
(lp547
S''
asbasbasbag69
(g85
g71
NtRp548
(dp549
g74
(dp550
sg83
g464
sg76
(lp551
g69
(g90
g71
NtRp552
(dp553
g74
(dp554
g94
g95
ssg83
g548
sg76
(lp555
g367
asbag69
(g90
g71
NtRp556
(dp557
g74
(dp558
g101
g102
ssg83
g548
sg76
(lp559
S':'
asbag69
(g90
g71
NtRp560
(dp561
g74
(dp562
sg83
g548
sg76
(lp563
g69
(g70
g71
NtRp564
(dp565
g74
(dp566
g82
I3
ssg83
g560
sg76
(lp567
S''
asbasbasbag69
(g85
g71
NtRp568
(dp569
g74
(dp570
sg83
g464
sg76
(lp571
g69
(g90
g71
NtRp572
(dp573
g74
(dp574
g94
g95
ssg83
g568
sg76
(lp575
g388
asbag69
(g90
g71
NtRp576
(dp577
g74
(dp578
g101
g102
ssg83
g568
sg76
(lp579
S':'
asbag69
(g90
g71
NtRp580
(dp581
g74
(dp582
sg83
g568
sg76
(lp583
g69
(g70
g71
NtRp584
(dp585
g74
(dp586
g82
I3
ssg83
g580
sg76
(lp587
S''
asbasbasbag69
(g85
g71
NtRp588
(dp589
g74
(dp590
sg83
g464
sg76
(lp591
g69
(g90
g71
NtRp592
(dp593
g74
(dp594
g94
g95
ssg83
g588
sg76
(lp595
g409
asbag69
(g90
g71
NtRp596
(dp597
g74
(dp598
g101
g102
ssg83
g588
sg76
(lp599
S':'
asbag69
(g90
g71
NtRp600
(dp601
g74
(dp602
sg83
g588
sg76
(lp603
g69
(g70
g71
NtRp604
(dp605
g74
(dp606
g82
I3
ssg83
g600
sg76
(lp607
S''
asbasbasbag69
(g85
g71
NtRp608
(dp609
g74
(dp610
sg83
g464
sg76
(lp611
g69
(g90
g71
NtRp612
(dp613
g74
(dp614
g94
g95
ssg83
g608
sg76
(lp615
g430
asbag69
(g90
g71
NtRp616
(dp617
g74
(dp618
g101
g102
ssg83
g608
sg76
(lp619
S':'
asbag69
(g90
g71
NtRp620
(dp621
g74
(dp622
sg83
g608
sg76
(lp623
g69
(g70
g71
NtRp624
(dp625
g74
(dp626
g82
I3
ssg83
g620
sg76
(lp627
S''
asbasbasbasbasbasbasbag69
(g85
g71
NtRp628
(dp629
g74
(dp630
sg83
g246
sg76
(lp631
g69
(g90
g71
NtRp632
(dp633
g74
(dp634
g94
g95
ssg83
g628
sg76
(lp635
S'session_id_welcome'
p636
asbag69
(g90
g71
NtRp637
(dp638
g74
(dp639
g101
g102
ssg83
g628
sg76
(lp640
S':'
asbag69
(g90
g71
NtRp641
(dp642
g74
(dp643
sg83
g628
sg76
(lp644
g69
(g70
g71
NtRp645
(dp646
g74
(dp647
g82
I4
ssg83
g641
sg76
(lp648
g69
(g78
g71
NtRp649
(dp650
g74
(dp651
g82
I3
ssg83
Nsg76
(lp652
g69
(g85
g71
NtRp653
(dp654
g74
(dp655
sg83
g649
sg76
(lp656
g69
(g90
g71
NtRp657
(dp658
g74
(dp659
g94
g95
ssg83
g653
sg76
(lp660
g283
asbag69
(g90
g71
NtRp661
(dp662
g74
(dp663
g101
g102
ssg83
g653
sg76
(lp664
S':'
asbag69
(g90
g71
NtRp665
(dp666
g74
(dp667
sg83
g653
sg76
(lp668
g69
(g70
g71
NtRp669
(dp670
g74
(dp671
g82
I3
ssg83
g665
sg76
(lp672
S''
asbasbasbag69
(g85
g71
NtRp673
(dp674
g74
(dp675
sg83
g649
sg76
(lp676
g69
(g90
g71
NtRp677
(dp678
g74
(dp679
g94
g95
ssg83
g673
sg76
(lp680
g304
asbag69
(g90
g71
NtRp681
(dp682
g74
(dp683
g101
g102
ssg83
g673
sg76
(lp684
S':'
asbag69
(g90
g71
NtRp685
(dp686
g74
(dp687
sg83
g673
sg76
(lp688
g69
(g70
g71
NtRp689
(dp690
g74
(dp691
g82
I3
ssg83
g685
sg76
(lp692
S''
asbasbasbag69
(g85
g71
NtRp693
(dp694
g74
(dp695
sg83
g649
sg76
(lp696
g69
(g90
g71
NtRp697
(dp698
g74
(dp699
g94
g95
ssg83
g693
sg76
(lp700
g325
asbag69
(g90
g71
NtRp701
(dp702
g74
(dp703
g101
g102
ssg83
g693
sg76
(lp704
S':'
asbag69
(g90
g71
NtRp705
(dp706
g74
(dp707
sg83
g693
sg76
(lp708
g69
(g70
g71
NtRp709
(dp710
g74
(dp711
g82
I3
ssg83
g705
sg76
(lp712
S''
asbasbasbag69
(g85
g71
NtRp713
(dp714
g74
(dp715
sg83
g649
sg76
(lp716
g69
(g90
g71
NtRp717
(dp718
g74
(dp719
g94
g95
ssg83
g713
sg76
(lp720
g346
asbag69
(g90
g71
NtRp721
(dp722
g74
(dp723
g101
g102
ssg83
g713
sg76
(lp724
S':'
asbag69
(g90
g71
NtRp725
(dp726
g74
(dp727
sg83
g713
sg76
(lp728
g69
(g70
g71
NtRp729
(dp730
g74
(dp731
g82
I3
ssg83
g725
sg76
(lp732
S''
asbasbasbag69
(g85
g71
NtRp733
(dp734
g74
(dp735
sg83
g649
sg76
(lp736
g69
(g90
g71
NtRp737
(dp738
g74
(dp739
g94
g95
ssg83
g733
sg76
(lp740
g367
asbag69
(g90
g71
NtRp741
(dp742
g74
(dp743
g101
g102
ssg83
g733
sg76
(lp744
S':'
asbag69
(g90
g71
NtRp745
(dp746
g74
(dp747
sg83
g733
sg76
(lp748
g69
(g70
g71
NtRp749
(dp750
g74
(dp751
g82
I3
ssg83
g745
sg76
(lp752
S''
asbasbasbag69
(g85
g71
NtRp753
(dp754
g74
(dp755
sg83
g649
sg76
(lp756
g69
(g90
g71
NtRp757
(dp758
g74
(dp759
g94
g95
ssg83
g753
sg76
(lp760
g388
asbag69
(g90
g71
NtRp761
(dp762
g74
(dp763
g101
g102
ssg83
g753
sg76
(lp764
S':'
asbag69
(g90
g71
NtRp765
(dp766
g74
(dp767
sg83
g753
sg76
(lp768
g69
(g70
g71
NtRp769
(dp770
g74
(dp771
g82
I3
ssg83
g765
sg76
(lp772
S''
asbasbasbag69
(g85
g71
NtRp773
(dp774
g74
(dp775
sg83
g649
sg76
(lp776
g69
(g90
g71
NtRp777
(dp778
g74
(dp779
g94
g95
ssg83
g773
sg76
(lp780
g409
asbag69
(g90
g71
NtRp781
(dp782
g74
(dp783
g101
g102
ssg83
g773
sg76
(lp784
S':'
asbag69
(g90
g71
NtRp785
(dp786
g74
(dp787
sg83
g773
sg76
(lp788
g69
(g70
g71
NtRp789
(dp790
g74
(dp791
g82
I3
ssg83
g785
sg76
(lp792
S''
asbasbasbag69
(g85
g71
NtRp793
(dp794
g74
(dp795
sg83
g649
sg76
(lp796
g69
(g90
g71
NtRp797
(dp798
g74
(dp799
g94
g95
ssg83
g793
sg76
(lp800
g430
asbag69
(g90
g71
NtRp801
(dp802
g74
(dp803
g101
g102
ssg83
g793
sg76
(lp804
S':'
asbag69
(g90
g71
NtRp805
(dp806
g74
(dp807
sg83
g793
sg76
(lp808
g69
(g70
g71
NtRp809
(dp810
g74
(dp811
g82
I3
ssg83
g805
sg76
(lp812
S''
asbasbasbasbasbasbasbasbasbasbasbag69
(g85
g71
NtRp813
(dp814
g74
(dp815
sg83
g79
sg76
(lp816
g69
(g90
g71
NtRp817
(dp818
g74
(dp819
g94
g95
ssg83
g813
sg76
(lp820
S'env'
p821
asbag69
(g90
g71
NtRp822
(dp823
g74
(dp824
g101
g102
ssg83
g813
sg76
(lp825
S':'
asbag69
(g90
g71
NtRp826
(dp827
g74
(dp828
sg83
g813
sg76
(lp829
g69
(g70
g71
NtRp830
(dp831
g74
(dp832
g82
I5
ssg83
g826
sg76
(lp833
g69
(g78
g71
NtRp834
(dp835
g74
(dp836
g82
I4
ssg83
Nsg76
(lp837
g69
(g85
g71
NtRp838
(dp839
g74
(dp840
sg83
g834
sg76
(lp841
g69
(g90
g71
NtRp842
(dp843
g74
(dp844
g94
g95
ssg83
g838
sg76
(lp845
S'app_folders'
p846
asbag69
(g90
g71
NtRp847
(dp848
g74
(dp849
g101
g102
ssg83
g838
sg76
(lp850
S':'
asbag69
(g90
g71
NtRp851
(dp852
g74
(dp853
sg83
g838
sg76
(lp854
g69
(g70
g71
NtRp855
(dp856
g74
(dp857
g82
I4
ssg83
g851
sg76
(lp858
S"set(['/Users/hainna01/Desktop/SeniorProject/finholt-senior-project/web2py/applications/admin/', '/Users/hainna01/Desktop/SeniorProject/finholt-senior-project/web2py/applications/SeniorProject/', '/Users/hainna01/Desktop/SeniorProject/finholt-senior-project/web2py/applications/welcome/'])"
p859
asbasbasbag69
(g85
g71
NtRp860
(dp861
g74
(dp862
sg83
g834
sg76
(lp863
g69
(g90
g71
NtRp864
(dp865
g74
(dp866
g94
g95
ssg83
g860
sg76
(lp867
S'applications_parent'
p868
asbag69
(g90
g71
NtRp869
(dp870
g74
(dp871
g101
g102
ssg83
g860
sg76
(lp872
S':'
asbag69
(g90
g71
NtRp873
(dp874
g74
(dp875
sg83
g860
sg76
(lp876
g69
(g70
g71
NtRp877
(dp878
g74
(dp879
g82
I4
ssg83
g873
sg76
(lp880
S'/Users/hainna01/Desktop/SeniorProject/finholt-senior-project/web2py'
p881
asbasbasbag69
(g85
g71
NtRp882
(dp883
g74
(dp884
sg83
g834
sg76
(lp885
g69
(g90
g71
NtRp886
(dp887
g74
(dp888
g94
g95
ssg83
g882
sg76
(lp889
S'cmd_args'
p890
asbag69
(g90
g71
NtRp891
(dp892
g74
(dp893
g101
g102
ssg83
g882
sg76
(lp894
S':'
asbag69
(g90
g71
NtRp895
(dp896
g74
(dp897
sg83
g882
sg76
(lp898
g69
(g70
g71
NtRp899
(dp900
g74
(dp901
g82
I4
ssg83
g895
sg76
(lp902
g69
(g78
g71
NtRp903
(dp904
g74
(dp905
g82
I3
ssg83
Nsg76
(lp906
sbasbasbasbag69
(g85
g71
NtRp907
(dp908
g74
(dp909
sg83
g834
sg76
(lp910
g69
(g90
g71
NtRp911
(dp912
g74
(dp913
g94
g95
ssg83
g907
sg76
(lp914
S'cmd_options'
p915
asbag69
(g90
g71
NtRp916
(dp917
g74
(dp918
g101
g102
ssg83
g907
sg76
(lp919
S':'
asbag69
(g90
g71
NtRp920
(dp921
g74
(dp922
sg83
g907
sg76
(lp923
g69
(g70
g71
NtRp924
(dp925
g74
(dp926
g82
I4
ssg83
g920
sg76
(lp927
S"<Values at 0x1019b13f8: {'verbose': False, 'ip': '127.0.0.1', 'shutdown_timeout': 5, 'taskbar': False, 'nocron': False, 'pid_filename': 'httpserver.pid', 'maxthreads': None, 'softcron': False, 'server_name': 'Nathans-MacBook-Pro.local', 'bpython': False, 'nogui': False, 'port': 8000, 'extcron': False, 'debuglevel': 30, 'test': None, 'folder': '/Users/hainna01/Desktop/SeniorProject/finholt-senior-project/web2py', 'config': '', 'import_models': False, 'winservice': '', 'shell': None, 'run': '', 'log_filename': 'httpserver.log', 'args': [''], 'socket_timeout': 5, 'ssl_ca_certificate': None, 'scheduler': None, 'profiler_filename': None, 'ssl_private_key': '', 'password': '<ask>', 'request_queue_size': 5, 'ssl_certificate': '', 'cronjob': False, 'numthreads': None, 'quiet': False, 'interfaces': None, 'minthreads': None, 'timeout': 10, 'plain': False, 'nobanner': False}>"
p928
asbasbasbag69
(g85
g71
NtRp929
(dp930
g74
(dp931
sg83
g834
sg76
(lp932
g69
(g90
g71
NtRp933
(dp934
g74
(dp935
g94
g95
ssg83
g929
sg76
(lp936
S'db_sessions'
p937
asbag69
(g90
g71
NtRp938
(dp939
g74
(dp940
g101
g102
ssg83
g929
sg76
(lp941
S':'
asbag69
(g90
g71
NtRp942
(dp943
g74
(dp944
sg83
g929
sg76
(lp945
g69
(g70
g71
NtRp946
(dp947
g74
(dp948
g82
I4
ssg83
g942
sg76
(lp949
S'set([])'
p950
asbasbasbag69
(g85
g71
NtRp951
(dp952
g74
(dp953
sg83
g834
sg76
(lp954
g69
(g90
g71
NtRp955
(dp956
g74
(dp957
g94
g95
ssg83
g951
sg76
(lp958
S'debugging'
p959
asbag69
(g90
g71
NtRp960
(dp961
g74
(dp962
g101
g102
ssg83
g951
sg76
(lp963
S':'
asbag69
(g90
g71
NtRp964
(dp965
g74
(dp966
sg83
g951
sg76
(lp967
g69
(g70
g71
NtRp968
(dp969
g74
(dp970
g82
I4
ssg83
g964
sg76
(lp971
g112
asbasbasbag69
(g85
g71
NtRp972
(dp973
g74
(dp974
sg83
g834
sg76
(lp975
g69
(g90
g71
NtRp976
(dp977
g74
(dp978
g94
g95
ssg83
g972
sg76
(lp979
S'gluon_parent'
p980
asbag69
(g90
g71
NtRp981
(dp982
g74
(dp983
g101
g102
ssg83
g972
sg76
(lp984
S':'
asbag69
(g90
g71
NtRp985
(dp986
g74
(dp987
sg83
g972
sg76
(lp988
g69
(g70
g71
NtRp989
(dp990
g74
(dp991
g82
I4
ssg83
g985
sg76
(lp992
S'/Users/hainna01/Desktop/SeniorProject/finholt-senior-project/web2py'
p993
asbasbasbag69
(g85
g71
NtRp994
(dp995
g74
(dp996
sg83
g834
sg76
(lp997
g69
(g90
g71
NtRp998
(dp999
g74
(dp1000
g94
g95
ssg83
g994
sg76
(lp1001
S'http_accept'
p1002
asbag69
(g90
g71
NtRp1003
(dp1004
g74
(dp1005
g101
g102
ssg83
g994
sg76
(lp1006
S':'
asbag69
(g90
g71
NtRp1007
(dp1008
g74
(dp1009
sg83
g994
sg76
(lp1010
g69
(g70
g71
NtRp1011
(dp1012
g74
(dp1013
g82
I4
ssg83
g1007
sg76
(lp1014
S'text/html,application/xhtml+xml,application/xml;q=0.9,*/*;q=0.8'
p1015
asbasbasbag69
(g85
g71
NtRp1016
(dp1017
g74
(dp1018
sg83
g834
sg76
(lp1019
g69
(g90
g71
NtRp1020
(dp1021
g74
(dp1022
g94
g95
ssg83
g1016
sg76
(lp1023
S'http_accept_charset'
p1024
asbag69
(g90
g71
NtRp1025
(dp1026
g74
(dp1027
g101
g102
ssg83
g1016
sg76
(lp1028
S':'
asbag69
(g90
g71
NtRp1029
(dp1030
g74
(dp1031
sg83
g1016
sg76
(lp1032
g69
(g70
g71
NtRp1033
(dp1034
g74
(dp1035
g82
I4
ssg83
g1029
sg76
(lp1036
S'ISO-8859-1,utf-8;q=0.7,*;q=0.3'
p1037
asbasbasbag69
(g85
g71
NtRp1038
(dp1039
g74
(dp1040
sg83
g834
sg76
(lp1041
g69
(g90
g71
NtRp1042
(dp1043
g74
(dp1044
g94
g95
ssg83
g1038
sg76
(lp1045
S'http_accept_encoding'
p1046
asbag69
(g90
g71
NtRp1047
(dp1048
g74
(dp1049
g101
g102
ssg83
g1038
sg76
(lp1050
S':'
asbag69
(g90
g71
NtRp1051
(dp1052
g74
(dp1053
sg83
g1038
sg76
(lp1054
g69
(g70
g71
NtRp1055
(dp1056
g74
(dp1057
g82
I4
ssg83
g1051
sg76
(lp1058
S'gzip,deflate,sdch'
p1059
asbasbasbag69
(g85
g71
NtRp1060
(dp1061
g74
(dp1062
sg83
g834
sg76
(lp1063
g69
(g90
g71
NtRp1064
(dp1065
g74
(dp1066
g94
g95
ssg83
g1060
sg76
(lp1067
S'http_accept_language'
p1068
asbag69
(g90
g71
NtRp1069
(dp1070
g74
(dp1071
g101
g102
ssg83
g1060
sg76
(lp1072
S':'
asbag69
(g90
g71
NtRp1073
(dp1074
g74
(dp1075
sg83
g1060
sg76
(lp1076
g69
(g70
g71
NtRp1077
(dp1078
g74
(dp1079
g82
I4
ssg83
g1073
sg76
(lp1080
S'en-US,en;q=0.8'
p1081
asbasbasbag69
(g85
g71
NtRp1082
(dp1083
g74
(dp1084
sg83
g834
sg76
(lp1085
g69
(g90
g71
NtRp1086
(dp1087
g74
(dp1088
g94
g95
ssg83
g1082
sg76
(lp1089
S'http_cache_control'
p1090
asbag69
(g90
g71
NtRp1091
(dp1092
g74
(dp1093
g101
g102
ssg83
g1082
sg76
(lp1094
S':'
asbag69
(g90
g71
NtRp1095
(dp1096
g74
(dp1097
sg83
g1082
sg76
(lp1098
g69
(g70
g71
NtRp1099
(dp1100
g74
(dp1101
g82
I4
ssg83
g1095
sg76
(lp1102
S'max-age=0'
p1103
asbasbasbag69
(g85
g71
NtRp1104
(dp1105
g74
(dp1106
sg83
g834
sg76
(lp1107
g69
(g90
g71
NtRp1108
(dp1109
g74
(dp1110
g94
g95
ssg83
g1104
sg76
(lp1111
S'http_connection'
p1112
asbag69
(g90
g71
NtRp1113
(dp1114
g74
(dp1115
g101
g102
ssg83
g1104
sg76
(lp1116
S':'
asbag69
(g90
g71
NtRp1117
(dp1118
g74
(dp1119
sg83
g1104
sg76
(lp1120
g69
(g70
g71
NtRp1121
(dp1122
g74
(dp1123
g82
I4
ssg83
g1117
sg76
(lp1124
S'keep-alive'
p1125
asbasbasbag69
(g85
g71
NtRp1126
(dp1127
g74
(dp1128
sg83
g834
sg76
(lp1129
g69
(g90
g71
NtRp1130
(dp1131
g74
(dp1132
g94
g95
ssg83
g1126
sg76
(lp1133
S'http_cookie'
p1134
asbag69
(g90
g71
NtRp1135
(dp1136
g74
(dp1137
g101
g102
ssg83
g1126
sg76
(lp1138
S':'
asbag69
(g90
g71
NtRp1139
(dp1140
g74
(dp1141
sg83
g1126
sg76
(lp1142
g69
(g70
g71
NtRp1143
(dp1144
g74
(dp1145
g82
I4
ssg83
g1139
sg76
(lp1146
S'session_id_welcome=127.0.0.1-21a08aa4-8c67-47c6-8599-95057859c496; session_id_admin=127.0.0.1-af6f24ce-be25-4cf3-be60-bed5ad9f442d; session_id_seniorproject=127.0.0.1-35fcac76-7f11-47e5-9e54-eb77cd194136'
p1147
asbasbasbag69
(g85
g71
NtRp1148
(dp1149
g74
(dp1150
sg83
g834
sg76
(lp1151
g69
(g90
g71
NtRp1152
(dp1153
g74
(dp1154
g94
g95
ssg83
g1148
sg76
(lp1155
S'http_host'
p1156
asbag69
(g90
g71
NtRp1157
(dp1158
g74
(dp1159
g101
g102
ssg83
g1148
sg76
(lp1160
S':'
asbag69
(g90
g71
NtRp1161
(dp1162
g74
(dp1163
sg83
g1148
sg76
(lp1164
g69
(g70
g71
NtRp1165
(dp1166
g74
(dp1167
g82
I4
ssg83
g1161
sg76
(lp1168
S'127.0.0.1:8000'
p1169
asbasbasbag69
(g85
g71
NtRp1170
(dp1171
g74
(dp1172
sg83
g834
sg76
(lp1173
g69
(g90
g71
NtRp1174
(dp1175
g74
(dp1176
g94
g95
ssg83
g1170
sg76
(lp1177
S'http_referer'
p1178
asbag69
(g90
g71
NtRp1179
(dp1180
g74
(dp1181
g101
g102
ssg83
g1170
sg76
(lp1182
S':'
asbag69
(g90
g71
NtRp1183
(dp1184
g74
(dp1185
sg83
g1170
sg76
(lp1186
g69
(g70
g71
NtRp1187
(dp1188
g74
(dp1189
g82
I4
ssg83
g1183
sg76
(lp1190
S'http://127.0.0.1:8000/SeniorProject/default/formtable?formType=Submittal&projectNum=1'
p1191
asbasbasbag69
(g85
g71
NtRp1192
(dp1193
g74
(dp1194
sg83
g834
sg76
(lp1195
g69
(g90
g71
NtRp1196
(dp1197
g74
(dp1198
g94
g95
ssg83
g1192
sg76
(lp1199
S'http_user_agent'
p1200
asbag69
(g90
g71
NtRp1201
(dp1202
g74
(dp1203
g101
g102
ssg83
g1192
sg76
(lp1204
S':'
asbag69
(g90
g71
NtRp1205
(dp1206
g74
(dp1207
sg83
g1192
sg76
(lp1208
g69
(g70
g71
NtRp1209
(dp1210
g74
(dp1211
g82
I4
ssg83
g1205
sg76
(lp1212
S'Mozilla/5.0 (Macintosh; Intel Mac OS X 10_8_2) AppleWebKit/537.11 (KHTML, like Gecko) Chrome/23.0.1271.95 Safari/537.11'
p1213
asbasbasbag69
(g85
g71
NtRp1214
(dp1215
g74
(dp1216
sg83
g834
sg76
(lp1217
g69
(g90
g71
NtRp1218
(dp1219
g74
(dp1220
g94
g95
ssg83
g1214
sg76
(lp1221
S'is_jython'
p1222
asbag69
(g90
g71
NtRp1223
(dp1224
g74
(dp1225
g101
g102
ssg83
g1214
sg76
(lp1226
S':'
asbag69
(g90
g71
NtRp1227
(dp1228
g74
(dp1229
sg83
g1214
sg76
(lp1230
g69
(g70
g71
NtRp1231
(dp1232
g74
(dp1233
g82
I4
ssg83
g1227
sg76
(lp1234
g112
asbasbasbag69
(g85
g71
NtRp1235
(dp1236
g74
(dp1237
sg83
g834
sg76
(lp1238
g69
(g90
g71
NtRp1239
(dp1240
g74
(dp1241
g94
g95
ssg83
g1235
sg76
(lp1242
S'is_pypy'
p1243
asbag69
(g90
g71
NtRp1244
(dp1245
g74
(dp1246
g101
g102
ssg83
g1235
sg76
(lp1247
S':'
asbag69
(g90
g71
NtRp1248
(dp1249
g74
(dp1250
sg83
g1235
sg76
(lp1251
g69
(g70
g71
NtRp1252
(dp1253
g74
(dp1254
g82
I4
ssg83
g1248
sg76
(lp1255
g112
asbasbasbag69
(g85
g71
NtRp1256
(dp1257
g74
(dp1258
sg83
g834
sg76
(lp1259
g69
(g90
g71
NtRp1260
(dp1261
g74
(dp1262
g94
g95
ssg83
g1256
sg76
(lp1263
S'path_info'
p1264
asbag69
(g90
g71
NtRp1265
(dp1266
g74
(dp1267
g101
g102
ssg83
g1256
sg76
(lp1268
S':'
asbag69
(g90
g71
NtRp1269
(dp1270
g74
(dp1271
sg83
g1256
sg76
(lp1272
g69
(g70
g71
NtRp1273
(dp1274
g74
(dp1275
g82
I4
ssg83
g1269
sg76
(lp1276
S'/SeniorProject/default/formtable'
p1277
asbasbasbag69
(g85
g71
NtRp1278
(dp1279
g74
(dp1280
sg83
g834
sg76
(lp1281
g69
(g90
g71
NtRp1282
(dp1283
g74
(dp1284
g94
g95
ssg83
g1278
sg76
(lp1285
S'query_string'
p1286
asbag69
(g90
g71
NtRp1287
(dp1288
g74
(dp1289
g101
g102
ssg83
g1278
sg76
(lp1290
S':'
asbag69
(g90
g71
NtRp1291
(dp1292
g74
(dp1293
sg83
g1278
sg76
(lp1294
g69
(g70
g71
NtRp1295
(dp1296
g74
(dp1297
g82
I4
ssg83
g1291
sg76
(lp1298
S'formType=RFI&projectNum=1'
p1299
asbasbasbag69
(g85
g71
NtRp1300
(dp1301
g74
(dp1302
sg83
g834
sg76
(lp1303
g69
(g90
g71
NtRp1304
(dp1305
g74
(dp1306
g94
g95
ssg83
g1300
sg76
(lp1307
S'remote_addr'
p1308
asbag69
(g90
g71
NtRp1309
(dp1310
g74
(dp1311
g101
g102
ssg83
g1300
sg76
(lp1312
S':'
asbag69
(g90
g71
NtRp1313
(dp1314
g74
(dp1315
sg83
g1300
sg76
(lp1316
g69
(g70
g71
NtRp1317
(dp1318
g74
(dp1319
g82
I4
ssg83
g1313
sg76
(lp1320
g202
asbasbasbag69
(g85
g71
NtRp1321
(dp1322
g74
(dp1323
sg83
g834
sg76
(lp1324
g69
(g90
g71
NtRp1325
(dp1326
g74
(dp1327
g94
g95
ssg83
g1321
sg76
(lp1328
S'remote_port'
p1329
asbag69
(g90
g71
NtRp1330
(dp1331
g74
(dp1332
g101
g102
ssg83
g1321
sg76
(lp1333
S':'
asbag69
(g90
g71
NtRp1334
(dp1335
g74
(dp1336
sg83
g1321
sg76
(lp1337
g69
(g70
g71
NtRp1338
(dp1339
g74
(dp1340
g82
I4
ssg83
g1334
sg76
(lp1341
S'63731'
p1342
asbasbasbag69
(g85
g71
NtRp1343
(dp1344
g74
(dp1345
sg83
g834
sg76
(lp1346
g69
(g90
g71
NtRp1347
(dp1348
g74
(dp1349
g94
g95
ssg83
g1343
sg76
(lp1350
S'request_method'
p1351
asbag69
(g90
g71
NtRp1352
(dp1353
g74
(dp1354
g101
g102
ssg83
g1343
sg76
(lp1355
S':'
asbag69
(g90
g71
NtRp1356
(dp1357
g74
(dp1358
sg83
g1343
sg76
(lp1359
g69
(g70
g71
NtRp1360
(dp1361
g74
(dp1362
g82
I4
ssg83
g1356
sg76
(lp1363
S'GET'
p1364
asbasbasbag69
(g85
g71
NtRp1365
(dp1366
g74
(dp1367
sg83
g834
sg76
(lp1368
g69
(g90
g71
NtRp1369
(dp1370
g74
(dp1371
g94
g95
ssg83
g1365
sg76
(lp1372
S'script_name'
p1373
asbag69
(g90
g71
NtRp1374
(dp1375
g74
(dp1376
g101
g102
ssg83
g1365
sg76
(lp1377
S':'
asbag69
(g90
g71
NtRp1378
(dp1379
g74
(dp1380
sg83
g1365
sg76
(lp1381
g69
(g70
g71
NtRp1382
(dp1383
g74
(dp1384
g82
I4
ssg83
g1378
sg76
(lp1385
S''
asbasbasbag69
(g85
g71
NtRp1386
(dp1387
g74
(dp1388
sg83
g834
sg76
(lp1389
g69
(g90
g71
NtRp1390
(dp1391
g74
(dp1392
g94
g95
ssg83
g1386
sg76
(lp1393
S'server_name'
p1394
asbag69
(g90
g71
NtRp1395
(dp1396
g74
(dp1397
g101
g102
ssg83
g1386
sg76
(lp1398
S':'
asbag69
(g90
g71
NtRp1399
(dp1400
g74
(dp1401
sg83
g1386
sg76
(lp1402
g69
(g70
g71
NtRp1403
(dp1404
g74
(dp1405
g82
I4
ssg83
g1399
sg76
(lp1406
S'Nathans-MacBook-Pro.local'
p1407
asbasbasbag69
(g85
g71
NtRp1408
(dp1409
g74
(dp1410
sg83
g834
sg76
(lp1411
g69
(g90
g71
NtRp1412
(dp1413
g74
(dp1414
g94
g95
ssg83
g1408
sg76
(lp1415
S'server_port'
p1416
asbag69
(g90
g71
NtRp1417
(dp1418
g74
(dp1419
g101
g102
ssg83
g1408
sg76
(lp1420
S':'
asbag69
(g90
g71
NtRp1421
(dp1422
g74
(dp1423
sg83
g1408
sg76
(lp1424
g69
(g70
g71
NtRp1425
(dp1426
g74
(dp1427
g82
I4
ssg83
g1421
sg76
(lp1428
S'8000'
p1429
asbasbasbag69
(g85
g71
NtRp1430
(dp1431
g74
(dp1432
sg83
g834
sg76
(lp1433
g69
(g90
g71
NtRp1434
(dp1435
g74
(dp1436
g94
g95
ssg83
g1430
sg76
(lp1437
S'server_protocol'
p1438
asbag69
(g90
g71
NtRp1439
(dp1440
g74
(dp1441
g101
g102
ssg83
g1430
sg76
(lp1442
S':'
asbag69
(g90
g71
NtRp1443
(dp1444
g74
(dp1445
sg83
g1430
sg76
(lp1446
g69
(g70
g71
NtRp1447
(dp1448
g74
(dp1449
g82
I4
ssg83
g1443
sg76
(lp1450
S'HTTP/1.1'
p1451
asbasbasbag69
(g85
g71
NtRp1452
(dp1453
g74
(dp1454
sg83
g834
sg76
(lp1455
g69
(g90
g71
NtRp1456
(dp1457
g74
(dp1458
g94
g95
ssg83
g1452
sg76
(lp1459
S'server_software'
p1460
asbag69
(g90
g71
NtRp1461
(dp1462
g74
(dp1463
g101
g102
ssg83
g1452
sg76
(lp1464
S':'
asbag69
(g90
g71
NtRp1465
(dp1466
g74
(dp1467
sg83
g1452
sg76
(lp1468
g69
(g70
g71
NtRp1469
(dp1470
g74
(dp1471
g82
I4
ssg83
g1465
sg76
(lp1472
S'Rocket 1.2.4'
p1473
asbasbasbag69
(g85
g71
NtRp1474
(dp1475
g74
(dp1476
sg83
g834
sg76
(lp1477
g69
(g90
g71
NtRp1478
(dp1479
g74
(dp1480
g94
g95
ssg83
g1474
sg76
(lp1481
S'web2py_crontype'
p1482
asbag69
(g90
g71
NtRp1483
(dp1484
g74
(dp1485
g101
g102
ssg83
g1474
sg76
(lp1486
S':'
asbag69
(g90
g71
NtRp1487
(dp1488
g74
(dp1489
sg83
g1474
sg76
(lp1490
g69
(g70
g71
NtRp1491
(dp1492
g74
(dp1493
g82
I4
ssg83
g1487
sg76
(lp1494
S'hard'
p1495
asbasbasbag69
(g85
g71
NtRp1496
(dp1497
g74
(dp1498
sg83
g834
sg76
(lp1499
g69
(g90
g71
NtRp1500
(dp1501
g74
(dp1502
g94
g95
ssg83
g1496
sg76
(lp1503
S'web2py_path'
p1504
asbag69
(g90
g71
NtRp1505
(dp1506
g74
(dp1507
g101
g102
ssg83
g1496
sg76
(lp1508
S':'
asbag69
(g90
g71
NtRp1509
(dp1510
g74
(dp1511
sg83
g1496
sg76
(lp1512
g69
(g70
g71
NtRp1513
(dp1514
g74
(dp1515
g82
I4
ssg83
g1509
sg76
(lp1516
g881
asbasbasbag69
(g85
g71
NtRp1517
(dp1518
g74
(dp1519
sg83
g834
sg76
(lp1520
g69
(g90
g71
NtRp1521
(dp1522
g74
(dp1523
g94
g95
ssg83
g1517
sg76
(lp1524
S'web2py_version'
p1525
asbag69
(g90
g71
NtRp1526
(dp1527
g74
(dp1528
g101
g102
ssg83
g1517
sg76
(lp1529
S':'
asbag69
(g90
g71
NtRp1530
(dp1531
g74
(dp1532
sg83
g1517
sg76
(lp1533
g69
(g70
g71
NtRp1534
(dp1535
g74
(dp1536
g82
I4
ssg83
g1530
sg76
(lp1537
g69
(g78
g71
NtRp1538
(dp1539
g74
(dp1540
g82
I3
ssg83
Nsg76
(lp1541
g69
(g85
g71
NtRp1542
(dp1543
g74
(dp1544
sg83
g1538
sg76
(lp1545
g69
(g90
g71
NtRp1546
(dp1547
g74
(dp1548
sg83
g1542
sg76
(lp1549
g69
(g70
g71
NtRp1550
(dp1551
g74
(dp1552
g82
I3
ssg83
g1546
sg76
(lp1553
S'1'
asbasbasbag69
(g85
g71
NtRp1554
(dp1555
g74
(dp1556
sg83
g1538
sg76
(lp1557
g69
(g90
g71
NtRp1558
(dp1559
g74
(dp1560
sg83
g1554
sg76
(lp1561
g69
(g70
g71
NtRp1562
(dp1563
g74
(dp1564
g82
I3
ssg83
g1558
sg76
(lp1565
S'99'
p1566
asbasbasbag69
(g85
g71
NtRp1567
(dp1568
g74
(dp1569
sg83
g1538
sg76
(lp1570
g69
(g90
g71
NtRp1571
(dp1572
g74
(dp1573
sg83
g1567
sg76
(lp1574
g69
(g70
g71
NtRp1575
(dp1576
g74
(dp1577
g82
I3
ssg83
g1571
sg76
(lp1578
S'7'
asbasbasbag69
(g85
g71
NtRp1579
(dp1580
g74
(dp1581
sg83
g1538
sg76
(lp1582
g69
(g90
g71
NtRp1583
(dp1584
g74
(dp1585
sg83
g1579
sg76
(lp1586
g69
(g70
g71
NtRp1587
(dp1588
g74
(dp1589
g82
I3
ssg83
g1583
sg76
(lp1590
S'datetime.datetime(2012, 3, 4, 22, 12, 8)'
p1591
asbasbasbag69
(g85
g71
NtRp1592
(dp1593
g74
(dp1594
sg83
g1538
sg76
(lp1595
g69
(g90
g71
NtRp1596
(dp1597
g74
(dp1598
sg83
g1592
sg76
(lp1599
g69
(g70
g71
NtRp1600
(dp1601
g74
(dp1602
g82
I3
ssg83
g1596
sg76
(lp1603
S'stable'
p1604
asbasbasbasbasbasbasbag69
(g85
g71
NtRp1605
(dp1606
g74
(dp1607
sg83
g834
sg76
(lp1608
g69
(g90
g71
NtRp1609
(dp1610
g74
(dp1611
g94
g95
ssg83
g1605
sg76
(lp1612
S'wsgi_errors'
p1613
asbag69
(g90
g71
NtRp1614
(dp1615
g74
(dp1616
g101
g102
ssg83
g1605
sg76
(lp1617
S':'
asbag69
(g90
g71
NtRp1618
(dp1619
g74
(dp1620
sg83
g1605
sg76
(lp1621
g69
(g70
g71
NtRp1622
(dp1623
g74
(dp1624
g82
I4
ssg83
g1618
sg76
(lp1625
S"<open file '<stderr>', mode 'w' at 0x100282270>"
p1626
asbasbasbag69
(g85
g71
NtRp1627
(dp1628
g74
(dp1629
sg83
g834
sg76
(lp1630
g69
(g90
g71
NtRp1631
(dp1632
g74
(dp1633
g94
g95
ssg83
g1627
sg76
(lp1634
S'wsgi_file_wrapper'
p1635
asbag69
(g90
g71
NtRp1636
(dp1637
g74
(dp1638
g101
g102
ssg83
g1627
sg76
(lp1639
S':'
asbag69
(g90
g71
NtRp1640
(dp1641
g74
(dp1642
sg83
g1627
sg76
(lp1643
g69
(g70
g71
NtRp1644
(dp1645
g74
(dp1646
g82
I4
ssg83
g1640
sg76
(lp1647
S'<class wsgiref.util.FileWrapper at 0x1018cf188>'
p1648
asbasbasbag69
(g85
g71
NtRp1649
(dp1650
g74
(dp1651
sg83
g834
sg76
(lp1652
g69
(g90
g71
NtRp1653
(dp1654
g74
(dp1655
g94
g95
ssg83
g1649
sg76
(lp1656
S'wsgi_input'
p1657
asbag69
(g90
g71
NtRp1658
(dp1659
g74
(dp1660
g101
g102
ssg83
g1649
sg76
(lp1661
S':'
asbag69
(g90
g71
NtRp1662
(dp1663
g74
(dp1664
sg83
g1649
sg76
(lp1665
g69
(g70
g71
NtRp1666
(dp1667
g74
(dp1668
g82
I4
ssg83
g1662
sg76
(lp1669
S'<socket._fileobject object at 0x10be121d0>'
p1670
asbasbasbag69
(g85
g71
NtRp1671
(dp1672
g74
(dp1673
sg83
g834
sg76
(lp1674
g69
(g90
g71
NtRp1675
(dp1676
g74
(dp1677
g94
g95
ssg83
g1671
sg76
(lp1678
S'wsgi_multiprocess'
p1679
asbag69
(g90
g71
NtRp1680
(dp1681
g74
(dp1682
g101
g102
ssg83
g1671
sg76
(lp1683
S':'
asbag69
(g90
g71
NtRp1684
(dp1685
g74
(dp1686
sg83
g1671
sg76
(lp1687
g69
(g70
g71
NtRp1688
(dp1689
g74
(dp1690
g82
I4
ssg83
g1684
sg76
(lp1691
g112
asbasbasbag69
(g85
g71
NtRp1692
(dp1693
g74
(dp1694
sg83
g834
sg76
(lp1695
g69
(g90
g71
NtRp1696
(dp1697
g74
(dp1698
g94
g95
ssg83
g1692
sg76
(lp1699
S'wsgi_multithread'
p1700
asbag69
(g90
g71
NtRp1701
(dp1702
g74
(dp1703
g101
g102
ssg83
g1692
sg76
(lp1704
S':'
asbag69
(g90
g71
NtRp1705
(dp1706
g74
(dp1707
sg83
g1692
sg76
(lp1708
g69
(g70
g71
NtRp1709
(dp1710
g74
(dp1711
g82
I4
ssg83
g1705
sg76
(lp1712
S'True'
p1713
asbasbasbag69
(g85
g71
NtRp1714
(dp1715
g74
(dp1716
sg83
g834
sg76
(lp1717
g69
(g90
g71
NtRp1718
(dp1719
g74
(dp1720
g94
g95
ssg83
g1714
sg76
(lp1721
S'wsgi_run_once'
p1722
asbag69
(g90
g71
NtRp1723
(dp1724
g74
(dp1725
g101
g102
ssg83
g1714
sg76
(lp1726
S':'
asbag69
(g90
g71
NtRp1727
(dp1728
g74
(dp1729
sg83
g1714
sg76
(lp1730
g69
(g70
g71
NtRp1731
(dp1732
g74
(dp1733
g82
I4
ssg83
g1727
sg76
(lp1734
g112
asbasbasbag69
(g85
g71
NtRp1735
(dp1736
g74
(dp1737
sg83
g834
sg76
(lp1738
g69
(g90
g71
NtRp1739
(dp1740
g74
(dp1741
g94
g95
ssg83
g1735
sg76
(lp1742
S'wsgi_url_scheme'
p1743
asbag69
(g90
g71
NtRp1744
(dp1745
g74
(dp1746
g101
g102
ssg83
g1735
sg76
(lp1747
S':'
asbag69
(g90
g71
NtRp1748
(dp1749
g74
(dp1750
sg83
g1735
sg76
(lp1751
g69
(g70
g71
NtRp1752
(dp1753
g74
(dp1754
g82
I4
ssg83
g1748
sg76
(lp1755
S'http'
p1756
asbasbasbag69
(g85
g71
NtRp1757
(dp1758
g74
(dp1759
sg83
g834
sg76
(lp1760
g69
(g90
g71
NtRp1761
(dp1762
g74
(dp1763
g94
g95
ssg83
g1757
sg76
(lp1764
S'wsgi_version'
p1765
asbag69
(g90
g71
NtRp1766
(dp1767
g74
(dp1768
g101
g102
ssg83
g1757
sg76
(lp1769
S':'
asbag69
(g90
g71
NtRp1770
(dp1771
g74
(dp1772
sg83
g1757
sg76
(lp1773
g69
(g70
g71
NtRp1774
(dp1775
g74
(dp1776
g82
I4
ssg83
g1770
sg76
(lp1777
g69
(g78
g71
NtRp1778
(dp1779
g74
(dp1780
g82
I3
ssg83
Nsg76
(lp1781
g69
(g85
g71
NtRp1782
(dp1783
g74
(dp1784
sg83
g1778
sg76
(lp1785
g69
(g90
g71
NtRp1786
(dp1787
g74
(dp1788
sg83
g1782
sg76
(lp1789
g69
(g70
g71
NtRp1790
(dp1791
g74
(dp1792
g82
I3
ssg83
g1786
sg76
(lp1793
S'1'
asbasbasbag69
(g85
g71
NtRp1794
(dp1795
g74
(dp1796
sg83
g1778
sg76
(lp1797
g69
(g90
g71
NtRp1798
(dp1799
g74
(dp1800
sg83
g1794
sg76
(lp1801
g69
(g70
g71
NtRp1802
(dp1803
g74
(dp1804
g82
I3
ssg83
g1798
sg76
(lp1805
S'0'
asbasbasbasbasbasbasbasbasbasbasbag69
(g85
g71
NtRp1806
(dp1807
g74
(dp1808
sg83
g79
sg76
(lp1809
g69
(g90
g71
NtRp1810
(dp1811
g74
(dp1812
g94
g95
ssg83
g1806
sg76
(lp1813
S'extension'
p1814
asbag69
(g90
g71
NtRp1815
(dp1816
g74
(dp1817
g101
g102
ssg83
g1806
sg76
(lp1818
S':'
asbag69
(g90
g71
NtRp1819
(dp1820
g74
(dp1821
sg83
g1806
sg76
(lp1822
g69
(g70
g71
NtRp1823
(dp1824
g74
(dp1825
g82
I5
ssg83
g1819
sg76
(lp1826
S'html'
p1827
asbasbasbag69
(g85
g71
NtRp1828
(dp1829
g74
(dp1830
sg83
g79
sg76
(lp1831
g69
(g90
g71
NtRp1832
(dp1833
g74
(dp1834
g94
g95
ssg83
g1828
sg76
(lp1835
S'folder'
p1836
asbag69
(g90
g71
NtRp1837
(dp1838
g74
(dp1839
g101
g102
ssg83
g1828
sg76
(lp1840
S':'
asbag69
(g90
g71
NtRp1841
(dp1842
g74
(dp1843
sg83
g1828
sg76
(lp1844
g69
(g70
g71
NtRp1845
(dp1846
g74
(dp1847
g82
I5
ssg83
g1841
sg76
(lp1848
S'/Users/hainna01/Desktop/SeniorProject/finholt-senior-project/web2py/applications/SeniorProject/'
p1849
asbasbasbag69
(g85
g71
NtRp1850
(dp1851
g74
(dp1852
sg83
g79
sg76
(lp1853
g69
(g90
g71
NtRp1854
(dp1855
g74
(dp1856
g94
g95
ssg83
g1850
sg76
(lp1857
S'function'
p1858
asbag69
(g90
g71
NtRp1859
(dp1860
g74
(dp1861
g101
g102
ssg83
g1850
sg76
(lp1862
S':'
asbag69
(g90
g71
NtRp1863
(dp1864
g74
(dp1865
sg83
g1850
sg76
(lp1866
g69
(g70
g71
NtRp1867
(dp1868
g74
(dp1869
g82
I5
ssg83
g1863
sg76
(lp1870
S'formtable'
p1871
asbasbasbag69
(g85
g71
NtRp1872
(dp1873
g74
(dp1874
sg83
g79
sg76
(lp1875
g69
(g90
g71
NtRp1876
(dp1877
g74
(dp1878
g94
g95
ssg83
g1872
sg76
(lp1879
S'get_vars'
p1880
asbag69
(g90
g71
NtRp1881
(dp1882
g74
(dp1883
g101
g102
ssg83
g1872
sg76
(lp1884
S':'
asbag69
(g90
g71
NtRp1885
(dp1886
g74
(dp1887
sg83
g1872
sg76
(lp1888
g69
(g70
g71
NtRp1889
(dp1890
g74
(dp1891
g82
I5
ssg83
g1885
sg76
(lp1892
g69
(g78
g71
NtRp1893
(dp1894
g74
(dp1895
g82
I4
ssg83
Nsg76
(lp1896
g69
(g85
g71
NtRp1897
(dp1898
g74
(dp1899
sg83
g1893
sg76
(lp1900
g69
(g90
g71
NtRp1901
(dp1902
g74
(dp1903
g94
g95
ssg83
g1897
sg76
(lp1904
S'formType'
p1905
asbag69
(g90
g71
NtRp1906
(dp1907
g74
(dp1908
g101
g102
ssg83
g1897
sg76
(lp1909
S':'
asbag69
(g90
g71
NtRp1910
(dp1911
g74
(dp1912
sg83
g1897
sg76
(lp1913
g69
(g70
g71
NtRp1914
(dp1915
g74
(dp1916
g82
I4
ssg83
g1910
sg76
(lp1917
S'RFI'
p1918
asbasbasbag69
(g85
g71
NtRp1919
(dp1920
g74
(dp1921
sg83
g1893
sg76
(lp1922
g69
(g90
g71
NtRp1923
(dp1924
g74
(dp1925
g94
g95
ssg83
g1919
sg76
(lp1926
S'projectNum'
p1927
asbag69
(g90
g71
NtRp1928
(dp1929
g74
(dp1930
g101
g102
ssg83
g1919
sg76
(lp1931
S':'
asbag69
(g90
g71
NtRp1932
(dp1933
g74
(dp1934
sg83
g1919
sg76
(lp1935
g69
(g70
g71
NtRp1936
(dp1937
g74
(dp1938
g82
I4
ssg83
g1932
sg76
(lp1939
S'1'
asbasbasbasbasbasbasbag69
(g85
g71
NtRp1940
(dp1941
g74
(dp1942
sg83
g79
sg76
(lp1943
g69
(g90
g71
NtRp1944
(dp1945
g74
(dp1946
g94
g95
ssg83
g1940
sg76
(lp1947
S'global_settings'
p1948
asbag69
(g90
g71
NtRp1949
(dp1950
g74
(dp1951
g101
g102
ssg83
g1940
sg76
(lp1952
S':'
asbag69
(g90
g71
NtRp1953
(dp1954
g74
(dp1955
sg83
g1940
sg76
(lp1956
g69
(g70
g71
NtRp1957
(dp1958
g74
(dp1959
g82
I5
ssg83
g1953
sg76
(lp1960
g69
(g78
g71
NtRp1961
(dp1962
g74
(dp1963
g82
I4
ssg83
Nsg76
(lp1964
g69
(g85
g71
NtRp1965
(dp1966
g74
(dp1967
sg83
g1961
sg76
(lp1968
g69
(g90
g71
NtRp1969
(dp1970
g74
(dp1971
g94
g95
ssg83
g1965
sg76
(lp1972
g846
asbag69
(g90
g71
NtRp1973
(dp1974
g74
(dp1975
g101
g102
ssg83
g1965
sg76
(lp1976
S':'
asbag69
(g90
g71
NtRp1977
(dp1978
g74
(dp1979
sg83
g1965
sg76
(lp1980
g69
(g70
g71
NtRp1981
(dp1982
g74
(dp1983
g82
I4
ssg83
g1977
sg76
(lp1984
S"set(['/Users/hainna01/Desktop/SeniorProject/finholt-senior-project/web2py/applications/admin/', '/Users/hainna01/Desktop/SeniorProject/finholt-senior-project/web2py/applications/SeniorProject/', '/Users/hainna01/Desktop/SeniorProject/finholt-senior-project/web2py/applications/welcome/'])"
p1985
asbasbasbag69
(g85
g71
NtRp1986
(dp1987
g74
(dp1988
sg83
g1961
sg76
(lp1989
g69
(g90
g71
NtRp1990
(dp1991
g74
(dp1992
g94
g95
ssg83
g1986
sg76
(lp1993
g868
asbag69
(g90
g71
NtRp1994
(dp1995
g74
(dp1996
g101
g102
ssg83
g1986
sg76
(lp1997
S':'
asbag69
(g90
g71
NtRp1998
(dp1999
g74
(dp2000
sg83
g1986
sg76
(lp2001
g69
(g70
g71
NtRp2002
(dp2003
g74
(dp2004
g82
I4
ssg83
g1998
sg76
(lp2005
g881
asbasbasbag69
(g85
g71
NtRp2006
(dp2007
g74
(dp2008
sg83
g1961
sg76
(lp2009
g69
(g90
g71
NtRp2010
(dp2011
g74
(dp2012
g94
g95
ssg83
g2006
sg76
(lp2013
g890
asbag69
(g90
g71
NtRp2014
(dp2015
g74
(dp2016
g101
g102
ssg83
g2006
sg76
(lp2017
S':'
asbag69
(g90
g71
NtRp2018
(dp2019
g74
(dp2020
sg83
g2006
sg76
(lp2021
g69
(g70
g71
NtRp2022
(dp2023
g74
(dp2024
g82
I4
ssg83
g2018
sg76
(lp2025
g69
(g78
g71
NtRp2026
(dp2027
g74
(dp2028
g82
I3
ssg83
Nsg76
(lp2029
sbasbasbasbag69
(g85
g71
NtRp2030
(dp2031
g74
(dp2032
sg83
g1961
sg76
(lp2033
g69
(g90
g71
NtRp2034
(dp2035
g74
(dp2036
g94
g95
ssg83
g2030
sg76
(lp2037
g915
asbag69
(g90
g71
NtRp2038
(dp2039
g74
(dp2040
g101
g102
ssg83
g2030
sg76
(lp2041
S':'
asbag69
(g90
g71
NtRp2042
(dp2043
g74
(dp2044
sg83
g2030
sg76
(lp2045
g69
(g70
g71
NtRp2046
(dp2047
g74
(dp2048
g82
I4
ssg83
g2042
sg76
(lp2049
S"<Values at 0x1019b13f8: {'verbose': False, 'ip': '127.0.0.1', 'shutdown_timeout': 5, 'taskbar': False, 'nocron': False, 'pid_filename': 'httpserver.pid', 'maxthreads': None, 'softcron': False, 'server_name': 'Nathans-MacBook-Pro.local', 'bpython': False, 'nogui': False, 'port': 8000, 'extcron': False, 'debuglevel': 30, 'test': None, 'folder': '/Users/hainna01/Desktop/SeniorProject/finholt-senior-project/web2py', 'config': '', 'import_models': False, 'winservice': '', 'shell': None, 'run': '', 'log_filename': 'httpserver.log', 'args': [''], 'socket_timeout': 5, 'ssl_ca_certificate': None, 'scheduler': None, 'profiler_filename': None, 'ssl_private_key': '', 'password': '<ask>', 'request_queue_size': 5, 'ssl_certificate': '', 'cronjob': False, 'numthreads': None, 'quiet': False, 'interfaces': None, 'minthreads': None, 'timeout': 10, 'plain': False, 'nobanner': False}>"
p2050
asbasbasbag69
(g85
g71
NtRp2051
(dp2052
g74
(dp2053
sg83
g1961
sg76
(lp2054
g69
(g90
g71
NtRp2055
(dp2056
g74
(dp2057
g94
g95
ssg83
g2051
sg76
(lp2058
g937
asbag69
(g90
g71
NtRp2059
(dp2060
g74
(dp2061
g101
g102
ssg83
g2051
sg76
(lp2062
S':'
asbag69
(g90
g71
NtRp2063
(dp2064
g74
(dp2065
sg83
g2051
sg76
(lp2066
g69
(g70
g71
NtRp2067
(dp2068
g74
(dp2069
g82
I4
ssg83
g2063
sg76
(lp2070
S'set([])'
p2071
asbasbasbag69
(g85
g71
NtRp2072
(dp2073
g74
(dp2074
sg83
g1961
sg76
(lp2075
g69
(g90
g71
NtRp2076
(dp2077
g74
(dp2078
g94
g95
ssg83
g2072
sg76
(lp2079
g959
asbag69
(g90
g71
NtRp2080
(dp2081
g74
(dp2082
g101
g102
ssg83
g2072
sg76
(lp2083
S':'
asbag69
(g90
g71
NtRp2084
(dp2085
g74
(dp2086
sg83
g2072
sg76
(lp2087
g69
(g70
g71
NtRp2088
(dp2089
g74
(dp2090
g82
I4
ssg83
g2084
sg76
(lp2091
g112
asbasbasbag69
(g85
g71
NtRp2092
(dp2093
g74
(dp2094
sg83
g1961
sg76
(lp2095
g69
(g90
g71
NtRp2096
(dp2097
g74
(dp2098
g94
g95
ssg83
g2092
sg76
(lp2099
g980
asbag69
(g90
g71
NtRp2100
(dp2101
g74
(dp2102
g101
g102
ssg83
g2092
sg76
(lp2103
S':'
asbag69
(g90
g71
NtRp2104
(dp2105
g74
(dp2106
sg83
g2092
sg76
(lp2107
g69
(g70
g71
NtRp2108
(dp2109
g74
(dp2110
g82
I4
ssg83
g2104
sg76
(lp2111
g993
asbasbasbag69
(g85
g71
NtRp2112
(dp2113
g74
(dp2114
sg83
g1961
sg76
(lp2115
g69
(g90
g71
NtRp2116
(dp2117
g74
(dp2118
g94
g95
ssg83
g2112
sg76
(lp2119
g1222
asbag69
(g90
g71
NtRp2120
(dp2121
g74
(dp2122
g101
g102
ssg83
g2112
sg76
(lp2123
S':'
asbag69
(g90
g71
NtRp2124
(dp2125
g74
(dp2126
sg83
g2112
sg76
(lp2127
g69
(g70
g71
NtRp2128
(dp2129
g74
(dp2130
g82
I4
ssg83
g2124
sg76
(lp2131
g112
asbasbasbag69
(g85
g71
NtRp2132
(dp2133
g74
(dp2134
sg83
g1961
sg76
(lp2135
g69
(g90
g71
NtRp2136
(dp2137
g74
(dp2138
g94
g95
ssg83
g2132
sg76
(lp2139
g1243
asbag69
(g90
g71
NtRp2140
(dp2141
g74
(dp2142
g101
g102
ssg83
g2132
sg76
(lp2143
S':'
asbag69
(g90
g71
NtRp2144
(dp2145
g74
(dp2146
sg83
g2132
sg76
(lp2147
g69
(g70
g71
NtRp2148
(dp2149
g74
(dp2150
g82
I4
ssg83
g2144
sg76
(lp2151
g112
asbasbasbag69
(g85
g71
NtRp2152
(dp2153
g74
(dp2154
sg83
g1961
sg76
(lp2155
g69
(g90
g71
NtRp2156
(dp2157
g74
(dp2158
g94
g95
ssg83
g2152
sg76
(lp2159
g1482
asbag69
(g90
g71
NtRp2160
(dp2161
g74
(dp2162
g101
g102
ssg83
g2152
sg76
(lp2163
S':'
asbag69
(g90
g71
NtRp2164
(dp2165
g74
(dp2166
sg83
g2152
sg76
(lp2167
g69
(g70
g71
NtRp2168
(dp2169
g74
(dp2170
g82
I4
ssg83
g2164
sg76
(lp2171
g1495
asbasbasbag69
(g85
g71
NtRp2172
(dp2173
g74
(dp2174
sg83
g1961
sg76
(lp2175
g69
(g90
g71
NtRp2176
(dp2177
g74
(dp2178
g94
g95
ssg83
g2172
sg76
(lp2179
g1525
asbag69
(g90
g71
NtRp2180
(dp2181
g74
(dp2182
g101
g102
ssg83
g2172
sg76
(lp2183
S':'
asbag69
(g90
g71
NtRp2184
(dp2185
g74
(dp2186
sg83
g2172
sg76
(lp2187
g69
(g70
g71
NtRp2188
(dp2189
g74
(dp2190
g82
I4
ssg83
g2184
sg76
(lp2191
g69
(g78
g71
NtRp2192
(dp2193
g74
(dp2194
g82
I3
ssg83
Nsg76
(lp2195
g69
(g85
g71
NtRp2196
(dp2197
g74
(dp2198
sg83
g2192
sg76
(lp2199
g69
(g90
g71
NtRp2200
(dp2201
g74
(dp2202
sg83
g2196
sg76
(lp2203
g69
(g70
g71
NtRp2204
(dp2205
g74
(dp2206
g82
I3
ssg83
g2200
sg76
(lp2207
S'1'
asbasbasbag69
(g85
g71
NtRp2208
(dp2209
g74
(dp2210
sg83
g2192
sg76
(lp2211
g69
(g90
g71
NtRp2212
(dp2213
g74
(dp2214
sg83
g2208
sg76
(lp2215
g69
(g70
g71
NtRp2216
(dp2217
g74
(dp2218
g82
I3
ssg83
g2212
sg76
(lp2219
S'99'
p2220
asbasbasbag69
(g85
g71
NtRp2221
(dp2222
g74
(dp2223
sg83
g2192
sg76
(lp2224
g69
(g90
g71
NtRp2225
(dp2226
g74
(dp2227
sg83
g2221
sg76
(lp2228
g69
(g70
g71
NtRp2229
(dp2230
g74
(dp2231
g82
I3
ssg83
g2225
sg76
(lp2232
S'7'
asbasbasbag69
(g85
g71
NtRp2233
(dp2234
g74
(dp2235
sg83
g2192
sg76
(lp2236
g69
(g90
g71
NtRp2237
(dp2238
g74
(dp2239
sg83
g2233
sg76
(lp2240
g69
(g70
g71
NtRp2241
(dp2242
g74
(dp2243
g82
I3
ssg83
g2237
sg76
(lp2244
S'datetime.datetime(2012, 3, 4, 22, 12, 8)'
p2245
asbasbasbag69
(g85
g71
NtRp2246
(dp2247
g74
(dp2248
sg83
g2192
sg76
(lp2249
g69
(g90
g71
NtRp2250
(dp2251
g74
(dp2252
sg83
g2246
sg76
(lp2253
g69
(g70
g71
NtRp2254
(dp2255
g74
(dp2256
g82
I3
ssg83
g2250
sg76
(lp2257
g1604
asbasbasbasbasbasbasbasbasbasbasbag69
(g85
g71
NtRp2258
(dp2259
g74
(dp2260
sg83
g79
sg76
(lp2261
g69
(g90
g71
NtRp2262
(dp2263
g74
(dp2264
g94
g95
ssg83
g2258
sg76
(lp2265
S'is_https'
p2266
asbag69
(g90
g71
NtRp2267
(dp2268
g74
(dp2269
g101
g102
ssg83
g2258
sg76
(lp2270
S':'
asbag69
(g90
g71
NtRp2271
(dp2272
g74
(dp2273
sg83
g2258
sg76
(lp2274
g69
(g70
g71
NtRp2275
(dp2276
g74
(dp2277
g82
I5
ssg83
g2271
sg76
(lp2278
g112
asbasbasbag69
(g85
g71
NtRp2279
(dp2280
g74
(dp2281
sg83
g79
sg76
(lp2282
g69
(g90
g71
NtRp2283
(dp2284
g74
(dp2285
g94
g95
ssg83
g2279
sg76
(lp2286
S'is_local'
p2287
asbag69
(g90
g71
NtRp2288
(dp2289
g74
(dp2290
g101
g102
ssg83
g2279
sg76
(lp2291
S':'
asbag69
(g90
g71
NtRp2292
(dp2293
g74
(dp2294
sg83
g2279
sg76
(lp2295
g69
(g70
g71
NtRp2296
(dp2297
g74
(dp2298
g82
I5
ssg83
g2292
sg76
(lp2299
g1713
asbasbasbag69
(g85
g71
NtRp2300
(dp2301
g74
(dp2302
sg83
g79
sg76
(lp2303
g69
(g90
g71
NtRp2304
(dp2305
g74
(dp2306
g94
g95
ssg83
g2300
sg76
(lp2307
S'is_restful'
p2308
asbag69
(g90
g71
NtRp2309
(dp2310
g74
(dp2311
g101
g102
ssg83
g2300
sg76
(lp2312
S':'
asbag69
(g90
g71
NtRp2313
(dp2314
g74
(dp2315
sg83
g2300
sg76
(lp2316
g69
(g70
g71
NtRp2317
(dp2318
g74
(dp2319
g82
I5
ssg83
g2313
sg76
(lp2320
g112
asbasbasbag69
(g85
g71
NtRp2321
(dp2322
g74
(dp2323
sg83
g79
sg76
(lp2324
g69
(g90
g71
NtRp2325
(dp2326
g74
(dp2327
g94
g95
ssg83
g2321
sg76
(lp2328
S'now'
p2329
asbag69
(g90
g71
NtRp2330
(dp2331
g74
(dp2332
g101
g102
ssg83
g2321
sg76
(lp2333
S':'
asbag69
(g90
g71
NtRp2334
(dp2335
g74
(dp2336
sg83
g2321
sg76
(lp2337
g69
(g70
g71
NtRp2338
(dp2339
g74
(dp2340
g82
I5
ssg83
g2334
sg76
(lp2341
S'datetime.datetime(2012, 12, 3, 10, 2, 2, 335768)'
p2342
asbasbasbag69
(g85
g71
NtRp2343
(dp2344
g74
(dp2345
sg83
g79
sg76
(lp2346
g69
(g90
g71
NtRp2347
(dp2348
g74
(dp2349
g94
g95
ssg83
g2343
sg76
(lp2350
S'post_vars'
p2351
asbag69
(g90
g71
NtRp2352
(dp2353
g74
(dp2354
g101
g102
ssg83
g2343
sg76
(lp2355
S':'
asbag69
(g90
g71
NtRp2356
(dp2357
g74
(dp2358
sg83
g2343
sg76
(lp2359
g69
(g70
g71
NtRp2360
(dp2361
g74
(dp2362
g82
I5
ssg83
g2356
sg76
(lp2363
g69
(g78
g71
NtRp2364
(dp2365
g74
(dp2366
g82
I4
ssg83
Nsg76
(lp2367
sbasbasbasbag69
(g85
g71
NtRp2368
(dp2369
g74
(dp2370
sg83
g79
sg76
(lp2371
g69
(g90
g71
NtRp2372
(dp2373
g74
(dp2374
g94
g95
ssg83
g2368
sg76
(lp2375
S'url'
p2376
asbag69
(g90
g71
NtRp2377
(dp2378
g74
(dp2379
g101
g102
ssg83
g2368
sg76
(lp2380
S':'
asbag69
(g90
g71
NtRp2381
(dp2382
g74
(dp2383
sg83
g2368
sg76
(lp2384
g69
(g70
g71
NtRp2385
(dp2386
g74
(dp2387
g82
I5
ssg83
g2381
sg76
(lp2388
S'/SeniorProject/default/formtable'
p2389
asbasbasbag69
(g85
g71
NtRp2390
(dp2391
g74
(dp2392
sg83
g79
sg76
(lp2393
g69
(g90
g71
NtRp2394
(dp2395
g74
(dp2396
g94
g95
ssg83
g2390
sg76
(lp2397
S'utcnow'
p2398
asbag69
(g90
g71
NtRp2399
(dp2400
g74
(dp2401
g101
g102
ssg83
g2390
sg76
(lp2402
S':'
asbag69
(g90
g71
NtRp2403
(dp2404
g74
(dp2405
sg83
g2390
sg76
(lp2406
g69
(g70
g71
NtRp2407
(dp2408
g74
(dp2409
g82
I5
ssg83
g2403
sg76
(lp2410
S'datetime.datetime(2012, 12, 3, 16, 2, 2, 335785)'
p2411
asbasbasbag69
(g85
g71
NtRp2412
(dp2413
g74
(dp2414
sg83
g79
sg76
(lp2415
g69
(g90
g71
NtRp2416
(dp2417
g74
(dp2418
g94
g95
ssg83
g2412
sg76
(lp2419
S'uuid'
p2420
asbag69
(g90
g71
NtRp2421
(dp2422
g74
(dp2423
g101
g102
ssg83
g2412
sg76
(lp2424
S':'
asbag69
(g90
g71
NtRp2425
(dp2426
g74
(dp2427
sg83
g2412
sg76
(lp2428
g69
(g70
g71
NtRp2429
(dp2430
g74
(dp2431
g82
I5
ssg83
g2425
sg76
(lp2432
S'SeniorProject/127.0.0.1.2012-12-03.10-02-02.b0fd9045-5275-4d1c-97a4-79c70e73ea12'
p2433
asbasbasbag69
(g85
g71
NtRp2434
(dp2435
g74
(dp2436
sg83
g79
sg76
(lp2437
g69
(g90
g71
NtRp2438
(dp2439
g74
(dp2440
g94
g95
ssg83
g2434
sg76
(lp2441
S'vars'
p2442
asbag69
(g90
g71
NtRp2443
(dp2444
g74
(dp2445
g101
g102
ssg83
g2434
sg76
(lp2446
S':'
asbag69
(g90
g71
NtRp2447
(dp2448
g74
(dp2449
sg83
g2434
sg76
(lp2450
g69
(g70
g71
NtRp2451
(dp2452
g74
(dp2453
g82
I5
ssg83
g2447
sg76
(lp2454
g69
(g78
g71
NtRp2455
(dp2456
g74
(dp2457
g82
I4
ssg83
Nsg76
(lp2458
g69
(g85
g71
NtRp2459
(dp2460
g74
(dp2461
sg83
g2455
sg76
(lp2462
g69
(g90
g71
NtRp2463
(dp2464
g74
(dp2465
g94
g95
ssg83
g2459
sg76
(lp2466
g1905
asbag69
(g90
g71
NtRp2467
(dp2468
g74
(dp2469
g101
g102
ssg83
g2459
sg76
(lp2470
S':'
asbag69
(g90
g71
NtRp2471
(dp2472
g74
(dp2473
sg83
g2459
sg76
(lp2474
g69
(g70
g71
NtRp2475
(dp2476
g74
(dp2477
g82
I4
ssg83
g2471
sg76
(lp2478
g1918
asbasbasbag69
(g85
g71
NtRp2479
(dp2480
g74
(dp2481
sg83
g2455
sg76
(lp2482
g69
(g90
g71
NtRp2483
(dp2484
g74
(dp2485
g94
g95
ssg83
g2479
sg76
(lp2486
g1927
asbag69
(g90
g71
NtRp2487
(dp2488
g74
(dp2489
g101
g102
ssg83
g2479
sg76
(lp2490
S':'
asbag69
(g90
g71
NtRp2491
(dp2492
g74
(dp2493
sg83
g2479
sg76
(lp2494
g69
(g70
g71
NtRp2495
(dp2496
g74
(dp2497
g82
I4
ssg83
g2491
sg76
(lp2498
S'1'
asbasbasbasbasbasbasbag69
(g85
g71
NtRp2499
(dp2500
g74
(dp2501
sg83
g79
sg76
(lp2502
g69
(g90
g71
NtRp2503
(dp2504
g74
(dp2505
g94
g95
ssg83
g2499
sg76
(lp2506
S'wsgi'
p2507
asbag69
(g90
g71
NtRp2508
(dp2509
g74
(dp2510
g101
g102
ssg83
g2499
sg76
(lp2511
S':'
asbag69
(g90
g71
NtRp2512
(dp2513
g74
(dp2514
sg83
g2499
sg76
(lp2515
g69
(g70
g71
NtRp2516
(dp2517
g74
(dp2518
g82
I5
ssg83
g2512
sg76
(lp2519
g69
(g78
g71
NtRp2520
(dp2521
g74
(dp2522
g82
I4
ssg83
Nsg76
(lp2523
g69
(g85
g71
NtRp2524
(dp2525
g74
(dp2526
sg83
g2520
sg76
(lp2527
g69
(g90
g71
NtRp2528
(dp2529
g74
(dp2530
g94
g95
ssg83
g2524
sg76
(lp2531
S'environ'
p2532
asbag69
(g90
g71
NtRp2533
(dp2534
g74
(dp2535
g101
g102
ssg83
g2524
sg76
(lp2536
S':'
asbag69
(g90
g71
NtRp2537
(dp2538
g74
(dp2539
sg83
g2524
sg76
(lp2540
g69
(g70
g71
NtRp2541
(dp2542
g74
(dp2543
g82
I4
ssg83
g2537
sg76
(lp2544
g69
(g78
g71
NtRp2545
(dp2546
g74
(dp2547
g82
I3
ssg83
Nsg76
(lp2548
g69
(g85
g71
NtRp2549
(dp2550
g74
(dp2551
sg83
g2545
sg76
(lp2552
g69
(g90
g71
NtRp2553
(dp2554
g74
(dp2555
g94
g95
ssg83
g2549
sg76
(lp2556
S'HTTP_ACCEPT'
p2557
asbag69
(g90
g71
NtRp2558
(dp2559
g74
(dp2560
g101
g102
ssg83
g2549
sg76
(lp2561
S':'
asbag69
(g90
g71
NtRp2562
(dp2563
g74
(dp2564
sg83
g2549
sg76
(lp2565
g69
(g70
g71
NtRp2566
(dp2567
g74
(dp2568
g82
I3
ssg83
g2562
sg76
(lp2569
g1015
asbasbasbag69
(g85
g71
NtRp2570
(dp2571
g74
(dp2572
sg83
g2545
sg76
(lp2573
g69
(g90
g71
NtRp2574
(dp2575
g74
(dp2576
g94
g95
ssg83
g2570
sg76
(lp2577
S'HTTP_ACCEPT_CHARSET'
p2578
asbag69
(g90
g71
NtRp2579
(dp2580
g74
(dp2581
g101
g102
ssg83
g2570
sg76
(lp2582
S':'
asbag69
(g90
g71
NtRp2583
(dp2584
g74
(dp2585
sg83
g2570
sg76
(lp2586
g69
(g70
g71
NtRp2587
(dp2588
g74
(dp2589
g82
I3
ssg83
g2583
sg76
(lp2590
g1037
asbasbasbag69
(g85
g71
NtRp2591
(dp2592
g74
(dp2593
sg83
g2545
sg76
(lp2594
g69
(g90
g71
NtRp2595
(dp2596
g74
(dp2597
g94
g95
ssg83
g2591
sg76
(lp2598
S'HTTP_ACCEPT_ENCODING'
p2599
asbag69
(g90
g71
NtRp2600
(dp2601
g74
(dp2602
g101
g102
ssg83
g2591
sg76
(lp2603
S':'
asbag69
(g90
g71
NtRp2604
(dp2605
g74
(dp2606
sg83
g2591
sg76
(lp2607
g69
(g70
g71
NtRp2608
(dp2609
g74
(dp2610
g82
I3
ssg83
g2604
sg76
(lp2611
g1059
asbasbasbag69
(g85
g71
NtRp2612
(dp2613
g74
(dp2614
sg83
g2545
sg76
(lp2615
g69
(g90
g71
NtRp2616
(dp2617
g74
(dp2618
g94
g95
ssg83
g2612
sg76
(lp2619
S'HTTP_ACCEPT_LANGUAGE'
p2620
asbag69
(g90
g71
NtRp2621
(dp2622
g74
(dp2623
g101
g102
ssg83
g2612
sg76
(lp2624
S':'
asbag69
(g90
g71
NtRp2625
(dp2626
g74
(dp2627
sg83
g2612
sg76
(lp2628
g69
(g70
g71
NtRp2629
(dp2630
g74
(dp2631
g82
I3
ssg83
g2625
sg76
(lp2632
g1081
asbasbasbag69
(g85
g71
NtRp2633
(dp2634
g74
(dp2635
sg83
g2545
sg76
(lp2636
g69
(g90
g71
NtRp2637
(dp2638
g74
(dp2639
g94
g95
ssg83
g2633
sg76
(lp2640
S'HTTP_CACHE_CONTROL'
p2641
asbag69
(g90
g71
NtRp2642
(dp2643
g74
(dp2644
g101
g102
ssg83
g2633
sg76
(lp2645
S':'
asbag69
(g90
g71
NtRp2646
(dp2647
g74
(dp2648
sg83
g2633
sg76
(lp2649
g69
(g70
g71
NtRp2650
(dp2651
g74
(dp2652
g82
I3
ssg83
g2646
sg76
(lp2653
g1103
asbasbasbag69
(g85
g71
NtRp2654
(dp2655
g74
(dp2656
sg83
g2545
sg76
(lp2657
g69
(g90
g71
NtRp2658
(dp2659
g74
(dp2660
g94
g95
ssg83
g2654
sg76
(lp2661
S'HTTP_CONNECTION'
p2662
asbag69
(g90
g71
NtRp2663
(dp2664
g74
(dp2665
g101
g102
ssg83
g2654
sg76
(lp2666
S':'
asbag69
(g90
g71
NtRp2667
(dp2668
g74
(dp2669
sg83
g2654
sg76
(lp2670
g69
(g70
g71
NtRp2671
(dp2672
g74
(dp2673
g82
I3
ssg83
g2667
sg76
(lp2674
g1125
asbasbasbag69
(g85
g71
NtRp2675
(dp2676
g74
(dp2677
sg83
g2545
sg76
(lp2678
g69
(g90
g71
NtRp2679
(dp2680
g74
(dp2681
g94
g95
ssg83
g2675
sg76
(lp2682
S'HTTP_COOKIE'
p2683
asbag69
(g90
g71
NtRp2684
(dp2685
g74
(dp2686
g101
g102
ssg83
g2675
sg76
(lp2687
S':'
asbag69
(g90
g71
NtRp2688
(dp2689
g74
(dp2690
sg83
g2675
sg76
(lp2691
g69
(g70
g71
NtRp2692
(dp2693
g74
(dp2694
g82
I3
ssg83
g2688
sg76
(lp2695
g1147
asbasbasbag69
(g85
g71
NtRp2696
(dp2697
g74
(dp2698
sg83
g2545
sg76
(lp2699
g69
(g90
g71
NtRp2700
(dp2701
g74
(dp2702
g94
g95
ssg83
g2696
sg76
(lp2703
S'HTTP_HOST'
p2704
asbag69
(g90
g71
NtRp2705
(dp2706
g74
(dp2707
g101
g102
ssg83
g2696
sg76
(lp2708
S':'
asbag69
(g90
g71
NtRp2709
(dp2710
g74
(dp2711
sg83
g2696
sg76
(lp2712
g69
(g70
g71
NtRp2713
(dp2714
g74
(dp2715
g82
I3
ssg83
g2709
sg76
(lp2716
g1169
asbasbasbag69
(g85
g71
NtRp2717
(dp2718
g74
(dp2719
sg83
g2545
sg76
(lp2720
g69
(g90
g71
NtRp2721
(dp2722
g74
(dp2723
g94
g95
ssg83
g2717
sg76
(lp2724
S'HTTP_REFERER'
p2725
asbag69
(g90
g71
NtRp2726
(dp2727
g74
(dp2728
g101
g102
ssg83
g2717
sg76
(lp2729
S':'
asbag69
(g90
g71
NtRp2730
(dp2731
g74
(dp2732
sg83
g2717
sg76
(lp2733
g69
(g70
g71
NtRp2734
(dp2735
g74
(dp2736
g82
I3
ssg83
g2730
sg76
(lp2737
g1191
asbasbasbag69
(g85
g71
NtRp2738
(dp2739
g74
(dp2740
sg83
g2545
sg76
(lp2741
g69
(g90
g71
NtRp2742
(dp2743
g74
(dp2744
g94
g95
ssg83
g2738
sg76
(lp2745
S'HTTP_USER_AGENT'
p2746
asbag69
(g90
g71
NtRp2747
(dp2748
g74
(dp2749
g101
g102
ssg83
g2738
sg76
(lp2750
S':'
asbag69
(g90
g71
NtRp2751
(dp2752
g74
(dp2753
sg83
g2738
sg76
(lp2754
g69
(g70
g71
NtRp2755
(dp2756
g74
(dp2757
g82
I3
ssg83
g2751
sg76
(lp2758
g1213
asbasbasbag69
(g85
g71
NtRp2759
(dp2760
g74
(dp2761
sg83
g2545
sg76
(lp2762
g69
(g90
g71
NtRp2763
(dp2764
g74
(dp2765
g94
g95
ssg83
g2759
sg76
(lp2766
S'PATH_INFO'
p2767
asbag69
(g90
g71
NtRp2768
(dp2769
g74
(dp2770
g101
g102
ssg83
g2759
sg76
(lp2771
S':'
asbag69
(g90
g71
NtRp2772
(dp2773
g74
(dp2774
sg83
g2759
sg76
(lp2775
g69
(g70
g71
NtRp2776
(dp2777
g74
(dp2778
g82
I3
ssg83
g2772
sg76
(lp2779
g1277
asbasbasbag69
(g85
g71
NtRp2780
(dp2781
g74
(dp2782
sg83
g2545
sg76
(lp2783
g69
(g90
g71
NtRp2784
(dp2785
g74
(dp2786
g94
g95
ssg83
g2780
sg76
(lp2787
S'QUERY_STRING'
p2788
asbag69
(g90
g71
NtRp2789
(dp2790
g74
(dp2791
g101
g102
ssg83
g2780
sg76
(lp2792
S':'
asbag69
(g90
g71
NtRp2793
(dp2794
g74
(dp2795
sg83
g2780
sg76
(lp2796
g69
(g70
g71
NtRp2797
(dp2798
g74
(dp2799
g82
I3
ssg83
g2793
sg76
(lp2800
g1299
asbasbasbag69
(g85
g71
NtRp2801
(dp2802
g74
(dp2803
sg83
g2545
sg76
(lp2804
g69
(g90
g71
NtRp2805
(dp2806
g74
(dp2807
g94
g95
ssg83
g2801
sg76
(lp2808
S'REMOTE_ADDR'
p2809
asbag69
(g90
g71
NtRp2810
(dp2811
g74
(dp2812
g101
g102
ssg83
g2801
sg76
(lp2813
S':'
asbag69
(g90
g71
NtRp2814
(dp2815
g74
(dp2816
sg83
g2801
sg76
(lp2817
g69
(g70
g71
NtRp2818
(dp2819
g74
(dp2820
g82
I3
ssg83
g2814
sg76
(lp2821
g202
asbasbasbag69
(g85
g71
NtRp2822
(dp2823
g74
(dp2824
sg83
g2545
sg76
(lp2825
g69
(g90
g71
NtRp2826
(dp2827
g74
(dp2828
g94
g95
ssg83
g2822
sg76
(lp2829
S'REMOTE_PORT'
p2830
asbag69
(g90
g71
NtRp2831
(dp2832
g74
(dp2833
g101
g102
ssg83
g2822
sg76
(lp2834
S':'
asbag69
(g90
g71
NtRp2835
(dp2836
g74
(dp2837
sg83
g2822
sg76
(lp2838
g69
(g70
g71
NtRp2839
(dp2840
g74
(dp2841
g82
I3
ssg83
g2835
sg76
(lp2842
g1342
asbasbasbag69
(g85
g71
NtRp2843
(dp2844
g74
(dp2845
sg83
g2545
sg76
(lp2846
g69
(g90
g71
NtRp2847
(dp2848
g74
(dp2849
g94
g95
ssg83
g2843
sg76
(lp2850
S'REQUEST_METHOD'
p2851
asbag69
(g90
g71
NtRp2852
(dp2853
g74
(dp2854
g101
g102
ssg83
g2843
sg76
(lp2855
S':'
asbag69
(g90
g71
NtRp2856
(dp2857
g74
(dp2858
sg83
g2843
sg76
(lp2859
g69
(g70
g71
NtRp2860
(dp2861
g74
(dp2862
g82
I3
ssg83
g2856
sg76
(lp2863
g1364
asbasbasbag69
(g85
g71
NtRp2864
(dp2865
g74
(dp2866
sg83
g2545
sg76
(lp2867
g69
(g90
g71
NtRp2868
(dp2869
g74
(dp2870
g94
g95
ssg83
g2864
sg76
(lp2871
S'SCRIPT_NAME'
p2872
asbag69
(g90
g71
NtRp2873
(dp2874
g74
(dp2875
g101
g102
ssg83
g2864
sg76
(lp2876
S':'
asbag69
(g90
g71
NtRp2877
(dp2878
g74
(dp2879
sg83
g2864
sg76
(lp2880
g69
(g70
g71
NtRp2881
(dp2882
g74
(dp2883
g82
I3
ssg83
g2877
sg76
(lp2884
S''
asbasbasbag69
(g85
g71
NtRp2885
(dp2886
g74
(dp2887
sg83
g2545
sg76
(lp2888
g69
(g90
g71
NtRp2889
(dp2890
g74
(dp2891
g94
g95
ssg83
g2885
sg76
(lp2892
S'SERVER_NAME'
p2893
asbag69
(g90
g71
NtRp2894
(dp2895
g74
(dp2896
g101
g102
ssg83
g2885
sg76
(lp2897
S':'
asbag69
(g90
g71
NtRp2898
(dp2899
g74
(dp2900
sg83
g2885
sg76
(lp2901
g69
(g70
g71
NtRp2902
(dp2903
g74
(dp2904
g82
I3
ssg83
g2898
sg76
(lp2905
g1407
asbasbasbag69
(g85
g71
NtRp2906
(dp2907
g74
(dp2908
sg83
g2545
sg76
(lp2909
g69
(g90
g71
NtRp2910
(dp2911
g74
(dp2912
g94
g95
ssg83
g2906
sg76
(lp2913
S'SERVER_PORT'
p2914
asbag69
(g90
g71
NtRp2915
(dp2916
g74
(dp2917
g101
g102
ssg83
g2906
sg76
(lp2918
S':'
asbag69
(g90
g71
NtRp2919
(dp2920
g74
(dp2921
sg83
g2906
sg76
(lp2922
g69
(g70
g71
NtRp2923
(dp2924
g74
(dp2925
g82
I3
ssg83
g2919
sg76
(lp2926
g1429
asbasbasbag69
(g85
g71
NtRp2927
(dp2928
g74
(dp2929
sg83
g2545
sg76
(lp2930
g69
(g90
g71
NtRp2931
(dp2932
g74
(dp2933
g94
g95
ssg83
g2927
sg76
(lp2934
S'SERVER_PROTOCOL'
p2935
asbag69
(g90
g71
NtRp2936
(dp2937
g74
(dp2938
g101
g102
ssg83
g2927
sg76
(lp2939
S':'
asbag69
(g90
g71
NtRp2940
(dp2941
g74
(dp2942
sg83
g2927
sg76
(lp2943
g69
(g70
g71
NtRp2944
(dp2945
g74
(dp2946
g82
I3
ssg83
g2940
sg76
(lp2947
g1451
asbasbasbag69
(g85
g71
NtRp2948
(dp2949
g74
(dp2950
sg83
g2545
sg76
(lp2951
g69
(g90
g71
NtRp2952
(dp2953
g74
(dp2954
g94
g95
ssg83
g2948
sg76
(lp2955
S'SERVER_SOFTWARE'
p2956
asbag69
(g90
g71
NtRp2957
(dp2958
g74
(dp2959
g101
g102
ssg83
g2948
sg76
(lp2960
S':'
asbag69
(g90
g71
NtRp2961
(dp2962
g74
(dp2963
sg83
g2948
sg76
(lp2964
g69
(g70
g71
NtRp2965
(dp2966
g74
(dp2967
g82
I3
ssg83
g2961
sg76
(lp2968
g1473
asbasbasbag69
(g85
g71
NtRp2969
(dp2970
g74
(dp2971
sg83
g2545
sg76
(lp2972
g69
(g90
g71
NtRp2973
(dp2974
g74
(dp2975
g94
g95
ssg83
g2969
sg76
(lp2976
S'wsgi.errors'
p2977
asbag69
(g90
g71
NtRp2978
(dp2979
g74
(dp2980
g101
g102
ssg83
g2969
sg76
(lp2981
S':'
asbag69
(g90
g71
NtRp2982
(dp2983
g74
(dp2984
sg83
g2969
sg76
(lp2985
g69
(g70
g71
NtRp2986
(dp2987
g74
(dp2988
g82
I3
ssg83
g2982
sg76
(lp2989
S"<open file '<stderr>', mode 'w' at 0x100282270>"
p2990
asbasbasbag69
(g85
g71
NtRp2991
(dp2992
g74
(dp2993
sg83
g2545
sg76
(lp2994
g69
(g90
g71
NtRp2995
(dp2996
g74
(dp2997
g94
g95
ssg83
g2991
sg76
(lp2998
S'wsgi.file_wrapper'
p2999
asbag69
(g90
g71
NtRp3000
(dp3001
g74
(dp3002
g101
g102
ssg83
g2991
sg76
(lp3003
S':'
asbag69
(g90
g71
NtRp3004
(dp3005
g74
(dp3006
sg83
g2991
sg76
(lp3007
g69
(g70
g71
NtRp3008
(dp3009
g74
(dp3010
g82
I3
ssg83
g3004
sg76
(lp3011
S'<class wsgiref.util.FileWrapper at 0x1018cf188>'
p3012
asbasbasbag69
(g85
g71
NtRp3013
(dp3014
g74
(dp3015
sg83
g2545
sg76
(lp3016
g69
(g90
g71
NtRp3017
(dp3018
g74
(dp3019
g94
g95
ssg83
g3013
sg76
(lp3020
S'wsgi.input'
p3021
asbag69
(g90
g71
NtRp3022
(dp3023
g74
(dp3024
g101
g102
ssg83
g3013
sg76
(lp3025
S':'
asbag69
(g90
g71
NtRp3026
(dp3027
g74
(dp3028
sg83
g3013
sg76
(lp3029
g69
(g70
g71
NtRp3030
(dp3031
g74
(dp3032
g82
I3
ssg83
g3026
sg76
(lp3033
S'<cStringIO.StringO object at 0x10c4d2d18>'
p3034
asbasbasbag69
(g85
g71
NtRp3035
(dp3036
g74
(dp3037
sg83
g2545
sg76
(lp3038
g69
(g90
g71
NtRp3039
(dp3040
g74
(dp3041
g94
g95
ssg83
g3035
sg76
(lp3042
S'wsgi.multiprocess'
p3043
asbag69
(g90
g71
NtRp3044
(dp3045
g74
(dp3046
g101
g102
ssg83
g3035
sg76
(lp3047
S':'
asbag69
(g90
g71
NtRp3048
(dp3049
g74
(dp3050
sg83
g3035
sg76
(lp3051
g69
(g70
g71
NtRp3052
(dp3053
g74
(dp3054
g82
I3
ssg83
g3048
sg76
(lp3055
g112
asbasbasbag69
(g85
g71
NtRp3056
(dp3057
g74
(dp3058
sg83
g2545
sg76
(lp3059
g69
(g90
g71
NtRp3060
(dp3061
g74
(dp3062
g94
g95
ssg83
g3056
sg76
(lp3063
S'wsgi.multithread'
p3064
asbag69
(g90
g71
NtRp3065
(dp3066
g74
(dp3067
g101
g102
ssg83
g3056
sg76
(lp3068
S':'
asbag69
(g90
g71
NtRp3069
(dp3070
g74
(dp3071
sg83
g3056
sg76
(lp3072
g69
(g70
g71
NtRp3073
(dp3074
g74
(dp3075
g82
I3
ssg83
g3069
sg76
(lp3076
g1713
asbasbasbag69
(g85
g71
NtRp3077
(dp3078
g74
(dp3079
sg83
g2545
sg76
(lp3080
g69
(g90
g71
NtRp3081
(dp3082
g74
(dp3083
g94
g95
ssg83
g3077
sg76
(lp3084
S'wsgi.run_once'
p3085
asbag69
(g90
g71
NtRp3086
(dp3087
g74
(dp3088
g101
g102
ssg83
g3077
sg76
(lp3089
S':'
asbag69
(g90
g71
NtRp3090
(dp3091
g74
(dp3092
sg83
g3077
sg76
(lp3093
g69
(g70
g71
NtRp3094
(dp3095
g74
(dp3096
g82
I3
ssg83
g3090
sg76
(lp3097
g112
asbasbasbag69
(g85
g71
NtRp3098
(dp3099
g74
(dp3100
sg83
g2545
sg76
(lp3101
g69
(g90
g71
NtRp3102
(dp3103
g74
(dp3104
g94
g95
ssg83
g3098
sg76
(lp3105
S'wsgi.url_scheme'
p3106
asbag69
(g90
g71
NtRp3107
(dp3108
g74
(dp3109
g101
g102
ssg83
g3098
sg76
(lp3110
S':'
asbag69
(g90
g71
NtRp3111
(dp3112
g74
(dp3113
sg83
g3098
sg76
(lp3114
g69
(g70
g71
NtRp3115
(dp3116
g74
(dp3117
g82
I3
ssg83
g3111
sg76
(lp3118
g1756
asbasbasbag69
(g85
g71
NtRp3119
(dp3120
g74
(dp3121
sg83
g2545
sg76
(lp3122
g69
(g90
g71
NtRp3123
(dp3124
g74
(dp3125
g94
g95
ssg83
g3119
sg76
(lp3126
S'wsgi.version'
p3127
asbag69
(g90
g71
NtRp3128
(dp3129
g74
(dp3130
g101
g102
ssg83
g3119
sg76
(lp3131
S':'
asbag69
(g90
g71
NtRp3132
(dp3133
g74
(dp3134
sg83
g3119
sg76
(lp3135
g69
(g70
g71
NtRp3136
(dp3137
g74
(dp3138
g82
I3
ssg83
g3132
sg76
(lp3139
S'1'
asbasbasbasbasbasbasbasbasbasbasbasbasbsS'frames'
p3140
(lp3141
(dp3142
S'file'
p3143
S'/Users/hainna01/Desktop/SeniorProject/finholt-senior-project/web2py/gluon/restricted.py'
p3144
sS'dump'
p3145
(dp3146
S'code'
p3147
S'r"response.write(\'<!DOCTYPE html>\\r\\n<html>\\r\\n\\r\\...ody>\\r\\n\\r\\n\\r\\n\\r\\n  </html>\\r\\n\', escape=False)"'
p3148
sS'layer'
p3149
S"'/Users/hainna01/Desktop/SeniorProject/finholt-se...ations/SeniorProject/views/default/formtable.html'"
p3150
sS'global compile2'
p3151
S'<function compile2>'
p3152
sS'ccode'
p3153
S'undefined'
p3154
ssS'lnum'
p3155
I204
sS'lines'
p3156
(dp3157
I199
S"    environment['__name__'] = '__restricted__'"
p3158
sI200
S'    try:'
p3159
sI201
S'        if type(code) == types.CodeType:'
p3160
sI202
S'            ccode = code'
p3161
sI203
S'        else:'
p3162
sI204
S'            ccode = compile2(code,layer)'
p3163
sI205
S'        exec ccode in environment'
p3164
sI206
S'    except HTTP:'
p3165
sI207
S'        raise'
p3166
sI208
S'    except RestrictedError:'
p3167
ssS'call'
p3168
S'(code=r"response.write(\'<!DOCTYPE html>\\r\\n<html>\\r\\n\\r\\...ody>\\r\\n\\r\\n\\r\\n\\r\\n  </html>\\r\\n\', escape=False)", environment={\'A\': <class \'gluon.html.A\'>, \'Auth\': <class \'gluon.tools.Auth\'>, \'B\': <class \'gluon.html.B\'>, \'BEAUTIFY\': <class \'gluon.html.BEAUTIFY\'>, \'BODY\': <class \'gluon.html.BODY\'>, \'BR\': <class \'gluon.html.BR\'>, \'BUTTON\': <class \'gluon.html.BUTTON\'>, \'CAT\': <class \'gluon.html.CAT\'>, \'CENTER\': <class \'gluon.html.CENTER\'>, \'CLEANUP\': <class \'gluon.validators.CLEANUP\'>, ...}, layer=\'/Users/hainna01/Desktop/SeniorProject/finholt-se...ations/SeniorProject/views/default/formtable.html\')'
p3169
sS'func'
p3170
S'restricted'
p3171
sa(dp3172
g3143
S'/Users/hainna01/Desktop/SeniorProject/finholt-senior-project/web2py/gluon/restricted.py'
p3173
sg3145
(dp3174
S'builtincompile'
p3175
S'<built-in function compile>'
p3176
sS'code'
p3177
S'r"response.write(\'<!DOCTYPE html>\\r\\n<html>\\r\\n\\r\\...ody>\\r\\n\\r\\n\\r\\n\\r\\n  </html>\\r\\n\', escape=False)"'
p3178
sS'code.rstrip'
p3179
S'<built-in method rstrip of str object>'
p3180
sS').replace'
p3181
g3154
sS'layer'
p3182
S"'/Users/hainna01/Desktop/SeniorProject/finholt-se...ations/SeniorProject/views/default/formtable.html'"
p3183
ssg3155
I189
sg3156
(dp3184
I192
S'    """'
p3185
sI193
S'    runs code in environment and returns the output. if an exception occurs'
p3186
sI184
S''
sI185
S'def compile2(code,layer):'
p3187
sI186
S'    """'
p3188
sI187
S"    The +'\\n' is necessary else compile fails when code ends in a comment."
p3189
sI188
S'    """'
p3190
sI189
S"    return compile(code.rstrip().replace('\\r\\n','\\n')+'\\n', layer, 'exec')"
p3191
sI190
S''
sI191
S"def restricted(code, environment=None, layer='Unknown'):"
p3192
ssg3168
S'(code=r"response.write(\'<!DOCTYPE html>\\r\\n<html>\\r\\n\\r\\...ody>\\r\\n\\r\\n\\r\\n\\r\\n  </html>\\r\\n\', escape=False)", layer=\'/Users/hainna01/Desktop/SeniorProject/finholt-se...ations/SeniorProject/views/default/formtable.html\')'
p3193
sg3170
S'compile2'
p3194
sasS'pyver'
p3195
S'Python 2.7.2: /Library/Frameworks/Python.framework/Versions/2.7/Resources/Python.app/Contents/MacOS/Python'
p3196
sS'session'
p3197
g69
(g70
g71
NtRp3198
(dp3199
g74
(dp3200
sg76
(lp3201
g69
(g78
g71
NtRp3202
(dp3203
g74
(dp3204
g82
I5
ssg83
Nsg76
(lp3205
g69
(g85
g71
NtRp3206
(dp3207
g74
(dp3208
sg83
g3202
sg76
(lp3209
g69
(g90
g71
NtRp3210
(dp3211
g74
(dp3212
g94
g95
ssg83
g3206
sg76
(lp3213
S'auth'
p3214
asbag69
(g90
g71
NtRp3215
(dp3216
g74
(dp3217
g101
g102
ssg83
g3206
sg76
(lp3218
S':'
asbag69
(g90
g71
NtRp3219
(dp3220
g74
(dp3221
sg83
g3206
sg76
(lp3222
g69
(g70
g71
NtRp3223
(dp3224
g74
(dp3225
g82
I5
ssg83
g3219
sg76
(lp3226
g69
(g78
g71
NtRp3227
(dp3228
g74
(dp3229
g82
I4
ssg83
Nsg76
(lp3230
g69
(g85
g71
NtRp3231
(dp3232
g74
(dp3233
sg83
g3227
sg76
(lp3234
g69
(g90
g71
NtRp3235
(dp3236
g74
(dp3237
g94
g95
ssg83
g3231
sg76
(lp3238
S'expiration'
p3239
asbag69
(g90
g71
NtRp3240
(dp3241
g74
(dp3242
g101
g102
ssg83
g3231
sg76
(lp3243
S':'
asbag69
(g90
g71
NtRp3244
(dp3245
g74
(dp3246
sg83
g3231
sg76
(lp3247
g69
(g70
g71
NtRp3248
(dp3249
g74
(dp3250
g82
I4
ssg83
g3244
sg76
(lp3251
S'3600'
p3252
asbasbasbag69
(g85
g71
NtRp3253
(dp3254
g74
(dp3255
sg83
g3227
sg76
(lp3256
g69
(g90
g71
NtRp3257
(dp3258
g74
(dp3259
g94
g95
ssg83
g3253
sg76
(lp3260
S'hmac_key'
p3261
asbag69
(g90
g71
NtRp3262
(dp3263
g74
(dp3264
g101
g102
ssg83
g3253
sg76
(lp3265
S':'
asbag69
(g90
g71
NtRp3266
(dp3267
g74
(dp3268
sg83
g3253
sg76
(lp3269
g69
(g70
g71
NtRp3270
(dp3271
g74
(dp3272
g82
I4
ssg83
g3266
sg76
(lp3273
S'14e7ef51-5e93-405c-acd5-7596baeb7e9b'
p3274
asbasbasbag69
(g85
g71
NtRp3275
(dp3276
g74
(dp3277
sg83
g3227
sg76
(lp3278
g69
(g90
g71
NtRp3279
(dp3280
g74
(dp3281
g94
g95
ssg83
g3275
sg76
(lp3282
S'last_visit'
p3283
asbag69
(g90
g71
NtRp3284
(dp3285
g74
(dp3286
g101
g102
ssg83
g3275
sg76
(lp3287
S':'
asbag69
(g90
g71
NtRp3288
(dp3289
g74
(dp3290
sg83
g3275
sg76
(lp3291
g69
(g70
g71
NtRp3292
(dp3293
g74
(dp3294
g82
I4
ssg83
g3288
sg76
(lp3295
S'datetime.datetime(2012, 12, 3, 9, 57, 57, 810754)'
p3296
asbasbasbag69
(g85
g71
NtRp3297
(dp3298
g74
(dp3299
sg83
g3227
sg76
(lp3300
g69
(g90
g71
NtRp3301
(dp3302
g74
(dp3303
g94
g95
ssg83
g3297
sg76
(lp3304
S'remember'
p3305
asbag69
(g90
g71
NtRp3306
(dp3307
g74
(dp3308
g101
g102
ssg83
g3297
sg76
(lp3309
S':'
asbag69
(g90
g71
NtRp3310
(dp3311
g74
(dp3312
sg83
g3297
sg76
(lp3313
g69
(g70
g71
NtRp3314
(dp3315
g74
(dp3316
g82
I4
ssg83
g3310
sg76
(lp3317
g112
asbasbasbag69
(g85
g71
NtRp3318
(dp3319
g74
(dp3320
sg83
g3227
sg76
(lp3321
g69
(g90
g71
NtRp3322
(dp3323
g74
(dp3324
g94
g95
ssg83
g3318
sg76
(lp3325
S'user'
p3326
asbag69
(g90
g71
NtRp3327
(dp3328
g74
(dp3329
g101
g102
ssg83
g3318
sg76
(lp3330
S':'
asbag69
(g90
g71
NtRp3331
(dp3332
g74
(dp3333
sg83
g3318
sg76
(lp3334
g69
(g70
g71
NtRp3335
(dp3336
g74
(dp3337
g82
I4
ssg83
g3331
sg76
(lp3338
g69
(g78
g71
NtRp3339
(dp3340
g74
(dp3341
g82
I3
ssg83
Nsg76
(lp3342
g69
(g85
g71
NtRp3343
(dp3344
g74
(dp3345
sg83
g3339
sg76
(lp3346
g69
(g90
g71
NtRp3347
(dp3348
g74
(dp3349
g94
g95
ssg83
g3343
sg76
(lp3350
S'email'
p3351
asbag69
(g90
g71
NtRp3352
(dp3353
g74
(dp3354
g101
g102
ssg83
g3343
sg76
(lp3355
S':'
asbag69
(g90
g71
NtRp3356
(dp3357
g74
(dp3358
sg83
g3343
sg76
(lp3359
g69
(g70
g71
NtRp3360
(dp3361
g74
(dp3362
g82
I3
ssg83
g3356
sg76
(lp3363
S'hainna01@luther.edu'
p3364
asbasbasbag69
(g85
g71
NtRp3365
(dp3366
g74
(dp3367
sg83
g3339
sg76
(lp3368
g69
(g90
g71
NtRp3369
(dp3370
g74
(dp3371
g94
g95
ssg83
g3365
sg76
(lp3372
S'first_name'
p3373
asbag69
(g90
g71
NtRp3374
(dp3375
g74
(dp3376
g101
g102
ssg83
g3365
sg76
(lp3377
S':'
asbag69
(g90
g71
NtRp3378
(dp3379
g74
(dp3380
sg83
g3365
sg76
(lp3381
g69
(g70
g71
NtRp3382
(dp3383
g74
(dp3384
g82
I3
ssg83
g3378
sg76
(lp3385
S'Nathan'
p3386
asbasbasbag69
(g85
g71
NtRp3387
(dp3388
g74
(dp3389
sg83
g3339
sg76
(lp3390
g69
(g90
g71
NtRp3391
(dp3392
g74
(dp3393
g94
g95
ssg83
g3387
sg76
(lp3394
S'id'
p3395
asbag69
(g90
g71
NtRp3396
(dp3397
g74
(dp3398
g101
g102
ssg83
g3387
sg76
(lp3399
S':'
asbag69
(g90
g71
NtRp3400
(dp3401
g74
(dp3402
sg83
g3387
sg76
(lp3403
g69
(g70
g71
NtRp3404
(dp3405
g74
(dp3406
g82
I3
ssg83
g3400
sg76
(lp3407
S'1'
asbasbasbag69
(g85
g71
NtRp3408
(dp3409
g74
(dp3410
sg83
g3339
sg76
(lp3411
g69
(g90
g71
NtRp3412
(dp3413
g74
(dp3414
g94
g95
ssg83
g3408
sg76
(lp3415
S'last_name'
p3416
asbag69
(g90
g71
NtRp3417
(dp3418
g74
(dp3419
g101
g102
ssg83
g3408
sg76
(lp3420
S':'
asbag69
(g90
g71
NtRp3421
(dp3422
g74
(dp3423
sg83
g3408
sg76
(lp3424
g69
(g70
g71
NtRp3425
(dp3426
g74
(dp3427
g82
I3
ssg83
g3421
sg76
(lp3428
S'Haines'
p3429
asbasbasbag69
(g85
g71
NtRp3430
(dp3431
g74
(dp3432
sg83
g3339
sg76
(lp3433
g69
(g90
g71
NtRp3434
(dp3435
g74
(dp3436
g94
g95
ssg83
g3430
sg76
(lp3437
S'password'
p3438
asbag69
(g90
g71
NtRp3439
(dp3440
g74
(dp3441
g101
g102
ssg83
g3430
sg76
(lp3442
S':'
asbag69
(g90
g71
NtRp3443
(dp3444
g74
(dp3445
sg83
g3430
sg76
(lp3446
g69
(g70
g71
NtRp3447
(dp3448
g74
(dp3449
g82
I3
ssg83
g3443
sg76
(lp3450
S'50a852c98d4c00aac81e02a436c95f05'
p3451
asbasbasbag69
(g85
g71
NtRp3452
(dp3453
g74
(dp3454
sg83
g3339
sg76
(lp3455
g69
(g90
g71
NtRp3456
(dp3457
g74
(dp3458
g94
g95
ssg83
g3452
sg76
(lp3459
S'phone'
p3460
asbag69
(g90
g71
NtRp3461
(dp3462
g74
(dp3463
g101
g102
ssg83
g3452
sg76
(lp3464
S':'
asbag69
(g90
g71
NtRp3465
(dp3466
g74
(dp3467
sg83
g3452
sg76
(lp3468
g69
(g70
g71
NtRp3469
(dp3470
g74
(dp3471
g82
I3
ssg83
g3465
sg76
(lp3472
S'6087977472'
p3473
asbasbasbag69
(g85
g71
NtRp3474
(dp3475
g74
(dp3476
sg83
g3339
sg76
(lp3477
g69
(g90
g71
NtRp3478
(dp3479
g74
(dp3480
g94
g95
ssg83
g3474
sg76
(lp3481
S'registration_id'
p3482
asbag69
(g90
g71
NtRp3483
(dp3484
g74
(dp3485
g101
g102
ssg83
g3474
sg76
(lp3486
S':'
asbag69
(g90
g71
NtRp3487
(dp3488
g74
(dp3489
sg83
g3474
sg76
(lp3490
g69
(g70
g71
NtRp3491
(dp3492
g74
(dp3493
g82
I3
ssg83
g3487
sg76
(lp3494
S''
asbasbasbag69
(g85
g71
NtRp3495
(dp3496
g74
(dp3497
sg83
g3339
sg76
(lp3498
g69
(g90
g71
NtRp3499
(dp3500
g74
(dp3501
g94
g95
ssg83
g3495
sg76
(lp3502
S'registration_key'
p3503
asbag69
(g90
g71
NtRp3504
(dp3505
g74
(dp3506
g101
g102
ssg83
g3495
sg76
(lp3507
S':'
asbag69
(g90
g71
NtRp3508
(dp3509
g74
(dp3510
sg83
g3495
sg76
(lp3511
g69
(g70
g71
NtRp3512
(dp3513
g74
(dp3514
g82
I3
ssg83
g3508
sg76
(lp3515
S''
asbasbasbag69
(g85
g71
NtRp3516
(dp3517
g74
(dp3518
sg83
g3339
sg76
(lp3519
g69
(g90
g71
NtRp3520
(dp3521
g74
(dp3522
g94
g95
ssg83
g3516
sg76
(lp3523
S'reset_password_key'
p3524
asbag69
(g90
g71
NtRp3525
(dp3526
g74
(dp3527
g101
g102
ssg83
g3516
sg76
(lp3528
S':'
asbag69
(g90
g71
NtRp3529
(dp3530
g74
(dp3531
sg83
g3516
sg76
(lp3532
g69
(g70
g71
NtRp3533
(dp3534
g74
(dp3535
g82
I3
ssg83
g3529
sg76
(lp3536
S''
asbasbasbag69
(g85
g71
NtRp3537
(dp3538
g74
(dp3539
sg83
g3339
sg76
(lp3540
g69
(g90
g71
NtRp3541
(dp3542
g74
(dp3543
g94
g95
ssg83
g3537
sg76
(lp3544
S'role'
p3545
asbag69
(g90
g71
NtRp3546
(dp3547
g74
(dp3548
g101
g102
ssg83
g3537
sg76
(lp3549
S':'
asbag69
(g90
g71
NtRp3550
(dp3551
g74
(dp3552
sg83
g3537
sg76
(lp3553
g69
(g70
g71
NtRp3554
(dp3555
g74
(dp3556
g82
I3
ssg83
g3550
sg76
(lp3557
S'Supreme Leader '
p3558
asbasbasbasbasbasbasbag69
(g85
g71
NtRp3559
(dp3560
g74
(dp3561
sg83
g3227
sg76
(lp3562
g69
(g90
g71
NtRp3563
(dp3564
g74
(dp3565
g94
g95
ssg83
g3559
sg76
(lp3566
S'user_groups'
p3567
asbag69
(g90
g71
NtRp3568
(dp3569
g74
(dp3570
g101
g102
ssg83
g3559
sg76
(lp3571
S':'
asbag69
(g90
g71
NtRp3572
(dp3573
g74
(dp3574
sg83
g3559
sg76
(lp3575
g69
(g70
g71
NtRp3576
(dp3577
g74
(dp3578
g82
I4
ssg83
g3572
sg76
(lp3579
g69
(g78
g71
NtRp3580
(dp3581
g74
(dp3582
g82
I3
ssg83
Nsg76
(lp3583
g69
(g85
g71
NtRp3584
(dp3585
g74
(dp3586
sg83
g3580
sg76
(lp3587
g69
(g90
g71
NtRp3588
(dp3589
g74
(dp3590
g94
g95
ssg83
g3584
sg76
(lp3591
S'1'
asbag69
(g90
g71
NtRp3592
(dp3593
g74
(dp3594
g101
g102
ssg83
g3584
sg76
(lp3595
S':'
asbag69
(g90
g71
NtRp3596
(dp3597
g74
(dp3598
sg83
g3584
sg76
(lp3599
g69
(g70
g71
NtRp3600
(dp3601
g74
(dp3602
g82
I3
ssg83
g3596
sg76
(lp3603
S'user_1'
p3604
asbasbasbasbasbasbasbasbasbasbasbasbasbsS'etype'
p3605
S"<type 'exceptions.SyntaxError'>"
p3606
sS'date'
p3607
S'Mon Dec  3 10:02:02 2012'
p3608
sS'response'
p3609
g69
(g70
g71
NtRp3610
(dp3611
g74
(dp3612
sg76
(lp3613
g69
(g78
g71
NtRp3614
(dp3615
g74
(dp3616
g82
I5
ssg83
Nsg76
(lp3617
g69
(g85
g71
NtRp3618
(dp3619
g74
(dp3620
sg83
g3614
sg76
(lp3621
g69
(g90
g71
NtRp3622
(dp3623
g74
(dp3624
g94
g95
ssg83
g3618
sg76
(lp3625
g167
asbag69
(g90
g71
NtRp3626
(dp3627
g74
(dp3628
g101
g102
ssg83
g3618
sg76
(lp3629
S':'
asbag69
(g90
g71
NtRp3630
(dp3631
g74
(dp3632
sg83
g3618
sg76
(lp3633
g69
(g70
g71
NtRp3634
(dp3635
g74
(dp3636
g82
I5
ssg83
g3630
sg76
(lp3637
S'<cStringIO.StringO object at 0x10bfa2ea0>'
p3638
asbasbasbag69
(g85
g71
NtRp3639
(dp3640
g74
(dp3641
sg83
g3614
sg76
(lp3642
g69
(g90
g71
NtRp3643
(dp3644
g74
(dp3645
g94
g95
ssg83
g3639
sg76
(lp3646
g233
asbag69
(g90
g71
NtRp3647
(dp3648
g74
(dp3649
g101
g102
ssg83
g3639
sg76
(lp3650
S':'
asbag69
(g90
g71
NtRp3651
(dp3652
g74
(dp3653
sg83
g3639
sg76
(lp3654
g69
(g70
g71
NtRp3655
(dp3656
g74
(dp3657
g82
I5
ssg83
g3651
sg76
(lp3658
g69
(g78
g71
NtRp3659
(dp3660
g74
(dp3661
g82
I4
ssg83
Nsg76
(lp3662
g69
(g85
g71
NtRp3663
(dp3664
g74
(dp3665
sg83
g3659
sg76
(lp3666
g69
(g90
g71
NtRp3667
(dp3668
g74
(dp3669
g94
g95
ssg83
g3663
sg76
(lp3670
S'session_id_seniorproject'
p3671
asbag69
(g90
g71
NtRp3672
(dp3673
g74
(dp3674
g101
g102
ssg83
g3663
sg76
(lp3675
S':'
asbag69
(g90
g71
NtRp3676
(dp3677
g74
(dp3678
sg83
g3663
sg76
(lp3679
g69
(g70
g71
NtRp3680
(dp3681
g74
(dp3682
g82
I4
ssg83
g3676
sg76
(lp3683
g69
(g78
g71
NtRp3684
(dp3685
g74
(dp3686
g82
I3
ssg83
Nsg76
(lp3687
g69
(g85
g71
NtRp3688
(dp3689
g74
(dp3690
sg83
g3684
sg76
(lp3691
g69
(g90
g71
NtRp3692
(dp3693
g74
(dp3694
g94
g95
ssg83
g3688
sg76
(lp3695
g283
asbag69
(g90
g71
NtRp3696
(dp3697
g74
(dp3698
g101
g102
ssg83
g3688
sg76
(lp3699
S':'
asbag69
(g90
g71
NtRp3700
(dp3701
g74
(dp3702
sg83
g3688
sg76
(lp3703
g69
(g70
g71
NtRp3704
(dp3705
g74
(dp3706
g82
I3
ssg83
g3700
sg76
(lp3707
S''
asbasbasbag69
(g85
g71
NtRp3708
(dp3709
g74
(dp3710
sg83
g3684
sg76
(lp3711
g69
(g90
g71
NtRp3712
(dp3713
g74
(dp3714
g94
g95
ssg83
g3708
sg76
(lp3715
g304
asbag69
(g90
g71
NtRp3716
(dp3717
g74
(dp3718
g101
g102
ssg83
g3708
sg76
(lp3719
S':'
asbag69
(g90
g71
NtRp3720
(dp3721
g74
(dp3722
sg83
g3708
sg76
(lp3723
g69
(g70
g71
NtRp3724
(dp3725
g74
(dp3726
g82
I3
ssg83
g3720
sg76
(lp3727
S''
asbasbasbag69
(g85
g71
NtRp3728
(dp3729
g74
(dp3730
sg83
g3684
sg76
(lp3731
g69
(g90
g71
NtRp3732
(dp3733
g74
(dp3734
g94
g95
ssg83
g3728
sg76
(lp3735
g325
asbag69
(g90
g71
NtRp3736
(dp3737
g74
(dp3738
g101
g102
ssg83
g3728
sg76
(lp3739
S':'
asbag69
(g90
g71
NtRp3740
(dp3741
g74
(dp3742
sg83
g3728
sg76
(lp3743
g69
(g70
g71
NtRp3744
(dp3745
g74
(dp3746
g82
I3
ssg83
g3740
sg76
(lp3747
S''
asbasbasbag69
(g85
g71
NtRp3748
(dp3749
g74
(dp3750
sg83
g3684
sg76
(lp3751
g69
(g90
g71
NtRp3752
(dp3753
g74
(dp3754
g94
g95
ssg83
g3748
sg76
(lp3755
g346
asbag69
(g90
g71
NtRp3756
(dp3757
g74
(dp3758
g101
g102
ssg83
g3748
sg76
(lp3759
S':'
asbag69
(g90
g71
NtRp3760
(dp3761
g74
(dp3762
sg83
g3748
sg76
(lp3763
g69
(g70
g71
NtRp3764
(dp3765
g74
(dp3766
g82
I3
ssg83
g3760
sg76
(lp3767
S''
asbasbasbag69
(g85
g71
NtRp3768
(dp3769
g74
(dp3770
sg83
g3684
sg76
(lp3771
g69
(g90
g71
NtRp3772
(dp3773
g74
(dp3774
g94
g95
ssg83
g3768
sg76
(lp3775
g367
asbag69
(g90
g71
NtRp3776
(dp3777
g74
(dp3778
g101
g102
ssg83
g3768
sg76
(lp3779
S':'
asbag69
(g90
g71
NtRp3780
(dp3781
g74
(dp3782
sg83
g3768
sg76
(lp3783
g69
(g70
g71
NtRp3784
(dp3785
g74
(dp3786
g82
I3
ssg83
g3780
sg76
(lp3787
S''
asbasbasbag69
(g85
g71
NtRp3788
(dp3789
g74
(dp3790
sg83
g3684
sg76
(lp3791
g69
(g90
g71
NtRp3792
(dp3793
g74
(dp3794
g94
g95
ssg83
g3788
sg76
(lp3795
g388
asbag69
(g90
g71
NtRp3796
(dp3797
g74
(dp3798
g101
g102
ssg83
g3788
sg76
(lp3799
S':'
asbag69
(g90
g71
NtRp3800
(dp3801
g74
(dp3802
sg83
g3788
sg76
(lp3803
g69
(g70
g71
NtRp3804
(dp3805
g74
(dp3806
g82
I3
ssg83
g3800
sg76
(lp3807
S'/'
asbasbasbag69
(g85
g71
NtRp3808
(dp3809
g74
(dp3810
sg83
g3684
sg76
(lp3811
g69
(g90
g71
NtRp3812
(dp3813
g74
(dp3814
g94
g95
ssg83
g3808
sg76
(lp3815
g409
asbag69
(g90
g71
NtRp3816
(dp3817
g74
(dp3818
g101
g102
ssg83
g3808
sg76
(lp3819
S':'
asbag69
(g90
g71
NtRp3820
(dp3821
g74
(dp3822
sg83
g3808
sg76
(lp3823
g69
(g70
g71
NtRp3824
(dp3825
g74
(dp3826
g82
I3
ssg83
g3820
sg76
(lp3827
S''
asbasbasbag69
(g85
g71
NtRp3828
(dp3829
g74
(dp3830
sg83
g3684
sg76
(lp3831
g69
(g90
g71
NtRp3832
(dp3833
g74
(dp3834
g94
g95
ssg83
g3828
sg76
(lp3835
g430
asbag69
(g90
g71
NtRp3836
(dp3837
g74
(dp3838
g101
g102
ssg83
g3828
sg76
(lp3839
S':'
asbag69
(g90
g71
NtRp3840
(dp3841
g74
(dp3842
sg83
g3828
sg76
(lp3843
g69
(g70
g71
NtRp3844
(dp3845
g74
(dp3846
g82
I3
ssg83
g3840
sg76
(lp3847
S''
asbasbasbasbasbasbasbasbasbasbasbag69
(g85
g71
NtRp3848
(dp3849
g74
(dp3850
sg83
g3614
sg76
(lp3851
g69
(g90
g71
NtRp3852
(dp3853
g74
(dp3854
g94
g95
ssg83
g3848
sg76
(lp3855
S'delimiters'
p3856
asbag69
(g90
g71
NtRp3857
(dp3858
g74
(dp3859
g101
g102
ssg83
g3848
sg76
(lp3860
S':'
asbag69
(g90
g71
NtRp3861
(dp3862
g74
(dp3863
sg83
g3848
sg76
(lp3864
g69
(g70
g71
NtRp3865
(dp3866
g74
(dp3867
g82
I5
ssg83
g3861
sg76
(lp3868
g69
(g78
g71
NtRp3869
(dp3870
g74
(dp3871
g82
I4
ssg83
Nsg76
(lp3872
g69
(g85
g71
NtRp3873
(dp3874
g74
(dp3875
sg83
g3869
sg76
(lp3876
g69
(g90
g71
NtRp3877
(dp3878
g74
(dp3879
sg83
g3873
sg76
(lp3880
g69
(g70
g71
NtRp3881
(dp3882
g74
(dp3883
g82
I4
ssg83
g3877
sg76
(lp3884
S'{{'
p3885
asbasbasbag69
(g85
g71
NtRp3886
(dp3887
g74
(dp3888
sg83
g3869
sg76
(lp3889
g69
(g90
g71
NtRp3890
(dp3891
g74
(dp3892
sg83
g3886
sg76
(lp3893
g69
(g70
g71
NtRp3894
(dp3895
g74
(dp3896
g82
I4
ssg83
g3890
sg76
(lp3897
S'}}'
p3898
asbasbasbasbasbasbasbag69
(g85
g71
NtRp3899
(dp3900
g74
(dp3901
sg83
g3614
sg76
(lp3902
g69
(g90
g71
NtRp3903
(dp3904
g74
(dp3905
g94
g95
ssg83
g3899
sg76
(lp3906
S'files'
p3907
asbag69
(g90
g71
NtRp3908
(dp3909
g74
(dp3910
g101
g102
ssg83
g3899
sg76
(lp3911
S':'
asbag69
(g90
g71
NtRp3912
(dp3913
g74
(dp3914
sg83
g3899
sg76
(lp3915
g69
(g70
g71
NtRp3916
(dp3917
g74
(dp3918
g82
I5
ssg83
g3912
sg76
(lp3919
g69
(g78
g71
NtRp3920
(dp3921
g74
(dp3922
g82
I4
ssg83
Nsg76
(lp3923
sbasbasbasbag69
(g85
g71
NtRp3924
(dp3925
g74
(dp3926
sg83
g3614
sg76
(lp3927
g69
(g90
g71
NtRp3928
(dp3929
g74
(dp3930
g94
g95
ssg83
g3924
sg76
(lp3931
S'flash'
p3932
asbag69
(g90
g71
NtRp3933
(dp3934
g74
(dp3935
g101
g102
ssg83
g3924
sg76
(lp3936
S':'
asbag69
(g90
g71
NtRp3937
(dp3938
g74
(dp3939
sg83
g3924
sg76
(lp3940
g69
(g70
g71
NtRp3941
(dp3942
g74
(dp3943
g82
I5
ssg83
g3937
sg76
(lp3944
S'please fill out the form'
p3945
asbasbasbag69
(g85
g71
NtRp3946
(dp3947
g74
(dp3948
sg83
g3614
sg76
(lp3949
g69
(g90
g71
NtRp3950
(dp3951
g74
(dp3952
g94
g95
ssg83
g3946
sg76
(lp3953
S'generic_patterns'
p3954
asbag69
(g90
g71
NtRp3955
(dp3956
g74
(dp3957
g101
g102
ssg83
g3946
sg76
(lp3958
S':'
asbag69
(g90
g71
NtRp3959
(dp3960
g74
(dp3961
sg83
g3946
sg76
(lp3962
g69
(g70
g71
NtRp3963
(dp3964
g74
(dp3965
g82
I5
ssg83
g3959
sg76
(lp3966
g69
(g78
g71
NtRp3967
(dp3968
g74
(dp3969
g82
I4
ssg83
Nsg76
(lp3970
g69
(g85
g71
NtRp3971
(dp3972
g74
(dp3973
sg83
g3967
sg76
(lp3974
g69
(g90
g71
NtRp3975
(dp3976
g74
(dp3977
sg83
g3971
sg76
(lp3978
g69
(g70
g71
NtRp3979
(dp3980
g74
(dp3981
g82
I4
ssg83
g3975
sg76
(lp3982
S'*'
asbasbasbasbasbasbasbag69
(g85
g71
NtRp3983
(dp3984
g74
(dp3985
sg83
g3614
sg76
(lp3986
g69
(g90
g71
NtRp3987
(dp3988
g74
(dp3989
g94
g95
ssg83
g3983
sg76
(lp3990
S'headers'
p3991
asbag69
(g90
g71
NtRp3992
(dp3993
g74
(dp3994
g101
g102
ssg83
g3983
sg76
(lp3995
S':'
asbag69
(g90
g71
NtRp3996
(dp3997
g74
(dp3998
sg83
g3983
sg76
(lp3999
g69
(g70
g71
NtRp4000
(dp4001
g74
(dp4002
g82
I5
ssg83
g3996
sg76
(lp4003
g69
(g78
g71
NtRp4004
(dp4005
g74
(dp4006
g82
I4
ssg83
Nsg76
(lp4007
g69
(g85
g71
NtRp4008
(dp4009
g74
(dp4010
sg83
g4004
sg76
(lp4011
g69
(g90
g71
NtRp4012
(dp4013
g74
(dp4014
g94
g95
ssg83
g4008
sg76
(lp4015
S'Cache-Control'
p4016
asbag69
(g90
g71
NtRp4017
(dp4018
g74
(dp4019
g101
g102
ssg83
g4008
sg76
(lp4020
S':'
asbag69
(g90
g71
NtRp4021
(dp4022
g74
(dp4023
sg83
g4008
sg76
(lp4024
g69
(g70
g71
NtRp4025
(dp4026
g74
(dp4027
g82
I4
ssg83
g4021
sg76
(lp4028
S'no-store, no-cache, must-revalidate, post-check=0, pre-check=0'
p4029
asbasbasbag69
(g85
g71
NtRp4030
(dp4031
g74
(dp4032
sg83
g4004
sg76
(lp4033
g69
(g90
g71
NtRp4034
(dp4035
g74
(dp4036
g94
g95
ssg83
g4030
sg76
(lp4037
S'Content-Type'
p4038
asbag69
(g90
g71
NtRp4039
(dp4040
g74
(dp4041
g101
g102
ssg83
g4030
sg76
(lp4042
S':'
asbag69
(g90
g71
NtRp4043
(dp4044
g74
(dp4045
sg83
g4030
sg76
(lp4046
g69
(g70
g71
NtRp4047
(dp4048
g74
(dp4049
g82
I4
ssg83
g4043
sg76
(lp4050
S'text/html; charset=utf-8'
p4051
asbasbasbag69
(g85
g71
NtRp4052
(dp4053
g74
(dp4054
sg83
g4004
sg76
(lp4055
g69
(g90
g71
NtRp4056
(dp4057
g74
(dp4058
g94
g95
ssg83
g4052
sg76
(lp4059
S'Expires'
p4060
asbag69
(g90
g71
NtRp4061
(dp4062
g74
(dp4063
g101
g102
ssg83
g4052
sg76
(lp4064
S':'
asbag69
(g90
g71
NtRp4065
(dp4066
g74
(dp4067
sg83
g4052
sg76
(lp4068
g69
(g70
g71
NtRp4069
(dp4070
g74
(dp4071
g82
I4
ssg83
g4065
sg76
(lp4072
S'Mon, 03 Dec 2012 16:02:02 GMT'
p4073
asbasbasbag69
(g85
g71
NtRp4074
(dp4075
g74
(dp4076
sg83
g4004
sg76
(lp4077
g69
(g90
g71
NtRp4078
(dp4079
g74
(dp4080
g94
g95
ssg83
g4074
sg76
(lp4081
S'Pragma'
p4082
asbag69
(g90
g71
NtRp4083
(dp4084
g74
(dp4085
g101
g102
ssg83
g4074
sg76
(lp4086
S':'
asbag69
(g90
g71
NtRp4087
(dp4088
g74
(dp4089
sg83
g4074
sg76
(lp4090
g69
(g70
g71
NtRp4091
(dp4092
g74
(dp4093
g82
I4
ssg83
g4087
sg76
(lp4094
S'no-cache'
p4095
asbasbasbag69
(g85
g71
NtRp4096
(dp4097
g74
(dp4098
sg83
g4004
sg76
(lp4099
g69
(g90
g71
NtRp4100
(dp4101
g74
(dp4102
g94
g95
ssg83
g4096
sg76
(lp4103
S'X-Powered-By'
p4104
asbag69
(g90
g71
NtRp4105
(dp4106
g74
(dp4107
g101
g102
ssg83
g4096
sg76
(lp4108
S':'
asbag69
(g90
g71
NtRp4109
(dp4110
g74
(dp4111
sg83
g4096
sg76
(lp4112
g69
(g70
g71
NtRp4113
(dp4114
g74
(dp4115
g82
I4
ssg83
g4109
sg76
(lp4116
S'web2py'
p4117
asbasbasbasbasbasbasbag69
(g85
g71
NtRp4118
(dp4119
g74
(dp4120
sg83
g3614
sg76
(lp4121
g69
(g90
g71
NtRp4122
(dp4123
g74
(dp4124
g94
g95
ssg83
g4118
sg76
(lp4125
S'menu'
p4126
asbag69
(g90
g71
NtRp4127
(dp4128
g74
(dp4129
g101
g102
ssg83
g4118
sg76
(lp4130
S':'
asbag69
(g90
g71
NtRp4131
(dp4132
g74
(dp4133
sg83
g4118
sg76
(lp4134
g69
(g70
g71
NtRp4135
(dp4136
g74
(dp4137
g82
I5
ssg83
g4131
sg76
(lp4138
g69
(g78
g71
NtRp4139
(dp4140
g74
(dp4141
g82
I4
ssg83
Nsg76
(lp4142
g69
(g85
g71
NtRp4143
(dp4144
g74
(dp4145
sg83
g4139
sg76
(lp4146
g69
(g90
g71
NtRp4147
(dp4148
g74
(dp4149
sg83
g4143
sg76
(lp4150
g69
(g70
g71
NtRp4151
(dp4152
g74
(dp4153
g82
I4
ssg83
g4147
sg76
(lp4154
g69
(g78
g71
NtRp4155
(dp4156
g74
(dp4157
g82
I3
ssg83
Nsg76
(lp4158
g69
(g85
g71
NtRp4159
(dp4160
g74
(dp4161
sg83
g4155
sg76
(lp4162
g69
(g90
g71
NtRp4163
(dp4164
g74
(dp4165
sg83
g4159
sg76
(lp4166
g69
(g70
g71
NtRp4167
(dp4168
g74
(dp4169
g82
I3
ssg83
g4163
sg76
(lp4170
cgluon.languages
lazyT_unpickle
p4171
(S't\x04\x00\x00\x00Home'
tRp4172
asbasbasbag69
(g85
g71
NtRp4173
(dp4174
g74
(dp4175
sg83
g4155
sg76
(lp4176
g69
(g90
g71
NtRp4177
(dp4178
g74
(dp4179
sg83
g4173
sg76
(lp4180
g69
(g70
g71
NtRp4181
(dp4182
g74
(dp4183
g82
I3
ssg83
g4177
sg76
(lp4184
g112
asbasbasbag69
(g85
g71
NtRp4185
(dp4186
g74
(dp4187
sg83
g4155
sg76
(lp4188
g69
(g90
g71
NtRp4189
(dp4190
g74
(dp4191
sg83
g4185
sg76
(lp4192
g69
(g70
g71
NtRp4193
(dp4194
g74
(dp4195
g82
I3
ssg83
g4189
sg76
(lp4196
S'/SeniorProject/default/index'
p4197
asbasbasbag69
(g85
g71
NtRp4198
(dp4199
g74
(dp4200
sg83
g4155
sg76
(lp4201
g69
(g90
g71
NtRp4202
(dp4203
g74
(dp4204
sg83
g4198
sg76
(lp4205
g69
(g70
g71
NtRp4206
(dp4207
g74
(dp4208
g82
I3
ssg83
g4202
sg76
(lp4209
g69
(g78
g71
NtRp4210
(dp4211
g74
(dp4212
g82
I2
ssg83
Nsg76
(lp4213
sbasbasbasbasbasbasbasbag69
(g85
g71
NtRp4214
(dp4215
g74
(dp4216
sg83
g4139
sg76
(lp4217
g69
(g90
g71
NtRp4218
(dp4219
g74
(dp4220
sg83
g4214
sg76
(lp4221
g69
(g70
g71
NtRp4222
(dp4223
g74
(dp4224
g82
I4
ssg83
g4218
sg76
(lp4225
g69
(g78
g71
NtRp4226
(dp4227
g74
(dp4228
g82
I3
ssg83
Nsg76
(lp4229
g69
(g85
g71
NtRp4230
(dp4231
g74
(dp4232
sg83
g4226
sg76
(lp4233
g69
(g90
g71
NtRp4234
(dp4235
g74
(dp4236
sg83
g4230
sg76
(lp4237
g69
(g70
g71
NtRp4238
(dp4239
g74
(dp4240
g82
I3
ssg83
g4234
sg76
(lp4241
g69
(cgluon.html
SPAN
p4242
g71
NtRp4243
(dp4244
g74
(dp4245
g94
S'color:yellow'
p4246
ssg83
Nsg76
(lp4247
g4117
asbasbasbasbag69
(g85
g71
NtRp4248
(dp4249
g74
(dp4250
sg83
g4226
sg76
(lp4251
g69
(g90
g71
NtRp4252
(dp4253
g74
(dp4254
sg83
g4248
sg76
(lp4255
g69
(g70
g71
NtRp4256
(dp4257
g74
(dp4258
g82
I3
ssg83
g4252
sg76
(lp4259
g112
asbasbasbag69
(g85
g71
NtRp4260
(dp4261
g74
(dp4262
sg83
g4226
sg76
(lp4263
g69
(g90
g71
NtRp4264
(dp4265
g74
(dp4266
sg83
g4260
sg76
(lp4267
g69
(g70
g71
NtRp4268
(dp4269
g74
(dp4270
g82
I3
ssg83
g4264
sg76
(lp4271
S'None'
p4272
asbasbasbag69
(g85
g71
NtRp4273
(dp4274
g74
(dp4275
sg83
g4226
sg76
(lp4276
g69
(g90
g71
NtRp4277
(dp4278
g74
(dp4279
sg83
g4273
sg76
(lp4280
g69
(g70
g71
NtRp4281
(dp4282
g74
(dp4283
g82
I3
ssg83
g4277
sg76
(lp4284
g69
(g78
g71
NtRp4285
(dp4286
g74
(dp4287
g82
I2
ssg83
Nsg76
(lp4288
g69
(g85
g71
NtRp4289
(dp4290
g74
(dp4291
sg83
g4285
sg76
(lp4292
g69
(g90
g71
NtRp4293
(dp4294
g74
(dp4295
sg83
g4289
sg76
(lp4296
g69
(g70
g71
NtRp4297
(dp4298
g74
(dp4299
g82
I2
ssg83
g4293
sg76
(lp4300
g69
(g78
g71
NtRp4301
(dp4302
g74
(dp4303
g82
I1
ssg83
Nsg76
(lp4304
g69
(g85
g71
NtRp4305
(dp4306
g74
(dp4307
sg83
g4301
sg76
(lp4308
g69
(g90
g71
NtRp4309
(dp4310
g74
(dp4311
sg83
g4305
sg76
(lp4312
g69
(g70
g71
NtRp4313
(dp4314
g74
(dp4315
g82
I1
ssg83
g4309
sg76
(lp4316
g4171
(S's\x08\x00\x00\x00My Sites'
tRp4317
asbasbasbag69
(g85
g71
NtRp4318
(dp4319
g74
(dp4320
sg83
g4301
sg76
(lp4321
g69
(g90
g71
NtRp4322
(dp4323
g74
(dp4324
sg83
g4318
sg76
(lp4325
g69
(g70
g71
NtRp4326
(dp4327
g74
(dp4328
g82
I1
ssg83
g4322
sg76
(lp4329
I00
asbasbasbag69
(g85
g71
NtRp4330
(dp4331
g74
(dp4332
sg83
g4301
sg76
(lp4333
g69
(g90
g71
NtRp4334
(dp4335
g74
(dp4336
sg83
g4330
sg76
(lp4337
g69
(g70
g71
NtRp4338
(dp4339
g74
(dp4340
g82
I1
ssg83
g4334
sg76
(lp4341
S'/admin/default/site'
p4342
asbasbasbasbasbasbasbag69
(g85
g71
NtRp4343
(dp4344
g74
(dp4345
sg83
g4285
sg76
(lp4346
g69
(g90
g71
NtRp4347
(dp4348
g74
(dp4349
sg83
g4343
sg76
(lp4350
g69
(g70
g71
NtRp4351
(dp4352
g74
(dp4353
g82
I2
ssg83
g4347
sg76
(lp4354
g69
(g78
g71
NtRp4355
(dp4356
g74
(dp4357
g82
I1
ssg83
Nsg76
(lp4358
g69
(g85
g71
NtRp4359
(dp4360
g74
(dp4361
sg83
g4355
sg76
(lp4362
g69
(g90
g71
NtRp4363
(dp4364
g74
(dp4365
sg83
g4359
sg76
(lp4366
g69
(g70
g71
NtRp4367
(dp4368
g74
(dp4369
g82
I1
ssg83
g4363
sg76
(lp4370
g4171
(S's\x08\x00\x00\x00This App'
tRp4371
asbasbasbag69
(g85
g71
NtRp4372
(dp4373
g74
(dp4374
sg83
g4355
sg76
(lp4375
g69
(g90
g71
NtRp4376
(dp4377
g74
(dp4378
sg83
g4372
sg76
(lp4379
g69
(g70
g71
NtRp4380
(dp4381
g74
(dp4382
g82
I1
ssg83
g4376
sg76
(lp4383
I00
asbasbasbag69
(g85
g71
NtRp4384
(dp4385
g74
(dp4386
sg83
g4355
sg76
(lp4387
g69
(g90
g71
NtRp4388
(dp4389
g74
(dp4390
sg83
g4384
sg76
(lp4391
g69
(g70
g71
NtRp4392
(dp4393
g74
(dp4394
g82
I1
ssg83
g4388
sg76
(lp4395
S'/admin/default/design/SeniorProject'
p4396
asbasbasbag69
(g85
g71
NtRp4397
(dp4398
g74
(dp4399
sg83
g4355
sg76
(lp4400
g69
(g90
g71
NtRp4401
(dp4402
g74
(dp4403
sg83
g4397
sg76
(lp4404
g69
(g70
g71
NtRp4405
(dp4406
g74
(dp4407
g82
I1
ssg83
g4401
sg76
(lp4408
(lp4409
(g4171
(S't\n\x00\x00\x00Controller'
tRp4410
I00
S'/admin/default/edit/SeniorProject/controllers/default.py'
tp4411
a(g4171
(S't\x04\x00\x00\x00View'
tRp4412
I00
S'/admin/default/edit/SeniorProject/views/default/formtable.html'
tp4413
a(g4171
(S't\x06\x00\x00\x00Layout'
tRp4414
I00
S'/admin/default/edit/SeniorProject/views/layout.html'
tp4415
a(g4171
(S't\n\x00\x00\x00Stylesheet'
tRp4416
I00
S'/admin/default/edit/SeniorProject/static/css/web2py.css'
tp4417
a(g4171
(S's\x08\x00\x00\x00DB Model'
tRp4418
I00
S'/admin/default/edit/SeniorProject/models/db.py'
tp4419
a(g4171
(S's\n\x00\x00\x00Menu Model'
tRp4420
I00
S'/admin/default/edit/SeniorProject/models/menu.py'
tp4421
a(g4171
(S't\x08\x00\x00\x00Database'
tRp4422
I00
S'/SeniorProject/appadmin/index'
tp4423
a(g4171
(S't\x06\x00\x00\x00Errors'
tRp4424
I00
S'/admin/default/errors/SeniorProject'
tp4425
a(g4171
(S't\x05\x00\x00\x00About'
tRp4426
I00
S'/admin/default/about/SeniorProject'
tp4427
aasbasbasbasbasbasbasbag69
(g85
g71
NtRp4428
(dp4429
g74
(dp4430
sg83
g4285
sg76
(lp4431
g69
(g90
g71
NtRp4432
(dp4433
g74
(dp4434
sg83
g4428
sg76
(lp4435
g69
(g70
g71
NtRp4436
(dp4437
g74
(dp4438
g82
I2
ssg83
g4432
sg76
(lp4439
g69
(g78
g71
NtRp4440
(dp4441
g74
(dp4442
g82
I1
ssg83
Nsg76
(lp4443
g69
(g85
g71
NtRp4444
(dp4445
g74
(dp4446
sg83
g4440
sg76
(lp4447
g69
(g90
g71
NtRp4448
(dp4449
g74
(dp4450
sg83
g4444
sg76
(lp4451
g69
(g70
g71
NtRp4452
(dp4453
g74
(dp4454
g82
I1
ssg83
g4448
sg76
(lp4455
S'web2py.com'
p4456
asbasbasbag69
(g85
g71
NtRp4457
(dp4458
g74
(dp4459
sg83
g4440
sg76
(lp4460
g69
(g90
g71
NtRp4461
(dp4462
g74
(dp4463
sg83
g4457
sg76
(lp4464
g69
(g70
g71
NtRp4465
(dp4466
g74
(dp4467
g82
I1
ssg83
g4461
sg76
(lp4468
I00
asbasbasbag69
(g85
g71
NtRp4469
(dp4470
g74
(dp4471
sg83
g4440
sg76
(lp4472
g69
(g90
g71
NtRp4473
(dp4474
g74
(dp4475
sg83
g4469
sg76
(lp4476
g69
(g70
g71
NtRp4477
(dp4478
g74
(dp4479
g82
I1
ssg83
g4473
sg76
(lp4480
S'http://www.web2py.com'
p4481
asbasbasbag69
(g85
g71
NtRp4482
(dp4483
g74
(dp4484
sg83
g4440
sg76
(lp4485
g69
(g90
g71
NtRp4486
(dp4487
g74
(dp4488
sg83
g4482
sg76
(lp4489
g69
(g70
g71
NtRp4490
(dp4491
g74
(dp4492
g82
I1
ssg83
g4486
sg76
(lp4493
(lp4494
(g4171
(S't\x08\x00\x00\x00Download'
tRp4495
I00
S'http://www.web2py.com/examples/default/download'
p4496
tp4497
a(g4171
(S't\x07\x00\x00\x00Support'
tRp4498
I00
S'http://www.web2py.com/examples/default/support'
p4499
tp4500
a(g4171
(S't\x04\x00\x00\x00Demo'
tRp4501
I00
S'http://web2py.com/demo_admin'
p4502
tp4503
a(g4171
(S's\x0e\x00\x00\x00Quick Examples'
tRp4504
I00
S'http://web2py.com/examples/default/examples'
p4505
tp4506
a(g4171
(S't\x03\x00\x00\x00FAQ'
tRp4507
I00
S'http://web2py.com/AlterEgo'
p4508
tp4509
a(g4171
(S't\x06\x00\x00\x00Videos'
tRp4510
I00
S'http://www.web2py.com/examples/default/videos/'
p4511
tp4512
a(g4171
(S's\x11\x00\x00\x00Free Applications'
tRp4513
I00
S'http://web2py.com/appliances'
p4514
tp4515
a(g4171
(S't\x07\x00\x00\x00Plugins'
tRp4516
I00
S'http://web2py.com/plugins'
p4517
tp4518
a(g4171
(S't\x07\x00\x00\x00Layouts'
tRp4519
I00
S'http://web2py.com/layouts'
p4520
tp4521
a(g4171
(S't\x07\x00\x00\x00Recipes'
tRp4522
I00
S'http://web2pyslices.com/'
p4523
tp4524
a(g4171
(S't\x08\x00\x00\x00Semantic'
tRp4525
I00
S'http://web2py.com/semantic'
p4526
tp4527
aasbasbasbasbasbasbasbag69
(g85
g71
NtRp4528
(dp4529
g74
(dp4530
sg83
g4285
sg76
(lp4531
g69
(g90
g71
NtRp4532
(dp4533
g74
(dp4534
sg83
g4528
sg76
(lp4535
g69
(g70
g71
NtRp4536
(dp4537
g74
(dp4538
g82
I2
ssg83
g4532
sg76
(lp4539
g69
(g78
g71
NtRp4540
(dp4541
g74
(dp4542
g82
I1
ssg83
Nsg76
(lp4543
g69
(g85
g71
NtRp4544
(dp4545
g74
(dp4546
sg83
g4540
sg76
(lp4547
g69
(g90
g71
NtRp4548
(dp4549
g74
(dp4550
sg83
g4544
sg76
(lp4551
g69
(g70
g71
NtRp4552
(dp4553
g74
(dp4554
g82
I1
ssg83
g4548
sg76
(lp4555
g4171
(S't\r\x00\x00\x00Documentation'
tRp4556
asbasbasbag69
(g85
g71
NtRp4557
(dp4558
g74
(dp4559
sg83
g4540
sg76
(lp4560
g69
(g90
g71
NtRp4561
(dp4562
g74
(dp4563
sg83
g4557
sg76
(lp4564
g69
(g70
g71
NtRp4565
(dp4566
g74
(dp4567
g82
I1
ssg83
g4561
sg76
(lp4568
I00
asbasbasbag69
(g85
g71
NtRp4569
(dp4570
g74
(dp4571
sg83
g4540
sg76
(lp4572
g69
(g90
g71
NtRp4573
(dp4574
g74
(dp4575
sg83
g4569
sg76
(lp4576
g69
(g70
g71
NtRp4577
(dp4578
g74
(dp4579
g82
I1
ssg83
g4573
sg76
(lp4580
S'http://www.web2py.com/book'
p4581
asbasbasbag69
(g85
g71
NtRp4582
(dp4583
g74
(dp4584
sg83
g4540
sg76
(lp4585
g69
(g90
g71
NtRp4586
(dp4587
g74
(dp4588
sg83
g4582
sg76
(lp4589
g69
(g70
g71
NtRp4590
(dp4591
g74
(dp4592
g82
I1
ssg83
g4586
sg76
(lp4593
(lp4594
(g4171
(S't\x07\x00\x00\x00Preface'
tRp4595
I00
S'http://www.web2py.com/book/default/chapter/00'
p4596
tp4597
a(g4171
(S't\x0c\x00\x00\x00Introduction'
tRp4598
I00
S'http://www.web2py.com/book/default/chapter/01'
p4599
tp4600
a(g4171
(S't\x06\x00\x00\x00Python'
tRp4601
I00
S'http://www.web2py.com/book/default/chapter/02'
p4602
tp4603
a(g4171
(S't\x08\x00\x00\x00Overview'
tRp4604
I00
S'http://www.web2py.com/book/default/chapter/03'
p4605
tp4606
a(g4171
(S's\x08\x00\x00\x00The Core'
tRp4607
I00
S'http://www.web2py.com/book/default/chapter/04'
p4608
tp4609
a(g4171
(S's\t\x00\x00\x00The Views'
tRp4610
I00
S'http://www.web2py.com/book/default/chapter/05'
p4611
tp4612
a(g4171
(S't\x08\x00\x00\x00Database'
tRp4613
I00
S'http://www.web2py.com/book/default/chapter/06'
p4614
tp4615
a(g4171
(S's\x14\x00\x00\x00Forms and Validators'
tRp4616
I00
S'http://www.web2py.com/book/default/chapter/07'
p4617
tp4618
a(g4171
(S's\r\x00\x00\x00Email and SMS'
tRp4619
I00
S'http://www.web2py.com/book/default/chapter/08'
p4620
tp4621
a(g4171
(S's\x0e\x00\x00\x00Access Control'
tRp4622
I00
S'http://www.web2py.com/book/default/chapter/09'
p4623
tp4624
a(g4171
(S't\x08\x00\x00\x00Services'
tRp4625
I00
S'http://www.web2py.com/book/default/chapter/10'
p4626
tp4627
a(g4171
(S's\x0c\x00\x00\x00Ajax Recipes'
tRp4628
I00
S'http://www.web2py.com/book/default/chapter/11'
p4629
tp4630
a(g4171
(S's\x16\x00\x00\x00Components and Plugins'
tRp4631
I00
S'http://www.web2py.com/book/default/chapter/12'
p4632
tp4633
a(g4171
(S's\x12\x00\x00\x00Deployment Recipes'
tRp4634
I00
S'http://www.web2py.com/book/default/chapter/13'
p4635
tp4636
a(g4171
(S's\r\x00\x00\x00Other Recipes'
tRp4637
I00
S'http://www.web2py.com/book/default/chapter/14'
p4638
tp4639
a(g4171
(S's\r\x00\x00\x00Buy this book'
tRp4640
I00
S'http://stores.lulu.com/web2py'
p4641
tp4642
aasbasbasbasbasbasbasbag69
(g85
g71
NtRp4643
(dp4644
g74
(dp4645
sg83
g4285
sg76
(lp4646
g69
(g90
g71
NtRp4647
(dp4648
g74
(dp4649
sg83
g4643
sg76
(lp4650
g69
(g70
g71
NtRp4651
(dp4652
g74
(dp4653
g82
I2
ssg83
g4647
sg76
(lp4654
g69
(g78
g71
NtRp4655
(dp4656
g74
(dp4657
g82
I1
ssg83
Nsg76
(lp4658
g69
(g85
g71
NtRp4659
(dp4660
g74
(dp4661
sg83
g4655
sg76
(lp4662
g69
(g90
g71
NtRp4663
(dp4664
g74
(dp4665
sg83
g4659
sg76
(lp4666
g69
(g70
g71
NtRp4667
(dp4668
g74
(dp4669
g82
I1
ssg83
g4663
sg76
(lp4670
g4171
(S't\t\x00\x00\x00Community'
tRp4671
asbasbasbag69
(g85
g71
NtRp4672
(dp4673
g74
(dp4674
sg83
g4655
sg76
(lp4675
g69
(g90
g71
NtRp4676
(dp4677
g74
(dp4678
sg83
g4672
sg76
(lp4679
g69
(g70
g71
NtRp4680
(dp4681
g74
(dp4682
g82
I1
ssg83
g4676
sg76
(lp4683
I00
asbasbasbag69
(g85
g71
NtRp4684
(dp4685
g74
(dp4686
sg83
g4655
sg76
(lp4687
g69
(g90
g71
NtRp4688
(dp4689
g74
(dp4690
sg83
g4684
sg76
(lp4691
g69
(g70
g71
NtRp4692
(dp4693
g74
(dp4694
g82
I1
ssg83
g4688
sg76
(lp4695
Nasbasbasbag69
(g85
g71
NtRp4696
(dp4697
g74
(dp4698
sg83
g4655
sg76
(lp4699
g69
(g90
g71
NtRp4700
(dp4701
g74
(dp4702
sg83
g4696
sg76
(lp4703
g69
(g70
g71
NtRp4704
(dp4705
g74
(dp4706
g82
I1
ssg83
g4700
sg76
(lp4707
(lp4708
(g4171
(S't\x06\x00\x00\x00Groups'
tRp4709
I00
S'http://www.web2py.com/examples/default/usergroups'
p4710
tp4711
a(g4171
(S't\x07\x00\x00\x00Twitter'
tRp4712
I00
S'http://twitter.com/web2py'
p4713
tp4714
a(g4171
(S's\t\x00\x00\x00Live Chat'
tRp4715
I00
S'http://webchat.freenode.net/?channels=web2py'
p4716
tp4717
aasbasbasbasbasbasbasbag69
(g85
g71
NtRp4718
(dp4719
g74
(dp4720
sg83
g4285
sg76
(lp4721
g69
(g90
g71
NtRp4722
(dp4723
g74
(dp4724
sg83
g4718
sg76
(lp4725
g69
(g70
g71
NtRp4726
(dp4727
g74
(dp4728
g82
I2
ssg83
g4722
sg76
(lp4729
g69
(g78
g71
NtRp4730
(dp4731
g74
(dp4732
g82
I1
ssg83
Nsg76
(lp4733
g69
(g85
g71
NtRp4734
(dp4735
g74
(dp4736
sg83
g4730
sg76
(lp4737
g69
(g90
g71
NtRp4738
(dp4739
g74
(dp4740
sg83
g4734
sg76
(lp4741
g69
(g70
g71
NtRp4742
(dp4743
g74
(dp4744
g82
I1
ssg83
g4738
sg76
(lp4745
g4171
(S't\x07\x00\x00\x00Plugins'
tRp4746
asbasbasbag69
(g85
g71
NtRp4747
(dp4748
g74
(dp4749
sg83
g4730
sg76
(lp4750
g69
(g90
g71
NtRp4751
(dp4752
g74
(dp4753
sg83
g4747
sg76
(lp4754
g69
(g70
g71
NtRp4755
(dp4756
g74
(dp4757
g82
I1
ssg83
g4751
sg76
(lp4758
I00
asbasbasbag69
(g85
g71
NtRp4759
(dp4760
g74
(dp4761
sg83
g4730
sg76
(lp4762
g69
(g90
g71
NtRp4763
(dp4764
g74
(dp4765
sg83
g4759
sg76
(lp4766
g69
(g70
g71
NtRp4767
(dp4768
g74
(dp4769
g82
I1
ssg83
g4763
sg76
(lp4770
Nasbasbasbag69
(g85
g71
NtRp4771
(dp4772
g74
(dp4773
sg83
g4730
sg76
(lp4774
g69
(g90
g71
NtRp4775
(dp4776
g74
(dp4777
sg83
g4771
sg76
(lp4778
g69
(g70
g71
NtRp4779
(dp4780
g74
(dp4781
g82
I1
ssg83
g4775
sg76
(lp4782
(lp4783
(S'plugin_wiki'
p4784
I00
S'http://web2py.com/examples/default/download'
p4785
tp4786
a(g4171
(S's\r\x00\x00\x00Other Plugins'
tRp4787
I00
g4517
tp4788
a(g4171
(S's\x0e\x00\x00\x00Layout Plugins'
tRp4789
I00
g4520
tp4790
aasbasbasbasbasbasbasbasbasbasbasbasbasbasbasbasbasbasbasbag69
(g85
g71
NtRp4791
(dp4792
g74
(dp4793
sg83
g3614
sg76
(lp4794
g69
(g90
g71
NtRp4795
(dp4796
g74
(dp4797
g94
g95
ssg83
g4791
sg76
(lp4798
S'meta'
p4799
asbag69
(g90
g71
NtRp4800
(dp4801
g74
(dp4802
g101
g102
ssg83
g4791
sg76
(lp4803
S':'
asbag69
(g90
g71
NtRp4804
(dp4805
g74
(dp4806
sg83
g4791
sg76
(lp4807
g69
(g70
g71
NtRp4808
(dp4809
g74
(dp4810
g82
I5
ssg83
g4804
sg76
(lp4811
g69
(g78
g71
NtRp4812
(dp4813
g74
(dp4814
g82
I4
ssg83
Nsg76
(lp4815
g69
(g85
g71
NtRp4816
(dp4817
g74
(dp4818
sg83
g4812
sg76
(lp4819
g69
(g90
g71
NtRp4820
(dp4821
g74
(dp4822
g94
g95
ssg83
g4816
sg76
(lp4823
S'author'
p4824
asbag69
(g90
g71
NtRp4825
(dp4826
g74
(dp4827
g101
g102
ssg83
g4816
sg76
(lp4828
S':'
asbag69
(g90
g71
NtRp4829
(dp4830
g74
(dp4831
sg83
g4816
sg76
(lp4832
g69
(g70
g71
NtRp4833
(dp4834
g74
(dp4835
g82
I4
ssg83
g4829
sg76
(lp4836
S'Your Name <you@example.com>'
p4837
asbasbasbag69
(g85
g71
NtRp4838
(dp4839
g74
(dp4840
sg83
g4812
sg76
(lp4841
g69
(g90
g71
NtRp4842
(dp4843
g74
(dp4844
g94
g95
ssg83
g4838
sg76
(lp4845
S'copyright'
p4846
asbag69
(g90
g71
NtRp4847
(dp4848
g74
(dp4849
g101
g102
ssg83
g4838
sg76
(lp4850
S':'
asbag69
(g90
g71
NtRp4851
(dp4852
g74
(dp4853
sg83
g4838
sg76
(lp4854
g69
(g70
g71
NtRp4855
(dp4856
g74
(dp4857
g82
I4
ssg83
g4851
sg76
(lp4858
S'Copyright 2011'
p4859
asbasbasbag69
(g85
g71
NtRp4860
(dp4861
g74
(dp4862
sg83
g4812
sg76
(lp4863
g69
(g90
g71
NtRp4864
(dp4865
g74
(dp4866
g94
g95
ssg83
g4860
sg76
(lp4867
S'description'
p4868
asbag69
(g90
g71
NtRp4869
(dp4870
g74
(dp4871
g101
g102
ssg83
g4860
sg76
(lp4872
S':'
asbag69
(g90
g71
NtRp4873
(dp4874
g74
(dp4875
sg83
g4860
sg76
(lp4876
g69
(g70
g71
NtRp4877
(dp4878
g74
(dp4879
g82
I4
ssg83
g4873
sg76
(lp4880
S'a cool new app'
p4881
asbasbasbag69
(g85
g71
NtRp4882
(dp4883
g74
(dp4884
sg83
g4812
sg76
(lp4885
g69
(g90
g71
NtRp4886
(dp4887
g74
(dp4888
g94
g95
ssg83
g4882
sg76
(lp4889
S'generator'
p4890
asbag69
(g90
g71
NtRp4891
(dp4892
g74
(dp4893
g101
g102
ssg83
g4882
sg76
(lp4894
S':'
asbag69
(g90
g71
NtRp4895
(dp4896
g74
(dp4897
sg83
g4882
sg76
(lp4898
g69
(g70
g71
NtRp4899
(dp4900
g74
(dp4901
g82
I4
ssg83
g4895
sg76
(lp4902
S'Web2py Web Framework'
p4903
asbasbasbag69
(g85
g71
NtRp4904
(dp4905
g74
(dp4906
sg83
g4812
sg76
(lp4907
g69
(g90
g71
NtRp4908
(dp4909
g74
(dp4910
g94
g95
ssg83
g4904
sg76
(lp4911
S'keywords'
p4912
asbag69
(g90
g71
NtRp4913
(dp4914
g74
(dp4915
g101
g102
ssg83
g4904
sg76
(lp4916
S':'
asbag69
(g90
g71
NtRp4917
(dp4918
g74
(dp4919
sg83
g4904
sg76
(lp4920
g69
(g70
g71
NtRp4921
(dp4922
g74
(dp4923
g82
I4
ssg83
g4917
sg76
(lp4924
S'web2py, python, framework'
p4925
asbasbasbasbasbasbasbag69
(g85
g71
NtRp4926
(dp4927
g74
(dp4928
sg83
g3614
sg76
(lp4929
g69
(g90
g71
NtRp4930
(dp4931
g74
(dp4932
g94
g95
ssg83
g4926
sg76
(lp4933
S'postprocessing'
p4934
asbag69
(g90
g71
NtRp4935
(dp4936
g74
(dp4937
g101
g102
ssg83
g4926
sg76
(lp4938
S':'
asbag69
(g90
g71
NtRp4939
(dp4940
g74
(dp4941
sg83
g4926
sg76
(lp4942
g69
(g70
g71
NtRp4943
(dp4944
g74
(dp4945
g82
I5
ssg83
g4939
sg76
(lp4946
g69
(g78
g71
NtRp4947
(dp4948
g74
(dp4949
g82
I4
ssg83
Nsg76
(lp4950
sbasbasbasbag69
(g85
g71
NtRp4951
(dp4952
g74
(dp4953
sg83
g3614
sg76
(lp4954
g69
(g90
g71
NtRp4955
(dp4956
g74
(dp4957
g94
g95
ssg83
g4951
sg76
(lp4958
S'session_file'
p4959
asbag69
(g90
g71
NtRp4960
(dp4961
g74
(dp4962
g101
g102
ssg83
g4951
sg76
(lp4963
S':'
asbag69
(g90
g71
NtRp4964
(dp4965
g74
(dp4966
sg83
g4951
sg76
(lp4967
g69
(g70
g71
NtRp4968
(dp4969
g74
(dp4970
g82
I5
ssg83
g4964
sg76
(lp4971
S"<open file '/Users/hainna01/Desktop/SeniorProject/finholt-senior-project/web2py/applications/SeniorProject/sessions/127.0.0.1-35fcac76-7f11-47e5-9e54-eb77cd194136', mode 'rb+' at 0x105b49f60>"
p4972
asbasbasbag69
(g85
g71
NtRp4973
(dp4974
g74
(dp4975
sg83
g3614
sg76
(lp4976
g69
(g90
g71
NtRp4977
(dp4978
g74
(dp4979
g94
g95
ssg83
g4973
sg76
(lp4980
S'session_filename'
p4981
asbag69
(g90
g71
NtRp4982
(dp4983
g74
(dp4984
g101
g102
ssg83
g4973
sg76
(lp4985
S':'
asbag69
(g90
g71
NtRp4986
(dp4987
g74
(dp4988
sg83
g4973
sg76
(lp4989
g69
(g70
g71
NtRp4990
(dp4991
g74
(dp4992
g82
I5
ssg83
g4986
sg76
(lp4993
S'/Users/hainna01/Desktop/SeniorProject/finholt-senior-project/web2py/applications/SeniorProject/sessions/127.0.0.1-35fcac76-7f11-47e5-9e54-eb77cd194136'
p4994
asbasbasbag69
(g85
g71
NtRp4995
(dp4996
g74
(dp4997
sg83
g3614
sg76
(lp4998
g69
(g90
g71
NtRp4999
(dp5000
g74
(dp5001
g94
g95
ssg83
g4995
sg76
(lp5002
S'session_id'
p5003
asbag69
(g90
g71
NtRp5004
(dp5005
g74
(dp5006
g101
g102
ssg83
g4995
sg76
(lp5007
S':'
asbag69
(g90
g71
NtRp5008
(dp5009
g74
(dp5010
sg83
g4995
sg76
(lp5011
g69
(g70
g71
NtRp5012
(dp5013
g74
(dp5014
g82
I5
ssg83
g5008
sg76
(lp5015
S'127.0.0.1-35fcac76-7f11-47e5-9e54-eb77cd194136'
p5016
asbasbasbag69
(g85
g71
NtRp5017
(dp5018
g74
(dp5019
sg83
g3614
sg76
(lp5020
g69
(g90
g71
NtRp5021
(dp5022
g74
(dp5023
g94
g95
ssg83
g5017
sg76
(lp5024
S'session_id_name'
p5025
asbag69
(g90
g71
NtRp5026
(dp5027
g74
(dp5028
g101
g102
ssg83
g5017
sg76
(lp5029
S':'
asbag69
(g90
g71
NtRp5030
(dp5031
g74
(dp5032
sg83
g5017
sg76
(lp5033
g69
(g70
g71
NtRp5034
(dp5035
g74
(dp5036
g82
I5
ssg83
g5030
sg76
(lp5037
g3671
asbasbasbag69
(g85
g71
NtRp5038
(dp5039
g74
(dp5040
sg83
g3614
sg76
(lp5041
g69
(g90
g71
NtRp5042
(dp5043
g74
(dp5044
g94
g95
ssg83
g5038
sg76
(lp5045
S'session_locked'
p5046
asbag69
(g90
g71
NtRp5047
(dp5048
g74
(dp5049
g101
g102
ssg83
g5038
sg76
(lp5050
S':'
asbag69
(g90
g71
NtRp5051
(dp5052
g74
(dp5053
sg83
g5038
sg76
(lp5054
g69
(g70
g71
NtRp5055
(dp5056
g74
(dp5057
g82
I5
ssg83
g5051
sg76
(lp5058
g1713
asbasbasbag69
(g85
g71
NtRp5059
(dp5060
g74
(dp5061
sg83
g3614
sg76
(lp5062
g69
(g90
g71
NtRp5063
(dp5064
g74
(dp5065
g94
g95
ssg83
g5059
sg76
(lp5066
S'session_new'
p5067
asbag69
(g90
g71
NtRp5068
(dp5069
g74
(dp5070
g101
g102
ssg83
g5059
sg76
(lp5071
S':'
asbag69
(g90
g71
NtRp5072
(dp5073
g74
(dp5074
sg83
g5059
sg76
(lp5075
g69
(g70
g71
NtRp5076
(dp5077
g74
(dp5078
g82
I5
ssg83
g5072
sg76
(lp5079
g112
asbasbasbag69
(g85
g71
NtRp5080
(dp5081
g74
(dp5082
sg83
g3614
sg76
(lp5083
g69
(g90
g71
NtRp5084
(dp5085
g74
(dp5086
g94
g95
ssg83
g5080
sg76
(lp5087
S'status'
p5088
asbag69
(g90
g71
NtRp5089
(dp5090
g74
(dp5091
g101
g102
ssg83
g5080
sg76
(lp5092
S':'
asbag69
(g90
g71
NtRp5093
(dp5094
g74
(dp5095
sg83
g5080
sg76
(lp5096
g69
(g70
g71
NtRp5097
(dp5098
g74
(dp5099
g82
I5
ssg83
g5093
sg76
(lp5100
S'200'
p5101
asbasbasbag69
(g85
g71
NtRp5102
(dp5103
g74
(dp5104
sg83
g3614
sg76
(lp5105
g69
(g90
g71
NtRp5106
(dp5107
g74
(dp5108
g94
g95
ssg83
g5102
sg76
(lp5109
S'subtitle'
p5110
asbag69
(g90
g71
NtRp5111
(dp5112
g74
(dp5113
g101
g102
ssg83
g5102
sg76
(lp5114
S':'
asbag69
(g90
g71
NtRp5115
(dp5116
g74
(dp5117
sg83
g5102
sg76
(lp5118
g69
(g70
g71
NtRp5119
(dp5120
g74
(dp5121
g82
I5
ssg83
g5115
sg76
(lp5122
g4171
(S's\r\x00\x00\x00customize me!'
tRp5123
asbasbasbag69
(g85
g71
NtRp5124
(dp5125
g74
(dp5126
sg83
g3614
sg76
(lp5127
g69
(g90
g71
NtRp5128
(dp5129
g74
(dp5130
g94
g95
ssg83
g5124
sg76
(lp5131
S'title'
p5132
asbag69
(g90
g71
NtRp5133
(dp5134
g74
(dp5135
g101
g102
ssg83
g5124
sg76
(lp5136
S':'
asbag69
(g90
g71
NtRp5137
(dp5138
g74
(dp5139
sg83
g5124
sg76
(lp5140
g69
(g70
g71
NtRp5141
(dp5142
g74
(dp5143
g82
I5
ssg83
g5137
sg76
(lp5144
S'Seniorproject'
p5145
asbasbasbag69
(g85
g71
NtRp5146
(dp5147
g74
(dp5148
sg83
g3614
sg76
(lp5149
g69
(g90
g71
NtRp5150
(dp5151
g74
(dp5152
g94
g95
ssg83
g5146
sg76
(lp5153
g2420
asbag69
(g90
g71
NtRp5154
(dp5155
g74
(dp5156
g101
g102
ssg83
g5146
sg76
(lp5157
S':'
asbag69
(g90
g71
NtRp5158
(dp5159
g74
(dp5160
sg83
g5146
sg76
(lp5161
g69
(g70
g71
NtRp5162
(dp5163
g74
(dp5164
g82
I5
ssg83
g5158
sg76
(lp5165
g2433
asbasbasbag69
(g85
g71
NtRp5166
(dp5167
g74
(dp5168
sg83
g3614
sg76
(lp5169
g69
(g90
g71
NtRp5170
(dp5171
g74
(dp5172
g94
g95
ssg83
g5166
sg76
(lp5173
S'view'
p5174
asbag69
(g90
g71
NtRp5175
(dp5176
g74
(dp5177
g101
g102
ssg83
g5166
sg76
(lp5178
S':'
asbag69
(g90
g71
NtRp5179
(dp5180
g74
(dp5181
sg83
g5166
sg76
(lp5182
g69
(g70
g71
NtRp5183
(dp5184
g74
(dp5185
g82
I5
ssg83
g5179
sg76
(lp5186
S'default/formtable.html'
p5187
asbasbasbasbasbsS'locals'
p5188
(dp5189
g4
S"'/Users/hainna01/Desktop/SeniorProject/finholt-se...ations/SeniorProject/views/default/formtable.html'"
p5190
sg6
S'r"response.write(\'<!DOCTYPE html>\\r\\n<html>\\r\\n\\r\\...ody>\\r\\n\\r\\n\\r\\n\\r\\n  </html>\\r\\n\', escape=False)"'
p5191
sssS'traceback'
p5192
S'Traceback (most recent call last):\n  File "/Users/hainna01/Desktop/SeniorProject/finholt-senior-project/web2py/gluon/restricted.py", line 204, in restricted\n    ccode = compile2(code,layer)\n  File "/Users/hainna01/Desktop/SeniorProject/finholt-senior-project/web2py/gluon/restricted.py", line 189, in compile2\n    return compile(code.rstrip().replace(\'\\r\\n\',\'\\n\')+\'\\n\', layer, \'exec\')\n  File "/Users/hainna01/Desktop/SeniorProject/finholt-senior-project/web2py/applications/SeniorProject/views/default/formtable.html", line 35\n    response.write(\'), children:[{label:"<a href=\\\'\', escape=False)\n           ^\nSyntaxError: invalid syntax\n'
p5193
s.