(dp1
S'output'
p2
S"<type 'exceptions.SyntaxError'> invalid syntax (formtable.html, line 50)"
p3
sS'layer'
p4
S'/Users/hainna01/Desktop/SeniorProject/finholt-senior-project/web2py/applications/SeniorProject/views/default/formtable.html'
p5
sS'code'
p6
S'response.write(\'<!DOCTYPE html>\\r\\n<html>\\r\\n\\r\\n<head>\\r\\n<title>Senior Project</title>\\r\\n<link rel="stylesheet" href="\', escape=False)\nresponse.write(URL(\'static\',\'css/style.css\'))\nresponse.write(\'" type="text/css" media="all" />\\r\\n<link rel="stylesheet" href="\', escape=False)\nresponse.write(URL(\'static\',\'css/jquery.datatables.css\'))\nresponse.write(\'" type="text/css" media="all" />\\r\\n<link rel="stylesheet" href="http://code.jquery.com/ui/1.9.0/themes/base/jquery-ui.css" />\\r\\n<link rel="stylesheet" href="\', escape=False)\nresponse.write(URL(\'static\',\'jqTree/jqtree.css\'))\nresponse.write(\'"/>\\r\\n\\r\\n  <script src="http://ajax.googleapis.com/ajax/libs/jqueryui/1.8.16/jquery-ui.min.js" type="text/javascript"></script>\\r\\n  <script src="\', escape=False)\nresponse.write(URL(\'static\',\'js/jquery.js\'))\nresponse.write(\'"></script> \\r\\n  <script src="\', escape=False)\nresponse.write(URL(\'static\',\'js/jquery.ui.accordion.js\'))\nresponse.write(\'"></script> \\r\\n  <script src="\', escape=False)\nresponse.write(URL(\'static\',\'js/jquery.datatables.js\'))\nresponse.write(\'"></script> \\r\\n  <script src="\', escape=False)\nresponse.write(URL(\'static\',\'js/jquery-ui-1.9.0.custom.min.js\'))\nresponse.write(\'"></script> \\r\\n  <script src="\', escape=False)\nresponse.write(URL(\'static\',\'jqTree/tree.jquery.js\'))\nresponse.write(\'"></script>\\r\\n<script type="text/javascript">\\r\\n$(document).ready(function(){\\r\\n\\r\\n$("#CCD").click(function(){\\r\\n$("#content").html(\\\'\', escape=False)\nresponse.write(ccdForm)\nresponse.write(\'\\\')\\r\\n})\\r\\n\\r\\n$("#RFI").click(function(){\\r\\n$("#content").html(\\\'\', escape=False)\nresponse.write(rfiForm)\nresponse.write(\'\\\')\\r\\n$("#RFI_dateSent").datepicker({"dateFormat": "yy-mm-dd"})\\r\\n$("#RFI_dateRec").datepicker({"dateFormat": "yy-mm-dd"})\\r\\n$("#RFI_responseDate").datepicker({"dateFormat": "yy-mm-dd"})\\r\\n})\\r\\n\\r\\n$("#Submittal").click(function(){\\r\\n$("#content").html(\\\'\', escape=False)\nresponse.write(submittalForm)\nresponse.write(\'\\\')\\r\\n})\\r\\n\\r\\n$("#ProposalRequest").click(function(){\\r\\n$("#content").html(\\\'\', escape=False)\nresponse.write(proposalRequestForm)\nresponse.write(\'\\\')\\r\\n$("#ProposalRequest_propDate").datepicker({"dateFormat": "yy-mm-dd"})\\r\\n})\\r\\n\\r\\n$("#Proposal").click(function(){\\r\\n$("#content").html(\\\'\', escape=False)\nresponse.write(proposalForm)\nresponse.write(\'\\\')\\r\\n$("#Proposal_propDate").datepicker({"dateFormat": "yy-mm-dd"})\\r\\n})\\r\\n\\r\\n$("#MeetingMinutes").click(function(){\\r\\n$("#content").html(\\\'\', escape=False)\nresponse.write(meetingMinutesForm)\nresponse.write(\'\\\')\\r\\n$("#MeetingMinutes_meetDate").datepicker({"dateFormat": "yy-mm-dd"})\\r\\n})\\r\\n\\r\\n\\r\\nvar data = [];\\r\\n\\r\\n\\r\\n\', escape=False)\nfor index  in range(len(projects)):\n    response.write(\'\\r\\n  data.push({label:"Project "+"\', escape=False)\n    response.write(T(projects[index].name))\n    response.write(\'",id:\', escape=False)\n    response.write(T(str(projects[index].id)))\n    response.write(\', children:[{label:"<a href=\\\'\', escape=False)\n    response.write(URL(\'default\',\'formtable\',vars=dict(formType=\'RFI\',projectNum=projects[index].id)))\n    response.write(\'\\\'>RFIs</a>"},\\r\\n  {label:"<a href=\\\'\', escape=False)\n    response.write(URL(\'default\',\'formtable\',vars=dict(formType=\'Submittal\',projectNum=projects[index].id)))\n    response.write(\'\\\'>Submittals</a>"},\\r\\n  {label:"<a href=\\\'\', escape=False)\n    response.write(URL(\'default\',\'formtable\',vars=dict(formType=\'CCD\',projectNum=projects[index].id)))\n    response.write(\'\\\'>CCDs</a>"},\\r\\n  {label:"<a href=\\\'\', escape=False)\n    response.write(URL(\'default\',\'formtable\',vars=dict(formType=\'ProposalRequest\',projectNum=projects[index].id)))\n    response.write(\'\\\'>Proposal Requests</a>"},\\r\\n  {label:"<a href=\\\'\', escape=False)\n    response.write(URL(\'default\',\'formtable\',vars=dict(formType=\'Proposal\',projectNum=projects[index].id)))\n    response.write(\'\\\'>Proposals</a>"},\\r\\n  {label:"<a href=\\\'\', escape=False)\n    response.write(URL(\'default\',\'formtable\',vars=dict(formType=\'MeetingMinutes\',projectNum=projects[index].id)))\n    response.write(\'\\\'>Meeting Minutes</a>"} ]});\\r\\n  \', escape=False)\n    pass\nresponse.write(" \\r\\n\\r\\n\\r\\n\\r\\n\\r\\n$(function() {\\r\\n    $(\'#projectsidebar\').tree({\\r\\n        data: data,\\r\\n        autoEscape:false\\r\\n    });\\r\\n});\\r\\nvar node = $(\'#projectsidebar\').tree(\'getNodeById\', ", escape=False)\nstr(=request.vars.projectNum)\nresponse.write(\');\\r\\n$(\\\'#projectsidebar\\\').tree(\\\'openNode\\\', node);\\r\\n\\r\\n$("#content").append(\\\'\', escape=False)\nresponse.write(table)\nresponse.write("\');\\r\\n\\r\\n", escape=False)\nif fullTable==True:\n    response.write(\'\\r\\n$("#content table").dataTable(\\r\\n  );\\r\\n\', escape=False)\n    pass\nresponse.write(\'\\r\\n\\r\\n\\r\\n});\\r\\n</script>\\r\\n\\r\\n</head>\\r\\n\\r\\n<body>\\r\\n\\r\\n    <div id="header">\\r\\n      <img src="\', escape=False)\nresponse.write(URL(\'static\',\'images/stock.jpeg\'))\nresponse.write(\'"/>\\r\\n    </div>\\r\\n\\r\\n    <ul id = "projecttabs">\\r\\n        <li>Calendar</li>\\r\\n        <li id="CCD">Upload CCD</li>\\r\\n        <li id="RFI">Generate RFI</li>\\r\\n        <li id="Submittal">Upload Submittal</li>\\r\\n        <li id="ProposalRequest">Generate Proposal Request</li>\\r\\n        <li id="Proposal">Upload Proposal</li>\\r\\n        <li id="MeetingMinutes">Meeting Minutes</li>\\r\\n        <li>Upload Photo</li>\\r\\n    </ul>\\r\\n    <hr>\\r\\n    <div id="projectsidebar">\\r\\n    \\r\\n\\r\\n    </div>\\r\\n    <div id="content">\\r\\n      \\r\\n    </div>\\r\\n    <div id="adminsidebar">\\r\\n    <ul>\\r\\n        <li><a href="\', escape=False)\nresponse.write(URL(\'default\',\'createproject\'))\nresponse.write(\'">Add Project</a></li>\\r\\n    </ul>\\r\\n\\r\\n    </div>\\r\\n    \\r\\n\\r\\n    \', escape=False)\nresponse.write(footer)\nresponse.write(\'\\r\\n</body>\\r\\n\\r\\n\\r\\n\\r\\n  </html>\\r\\n\', escape=False)'
p7
sS'snapshot'
p8
(dp9
S'exception'
p10
(dp11
S'__getslice__'
p12
S"<method-wrapper '__getslice__' of exceptions.SyntaxError object>"
p13
sS'text'
p14
S"'str(=request.vars.projectNum)\\n'"
p15
sS'__str__'
p16
S"<method-wrapper '__str__' of exceptions.SyntaxError object>"
p17
sS'__reduce__'
p18
S'<built-in method __reduce__ of exceptions.SyntaxError object>'
p19
sS'__dict__'
p20
S'{}'
p21
sS'__sizeof__'
p22
S'<built-in method __sizeof__ of exceptions.SyntaxError object>'
p23
sS'__init__'
p24
S"<method-wrapper '__init__' of exceptions.SyntaxError object>"
p25
sS'__setattr__'
p26
S"<method-wrapper '__setattr__' of exceptions.SyntaxError object>"
p27
sS'__reduce_ex__'
p28
S'<built-in method __reduce_ex__ of exceptions.SyntaxError object>'
p29
sS'__new__'
p30
S'<built-in method __new__ of type object>'
p31
sS'__format__'
p32
S'<built-in method __format__ of exceptions.SyntaxError object>'
p33
sS'__class__'
p34
S"<type 'exceptions.SyntaxError'>"
p35
sS'filename'
p36
S"'/Users/hainna01/Desktop/SeniorProject/finholt-se...ations/SeniorProject/views/default/formtable.html'"
p37
sS'lineno'
p38
S'50'
p39
sS'msg'
p40
S"'invalid syntax'"
p41
sS'__doc__'
p42
S"'Invalid syntax.'"
p43
sS'__getitem__'
p44
S"<method-wrapper '__getitem__' of exceptions.SyntaxError object>"
p45
sS'__setstate__'
p46
S'<built-in method __setstate__ of exceptions.SyntaxError object>'
p47
sS'__getattribute__'
p48
S"<method-wrapper '__getattribute__' of exceptions.SyntaxError object>"
p49
sS'print_file_and_line'
p50
S'None'
p51
sS'args'
p52
S"('invalid syntax', ('/Users/hainna01/Desktop/SeniorProject/finholt-se...ations/SeniorProject/views/default/formtable.html', 50, 5, 'str(=request.vars.projectNum)\\n'))"
p53
sS'__subclasshook__'
p54
S'<built-in method __subclasshook__ of type object>'
p55
sS'offset'
p56
S'5'
sS'__unicode__'
p57
S'<built-in method __unicode__ of exceptions.SyntaxError object>'
p58
sS'__delattr__'
p59
S"<method-wrapper '__delattr__' of exceptions.SyntaxError object>"
p60
sS'__repr__'
p61
S"<method-wrapper '__repr__' of exceptions.SyntaxError object>"
p62
sS'__hash__'
p63
S"<method-wrapper '__hash__' of exceptions.SyntaxError object>"
p64
ssS'evalue'
p65
S'invalid syntax (formtable.html, line 50)'
p66
sS'request'
p67
ccopy_reg
_reconstructor
p68
(cgluon.html
BEAUTIFY
p69
c__builtin__
object
p70
NtRp71
(dp72
S'attributes'
p73
(dp74
sS'components'
p75
(lp76
g68
(cgluon.html
TABLE
p77
g70
NtRp78
(dp79
g73
(dp80
S'level'
p81
I5
ssS'parent'
p82
Nsg75
(lp83
g68
(cgluon.html
TR
p84
g70
NtRp85
(dp86
g73
(dp87
sg82
g78
sg75
(lp88
g68
(cgluon.html
TD
p89
g70
NtRp90
(dp91
g73
(dp92
S'_style'
p93
S'font-weight:bold;vertical-align:top'
p94
ssg82
g85
sg75
(lp95
S'ajax'
p96
asbag68
(g89
g70
NtRp97
(dp98
g73
(dp99
S'_valign'
p100
S'top'
p101
ssg82
g85
sg75
(lp102
S':'
asbag68
(g89
g70
NtRp103
(dp104
g73
(dp105
sg82
g85
sg75
(lp106
g68
(g69
g70
NtRp107
(dp108
g73
(dp109
g81
I5
ssg82
g103
sg75
(lp110
S'False'
p111
asbasbasbag68
(g84
g70
NtRp112
(dp113
g73
(dp114
sg82
g78
sg75
(lp115
g68
(g89
g70
NtRp116
(dp117
g73
(dp118
g93
g94
ssg82
g112
sg75
(lp119
S'application'
p120
asbag68
(g89
g70
NtRp121
(dp122
g73
(dp123
g100
g101
ssg82
g112
sg75
(lp124
S':'
asbag68
(g89
g70
NtRp125
(dp126
g73
(dp127
sg82
g112
sg75
(lp128
g68
(g69
g70
NtRp129
(dp130
g73
(dp131
g81
I5
ssg82
g125
sg75
(lp132
S'SeniorProject'
p133
asbasbasbag68
(g84
g70
NtRp134
(dp135
g73
(dp136
sg82
g78
sg75
(lp137
g68
(g89
g70
NtRp138
(dp139
g73
(dp140
g93
g94
ssg82
g134
sg75
(lp141
g52
asbag68
(g89
g70
NtRp142
(dp143
g73
(dp144
g100
g101
ssg82
g134
sg75
(lp145
S':'
asbag68
(g89
g70
NtRp146
(dp147
g73
(dp148
sg82
g134
sg75
(lp149
g68
(g69
g70
NtRp150
(dp151
g73
(dp152
g81
I5
ssg82
g146
sg75
(lp153
g68
(g77
g70
NtRp154
(dp155
g73
(dp156
g81
I4
ssg82
Nsg75
(lp157
sbasbasbasbag68
(g84
g70
NtRp158
(dp159
g73
(dp160
sg82
g78
sg75
(lp161
g68
(g89
g70
NtRp162
(dp163
g73
(dp164
g93
g94
ssg82
g158
sg75
(lp165
S'body'
p166
asbag68
(g89
g70
NtRp167
(dp168
g73
(dp169
g100
g101
ssg82
g158
sg75
(lp170
S':'
asbag68
(g89
g70
NtRp171
(dp172
g73
(dp173
sg82
g158
sg75
(lp174
g68
(g69
g70
NtRp175
(dp176
g73
(dp177
g81
I5
ssg82
g171
sg75
(lp178
S'<cStringIO.StringO object at 0x10c455a40>'
p179
asbasbasbag68
(g84
g70
NtRp180
(dp181
g73
(dp182
sg82
g78
sg75
(lp183
g68
(g89
g70
NtRp184
(dp185
g73
(dp186
g93
g94
ssg82
g180
sg75
(lp187
S'client'
p188
asbag68
(g89
g70
NtRp189
(dp190
g73
(dp191
g100
g101
ssg82
g180
sg75
(lp192
S':'
asbag68
(g89
g70
NtRp193
(dp194
g73
(dp195
sg82
g180
sg75
(lp196
g68
(g69
g70
NtRp197
(dp198
g73
(dp199
g81
I5
ssg82
g193
sg75
(lp200
S'127.0.0.1'
p201
asbasbasbag68
(g84
g70
NtRp202
(dp203
g73
(dp204
sg82
g78
sg75
(lp205
g68
(g89
g70
NtRp206
(dp207
g73
(dp208
g93
g94
ssg82
g202
sg75
(lp209
S'controller'
p210
asbag68
(g89
g70
NtRp211
(dp212
g73
(dp213
g100
g101
ssg82
g202
sg75
(lp214
S':'
asbag68
(g89
g70
NtRp215
(dp216
g73
(dp217
sg82
g202
sg75
(lp218
g68
(g69
g70
NtRp219
(dp220
g73
(dp221
g81
I5
ssg82
g215
sg75
(lp222
S'default'
p223
asbasbasbag68
(g84
g70
NtRp224
(dp225
g73
(dp226
sg82
g78
sg75
(lp227
g68
(g89
g70
NtRp228
(dp229
g73
(dp230
g93
g94
ssg82
g224
sg75
(lp231
S'cookies'
p232
asbag68
(g89
g70
NtRp233
(dp234
g73
(dp235
g100
g101
ssg82
g224
sg75
(lp236
S':'
asbag68
(g89
g70
NtRp237
(dp238
g73
(dp239
sg82
g224
sg75
(lp240
g68
(g69
g70
NtRp241
(dp242
g73
(dp243
g81
I5
ssg82
g237
sg75
(lp244
g68
(g77
g70
NtRp245
(dp246
g73
(dp247
g81
I4
ssg82
Nsg75
(lp248
g68
(g84
g70
NtRp249
(dp250
g73
(dp251
sg82
g245
sg75
(lp252
g68
(g89
g70
NtRp253
(dp254
g73
(dp255
g93
g94
ssg82
g249
sg75
(lp256
S'session_id_admin'
p257
asbag68
(g89
g70
NtRp258
(dp259
g73
(dp260
g100
g101
ssg82
g249
sg75
(lp261
S':'
asbag68
(g89
g70
NtRp262
(dp263
g73
(dp264
sg82
g249
sg75
(lp265
g68
(g69
g70
NtRp266
(dp267
g73
(dp268
g81
I4
ssg82
g262
sg75
(lp269
g68
(g77
g70
NtRp270
(dp271
g73
(dp272
g81
I3
ssg82
Nsg75
(lp273
g68
(g84
g70
NtRp274
(dp275
g73
(dp276
sg82
g270
sg75
(lp277
g68
(g89
g70
NtRp278
(dp279
g73
(dp280
g93
g94
ssg82
g274
sg75
(lp281
S'comment'
p282
asbag68
(g89
g70
NtRp283
(dp284
g73
(dp285
g100
g101
ssg82
g274
sg75
(lp286
S':'
asbag68
(g89
g70
NtRp287
(dp288
g73
(dp289
sg82
g274
sg75
(lp290
g68
(g69
g70
NtRp291
(dp292
g73
(dp293
g81
I3
ssg82
g287
sg75
(lp294
S''
asbasbasbag68
(g84
g70
NtRp295
(dp296
g73
(dp297
sg82
g270
sg75
(lp298
g68
(g89
g70
NtRp299
(dp300
g73
(dp301
g93
g94
ssg82
g295
sg75
(lp302
S'domain'
p303
asbag68
(g89
g70
NtRp304
(dp305
g73
(dp306
g100
g101
ssg82
g295
sg75
(lp307
S':'
asbag68
(g89
g70
NtRp308
(dp309
g73
(dp310
sg82
g295
sg75
(lp311
g68
(g69
g70
NtRp312
(dp313
g73
(dp314
g81
I3
ssg82
g308
sg75
(lp315
S''
asbasbasbag68
(g84
g70
NtRp316
(dp317
g73
(dp318
sg82
g270
sg75
(lp319
g68
(g89
g70
NtRp320
(dp321
g73
(dp322
g93
g94
ssg82
g316
sg75
(lp323
S'expires'
p324
asbag68
(g89
g70
NtRp325
(dp326
g73
(dp327
g100
g101
ssg82
g316
sg75
(lp328
S':'
asbag68
(g89
g70
NtRp329
(dp330
g73
(dp331
sg82
g316
sg75
(lp332
g68
(g69
g70
NtRp333
(dp334
g73
(dp335
g81
I3
ssg82
g329
sg75
(lp336
S''
asbasbasbag68
(g84
g70
NtRp337
(dp338
g73
(dp339
sg82
g270
sg75
(lp340
g68
(g89
g70
NtRp341
(dp342
g73
(dp343
g93
g94
ssg82
g337
sg75
(lp344
S'httponly'
p345
asbag68
(g89
g70
NtRp346
(dp347
g73
(dp348
g100
g101
ssg82
g337
sg75
(lp349
S':'
asbag68
(g89
g70
NtRp350
(dp351
g73
(dp352
sg82
g337
sg75
(lp353
g68
(g69
g70
NtRp354
(dp355
g73
(dp356
g81
I3
ssg82
g350
sg75
(lp357
S''
asbasbasbag68
(g84
g70
NtRp358
(dp359
g73
(dp360
sg82
g270
sg75
(lp361
g68
(g89
g70
NtRp362
(dp363
g73
(dp364
g93
g94
ssg82
g358
sg75
(lp365
S'max-age'
p366
asbag68
(g89
g70
NtRp367
(dp368
g73
(dp369
g100
g101
ssg82
g358
sg75
(lp370
S':'
asbag68
(g89
g70
NtRp371
(dp372
g73
(dp373
sg82
g358
sg75
(lp374
g68
(g69
g70
NtRp375
(dp376
g73
(dp377
g81
I3
ssg82
g371
sg75
(lp378
S''
asbasbasbag68
(g84
g70
NtRp379
(dp380
g73
(dp381
sg82
g270
sg75
(lp382
g68
(g89
g70
NtRp383
(dp384
g73
(dp385
g93
g94
ssg82
g379
sg75
(lp386
S'path'
p387
asbag68
(g89
g70
NtRp388
(dp389
g73
(dp390
g100
g101
ssg82
g379
sg75
(lp391
S':'
asbag68
(g89
g70
NtRp392
(dp393
g73
(dp394
sg82
g379
sg75
(lp395
g68
(g69
g70
NtRp396
(dp397
g73
(dp398
g81
I3
ssg82
g392
sg75
(lp399
S''
asbasbasbag68
(g84
g70
NtRp400
(dp401
g73
(dp402
sg82
g270
sg75
(lp403
g68
(g89
g70
NtRp404
(dp405
g73
(dp406
g93
g94
ssg82
g400
sg75
(lp407
S'secure'
p408
asbag68
(g89
g70
NtRp409
(dp410
g73
(dp411
g100
g101
ssg82
g400
sg75
(lp412
S':'
asbag68
(g89
g70
NtRp413
(dp414
g73
(dp415
sg82
g400
sg75
(lp416
g68
(g69
g70
NtRp417
(dp418
g73
(dp419
g81
I3
ssg82
g413
sg75
(lp420
S''
asbasbasbag68
(g84
g70
NtRp421
(dp422
g73
(dp423
sg82
g270
sg75
(lp424
g68
(g89
g70
NtRp425
(dp426
g73
(dp427
g93
g94
ssg82
g421
sg75
(lp428
S'version'
p429
asbag68
(g89
g70
NtRp430
(dp431
g73
(dp432
g100
g101
ssg82
g421
sg75
(lp433
S':'
asbag68
(g89
g70
NtRp434
(dp435
g73
(dp436
sg82
g421
sg75
(lp437
g68
(g69
g70
NtRp438
(dp439
g73
(dp440
g81
I3
ssg82
g434
sg75
(lp441
S''
asbasbasbasbasbasbasbag68
(g84
g70
NtRp442
(dp443
g73
(dp444
sg82
g245
sg75
(lp445
g68
(g89
g70
NtRp446
(dp447
g73
(dp448
g93
g94
ssg82
g442
sg75
(lp449
S'session_id_seniorproject'
p450
asbag68
(g89
g70
NtRp451
(dp452
g73
(dp453
g100
g101
ssg82
g442
sg75
(lp454
S':'
asbag68
(g89
g70
NtRp455
(dp456
g73
(dp457
sg82
g442
sg75
(lp458
g68
(g69
g70
NtRp459
(dp460
g73
(dp461
g81
I4
ssg82
g455
sg75
(lp462
g68
(g77
g70
NtRp463
(dp464
g73
(dp465
g81
I3
ssg82
Nsg75
(lp466
g68
(g84
g70
NtRp467
(dp468
g73
(dp469
sg82
g463
sg75
(lp470
g68
(g89
g70
NtRp471
(dp472
g73
(dp473
g93
g94
ssg82
g467
sg75
(lp474
g282
asbag68
(g89
g70
NtRp475
(dp476
g73
(dp477
g100
g101
ssg82
g467
sg75
(lp478
S':'
asbag68
(g89
g70
NtRp479
(dp480
g73
(dp481
sg82
g467
sg75
(lp482
g68
(g69
g70
NtRp483
(dp484
g73
(dp485
g81
I3
ssg82
g479
sg75
(lp486
S''
asbasbasbag68
(g84
g70
NtRp487
(dp488
g73
(dp489
sg82
g463
sg75
(lp490
g68
(g89
g70
NtRp491
(dp492
g73
(dp493
g93
g94
ssg82
g487
sg75
(lp494
g303
asbag68
(g89
g70
NtRp495
(dp496
g73
(dp497
g100
g101
ssg82
g487
sg75
(lp498
S':'
asbag68
(g89
g70
NtRp499
(dp500
g73
(dp501
sg82
g487
sg75
(lp502
g68
(g69
g70
NtRp503
(dp504
g73
(dp505
g81
I3
ssg82
g499
sg75
(lp506
S''
asbasbasbag68
(g84
g70
NtRp507
(dp508
g73
(dp509
sg82
g463
sg75
(lp510
g68
(g89
g70
NtRp511
(dp512
g73
(dp513
g93
g94
ssg82
g507
sg75
(lp514
g324
asbag68
(g89
g70
NtRp515
(dp516
g73
(dp517
g100
g101
ssg82
g507
sg75
(lp518
S':'
asbag68
(g89
g70
NtRp519
(dp520
g73
(dp521
sg82
g507
sg75
(lp522
g68
(g69
g70
NtRp523
(dp524
g73
(dp525
g81
I3
ssg82
g519
sg75
(lp526
S''
asbasbasbag68
(g84
g70
NtRp527
(dp528
g73
(dp529
sg82
g463
sg75
(lp530
g68
(g89
g70
NtRp531
(dp532
g73
(dp533
g93
g94
ssg82
g527
sg75
(lp534
g345
asbag68
(g89
g70
NtRp535
(dp536
g73
(dp537
g100
g101
ssg82
g527
sg75
(lp538
S':'
asbag68
(g89
g70
NtRp539
(dp540
g73
(dp541
sg82
g527
sg75
(lp542
g68
(g69
g70
NtRp543
(dp544
g73
(dp545
g81
I3
ssg82
g539
sg75
(lp546
S''
asbasbasbag68
(g84
g70
NtRp547
(dp548
g73
(dp549
sg82
g463
sg75
(lp550
g68
(g89
g70
NtRp551
(dp552
g73
(dp553
g93
g94
ssg82
g547
sg75
(lp554
g366
asbag68
(g89
g70
NtRp555
(dp556
g73
(dp557
g100
g101
ssg82
g547
sg75
(lp558
S':'
asbag68
(g89
g70
NtRp559
(dp560
g73
(dp561
sg82
g547
sg75
(lp562
g68
(g69
g70
NtRp563
(dp564
g73
(dp565
g81
I3
ssg82
g559
sg75
(lp566
S''
asbasbasbag68
(g84
g70
NtRp567
(dp568
g73
(dp569
sg82
g463
sg75
(lp570
g68
(g89
g70
NtRp571
(dp572
g73
(dp573
g93
g94
ssg82
g567
sg75
(lp574
g387
asbag68
(g89
g70
NtRp575
(dp576
g73
(dp577
g100
g101
ssg82
g567
sg75
(lp578
S':'
asbag68
(g89
g70
NtRp579
(dp580
g73
(dp581
sg82
g567
sg75
(lp582
g68
(g69
g70
NtRp583
(dp584
g73
(dp585
g81
I3
ssg82
g579
sg75
(lp586
S''
asbasbasbag68
(g84
g70
NtRp587
(dp588
g73
(dp589
sg82
g463
sg75
(lp590
g68
(g89
g70
NtRp591
(dp592
g73
(dp593
g93
g94
ssg82
g587
sg75
(lp594
g408
asbag68
(g89
g70
NtRp595
(dp596
g73
(dp597
g100
g101
ssg82
g587
sg75
(lp598
S':'
asbag68
(g89
g70
NtRp599
(dp600
g73
(dp601
sg82
g587
sg75
(lp602
g68
(g69
g70
NtRp603
(dp604
g73
(dp605
g81
I3
ssg82
g599
sg75
(lp606
S''
asbasbasbag68
(g84
g70
NtRp607
(dp608
g73
(dp609
sg82
g463
sg75
(lp610
g68
(g89
g70
NtRp611
(dp612
g73
(dp613
g93
g94
ssg82
g607
sg75
(lp614
g429
asbag68
(g89
g70
NtRp615
(dp616
g73
(dp617
g100
g101
ssg82
g607
sg75
(lp618
S':'
asbag68
(g89
g70
NtRp619
(dp620
g73
(dp621
sg82
g607
sg75
(lp622
g68
(g69
g70
NtRp623
(dp624
g73
(dp625
g81
I3
ssg82
g619
sg75
(lp626
S''
asbasbasbasbasbasbasbag68
(g84
g70
NtRp627
(dp628
g73
(dp629
sg82
g245
sg75
(lp630
g68
(g89
g70
NtRp631
(dp632
g73
(dp633
g93
g94
ssg82
g627
sg75
(lp634
S'session_id_welcome'
p635
asbag68
(g89
g70
NtRp636
(dp637
g73
(dp638
g100
g101
ssg82
g627
sg75
(lp639
S':'
asbag68
(g89
g70
NtRp640
(dp641
g73
(dp642
sg82
g627
sg75
(lp643
g68
(g69
g70
NtRp644
(dp645
g73
(dp646
g81
I4
ssg82
g640
sg75
(lp647
g68
(g77
g70
NtRp648
(dp649
g73
(dp650
g81
I3
ssg82
Nsg75
(lp651
g68
(g84
g70
NtRp652
(dp653
g73
(dp654
sg82
g648
sg75
(lp655
g68
(g89
g70
NtRp656
(dp657
g73
(dp658
g93
g94
ssg82
g652
sg75
(lp659
g282
asbag68
(g89
g70
NtRp660
(dp661
g73
(dp662
g100
g101
ssg82
g652
sg75
(lp663
S':'
asbag68
(g89
g70
NtRp664
(dp665
g73
(dp666
sg82
g652
sg75
(lp667
g68
(g69
g70
NtRp668
(dp669
g73
(dp670
g81
I3
ssg82
g664
sg75
(lp671
S''
asbasbasbag68
(g84
g70
NtRp672
(dp673
g73
(dp674
sg82
g648
sg75
(lp675
g68
(g89
g70
NtRp676
(dp677
g73
(dp678
g93
g94
ssg82
g672
sg75
(lp679
g303
asbag68
(g89
g70
NtRp680
(dp681
g73
(dp682
g100
g101
ssg82
g672
sg75
(lp683
S':'
asbag68
(g89
g70
NtRp684
(dp685
g73
(dp686
sg82
g672
sg75
(lp687
g68
(g69
g70
NtRp688
(dp689
g73
(dp690
g81
I3
ssg82
g684
sg75
(lp691
S''
asbasbasbag68
(g84
g70
NtRp692
(dp693
g73
(dp694
sg82
g648
sg75
(lp695
g68
(g89
g70
NtRp696
(dp697
g73
(dp698
g93
g94
ssg82
g692
sg75
(lp699
g324
asbag68
(g89
g70
NtRp700
(dp701
g73
(dp702
g100
g101
ssg82
g692
sg75
(lp703
S':'
asbag68
(g89
g70
NtRp704
(dp705
g73
(dp706
sg82
g692
sg75
(lp707
g68
(g69
g70
NtRp708
(dp709
g73
(dp710
g81
I3
ssg82
g704
sg75
(lp711
S''
asbasbasbag68
(g84
g70
NtRp712
(dp713
g73
(dp714
sg82
g648
sg75
(lp715
g68
(g89
g70
NtRp716
(dp717
g73
(dp718
g93
g94
ssg82
g712
sg75
(lp719
g345
asbag68
(g89
g70
NtRp720
(dp721
g73
(dp722
g100
g101
ssg82
g712
sg75
(lp723
S':'
asbag68
(g89
g70
NtRp724
(dp725
g73
(dp726
sg82
g712
sg75
(lp727
g68
(g69
g70
NtRp728
(dp729
g73
(dp730
g81
I3
ssg82
g724
sg75
(lp731
S''
asbasbasbag68
(g84
g70
NtRp732
(dp733
g73
(dp734
sg82
g648
sg75
(lp735
g68
(g89
g70
NtRp736
(dp737
g73
(dp738
g93
g94
ssg82
g732
sg75
(lp739
g366
asbag68
(g89
g70
NtRp740
(dp741
g73
(dp742
g100
g101
ssg82
g732
sg75
(lp743
S':'
asbag68
(g89
g70
NtRp744
(dp745
g73
(dp746
sg82
g732
sg75
(lp747
g68
(g69
g70
NtRp748
(dp749
g73
(dp750
g81
I3
ssg82
g744
sg75
(lp751
S''
asbasbasbag68
(g84
g70
NtRp752
(dp753
g73
(dp754
sg82
g648
sg75
(lp755
g68
(g89
g70
NtRp756
(dp757
g73
(dp758
g93
g94
ssg82
g752
sg75
(lp759
g387
asbag68
(g89
g70
NtRp760
(dp761
g73
(dp762
g100
g101
ssg82
g752
sg75
(lp763
S':'
asbag68
(g89
g70
NtRp764
(dp765
g73
(dp766
sg82
g752
sg75
(lp767
g68
(g69
g70
NtRp768
(dp769
g73
(dp770
g81
I3
ssg82
g764
sg75
(lp771
S''
asbasbasbag68
(g84
g70
NtRp772
(dp773
g73
(dp774
sg82
g648
sg75
(lp775
g68
(g89
g70
NtRp776
(dp777
g73
(dp778
g93
g94
ssg82
g772
sg75
(lp779
g408
asbag68
(g89
g70
NtRp780
(dp781
g73
(dp782
g100
g101
ssg82
g772
sg75
(lp783
S':'
asbag68
(g89
g70
NtRp784
(dp785
g73
(dp786
sg82
g772
sg75
(lp787
g68
(g69
g70
NtRp788
(dp789
g73
(dp790
g81
I3
ssg82
g784
sg75
(lp791
S''
asbasbasbag68
(g84
g70
NtRp792
(dp793
g73
(dp794
sg82
g648
sg75
(lp795
g68
(g89
g70
NtRp796
(dp797
g73
(dp798
g93
g94
ssg82
g792
sg75
(lp799
g429
asbag68
(g89
g70
NtRp800
(dp801
g73
(dp802
g100
g101
ssg82
g792
sg75
(lp803
S':'
asbag68
(g89
g70
NtRp804
(dp805
g73
(dp806
sg82
g792
sg75
(lp807
g68
(g69
g70
NtRp808
(dp809
g73
(dp810
g81
I3
ssg82
g804
sg75
(lp811
S''
asbasbasbasbasbasbasbasbasbasbasbag68
(g84
g70
NtRp812
(dp813
g73
(dp814
sg82
g78
sg75
(lp815
g68
(g89
g70
NtRp816
(dp817
g73
(dp818
g93
g94
ssg82
g812
sg75
(lp819
S'env'
p820
asbag68
(g89
g70
NtRp821
(dp822
g73
(dp823
g100
g101
ssg82
g812
sg75
(lp824
S':'
asbag68
(g89
g70
NtRp825
(dp826
g73
(dp827
sg82
g812
sg75
(lp828
g68
(g69
g70
NtRp829
(dp830
g73
(dp831
g81
I5
ssg82
g825
sg75
(lp832
g68
(g77
g70
NtRp833
(dp834
g73
(dp835
g81
I4
ssg82
Nsg75
(lp836
g68
(g84
g70
NtRp837
(dp838
g73
(dp839
sg82
g833
sg75
(lp840
g68
(g89
g70
NtRp841
(dp842
g73
(dp843
g93
g94
ssg82
g837
sg75
(lp844
S'app_folders'
p845
asbag68
(g89
g70
NtRp846
(dp847
g73
(dp848
g100
g101
ssg82
g837
sg75
(lp849
S':'
asbag68
(g89
g70
NtRp850
(dp851
g73
(dp852
sg82
g837
sg75
(lp853
g68
(g69
g70
NtRp854
(dp855
g73
(dp856
g81
I4
ssg82
g850
sg75
(lp857
S"set(['/Users/hainna01/Desktop/SeniorProject/finholt-senior-project/web2py/applications/admin/', '/Users/hainna01/Desktop/SeniorProject/finholt-senior-project/web2py/applications/SeniorProject/', '/Users/hainna01/Desktop/SeniorProject/finholt-senior-project/web2py/applications/welcome/'])"
p858
asbasbasbag68
(g84
g70
NtRp859
(dp860
g73
(dp861
sg82
g833
sg75
(lp862
g68
(g89
g70
NtRp863
(dp864
g73
(dp865
g93
g94
ssg82
g859
sg75
(lp866
S'applications_parent'
p867
asbag68
(g89
g70
NtRp868
(dp869
g73
(dp870
g100
g101
ssg82
g859
sg75
(lp871
S':'
asbag68
(g89
g70
NtRp872
(dp873
g73
(dp874
sg82
g859
sg75
(lp875
g68
(g69
g70
NtRp876
(dp877
g73
(dp878
g81
I4
ssg82
g872
sg75
(lp879
S'/Users/hainna01/Desktop/SeniorProject/finholt-senior-project/web2py'
p880
asbasbasbag68
(g84
g70
NtRp881
(dp882
g73
(dp883
sg82
g833
sg75
(lp884
g68
(g89
g70
NtRp885
(dp886
g73
(dp887
g93
g94
ssg82
g881
sg75
(lp888
S'cmd_args'
p889
asbag68
(g89
g70
NtRp890
(dp891
g73
(dp892
g100
g101
ssg82
g881
sg75
(lp893
S':'
asbag68
(g89
g70
NtRp894
(dp895
g73
(dp896
sg82
g881
sg75
(lp897
g68
(g69
g70
NtRp898
(dp899
g73
(dp900
g81
I4
ssg82
g894
sg75
(lp901
g68
(g77
g70
NtRp902
(dp903
g73
(dp904
g81
I3
ssg82
Nsg75
(lp905
sbasbasbasbag68
(g84
g70
NtRp906
(dp907
g73
(dp908
sg82
g833
sg75
(lp909
g68
(g89
g70
NtRp910
(dp911
g73
(dp912
g93
g94
ssg82
g906
sg75
(lp913
S'cmd_options'
p914
asbag68
(g89
g70
NtRp915
(dp916
g73
(dp917
g100
g101
ssg82
g906
sg75
(lp918
S':'
asbag68
(g89
g70
NtRp919
(dp920
g73
(dp921
sg82
g906
sg75
(lp922
g68
(g69
g70
NtRp923
(dp924
g73
(dp925
g81
I4
ssg82
g919
sg75
(lp926
S"<Values at 0x1019b13f8: {'verbose': False, 'ip': '127.0.0.1', 'shutdown_timeout': 5, 'taskbar': False, 'nocron': False, 'pid_filename': 'httpserver.pid', 'maxthreads': None, 'softcron': False, 'server_name': 'Nathans-MacBook-Pro.local', 'bpython': False, 'nogui': False, 'port': 8000, 'extcron': False, 'debuglevel': 30, 'test': None, 'folder': '/Users/hainna01/Desktop/SeniorProject/finholt-senior-project/web2py', 'config': '', 'import_models': False, 'winservice': '', 'shell': None, 'run': '', 'log_filename': 'httpserver.log', 'args': [''], 'socket_timeout': 5, 'ssl_ca_certificate': None, 'scheduler': None, 'profiler_filename': None, 'ssl_private_key': '', 'password': '<ask>', 'request_queue_size': 5, 'ssl_certificate': '', 'cronjob': False, 'numthreads': None, 'quiet': False, 'interfaces': None, 'minthreads': None, 'timeout': 10, 'plain': False, 'nobanner': False}>"
p927
asbasbasbag68
(g84
g70
NtRp928
(dp929
g73
(dp930
sg82
g833
sg75
(lp931
g68
(g89
g70
NtRp932
(dp933
g73
(dp934
g93
g94
ssg82
g928
sg75
(lp935
S'db_sessions'
p936
asbag68
(g89
g70
NtRp937
(dp938
g73
(dp939
g100
g101
ssg82
g928
sg75
(lp940
S':'
asbag68
(g89
g70
NtRp941
(dp942
g73
(dp943
sg82
g928
sg75
(lp944
g68
(g69
g70
NtRp945
(dp946
g73
(dp947
g81
I4
ssg82
g941
sg75
(lp948
S'set([])'
p949
asbasbasbag68
(g84
g70
NtRp950
(dp951
g73
(dp952
sg82
g833
sg75
(lp953
g68
(g89
g70
NtRp954
(dp955
g73
(dp956
g93
g94
ssg82
g950
sg75
(lp957
S'debugging'
p958
asbag68
(g89
g70
NtRp959
(dp960
g73
(dp961
g100
g101
ssg82
g950
sg75
(lp962
S':'
asbag68
(g89
g70
NtRp963
(dp964
g73
(dp965
sg82
g950
sg75
(lp966
g68
(g69
g70
NtRp967
(dp968
g73
(dp969
g81
I4
ssg82
g963
sg75
(lp970
g111
asbasbasbag68
(g84
g70
NtRp971
(dp972
g73
(dp973
sg82
g833
sg75
(lp974
g68
(g89
g70
NtRp975
(dp976
g73
(dp977
g93
g94
ssg82
g971
sg75
(lp978
S'gluon_parent'
p979
asbag68
(g89
g70
NtRp980
(dp981
g73
(dp982
g100
g101
ssg82
g971
sg75
(lp983
S':'
asbag68
(g89
g70
NtRp984
(dp985
g73
(dp986
sg82
g971
sg75
(lp987
g68
(g69
g70
NtRp988
(dp989
g73
(dp990
g81
I4
ssg82
g984
sg75
(lp991
S'/Users/hainna01/Desktop/SeniorProject/finholt-senior-project/web2py'
p992
asbasbasbag68
(g84
g70
NtRp993
(dp994
g73
(dp995
sg82
g833
sg75
(lp996
g68
(g89
g70
NtRp997
(dp998
g73
(dp999
g93
g94
ssg82
g993
sg75
(lp1000
S'http_accept'
p1001
asbag68
(g89
g70
NtRp1002
(dp1003
g73
(dp1004
g100
g101
ssg82
g993
sg75
(lp1005
S':'
asbag68
(g89
g70
NtRp1006
(dp1007
g73
(dp1008
sg82
g993
sg75
(lp1009
g68
(g69
g70
NtRp1010
(dp1011
g73
(dp1012
g81
I4
ssg82
g1006
sg75
(lp1013
S'text/html,application/xhtml+xml,application/xml;q=0.9,*/*;q=0.8'
p1014
asbasbasbag68
(g84
g70
NtRp1015
(dp1016
g73
(dp1017
sg82
g833
sg75
(lp1018
g68
(g89
g70
NtRp1019
(dp1020
g73
(dp1021
g93
g94
ssg82
g1015
sg75
(lp1022
S'http_accept_charset'
p1023
asbag68
(g89
g70
NtRp1024
(dp1025
g73
(dp1026
g100
g101
ssg82
g1015
sg75
(lp1027
S':'
asbag68
(g89
g70
NtRp1028
(dp1029
g73
(dp1030
sg82
g1015
sg75
(lp1031
g68
(g69
g70
NtRp1032
(dp1033
g73
(dp1034
g81
I4
ssg82
g1028
sg75
(lp1035
S'ISO-8859-1,utf-8;q=0.7,*;q=0.3'
p1036
asbasbasbag68
(g84
g70
NtRp1037
(dp1038
g73
(dp1039
sg82
g833
sg75
(lp1040
g68
(g89
g70
NtRp1041
(dp1042
g73
(dp1043
g93
g94
ssg82
g1037
sg75
(lp1044
S'http_accept_encoding'
p1045
asbag68
(g89
g70
NtRp1046
(dp1047
g73
(dp1048
g100
g101
ssg82
g1037
sg75
(lp1049
S':'
asbag68
(g89
g70
NtRp1050
(dp1051
g73
(dp1052
sg82
g1037
sg75
(lp1053
g68
(g69
g70
NtRp1054
(dp1055
g73
(dp1056
g81
I4
ssg82
g1050
sg75
(lp1057
S'gzip,deflate,sdch'
p1058
asbasbasbag68
(g84
g70
NtRp1059
(dp1060
g73
(dp1061
sg82
g833
sg75
(lp1062
g68
(g89
g70
NtRp1063
(dp1064
g73
(dp1065
g93
g94
ssg82
g1059
sg75
(lp1066
S'http_accept_language'
p1067
asbag68
(g89
g70
NtRp1068
(dp1069
g73
(dp1070
g100
g101
ssg82
g1059
sg75
(lp1071
S':'
asbag68
(g89
g70
NtRp1072
(dp1073
g73
(dp1074
sg82
g1059
sg75
(lp1075
g68
(g69
g70
NtRp1076
(dp1077
g73
(dp1078
g81
I4
ssg82
g1072
sg75
(lp1079
S'en-US,en;q=0.8'
p1080
asbasbasbag68
(g84
g70
NtRp1081
(dp1082
g73
(dp1083
sg82
g833
sg75
(lp1084
g68
(g89
g70
NtRp1085
(dp1086
g73
(dp1087
g93
g94
ssg82
g1081
sg75
(lp1088
S'http_cache_control'
p1089
asbag68
(g89
g70
NtRp1090
(dp1091
g73
(dp1092
g100
g101
ssg82
g1081
sg75
(lp1093
S':'
asbag68
(g89
g70
NtRp1094
(dp1095
g73
(dp1096
sg82
g1081
sg75
(lp1097
g68
(g69
g70
NtRp1098
(dp1099
g73
(dp1100
g81
I4
ssg82
g1094
sg75
(lp1101
S'max-age=0'
p1102
asbasbasbag68
(g84
g70
NtRp1103
(dp1104
g73
(dp1105
sg82
g833
sg75
(lp1106
g68
(g89
g70
NtRp1107
(dp1108
g73
(dp1109
g93
g94
ssg82
g1103
sg75
(lp1110
S'http_connection'
p1111
asbag68
(g89
g70
NtRp1112
(dp1113
g73
(dp1114
g100
g101
ssg82
g1103
sg75
(lp1115
S':'
asbag68
(g89
g70
NtRp1116
(dp1117
g73
(dp1118
sg82
g1103
sg75
(lp1119
g68
(g69
g70
NtRp1120
(dp1121
g73
(dp1122
g81
I4
ssg82
g1116
sg75
(lp1123
S'keep-alive'
p1124
asbasbasbag68
(g84
g70
NtRp1125
(dp1126
g73
(dp1127
sg82
g833
sg75
(lp1128
g68
(g89
g70
NtRp1129
(dp1130
g73
(dp1131
g93
g94
ssg82
g1125
sg75
(lp1132
S'http_cookie'
p1133
asbag68
(g89
g70
NtRp1134
(dp1135
g73
(dp1136
g100
g101
ssg82
g1125
sg75
(lp1137
S':'
asbag68
(g89
g70
NtRp1138
(dp1139
g73
(dp1140
sg82
g1125
sg75
(lp1141
g68
(g69
g70
NtRp1142
(dp1143
g73
(dp1144
g81
I4
ssg82
g1138
sg75
(lp1145
S'session_id_welcome=127.0.0.1-21a08aa4-8c67-47c6-8599-95057859c496; session_id_admin=127.0.0.1-af6f24ce-be25-4cf3-be60-bed5ad9f442d; session_id_seniorproject=127.0.0.1-35fcac76-7f11-47e5-9e54-eb77cd194136'
p1146
asbasbasbag68
(g84
g70
NtRp1147
(dp1148
g73
(dp1149
sg82
g833
sg75
(lp1150
g68
(g89
g70
NtRp1151
(dp1152
g73
(dp1153
g93
g94
ssg82
g1147
sg75
(lp1154
S'http_host'
p1155
asbag68
(g89
g70
NtRp1156
(dp1157
g73
(dp1158
g100
g101
ssg82
g1147
sg75
(lp1159
S':'
asbag68
(g89
g70
NtRp1160
(dp1161
g73
(dp1162
sg82
g1147
sg75
(lp1163
g68
(g69
g70
NtRp1164
(dp1165
g73
(dp1166
g81
I4
ssg82
g1160
sg75
(lp1167
S'127.0.0.1:8000'
p1168
asbasbasbag68
(g84
g70
NtRp1169
(dp1170
g73
(dp1171
sg82
g833
sg75
(lp1172
g68
(g89
g70
NtRp1173
(dp1174
g73
(dp1175
g93
g94
ssg82
g1169
sg75
(lp1176
S'http_referer'
p1177
asbag68
(g89
g70
NtRp1178
(dp1179
g73
(dp1180
g100
g101
ssg82
g1169
sg75
(lp1181
S':'
asbag68
(g89
g70
NtRp1182
(dp1183
g73
(dp1184
sg82
g1169
sg75
(lp1185
g68
(g69
g70
NtRp1186
(dp1187
g73
(dp1188
g81
I4
ssg82
g1182
sg75
(lp1189
S'http://127.0.0.1:8000/SeniorProject/default/formtable?formType=Submittal&projectNum=1'
p1190
asbasbasbag68
(g84
g70
NtRp1191
(dp1192
g73
(dp1193
sg82
g833
sg75
(lp1194
g68
(g89
g70
NtRp1195
(dp1196
g73
(dp1197
g93
g94
ssg82
g1191
sg75
(lp1198
S'http_user_agent'
p1199
asbag68
(g89
g70
NtRp1200
(dp1201
g73
(dp1202
g100
g101
ssg82
g1191
sg75
(lp1203
S':'
asbag68
(g89
g70
NtRp1204
(dp1205
g73
(dp1206
sg82
g1191
sg75
(lp1207
g68
(g69
g70
NtRp1208
(dp1209
g73
(dp1210
g81
I4
ssg82
g1204
sg75
(lp1211
S'Mozilla/5.0 (Macintosh; Intel Mac OS X 10_8_2) AppleWebKit/537.11 (KHTML, like Gecko) Chrome/23.0.1271.95 Safari/537.11'
p1212
asbasbasbag68
(g84
g70
NtRp1213
(dp1214
g73
(dp1215
sg82
g833
sg75
(lp1216
g68
(g89
g70
NtRp1217
(dp1218
g73
(dp1219
g93
g94
ssg82
g1213
sg75
(lp1220
S'is_jython'
p1221
asbag68
(g89
g70
NtRp1222
(dp1223
g73
(dp1224
g100
g101
ssg82
g1213
sg75
(lp1225
S':'
asbag68
(g89
g70
NtRp1226
(dp1227
g73
(dp1228
sg82
g1213
sg75
(lp1229
g68
(g69
g70
NtRp1230
(dp1231
g73
(dp1232
g81
I4
ssg82
g1226
sg75
(lp1233
g111
asbasbasbag68
(g84
g70
NtRp1234
(dp1235
g73
(dp1236
sg82
g833
sg75
(lp1237
g68
(g89
g70
NtRp1238
(dp1239
g73
(dp1240
g93
g94
ssg82
g1234
sg75
(lp1241
S'is_pypy'
p1242
asbag68
(g89
g70
NtRp1243
(dp1244
g73
(dp1245
g100
g101
ssg82
g1234
sg75
(lp1246
S':'
asbag68
(g89
g70
NtRp1247
(dp1248
g73
(dp1249
sg82
g1234
sg75
(lp1250
g68
(g69
g70
NtRp1251
(dp1252
g73
(dp1253
g81
I4
ssg82
g1247
sg75
(lp1254
g111
asbasbasbag68
(g84
g70
NtRp1255
(dp1256
g73
(dp1257
sg82
g833
sg75
(lp1258
g68
(g89
g70
NtRp1259
(dp1260
g73
(dp1261
g93
g94
ssg82
g1255
sg75
(lp1262
S'path_info'
p1263
asbag68
(g89
g70
NtRp1264
(dp1265
g73
(dp1266
g100
g101
ssg82
g1255
sg75
(lp1267
S':'
asbag68
(g89
g70
NtRp1268
(dp1269
g73
(dp1270
sg82
g1255
sg75
(lp1271
g68
(g69
g70
NtRp1272
(dp1273
g73
(dp1274
g81
I4
ssg82
g1268
sg75
(lp1275
S'/SeniorProject/default/formtable'
p1276
asbasbasbag68
(g84
g70
NtRp1277
(dp1278
g73
(dp1279
sg82
g833
sg75
(lp1280
g68
(g89
g70
NtRp1281
(dp1282
g73
(dp1283
g93
g94
ssg82
g1277
sg75
(lp1284
S'query_string'
p1285
asbag68
(g89
g70
NtRp1286
(dp1287
g73
(dp1288
g100
g101
ssg82
g1277
sg75
(lp1289
S':'
asbag68
(g89
g70
NtRp1290
(dp1291
g73
(dp1292
sg82
g1277
sg75
(lp1293
g68
(g69
g70
NtRp1294
(dp1295
g73
(dp1296
g81
I4
ssg82
g1290
sg75
(lp1297
S'formType=RFI&projectNum=1'
p1298
asbasbasbag68
(g84
g70
NtRp1299
(dp1300
g73
(dp1301
sg82
g833
sg75
(lp1302
g68
(g89
g70
NtRp1303
(dp1304
g73
(dp1305
g93
g94
ssg82
g1299
sg75
(lp1306
S'remote_addr'
p1307
asbag68
(g89
g70
NtRp1308
(dp1309
g73
(dp1310
g100
g101
ssg82
g1299
sg75
(lp1311
S':'
asbag68
(g89
g70
NtRp1312
(dp1313
g73
(dp1314
sg82
g1299
sg75
(lp1315
g68
(g69
g70
NtRp1316
(dp1317
g73
(dp1318
g81
I4
ssg82
g1312
sg75
(lp1319
g201
asbasbasbag68
(g84
g70
NtRp1320
(dp1321
g73
(dp1322
sg82
g833
sg75
(lp1323
g68
(g89
g70
NtRp1324
(dp1325
g73
(dp1326
g93
g94
ssg82
g1320
sg75
(lp1327
S'remote_port'
p1328
asbag68
(g89
g70
NtRp1329
(dp1330
g73
(dp1331
g100
g101
ssg82
g1320
sg75
(lp1332
S':'
asbag68
(g89
g70
NtRp1333
(dp1334
g73
(dp1335
sg82
g1320
sg75
(lp1336
g68
(g69
g70
NtRp1337
(dp1338
g73
(dp1339
g81
I4
ssg82
g1333
sg75
(lp1340
S'63939'
p1341
asbasbasbag68
(g84
g70
NtRp1342
(dp1343
g73
(dp1344
sg82
g833
sg75
(lp1345
g68
(g89
g70
NtRp1346
(dp1347
g73
(dp1348
g93
g94
ssg82
g1342
sg75
(lp1349
S'request_method'
p1350
asbag68
(g89
g70
NtRp1351
(dp1352
g73
(dp1353
g100
g101
ssg82
g1342
sg75
(lp1354
S':'
asbag68
(g89
g70
NtRp1355
(dp1356
g73
(dp1357
sg82
g1342
sg75
(lp1358
g68
(g69
g70
NtRp1359
(dp1360
g73
(dp1361
g81
I4
ssg82
g1355
sg75
(lp1362
S'GET'
p1363
asbasbasbag68
(g84
g70
NtRp1364
(dp1365
g73
(dp1366
sg82
g833
sg75
(lp1367
g68
(g89
g70
NtRp1368
(dp1369
g73
(dp1370
g93
g94
ssg82
g1364
sg75
(lp1371
S'script_name'
p1372
asbag68
(g89
g70
NtRp1373
(dp1374
g73
(dp1375
g100
g101
ssg82
g1364
sg75
(lp1376
S':'
asbag68
(g89
g70
NtRp1377
(dp1378
g73
(dp1379
sg82
g1364
sg75
(lp1380
g68
(g69
g70
NtRp1381
(dp1382
g73
(dp1383
g81
I4
ssg82
g1377
sg75
(lp1384
S''
asbasbasbag68
(g84
g70
NtRp1385
(dp1386
g73
(dp1387
sg82
g833
sg75
(lp1388
g68
(g89
g70
NtRp1389
(dp1390
g73
(dp1391
g93
g94
ssg82
g1385
sg75
(lp1392
S'server_name'
p1393
asbag68
(g89
g70
NtRp1394
(dp1395
g73
(dp1396
g100
g101
ssg82
g1385
sg75
(lp1397
S':'
asbag68
(g89
g70
NtRp1398
(dp1399
g73
(dp1400
sg82
g1385
sg75
(lp1401
g68
(g69
g70
NtRp1402
(dp1403
g73
(dp1404
g81
I4
ssg82
g1398
sg75
(lp1405
S'Nathans-MacBook-Pro.local'
p1406
asbasbasbag68
(g84
g70
NtRp1407
(dp1408
g73
(dp1409
sg82
g833
sg75
(lp1410
g68
(g89
g70
NtRp1411
(dp1412
g73
(dp1413
g93
g94
ssg82
g1407
sg75
(lp1414
S'server_port'
p1415
asbag68
(g89
g70
NtRp1416
(dp1417
g73
(dp1418
g100
g101
ssg82
g1407
sg75
(lp1419
S':'
asbag68
(g89
g70
NtRp1420
(dp1421
g73
(dp1422
sg82
g1407
sg75
(lp1423
g68
(g69
g70
NtRp1424
(dp1425
g73
(dp1426
g81
I4
ssg82
g1420
sg75
(lp1427
S'8000'
p1428
asbasbasbag68
(g84
g70
NtRp1429
(dp1430
g73
(dp1431
sg82
g833
sg75
(lp1432
g68
(g89
g70
NtRp1433
(dp1434
g73
(dp1435
g93
g94
ssg82
g1429
sg75
(lp1436
S'server_protocol'
p1437
asbag68
(g89
g70
NtRp1438
(dp1439
g73
(dp1440
g100
g101
ssg82
g1429
sg75
(lp1441
S':'
asbag68
(g89
g70
NtRp1442
(dp1443
g73
(dp1444
sg82
g1429
sg75
(lp1445
g68
(g69
g70
NtRp1446
(dp1447
g73
(dp1448
g81
I4
ssg82
g1442
sg75
(lp1449
S'HTTP/1.1'
p1450
asbasbasbag68
(g84
g70
NtRp1451
(dp1452
g73
(dp1453
sg82
g833
sg75
(lp1454
g68
(g89
g70
NtRp1455
(dp1456
g73
(dp1457
g93
g94
ssg82
g1451
sg75
(lp1458
S'server_software'
p1459
asbag68
(g89
g70
NtRp1460
(dp1461
g73
(dp1462
g100
g101
ssg82
g1451
sg75
(lp1463
S':'
asbag68
(g89
g70
NtRp1464
(dp1465
g73
(dp1466
sg82
g1451
sg75
(lp1467
g68
(g69
g70
NtRp1468
(dp1469
g73
(dp1470
g81
I4
ssg82
g1464
sg75
(lp1471
S'Rocket 1.2.4'
p1472
asbasbasbag68
(g84
g70
NtRp1473
(dp1474
g73
(dp1475
sg82
g833
sg75
(lp1476
g68
(g89
g70
NtRp1477
(dp1478
g73
(dp1479
g93
g94
ssg82
g1473
sg75
(lp1480
S'web2py_crontype'
p1481
asbag68
(g89
g70
NtRp1482
(dp1483
g73
(dp1484
g100
g101
ssg82
g1473
sg75
(lp1485
S':'
asbag68
(g89
g70
NtRp1486
(dp1487
g73
(dp1488
sg82
g1473
sg75
(lp1489
g68
(g69
g70
NtRp1490
(dp1491
g73
(dp1492
g81
I4
ssg82
g1486
sg75
(lp1493
S'hard'
p1494
asbasbasbag68
(g84
g70
NtRp1495
(dp1496
g73
(dp1497
sg82
g833
sg75
(lp1498
g68
(g89
g70
NtRp1499
(dp1500
g73
(dp1501
g93
g94
ssg82
g1495
sg75
(lp1502
S'web2py_path'
p1503
asbag68
(g89
g70
NtRp1504
(dp1505
g73
(dp1506
g100
g101
ssg82
g1495
sg75
(lp1507
S':'
asbag68
(g89
g70
NtRp1508
(dp1509
g73
(dp1510
sg82
g1495
sg75
(lp1511
g68
(g69
g70
NtRp1512
(dp1513
g73
(dp1514
g81
I4
ssg82
g1508
sg75
(lp1515
g880
asbasbasbag68
(g84
g70
NtRp1516
(dp1517
g73
(dp1518
sg82
g833
sg75
(lp1519
g68
(g89
g70
NtRp1520
(dp1521
g73
(dp1522
g93
g94
ssg82
g1516
sg75
(lp1523
S'web2py_version'
p1524
asbag68
(g89
g70
NtRp1525
(dp1526
g73
(dp1527
g100
g101
ssg82
g1516
sg75
(lp1528
S':'
asbag68
(g89
g70
NtRp1529
(dp1530
g73
(dp1531
sg82
g1516
sg75
(lp1532
g68
(g69
g70
NtRp1533
(dp1534
g73
(dp1535
g81
I4
ssg82
g1529
sg75
(lp1536
g68
(g77
g70
NtRp1537
(dp1538
g73
(dp1539
g81
I3
ssg82
Nsg75
(lp1540
g68
(g84
g70
NtRp1541
(dp1542
g73
(dp1543
sg82
g1537
sg75
(lp1544
g68
(g89
g70
NtRp1545
(dp1546
g73
(dp1547
sg82
g1541
sg75
(lp1548
g68
(g69
g70
NtRp1549
(dp1550
g73
(dp1551
g81
I3
ssg82
g1545
sg75
(lp1552
S'1'
asbasbasbag68
(g84
g70
NtRp1553
(dp1554
g73
(dp1555
sg82
g1537
sg75
(lp1556
g68
(g89
g70
NtRp1557
(dp1558
g73
(dp1559
sg82
g1553
sg75
(lp1560
g68
(g69
g70
NtRp1561
(dp1562
g73
(dp1563
g81
I3
ssg82
g1557
sg75
(lp1564
S'99'
p1565
asbasbasbag68
(g84
g70
NtRp1566
(dp1567
g73
(dp1568
sg82
g1537
sg75
(lp1569
g68
(g89
g70
NtRp1570
(dp1571
g73
(dp1572
sg82
g1566
sg75
(lp1573
g68
(g69
g70
NtRp1574
(dp1575
g73
(dp1576
g81
I3
ssg82
g1570
sg75
(lp1577
S'7'
asbasbasbag68
(g84
g70
NtRp1578
(dp1579
g73
(dp1580
sg82
g1537
sg75
(lp1581
g68
(g89
g70
NtRp1582
(dp1583
g73
(dp1584
sg82
g1578
sg75
(lp1585
g68
(g69
g70
NtRp1586
(dp1587
g73
(dp1588
g81
I3
ssg82
g1582
sg75
(lp1589
S'datetime.datetime(2012, 3, 4, 22, 12, 8)'
p1590
asbasbasbag68
(g84
g70
NtRp1591
(dp1592
g73
(dp1593
sg82
g1537
sg75
(lp1594
g68
(g89
g70
NtRp1595
(dp1596
g73
(dp1597
sg82
g1591
sg75
(lp1598
g68
(g69
g70
NtRp1599
(dp1600
g73
(dp1601
g81
I3
ssg82
g1595
sg75
(lp1602
S'stable'
p1603
asbasbasbasbasbasbasbag68
(g84
g70
NtRp1604
(dp1605
g73
(dp1606
sg82
g833
sg75
(lp1607
g68
(g89
g70
NtRp1608
(dp1609
g73
(dp1610
g93
g94
ssg82
g1604
sg75
(lp1611
S'wsgi_errors'
p1612
asbag68
(g89
g70
NtRp1613
(dp1614
g73
(dp1615
g100
g101
ssg82
g1604
sg75
(lp1616
S':'
asbag68
(g89
g70
NtRp1617
(dp1618
g73
(dp1619
sg82
g1604
sg75
(lp1620
g68
(g69
g70
NtRp1621
(dp1622
g73
(dp1623
g81
I4
ssg82
g1617
sg75
(lp1624
S"<open file '<stderr>', mode 'w' at 0x100282270>"
p1625
asbasbasbag68
(g84
g70
NtRp1626
(dp1627
g73
(dp1628
sg82
g833
sg75
(lp1629
g68
(g89
g70
NtRp1630
(dp1631
g73
(dp1632
g93
g94
ssg82
g1626
sg75
(lp1633
S'wsgi_file_wrapper'
p1634
asbag68
(g89
g70
NtRp1635
(dp1636
g73
(dp1637
g100
g101
ssg82
g1626
sg75
(lp1638
S':'
asbag68
(g89
g70
NtRp1639
(dp1640
g73
(dp1641
sg82
g1626
sg75
(lp1642
g68
(g69
g70
NtRp1643
(dp1644
g73
(dp1645
g81
I4
ssg82
g1639
sg75
(lp1646
S'<class wsgiref.util.FileWrapper at 0x1018cf188>'
p1647
asbasbasbag68
(g84
g70
NtRp1648
(dp1649
g73
(dp1650
sg82
g833
sg75
(lp1651
g68
(g89
g70
NtRp1652
(dp1653
g73
(dp1654
g93
g94
ssg82
g1648
sg75
(lp1655
S'wsgi_input'
p1656
asbag68
(g89
g70
NtRp1657
(dp1658
g73
(dp1659
g100
g101
ssg82
g1648
sg75
(lp1660
S':'
asbag68
(g89
g70
NtRp1661
(dp1662
g73
(dp1663
sg82
g1648
sg75
(lp1664
g68
(g69
g70
NtRp1665
(dp1666
g73
(dp1667
g81
I4
ssg82
g1661
sg75
(lp1668
S'<socket._fileobject object at 0x10be123d0>'
p1669
asbasbasbag68
(g84
g70
NtRp1670
(dp1671
g73
(dp1672
sg82
g833
sg75
(lp1673
g68
(g89
g70
NtRp1674
(dp1675
g73
(dp1676
g93
g94
ssg82
g1670
sg75
(lp1677
S'wsgi_multiprocess'
p1678
asbag68
(g89
g70
NtRp1679
(dp1680
g73
(dp1681
g100
g101
ssg82
g1670
sg75
(lp1682
S':'
asbag68
(g89
g70
NtRp1683
(dp1684
g73
(dp1685
sg82
g1670
sg75
(lp1686
g68
(g69
g70
NtRp1687
(dp1688
g73
(dp1689
g81
I4
ssg82
g1683
sg75
(lp1690
g111
asbasbasbag68
(g84
g70
NtRp1691
(dp1692
g73
(dp1693
sg82
g833
sg75
(lp1694
g68
(g89
g70
NtRp1695
(dp1696
g73
(dp1697
g93
g94
ssg82
g1691
sg75
(lp1698
S'wsgi_multithread'
p1699
asbag68
(g89
g70
NtRp1700
(dp1701
g73
(dp1702
g100
g101
ssg82
g1691
sg75
(lp1703
S':'
asbag68
(g89
g70
NtRp1704
(dp1705
g73
(dp1706
sg82
g1691
sg75
(lp1707
g68
(g69
g70
NtRp1708
(dp1709
g73
(dp1710
g81
I4
ssg82
g1704
sg75
(lp1711
S'True'
p1712
asbasbasbag68
(g84
g70
NtRp1713
(dp1714
g73
(dp1715
sg82
g833
sg75
(lp1716
g68
(g89
g70
NtRp1717
(dp1718
g73
(dp1719
g93
g94
ssg82
g1713
sg75
(lp1720
S'wsgi_run_once'
p1721
asbag68
(g89
g70
NtRp1722
(dp1723
g73
(dp1724
g100
g101
ssg82
g1713
sg75
(lp1725
S':'
asbag68
(g89
g70
NtRp1726
(dp1727
g73
(dp1728
sg82
g1713
sg75
(lp1729
g68
(g69
g70
NtRp1730
(dp1731
g73
(dp1732
g81
I4
ssg82
g1726
sg75
(lp1733
g111
asbasbasbag68
(g84
g70
NtRp1734
(dp1735
g73
(dp1736
sg82
g833
sg75
(lp1737
g68
(g89
g70
NtRp1738
(dp1739
g73
(dp1740
g93
g94
ssg82
g1734
sg75
(lp1741
S'wsgi_url_scheme'
p1742
asbag68
(g89
g70
NtRp1743
(dp1744
g73
(dp1745
g100
g101
ssg82
g1734
sg75
(lp1746
S':'
asbag68
(g89
g70
NtRp1747
(dp1748
g73
(dp1749
sg82
g1734
sg75
(lp1750
g68
(g69
g70
NtRp1751
(dp1752
g73
(dp1753
g81
I4
ssg82
g1747
sg75
(lp1754
S'http'
p1755
asbasbasbag68
(g84
g70
NtRp1756
(dp1757
g73
(dp1758
sg82
g833
sg75
(lp1759
g68
(g89
g70
NtRp1760
(dp1761
g73
(dp1762
g93
g94
ssg82
g1756
sg75
(lp1763
S'wsgi_version'
p1764
asbag68
(g89
g70
NtRp1765
(dp1766
g73
(dp1767
g100
g101
ssg82
g1756
sg75
(lp1768
S':'
asbag68
(g89
g70
NtRp1769
(dp1770
g73
(dp1771
sg82
g1756
sg75
(lp1772
g68
(g69
g70
NtRp1773
(dp1774
g73
(dp1775
g81
I4
ssg82
g1769
sg75
(lp1776
g68
(g77
g70
NtRp1777
(dp1778
g73
(dp1779
g81
I3
ssg82
Nsg75
(lp1780
g68
(g84
g70
NtRp1781
(dp1782
g73
(dp1783
sg82
g1777
sg75
(lp1784
g68
(g89
g70
NtRp1785
(dp1786
g73
(dp1787
sg82
g1781
sg75
(lp1788
g68
(g69
g70
NtRp1789
(dp1790
g73
(dp1791
g81
I3
ssg82
g1785
sg75
(lp1792
S'1'
asbasbasbag68
(g84
g70
NtRp1793
(dp1794
g73
(dp1795
sg82
g1777
sg75
(lp1796
g68
(g89
g70
NtRp1797
(dp1798
g73
(dp1799
sg82
g1793
sg75
(lp1800
g68
(g69
g70
NtRp1801
(dp1802
g73
(dp1803
g81
I3
ssg82
g1797
sg75
(lp1804
S'0'
asbasbasbasbasbasbasbasbasbasbasbag68
(g84
g70
NtRp1805
(dp1806
g73
(dp1807
sg82
g78
sg75
(lp1808
g68
(g89
g70
NtRp1809
(dp1810
g73
(dp1811
g93
g94
ssg82
g1805
sg75
(lp1812
S'extension'
p1813
asbag68
(g89
g70
NtRp1814
(dp1815
g73
(dp1816
g100
g101
ssg82
g1805
sg75
(lp1817
S':'
asbag68
(g89
g70
NtRp1818
(dp1819
g73
(dp1820
sg82
g1805
sg75
(lp1821
g68
(g69
g70
NtRp1822
(dp1823
g73
(dp1824
g81
I5
ssg82
g1818
sg75
(lp1825
S'html'
p1826
asbasbasbag68
(g84
g70
NtRp1827
(dp1828
g73
(dp1829
sg82
g78
sg75
(lp1830
g68
(g89
g70
NtRp1831
(dp1832
g73
(dp1833
g93
g94
ssg82
g1827
sg75
(lp1834
S'folder'
p1835
asbag68
(g89
g70
NtRp1836
(dp1837
g73
(dp1838
g100
g101
ssg82
g1827
sg75
(lp1839
S':'
asbag68
(g89
g70
NtRp1840
(dp1841
g73
(dp1842
sg82
g1827
sg75
(lp1843
g68
(g69
g70
NtRp1844
(dp1845
g73
(dp1846
g81
I5
ssg82
g1840
sg75
(lp1847
S'/Users/hainna01/Desktop/SeniorProject/finholt-senior-project/web2py/applications/SeniorProject/'
p1848
asbasbasbag68
(g84
g70
NtRp1849
(dp1850
g73
(dp1851
sg82
g78
sg75
(lp1852
g68
(g89
g70
NtRp1853
(dp1854
g73
(dp1855
g93
g94
ssg82
g1849
sg75
(lp1856
S'function'
p1857
asbag68
(g89
g70
NtRp1858
(dp1859
g73
(dp1860
g100
g101
ssg82
g1849
sg75
(lp1861
S':'
asbag68
(g89
g70
NtRp1862
(dp1863
g73
(dp1864
sg82
g1849
sg75
(lp1865
g68
(g69
g70
NtRp1866
(dp1867
g73
(dp1868
g81
I5
ssg82
g1862
sg75
(lp1869
S'formtable'
p1870
asbasbasbag68
(g84
g70
NtRp1871
(dp1872
g73
(dp1873
sg82
g78
sg75
(lp1874
g68
(g89
g70
NtRp1875
(dp1876
g73
(dp1877
g93
g94
ssg82
g1871
sg75
(lp1878
S'get_vars'
p1879
asbag68
(g89
g70
NtRp1880
(dp1881
g73
(dp1882
g100
g101
ssg82
g1871
sg75
(lp1883
S':'
asbag68
(g89
g70
NtRp1884
(dp1885
g73
(dp1886
sg82
g1871
sg75
(lp1887
g68
(g69
g70
NtRp1888
(dp1889
g73
(dp1890
g81
I5
ssg82
g1884
sg75
(lp1891
g68
(g77
g70
NtRp1892
(dp1893
g73
(dp1894
g81
I4
ssg82
Nsg75
(lp1895
g68
(g84
g70
NtRp1896
(dp1897
g73
(dp1898
sg82
g1892
sg75
(lp1899
g68
(g89
g70
NtRp1900
(dp1901
g73
(dp1902
g93
g94
ssg82
g1896
sg75
(lp1903
S'formType'
p1904
asbag68
(g89
g70
NtRp1905
(dp1906
g73
(dp1907
g100
g101
ssg82
g1896
sg75
(lp1908
S':'
asbag68
(g89
g70
NtRp1909
(dp1910
g73
(dp1911
sg82
g1896
sg75
(lp1912
g68
(g69
g70
NtRp1913
(dp1914
g73
(dp1915
g81
I4
ssg82
g1909
sg75
(lp1916
S'RFI'
p1917
asbasbasbag68
(g84
g70
NtRp1918
(dp1919
g73
(dp1920
sg82
g1892
sg75
(lp1921
g68
(g89
g70
NtRp1922
(dp1923
g73
(dp1924
g93
g94
ssg82
g1918
sg75
(lp1925
S'projectNum'
p1926
asbag68
(g89
g70
NtRp1927
(dp1928
g73
(dp1929
g100
g101
ssg82
g1918
sg75
(lp1930
S':'
asbag68
(g89
g70
NtRp1931
(dp1932
g73
(dp1933
sg82
g1918
sg75
(lp1934
g68
(g69
g70
NtRp1935
(dp1936
g73
(dp1937
g81
I4
ssg82
g1931
sg75
(lp1938
S'1'
asbasbasbasbasbasbasbag68
(g84
g70
NtRp1939
(dp1940
g73
(dp1941
sg82
g78
sg75
(lp1942
g68
(g89
g70
NtRp1943
(dp1944
g73
(dp1945
g93
g94
ssg82
g1939
sg75
(lp1946
S'global_settings'
p1947
asbag68
(g89
g70
NtRp1948
(dp1949
g73
(dp1950
g100
g101
ssg82
g1939
sg75
(lp1951
S':'
asbag68
(g89
g70
NtRp1952
(dp1953
g73
(dp1954
sg82
g1939
sg75
(lp1955
g68
(g69
g70
NtRp1956
(dp1957
g73
(dp1958
g81
I5
ssg82
g1952
sg75
(lp1959
g68
(g77
g70
NtRp1960
(dp1961
g73
(dp1962
g81
I4
ssg82
Nsg75
(lp1963
g68
(g84
g70
NtRp1964
(dp1965
g73
(dp1966
sg82
g1960
sg75
(lp1967
g68
(g89
g70
NtRp1968
(dp1969
g73
(dp1970
g93
g94
ssg82
g1964
sg75
(lp1971
g845
asbag68
(g89
g70
NtRp1972
(dp1973
g73
(dp1974
g100
g101
ssg82
g1964
sg75
(lp1975
S':'
asbag68
(g89
g70
NtRp1976
(dp1977
g73
(dp1978
sg82
g1964
sg75
(lp1979
g68
(g69
g70
NtRp1980
(dp1981
g73
(dp1982
g81
I4
ssg82
g1976
sg75
(lp1983
S"set(['/Users/hainna01/Desktop/SeniorProject/finholt-senior-project/web2py/applications/admin/', '/Users/hainna01/Desktop/SeniorProject/finholt-senior-project/web2py/applications/SeniorProject/', '/Users/hainna01/Desktop/SeniorProject/finholt-senior-project/web2py/applications/welcome/'])"
p1984
asbasbasbag68
(g84
g70
NtRp1985
(dp1986
g73
(dp1987
sg82
g1960
sg75
(lp1988
g68
(g89
g70
NtRp1989
(dp1990
g73
(dp1991
g93
g94
ssg82
g1985
sg75
(lp1992
g867
asbag68
(g89
g70
NtRp1993
(dp1994
g73
(dp1995
g100
g101
ssg82
g1985
sg75
(lp1996
S':'
asbag68
(g89
g70
NtRp1997
(dp1998
g73
(dp1999
sg82
g1985
sg75
(lp2000
g68
(g69
g70
NtRp2001
(dp2002
g73
(dp2003
g81
I4
ssg82
g1997
sg75
(lp2004
g880
asbasbasbag68
(g84
g70
NtRp2005
(dp2006
g73
(dp2007
sg82
g1960
sg75
(lp2008
g68
(g89
g70
NtRp2009
(dp2010
g73
(dp2011
g93
g94
ssg82
g2005
sg75
(lp2012
g889
asbag68
(g89
g70
NtRp2013
(dp2014
g73
(dp2015
g100
g101
ssg82
g2005
sg75
(lp2016
S':'
asbag68
(g89
g70
NtRp2017
(dp2018
g73
(dp2019
sg82
g2005
sg75
(lp2020
g68
(g69
g70
NtRp2021
(dp2022
g73
(dp2023
g81
I4
ssg82
g2017
sg75
(lp2024
g68
(g77
g70
NtRp2025
(dp2026
g73
(dp2027
g81
I3
ssg82
Nsg75
(lp2028
sbasbasbasbag68
(g84
g70
NtRp2029
(dp2030
g73
(dp2031
sg82
g1960
sg75
(lp2032
g68
(g89
g70
NtRp2033
(dp2034
g73
(dp2035
g93
g94
ssg82
g2029
sg75
(lp2036
g914
asbag68
(g89
g70
NtRp2037
(dp2038
g73
(dp2039
g100
g101
ssg82
g2029
sg75
(lp2040
S':'
asbag68
(g89
g70
NtRp2041
(dp2042
g73
(dp2043
sg82
g2029
sg75
(lp2044
g68
(g69
g70
NtRp2045
(dp2046
g73
(dp2047
g81
I4
ssg82
g2041
sg75
(lp2048
S"<Values at 0x1019b13f8: {'verbose': False, 'ip': '127.0.0.1', 'shutdown_timeout': 5, 'taskbar': False, 'nocron': False, 'pid_filename': 'httpserver.pid', 'maxthreads': None, 'softcron': False, 'server_name': 'Nathans-MacBook-Pro.local', 'bpython': False, 'nogui': False, 'port': 8000, 'extcron': False, 'debuglevel': 30, 'test': None, 'folder': '/Users/hainna01/Desktop/SeniorProject/finholt-senior-project/web2py', 'config': '', 'import_models': False, 'winservice': '', 'shell': None, 'run': '', 'log_filename': 'httpserver.log', 'args': [''], 'socket_timeout': 5, 'ssl_ca_certificate': None, 'scheduler': None, 'profiler_filename': None, 'ssl_private_key': '', 'password': '<ask>', 'request_queue_size': 5, 'ssl_certificate': '', 'cronjob': False, 'numthreads': None, 'quiet': False, 'interfaces': None, 'minthreads': None, 'timeout': 10, 'plain': False, 'nobanner': False}>"
p2049
asbasbasbag68
(g84
g70
NtRp2050
(dp2051
g73
(dp2052
sg82
g1960
sg75
(lp2053
g68
(g89
g70
NtRp2054
(dp2055
g73
(dp2056
g93
g94
ssg82
g2050
sg75
(lp2057
g936
asbag68
(g89
g70
NtRp2058
(dp2059
g73
(dp2060
g100
g101
ssg82
g2050
sg75
(lp2061
S':'
asbag68
(g89
g70
NtRp2062
(dp2063
g73
(dp2064
sg82
g2050
sg75
(lp2065
g68
(g69
g70
NtRp2066
(dp2067
g73
(dp2068
g81
I4
ssg82
g2062
sg75
(lp2069
S'set([])'
p2070
asbasbasbag68
(g84
g70
NtRp2071
(dp2072
g73
(dp2073
sg82
g1960
sg75
(lp2074
g68
(g89
g70
NtRp2075
(dp2076
g73
(dp2077
g93
g94
ssg82
g2071
sg75
(lp2078
g958
asbag68
(g89
g70
NtRp2079
(dp2080
g73
(dp2081
g100
g101
ssg82
g2071
sg75
(lp2082
S':'
asbag68
(g89
g70
NtRp2083
(dp2084
g73
(dp2085
sg82
g2071
sg75
(lp2086
g68
(g69
g70
NtRp2087
(dp2088
g73
(dp2089
g81
I4
ssg82
g2083
sg75
(lp2090
g111
asbasbasbag68
(g84
g70
NtRp2091
(dp2092
g73
(dp2093
sg82
g1960
sg75
(lp2094
g68
(g89
g70
NtRp2095
(dp2096
g73
(dp2097
g93
g94
ssg82
g2091
sg75
(lp2098
g979
asbag68
(g89
g70
NtRp2099
(dp2100
g73
(dp2101
g100
g101
ssg82
g2091
sg75
(lp2102
S':'
asbag68
(g89
g70
NtRp2103
(dp2104
g73
(dp2105
sg82
g2091
sg75
(lp2106
g68
(g69
g70
NtRp2107
(dp2108
g73
(dp2109
g81
I4
ssg82
g2103
sg75
(lp2110
g992
asbasbasbag68
(g84
g70
NtRp2111
(dp2112
g73
(dp2113
sg82
g1960
sg75
(lp2114
g68
(g89
g70
NtRp2115
(dp2116
g73
(dp2117
g93
g94
ssg82
g2111
sg75
(lp2118
g1221
asbag68
(g89
g70
NtRp2119
(dp2120
g73
(dp2121
g100
g101
ssg82
g2111
sg75
(lp2122
S':'
asbag68
(g89
g70
NtRp2123
(dp2124
g73
(dp2125
sg82
g2111
sg75
(lp2126
g68
(g69
g70
NtRp2127
(dp2128
g73
(dp2129
g81
I4
ssg82
g2123
sg75
(lp2130
g111
asbasbasbag68
(g84
g70
NtRp2131
(dp2132
g73
(dp2133
sg82
g1960
sg75
(lp2134
g68
(g89
g70
NtRp2135
(dp2136
g73
(dp2137
g93
g94
ssg82
g2131
sg75
(lp2138
g1242
asbag68
(g89
g70
NtRp2139
(dp2140
g73
(dp2141
g100
g101
ssg82
g2131
sg75
(lp2142
S':'
asbag68
(g89
g70
NtRp2143
(dp2144
g73
(dp2145
sg82
g2131
sg75
(lp2146
g68
(g69
g70
NtRp2147
(dp2148
g73
(dp2149
g81
I4
ssg82
g2143
sg75
(lp2150
g111
asbasbasbag68
(g84
g70
NtRp2151
(dp2152
g73
(dp2153
sg82
g1960
sg75
(lp2154
g68
(g89
g70
NtRp2155
(dp2156
g73
(dp2157
g93
g94
ssg82
g2151
sg75
(lp2158
g1481
asbag68
(g89
g70
NtRp2159
(dp2160
g73
(dp2161
g100
g101
ssg82
g2151
sg75
(lp2162
S':'
asbag68
(g89
g70
NtRp2163
(dp2164
g73
(dp2165
sg82
g2151
sg75
(lp2166
g68
(g69
g70
NtRp2167
(dp2168
g73
(dp2169
g81
I4
ssg82
g2163
sg75
(lp2170
g1494
asbasbasbag68
(g84
g70
NtRp2171
(dp2172
g73
(dp2173
sg82
g1960
sg75
(lp2174
g68
(g89
g70
NtRp2175
(dp2176
g73
(dp2177
g93
g94
ssg82
g2171
sg75
(lp2178
g1524
asbag68
(g89
g70
NtRp2179
(dp2180
g73
(dp2181
g100
g101
ssg82
g2171
sg75
(lp2182
S':'
asbag68
(g89
g70
NtRp2183
(dp2184
g73
(dp2185
sg82
g2171
sg75
(lp2186
g68
(g69
g70
NtRp2187
(dp2188
g73
(dp2189
g81
I4
ssg82
g2183
sg75
(lp2190
g68
(g77
g70
NtRp2191
(dp2192
g73
(dp2193
g81
I3
ssg82
Nsg75
(lp2194
g68
(g84
g70
NtRp2195
(dp2196
g73
(dp2197
sg82
g2191
sg75
(lp2198
g68
(g89
g70
NtRp2199
(dp2200
g73
(dp2201
sg82
g2195
sg75
(lp2202
g68
(g69
g70
NtRp2203
(dp2204
g73
(dp2205
g81
I3
ssg82
g2199
sg75
(lp2206
S'1'
asbasbasbag68
(g84
g70
NtRp2207
(dp2208
g73
(dp2209
sg82
g2191
sg75
(lp2210
g68
(g89
g70
NtRp2211
(dp2212
g73
(dp2213
sg82
g2207
sg75
(lp2214
g68
(g69
g70
NtRp2215
(dp2216
g73
(dp2217
g81
I3
ssg82
g2211
sg75
(lp2218
S'99'
p2219
asbasbasbag68
(g84
g70
NtRp2220
(dp2221
g73
(dp2222
sg82
g2191
sg75
(lp2223
g68
(g89
g70
NtRp2224
(dp2225
g73
(dp2226
sg82
g2220
sg75
(lp2227
g68
(g69
g70
NtRp2228
(dp2229
g73
(dp2230
g81
I3
ssg82
g2224
sg75
(lp2231
S'7'
asbasbasbag68
(g84
g70
NtRp2232
(dp2233
g73
(dp2234
sg82
g2191
sg75
(lp2235
g68
(g89
g70
NtRp2236
(dp2237
g73
(dp2238
sg82
g2232
sg75
(lp2239
g68
(g69
g70
NtRp2240
(dp2241
g73
(dp2242
g81
I3
ssg82
g2236
sg75
(lp2243
S'datetime.datetime(2012, 3, 4, 22, 12, 8)'
p2244
asbasbasbag68
(g84
g70
NtRp2245
(dp2246
g73
(dp2247
sg82
g2191
sg75
(lp2248
g68
(g89
g70
NtRp2249
(dp2250
g73
(dp2251
sg82
g2245
sg75
(lp2252
g68
(g69
g70
NtRp2253
(dp2254
g73
(dp2255
g81
I3
ssg82
g2249
sg75
(lp2256
g1603
asbasbasbasbasbasbasbasbasbasbasbag68
(g84
g70
NtRp2257
(dp2258
g73
(dp2259
sg82
g78
sg75
(lp2260
g68
(g89
g70
NtRp2261
(dp2262
g73
(dp2263
g93
g94
ssg82
g2257
sg75
(lp2264
S'is_https'
p2265
asbag68
(g89
g70
NtRp2266
(dp2267
g73
(dp2268
g100
g101
ssg82
g2257
sg75
(lp2269
S':'
asbag68
(g89
g70
NtRp2270
(dp2271
g73
(dp2272
sg82
g2257
sg75
(lp2273
g68
(g69
g70
NtRp2274
(dp2275
g73
(dp2276
g81
I5
ssg82
g2270
sg75
(lp2277
g111
asbasbasbag68
(g84
g70
NtRp2278
(dp2279
g73
(dp2280
sg82
g78
sg75
(lp2281
g68
(g89
g70
NtRp2282
(dp2283
g73
(dp2284
g93
g94
ssg82
g2278
sg75
(lp2285
S'is_local'
p2286
asbag68
(g89
g70
NtRp2287
(dp2288
g73
(dp2289
g100
g101
ssg82
g2278
sg75
(lp2290
S':'
asbag68
(g89
g70
NtRp2291
(dp2292
g73
(dp2293
sg82
g2278
sg75
(lp2294
g68
(g69
g70
NtRp2295
(dp2296
g73
(dp2297
g81
I5
ssg82
g2291
sg75
(lp2298
g1712
asbasbasbag68
(g84
g70
NtRp2299
(dp2300
g73
(dp2301
sg82
g78
sg75
(lp2302
g68
(g89
g70
NtRp2303
(dp2304
g73
(dp2305
g93
g94
ssg82
g2299
sg75
(lp2306
S'is_restful'
p2307
asbag68
(g89
g70
NtRp2308
(dp2309
g73
(dp2310
g100
g101
ssg82
g2299
sg75
(lp2311
S':'
asbag68
(g89
g70
NtRp2312
(dp2313
g73
(dp2314
sg82
g2299
sg75
(lp2315
g68
(g69
g70
NtRp2316
(dp2317
g73
(dp2318
g81
I5
ssg82
g2312
sg75
(lp2319
g111
asbasbasbag68
(g84
g70
NtRp2320
(dp2321
g73
(dp2322
sg82
g78
sg75
(lp2323
g68
(g89
g70
NtRp2324
(dp2325
g73
(dp2326
g93
g94
ssg82
g2320
sg75
(lp2327
S'now'
p2328
asbag68
(g89
g70
NtRp2329
(dp2330
g73
(dp2331
g100
g101
ssg82
g2320
sg75
(lp2332
S':'
asbag68
(g89
g70
NtRp2333
(dp2334
g73
(dp2335
sg82
g2320
sg75
(lp2336
g68
(g69
g70
NtRp2337
(dp2338
g73
(dp2339
g81
I5
ssg82
g2333
sg75
(lp2340
S'datetime.datetime(2012, 12, 3, 10, 3, 1, 687409)'
p2341
asbasbasbag68
(g84
g70
NtRp2342
(dp2343
g73
(dp2344
sg82
g78
sg75
(lp2345
g68
(g89
g70
NtRp2346
(dp2347
g73
(dp2348
g93
g94
ssg82
g2342
sg75
(lp2349
S'post_vars'
p2350
asbag68
(g89
g70
NtRp2351
(dp2352
g73
(dp2353
g100
g101
ssg82
g2342
sg75
(lp2354
S':'
asbag68
(g89
g70
NtRp2355
(dp2356
g73
(dp2357
sg82
g2342
sg75
(lp2358
g68
(g69
g70
NtRp2359
(dp2360
g73
(dp2361
g81
I5
ssg82
g2355
sg75
(lp2362
g68
(g77
g70
NtRp2363
(dp2364
g73
(dp2365
g81
I4
ssg82
Nsg75
(lp2366
sbasbasbasbag68
(g84
g70
NtRp2367
(dp2368
g73
(dp2369
sg82
g78
sg75
(lp2370
g68
(g89
g70
NtRp2371
(dp2372
g73
(dp2373
g93
g94
ssg82
g2367
sg75
(lp2374
S'url'
p2375
asbag68
(g89
g70
NtRp2376
(dp2377
g73
(dp2378
g100
g101
ssg82
g2367
sg75
(lp2379
S':'
asbag68
(g89
g70
NtRp2380
(dp2381
g73
(dp2382
sg82
g2367
sg75
(lp2383
g68
(g69
g70
NtRp2384
(dp2385
g73
(dp2386
g81
I5
ssg82
g2380
sg75
(lp2387
S'/SeniorProject/default/formtable'
p2388
asbasbasbag68
(g84
g70
NtRp2389
(dp2390
g73
(dp2391
sg82
g78
sg75
(lp2392
g68
(g89
g70
NtRp2393
(dp2394
g73
(dp2395
g93
g94
ssg82
g2389
sg75
(lp2396
S'utcnow'
p2397
asbag68
(g89
g70
NtRp2398
(dp2399
g73
(dp2400
g100
g101
ssg82
g2389
sg75
(lp2401
S':'
asbag68
(g89
g70
NtRp2402
(dp2403
g73
(dp2404
sg82
g2389
sg75
(lp2405
g68
(g69
g70
NtRp2406
(dp2407
g73
(dp2408
g81
I5
ssg82
g2402
sg75
(lp2409
S'datetime.datetime(2012, 12, 3, 16, 3, 1, 687426)'
p2410
asbasbasbag68
(g84
g70
NtRp2411
(dp2412
g73
(dp2413
sg82
g78
sg75
(lp2414
g68
(g89
g70
NtRp2415
(dp2416
g73
(dp2417
g93
g94
ssg82
g2411
sg75
(lp2418
S'uuid'
p2419
asbag68
(g89
g70
NtRp2420
(dp2421
g73
(dp2422
g100
g101
ssg82
g2411
sg75
(lp2423
S':'
asbag68
(g89
g70
NtRp2424
(dp2425
g73
(dp2426
sg82
g2411
sg75
(lp2427
g68
(g69
g70
NtRp2428
(dp2429
g73
(dp2430
g81
I5
ssg82
g2424
sg75
(lp2431
S'SeniorProject/127.0.0.1.2012-12-03.10-03-01.ab023e0f-491a-449e-957e-541fb9854fcf'
p2432
asbasbasbag68
(g84
g70
NtRp2433
(dp2434
g73
(dp2435
sg82
g78
sg75
(lp2436
g68
(g89
g70
NtRp2437
(dp2438
g73
(dp2439
g93
g94
ssg82
g2433
sg75
(lp2440
S'vars'
p2441
asbag68
(g89
g70
NtRp2442
(dp2443
g73
(dp2444
g100
g101
ssg82
g2433
sg75
(lp2445
S':'
asbag68
(g89
g70
NtRp2446
(dp2447
g73
(dp2448
sg82
g2433
sg75
(lp2449
g68
(g69
g70
NtRp2450
(dp2451
g73
(dp2452
g81
I5
ssg82
g2446
sg75
(lp2453
g68
(g77
g70
NtRp2454
(dp2455
g73
(dp2456
g81
I4
ssg82
Nsg75
(lp2457
g68
(g84
g70
NtRp2458
(dp2459
g73
(dp2460
sg82
g2454
sg75
(lp2461
g68
(g89
g70
NtRp2462
(dp2463
g73
(dp2464
g93
g94
ssg82
g2458
sg75
(lp2465
g1904
asbag68
(g89
g70
NtRp2466
(dp2467
g73
(dp2468
g100
g101
ssg82
g2458
sg75
(lp2469
S':'
asbag68
(g89
g70
NtRp2470
(dp2471
g73
(dp2472
sg82
g2458
sg75
(lp2473
g68
(g69
g70
NtRp2474
(dp2475
g73
(dp2476
g81
I4
ssg82
g2470
sg75
(lp2477
g1917
asbasbasbag68
(g84
g70
NtRp2478
(dp2479
g73
(dp2480
sg82
g2454
sg75
(lp2481
g68
(g89
g70
NtRp2482
(dp2483
g73
(dp2484
g93
g94
ssg82
g2478
sg75
(lp2485
g1926
asbag68
(g89
g70
NtRp2486
(dp2487
g73
(dp2488
g100
g101
ssg82
g2478
sg75
(lp2489
S':'
asbag68
(g89
g70
NtRp2490
(dp2491
g73
(dp2492
sg82
g2478
sg75
(lp2493
g68
(g69
g70
NtRp2494
(dp2495
g73
(dp2496
g81
I4
ssg82
g2490
sg75
(lp2497
S'1'
asbasbasbasbasbasbasbag68
(g84
g70
NtRp2498
(dp2499
g73
(dp2500
sg82
g78
sg75
(lp2501
g68
(g89
g70
NtRp2502
(dp2503
g73
(dp2504
g93
g94
ssg82
g2498
sg75
(lp2505
S'wsgi'
p2506
asbag68
(g89
g70
NtRp2507
(dp2508
g73
(dp2509
g100
g101
ssg82
g2498
sg75
(lp2510
S':'
asbag68
(g89
g70
NtRp2511
(dp2512
g73
(dp2513
sg82
g2498
sg75
(lp2514
g68
(g69
g70
NtRp2515
(dp2516
g73
(dp2517
g81
I5
ssg82
g2511
sg75
(lp2518
g68
(g77
g70
NtRp2519
(dp2520
g73
(dp2521
g81
I4
ssg82
Nsg75
(lp2522
g68
(g84
g70
NtRp2523
(dp2524
g73
(dp2525
sg82
g2519
sg75
(lp2526
g68
(g89
g70
NtRp2527
(dp2528
g73
(dp2529
g93
g94
ssg82
g2523
sg75
(lp2530
S'environ'
p2531
asbag68
(g89
g70
NtRp2532
(dp2533
g73
(dp2534
g100
g101
ssg82
g2523
sg75
(lp2535
S':'
asbag68
(g89
g70
NtRp2536
(dp2537
g73
(dp2538
sg82
g2523
sg75
(lp2539
g68
(g69
g70
NtRp2540
(dp2541
g73
(dp2542
g81
I4
ssg82
g2536
sg75
(lp2543
g68
(g77
g70
NtRp2544
(dp2545
g73
(dp2546
g81
I3
ssg82
Nsg75
(lp2547
g68
(g84
g70
NtRp2548
(dp2549
g73
(dp2550
sg82
g2544
sg75
(lp2551
g68
(g89
g70
NtRp2552
(dp2553
g73
(dp2554
g93
g94
ssg82
g2548
sg75
(lp2555
S'HTTP_ACCEPT'
p2556
asbag68
(g89
g70
NtRp2557
(dp2558
g73
(dp2559
g100
g101
ssg82
g2548
sg75
(lp2560
S':'
asbag68
(g89
g70
NtRp2561
(dp2562
g73
(dp2563
sg82
g2548
sg75
(lp2564
g68
(g69
g70
NtRp2565
(dp2566
g73
(dp2567
g81
I3
ssg82
g2561
sg75
(lp2568
g1014
asbasbasbag68
(g84
g70
NtRp2569
(dp2570
g73
(dp2571
sg82
g2544
sg75
(lp2572
g68
(g89
g70
NtRp2573
(dp2574
g73
(dp2575
g93
g94
ssg82
g2569
sg75
(lp2576
S'HTTP_ACCEPT_CHARSET'
p2577
asbag68
(g89
g70
NtRp2578
(dp2579
g73
(dp2580
g100
g101
ssg82
g2569
sg75
(lp2581
S':'
asbag68
(g89
g70
NtRp2582
(dp2583
g73
(dp2584
sg82
g2569
sg75
(lp2585
g68
(g69
g70
NtRp2586
(dp2587
g73
(dp2588
g81
I3
ssg82
g2582
sg75
(lp2589
g1036
asbasbasbag68
(g84
g70
NtRp2590
(dp2591
g73
(dp2592
sg82
g2544
sg75
(lp2593
g68
(g89
g70
NtRp2594
(dp2595
g73
(dp2596
g93
g94
ssg82
g2590
sg75
(lp2597
S'HTTP_ACCEPT_ENCODING'
p2598
asbag68
(g89
g70
NtRp2599
(dp2600
g73
(dp2601
g100
g101
ssg82
g2590
sg75
(lp2602
S':'
asbag68
(g89
g70
NtRp2603
(dp2604
g73
(dp2605
sg82
g2590
sg75
(lp2606
g68
(g69
g70
NtRp2607
(dp2608
g73
(dp2609
g81
I3
ssg82
g2603
sg75
(lp2610
g1058
asbasbasbag68
(g84
g70
NtRp2611
(dp2612
g73
(dp2613
sg82
g2544
sg75
(lp2614
g68
(g89
g70
NtRp2615
(dp2616
g73
(dp2617
g93
g94
ssg82
g2611
sg75
(lp2618
S'HTTP_ACCEPT_LANGUAGE'
p2619
asbag68
(g89
g70
NtRp2620
(dp2621
g73
(dp2622
g100
g101
ssg82
g2611
sg75
(lp2623
S':'
asbag68
(g89
g70
NtRp2624
(dp2625
g73
(dp2626
sg82
g2611
sg75
(lp2627
g68
(g69
g70
NtRp2628
(dp2629
g73
(dp2630
g81
I3
ssg82
g2624
sg75
(lp2631
g1080
asbasbasbag68
(g84
g70
NtRp2632
(dp2633
g73
(dp2634
sg82
g2544
sg75
(lp2635
g68
(g89
g70
NtRp2636
(dp2637
g73
(dp2638
g93
g94
ssg82
g2632
sg75
(lp2639
S'HTTP_CACHE_CONTROL'
p2640
asbag68
(g89
g70
NtRp2641
(dp2642
g73
(dp2643
g100
g101
ssg82
g2632
sg75
(lp2644
S':'
asbag68
(g89
g70
NtRp2645
(dp2646
g73
(dp2647
sg82
g2632
sg75
(lp2648
g68
(g69
g70
NtRp2649
(dp2650
g73
(dp2651
g81
I3
ssg82
g2645
sg75
(lp2652
g1102
asbasbasbag68
(g84
g70
NtRp2653
(dp2654
g73
(dp2655
sg82
g2544
sg75
(lp2656
g68
(g89
g70
NtRp2657
(dp2658
g73
(dp2659
g93
g94
ssg82
g2653
sg75
(lp2660
S'HTTP_CONNECTION'
p2661
asbag68
(g89
g70
NtRp2662
(dp2663
g73
(dp2664
g100
g101
ssg82
g2653
sg75
(lp2665
S':'
asbag68
(g89
g70
NtRp2666
(dp2667
g73
(dp2668
sg82
g2653
sg75
(lp2669
g68
(g69
g70
NtRp2670
(dp2671
g73
(dp2672
g81
I3
ssg82
g2666
sg75
(lp2673
g1124
asbasbasbag68
(g84
g70
NtRp2674
(dp2675
g73
(dp2676
sg82
g2544
sg75
(lp2677
g68
(g89
g70
NtRp2678
(dp2679
g73
(dp2680
g93
g94
ssg82
g2674
sg75
(lp2681
S'HTTP_COOKIE'
p2682
asbag68
(g89
g70
NtRp2683
(dp2684
g73
(dp2685
g100
g101
ssg82
g2674
sg75
(lp2686
S':'
asbag68
(g89
g70
NtRp2687
(dp2688
g73
(dp2689
sg82
g2674
sg75
(lp2690
g68
(g69
g70
NtRp2691
(dp2692
g73
(dp2693
g81
I3
ssg82
g2687
sg75
(lp2694
g1146
asbasbasbag68
(g84
g70
NtRp2695
(dp2696
g73
(dp2697
sg82
g2544
sg75
(lp2698
g68
(g89
g70
NtRp2699
(dp2700
g73
(dp2701
g93
g94
ssg82
g2695
sg75
(lp2702
S'HTTP_HOST'
p2703
asbag68
(g89
g70
NtRp2704
(dp2705
g73
(dp2706
g100
g101
ssg82
g2695
sg75
(lp2707
S':'
asbag68
(g89
g70
NtRp2708
(dp2709
g73
(dp2710
sg82
g2695
sg75
(lp2711
g68
(g69
g70
NtRp2712
(dp2713
g73
(dp2714
g81
I3
ssg82
g2708
sg75
(lp2715
g1168
asbasbasbag68
(g84
g70
NtRp2716
(dp2717
g73
(dp2718
sg82
g2544
sg75
(lp2719
g68
(g89
g70
NtRp2720
(dp2721
g73
(dp2722
g93
g94
ssg82
g2716
sg75
(lp2723
S'HTTP_REFERER'
p2724
asbag68
(g89
g70
NtRp2725
(dp2726
g73
(dp2727
g100
g101
ssg82
g2716
sg75
(lp2728
S':'
asbag68
(g89
g70
NtRp2729
(dp2730
g73
(dp2731
sg82
g2716
sg75
(lp2732
g68
(g69
g70
NtRp2733
(dp2734
g73
(dp2735
g81
I3
ssg82
g2729
sg75
(lp2736
g1190
asbasbasbag68
(g84
g70
NtRp2737
(dp2738
g73
(dp2739
sg82
g2544
sg75
(lp2740
g68
(g89
g70
NtRp2741
(dp2742
g73
(dp2743
g93
g94
ssg82
g2737
sg75
(lp2744
S'HTTP_USER_AGENT'
p2745
asbag68
(g89
g70
NtRp2746
(dp2747
g73
(dp2748
g100
g101
ssg82
g2737
sg75
(lp2749
S':'
asbag68
(g89
g70
NtRp2750
(dp2751
g73
(dp2752
sg82
g2737
sg75
(lp2753
g68
(g69
g70
NtRp2754
(dp2755
g73
(dp2756
g81
I3
ssg82
g2750
sg75
(lp2757
g1212
asbasbasbag68
(g84
g70
NtRp2758
(dp2759
g73
(dp2760
sg82
g2544
sg75
(lp2761
g68
(g89
g70
NtRp2762
(dp2763
g73
(dp2764
g93
g94
ssg82
g2758
sg75
(lp2765
S'PATH_INFO'
p2766
asbag68
(g89
g70
NtRp2767
(dp2768
g73
(dp2769
g100
g101
ssg82
g2758
sg75
(lp2770
S':'
asbag68
(g89
g70
NtRp2771
(dp2772
g73
(dp2773
sg82
g2758
sg75
(lp2774
g68
(g69
g70
NtRp2775
(dp2776
g73
(dp2777
g81
I3
ssg82
g2771
sg75
(lp2778
g1276
asbasbasbag68
(g84
g70
NtRp2779
(dp2780
g73
(dp2781
sg82
g2544
sg75
(lp2782
g68
(g89
g70
NtRp2783
(dp2784
g73
(dp2785
g93
g94
ssg82
g2779
sg75
(lp2786
S'QUERY_STRING'
p2787
asbag68
(g89
g70
NtRp2788
(dp2789
g73
(dp2790
g100
g101
ssg82
g2779
sg75
(lp2791
S':'
asbag68
(g89
g70
NtRp2792
(dp2793
g73
(dp2794
sg82
g2779
sg75
(lp2795
g68
(g69
g70
NtRp2796
(dp2797
g73
(dp2798
g81
I3
ssg82
g2792
sg75
(lp2799
g1298
asbasbasbag68
(g84
g70
NtRp2800
(dp2801
g73
(dp2802
sg82
g2544
sg75
(lp2803
g68
(g89
g70
NtRp2804
(dp2805
g73
(dp2806
g93
g94
ssg82
g2800
sg75
(lp2807
S'REMOTE_ADDR'
p2808
asbag68
(g89
g70
NtRp2809
(dp2810
g73
(dp2811
g100
g101
ssg82
g2800
sg75
(lp2812
S':'
asbag68
(g89
g70
NtRp2813
(dp2814
g73
(dp2815
sg82
g2800
sg75
(lp2816
g68
(g69
g70
NtRp2817
(dp2818
g73
(dp2819
g81
I3
ssg82
g2813
sg75
(lp2820
g201
asbasbasbag68
(g84
g70
NtRp2821
(dp2822
g73
(dp2823
sg82
g2544
sg75
(lp2824
g68
(g89
g70
NtRp2825
(dp2826
g73
(dp2827
g93
g94
ssg82
g2821
sg75
(lp2828
S'REMOTE_PORT'
p2829
asbag68
(g89
g70
NtRp2830
(dp2831
g73
(dp2832
g100
g101
ssg82
g2821
sg75
(lp2833
S':'
asbag68
(g89
g70
NtRp2834
(dp2835
g73
(dp2836
sg82
g2821
sg75
(lp2837
g68
(g69
g70
NtRp2838
(dp2839
g73
(dp2840
g81
I3
ssg82
g2834
sg75
(lp2841
g1341
asbasbasbag68
(g84
g70
NtRp2842
(dp2843
g73
(dp2844
sg82
g2544
sg75
(lp2845
g68
(g89
g70
NtRp2846
(dp2847
g73
(dp2848
g93
g94
ssg82
g2842
sg75
(lp2849
S'REQUEST_METHOD'
p2850
asbag68
(g89
g70
NtRp2851
(dp2852
g73
(dp2853
g100
g101
ssg82
g2842
sg75
(lp2854
S':'
asbag68
(g89
g70
NtRp2855
(dp2856
g73
(dp2857
sg82
g2842
sg75
(lp2858
g68
(g69
g70
NtRp2859
(dp2860
g73
(dp2861
g81
I3
ssg82
g2855
sg75
(lp2862
g1363
asbasbasbag68
(g84
g70
NtRp2863
(dp2864
g73
(dp2865
sg82
g2544
sg75
(lp2866
g68
(g89
g70
NtRp2867
(dp2868
g73
(dp2869
g93
g94
ssg82
g2863
sg75
(lp2870
S'SCRIPT_NAME'
p2871
asbag68
(g89
g70
NtRp2872
(dp2873
g73
(dp2874
g100
g101
ssg82
g2863
sg75
(lp2875
S':'
asbag68
(g89
g70
NtRp2876
(dp2877
g73
(dp2878
sg82
g2863
sg75
(lp2879
g68
(g69
g70
NtRp2880
(dp2881
g73
(dp2882
g81
I3
ssg82
g2876
sg75
(lp2883
S''
asbasbasbag68
(g84
g70
NtRp2884
(dp2885
g73
(dp2886
sg82
g2544
sg75
(lp2887
g68
(g89
g70
NtRp2888
(dp2889
g73
(dp2890
g93
g94
ssg82
g2884
sg75
(lp2891
S'SERVER_NAME'
p2892
asbag68
(g89
g70
NtRp2893
(dp2894
g73
(dp2895
g100
g101
ssg82
g2884
sg75
(lp2896
S':'
asbag68
(g89
g70
NtRp2897
(dp2898
g73
(dp2899
sg82
g2884
sg75
(lp2900
g68
(g69
g70
NtRp2901
(dp2902
g73
(dp2903
g81
I3
ssg82
g2897
sg75
(lp2904
g1406
asbasbasbag68
(g84
g70
NtRp2905
(dp2906
g73
(dp2907
sg82
g2544
sg75
(lp2908
g68
(g89
g70
NtRp2909
(dp2910
g73
(dp2911
g93
g94
ssg82
g2905
sg75
(lp2912
S'SERVER_PORT'
p2913
asbag68
(g89
g70
NtRp2914
(dp2915
g73
(dp2916
g100
g101
ssg82
g2905
sg75
(lp2917
S':'
asbag68
(g89
g70
NtRp2918
(dp2919
g73
(dp2920
sg82
g2905
sg75
(lp2921
g68
(g69
g70
NtRp2922
(dp2923
g73
(dp2924
g81
I3
ssg82
g2918
sg75
(lp2925
g1428
asbasbasbag68
(g84
g70
NtRp2926
(dp2927
g73
(dp2928
sg82
g2544
sg75
(lp2929
g68
(g89
g70
NtRp2930
(dp2931
g73
(dp2932
g93
g94
ssg82
g2926
sg75
(lp2933
S'SERVER_PROTOCOL'
p2934
asbag68
(g89
g70
NtRp2935
(dp2936
g73
(dp2937
g100
g101
ssg82
g2926
sg75
(lp2938
S':'
asbag68
(g89
g70
NtRp2939
(dp2940
g73
(dp2941
sg82
g2926
sg75
(lp2942
g68
(g69
g70
NtRp2943
(dp2944
g73
(dp2945
g81
I3
ssg82
g2939
sg75
(lp2946
g1450
asbasbasbag68
(g84
g70
NtRp2947
(dp2948
g73
(dp2949
sg82
g2544
sg75
(lp2950
g68
(g89
g70
NtRp2951
(dp2952
g73
(dp2953
g93
g94
ssg82
g2947
sg75
(lp2954
S'SERVER_SOFTWARE'
p2955
asbag68
(g89
g70
NtRp2956
(dp2957
g73
(dp2958
g100
g101
ssg82
g2947
sg75
(lp2959
S':'
asbag68
(g89
g70
NtRp2960
(dp2961
g73
(dp2962
sg82
g2947
sg75
(lp2963
g68
(g69
g70
NtRp2964
(dp2965
g73
(dp2966
g81
I3
ssg82
g2960
sg75
(lp2967
g1472
asbasbasbag68
(g84
g70
NtRp2968
(dp2969
g73
(dp2970
sg82
g2544
sg75
(lp2971
g68
(g89
g70
NtRp2972
(dp2973
g73
(dp2974
g93
g94
ssg82
g2968
sg75
(lp2975
S'wsgi.errors'
p2976
asbag68
(g89
g70
NtRp2977
(dp2978
g73
(dp2979
g100
g101
ssg82
g2968
sg75
(lp2980
S':'
asbag68
(g89
g70
NtRp2981
(dp2982
g73
(dp2983
sg82
g2968
sg75
(lp2984
g68
(g69
g70
NtRp2985
(dp2986
g73
(dp2987
g81
I3
ssg82
g2981
sg75
(lp2988
S"<open file '<stderr>', mode 'w' at 0x100282270>"
p2989
asbasbasbag68
(g84
g70
NtRp2990
(dp2991
g73
(dp2992
sg82
g2544
sg75
(lp2993
g68
(g89
g70
NtRp2994
(dp2995
g73
(dp2996
g93
g94
ssg82
g2990
sg75
(lp2997
S'wsgi.file_wrapper'
p2998
asbag68
(g89
g70
NtRp2999
(dp3000
g73
(dp3001
g100
g101
ssg82
g2990
sg75
(lp3002
S':'
asbag68
(g89
g70
NtRp3003
(dp3004
g73
(dp3005
sg82
g2990
sg75
(lp3006
g68
(g69
g70
NtRp3007
(dp3008
g73
(dp3009
g81
I3
ssg82
g3003
sg75
(lp3010
S'<class wsgiref.util.FileWrapper at 0x1018cf188>'
p3011
asbasbasbag68
(g84
g70
NtRp3012
(dp3013
g73
(dp3014
sg82
g2544
sg75
(lp3015
g68
(g89
g70
NtRp3016
(dp3017
g73
(dp3018
g93
g94
ssg82
g3012
sg75
(lp3019
S'wsgi.input'
p3020
asbag68
(g89
g70
NtRp3021
(dp3022
g73
(dp3023
g100
g101
ssg82
g3012
sg75
(lp3024
S':'
asbag68
(g89
g70
NtRp3025
(dp3026
g73
(dp3027
sg82
g3012
sg75
(lp3028
g68
(g69
g70
NtRp3029
(dp3030
g73
(dp3031
g81
I3
ssg82
g3025
sg75
(lp3032
S'<cStringIO.StringO object at 0x10c455a40>'
p3033
asbasbasbag68
(g84
g70
NtRp3034
(dp3035
g73
(dp3036
sg82
g2544
sg75
(lp3037
g68
(g89
g70
NtRp3038
(dp3039
g73
(dp3040
g93
g94
ssg82
g3034
sg75
(lp3041
S'wsgi.multiprocess'
p3042
asbag68
(g89
g70
NtRp3043
(dp3044
g73
(dp3045
g100
g101
ssg82
g3034
sg75
(lp3046
S':'
asbag68
(g89
g70
NtRp3047
(dp3048
g73
(dp3049
sg82
g3034
sg75
(lp3050
g68
(g69
g70
NtRp3051
(dp3052
g73
(dp3053
g81
I3
ssg82
g3047
sg75
(lp3054
g111
asbasbasbag68
(g84
g70
NtRp3055
(dp3056
g73
(dp3057
sg82
g2544
sg75
(lp3058
g68
(g89
g70
NtRp3059
(dp3060
g73
(dp3061
g93
g94
ssg82
g3055
sg75
(lp3062
S'wsgi.multithread'
p3063
asbag68
(g89
g70
NtRp3064
(dp3065
g73
(dp3066
g100
g101
ssg82
g3055
sg75
(lp3067
S':'
asbag68
(g89
g70
NtRp3068
(dp3069
g73
(dp3070
sg82
g3055
sg75
(lp3071
g68
(g69
g70
NtRp3072
(dp3073
g73
(dp3074
g81
I3
ssg82
g3068
sg75
(lp3075
g1712
asbasbasbag68
(g84
g70
NtRp3076
(dp3077
g73
(dp3078
sg82
g2544
sg75
(lp3079
g68
(g89
g70
NtRp3080
(dp3081
g73
(dp3082
g93
g94
ssg82
g3076
sg75
(lp3083
S'wsgi.run_once'
p3084
asbag68
(g89
g70
NtRp3085
(dp3086
g73
(dp3087
g100
g101
ssg82
g3076
sg75
(lp3088
S':'
asbag68
(g89
g70
NtRp3089
(dp3090
g73
(dp3091
sg82
g3076
sg75
(lp3092
g68
(g69
g70
NtRp3093
(dp3094
g73
(dp3095
g81
I3
ssg82
g3089
sg75
(lp3096
g111
asbasbasbag68
(g84
g70
NtRp3097
(dp3098
g73
(dp3099
sg82
g2544
sg75
(lp3100
g68
(g89
g70
NtRp3101
(dp3102
g73
(dp3103
g93
g94
ssg82
g3097
sg75
(lp3104
S'wsgi.url_scheme'
p3105
asbag68
(g89
g70
NtRp3106
(dp3107
g73
(dp3108
g100
g101
ssg82
g3097
sg75
(lp3109
S':'
asbag68
(g89
g70
NtRp3110
(dp3111
g73
(dp3112
sg82
g3097
sg75
(lp3113
g68
(g69
g70
NtRp3114
(dp3115
g73
(dp3116
g81
I3
ssg82
g3110
sg75
(lp3117
g1755
asbasbasbag68
(g84
g70
NtRp3118
(dp3119
g73
(dp3120
sg82
g2544
sg75
(lp3121
g68
(g89
g70
NtRp3122
(dp3123
g73
(dp3124
g93
g94
ssg82
g3118
sg75
(lp3125
S'wsgi.version'
p3126
asbag68
(g89
g70
NtRp3127
(dp3128
g73
(dp3129
g100
g101
ssg82
g3118
sg75
(lp3130
S':'
asbag68
(g89
g70
NtRp3131
(dp3132
g73
(dp3133
sg82
g3118
sg75
(lp3134
g68
(g69
g70
NtRp3135
(dp3136
g73
(dp3137
g81
I3
ssg82
g3131
sg75
(lp3138
S'1'
asbasbasbasbasbasbasbasbasbasbasbasbasbsS'frames'
p3139
(lp3140
(dp3141
S'file'
p3142
S'/Users/hainna01/Desktop/SeniorProject/finholt-senior-project/web2py/gluon/restricted.py'
p3143
sS'dump'
p3144
(dp3145
S'code'
p3146
S'r"response.write(\'<!DOCTYPE html>\\r\\n<html>\\r\\n\\r\\...ody>\\r\\n\\r\\n\\r\\n\\r\\n  </html>\\r\\n\', escape=False)"'
p3147
sS'layer'
p3148
S"'/Users/hainna01/Desktop/SeniorProject/finholt-se...ations/SeniorProject/views/default/formtable.html'"
p3149
sS'global compile2'
p3150
S'<function compile2>'
p3151
sS'ccode'
p3152
S'undefined'
p3153
ssS'lnum'
p3154
I204
sS'lines'
p3155
(dp3156
I199
S"    environment['__name__'] = '__restricted__'"
p3157
sI200
S'    try:'
p3158
sI201
S'        if type(code) == types.CodeType:'
p3159
sI202
S'            ccode = code'
p3160
sI203
S'        else:'
p3161
sI204
S'            ccode = compile2(code,layer)'
p3162
sI205
S'        exec ccode in environment'
p3163
sI206
S'    except HTTP:'
p3164
sI207
S'        raise'
p3165
sI208
S'    except RestrictedError:'
p3166
ssS'call'
p3167
S'(code=r"response.write(\'<!DOCTYPE html>\\r\\n<html>\\r\\n\\r\\...ody>\\r\\n\\r\\n\\r\\n\\r\\n  </html>\\r\\n\', escape=False)", environment={\'A\': <class \'gluon.html.A\'>, \'Auth\': <class \'gluon.tools.Auth\'>, \'B\': <class \'gluon.html.B\'>, \'BEAUTIFY\': <class \'gluon.html.BEAUTIFY\'>, \'BODY\': <class \'gluon.html.BODY\'>, \'BR\': <class \'gluon.html.BR\'>, \'BUTTON\': <class \'gluon.html.BUTTON\'>, \'CAT\': <class \'gluon.html.CAT\'>, \'CENTER\': <class \'gluon.html.CENTER\'>, \'CLEANUP\': <class \'gluon.validators.CLEANUP\'>, ...}, layer=\'/Users/hainna01/Desktop/SeniorProject/finholt-se...ations/SeniorProject/views/default/formtable.html\')'
p3168
sS'func'
p3169
S'restricted'
p3170
sa(dp3171
g3142
S'/Users/hainna01/Desktop/SeniorProject/finholt-senior-project/web2py/gluon/restricted.py'
p3172
sg3144
(dp3173
S'builtincompile'
p3174
S'<built-in function compile>'
p3175
sS'code'
p3176
S'r"response.write(\'<!DOCTYPE html>\\r\\n<html>\\r\\n\\r\\...ody>\\r\\n\\r\\n\\r\\n\\r\\n  </html>\\r\\n\', escape=False)"'
p3177
sS'code.rstrip'
p3178
S'<built-in method rstrip of str object>'
p3179
sS').replace'
p3180
g3153
sS'layer'
p3181
S"'/Users/hainna01/Desktop/SeniorProject/finholt-se...ations/SeniorProject/views/default/formtable.html'"
p3182
ssg3154
I189
sg3155
(dp3183
I192
S'    """'
p3184
sI193
S'    runs code in environment and returns the output. if an exception occurs'
p3185
sI184
S''
sI185
S'def compile2(code,layer):'
p3186
sI186
S'    """'
p3187
sI187
S"    The +'\\n' is necessary else compile fails when code ends in a comment."
p3188
sI188
S'    """'
p3189
sI189
S"    return compile(code.rstrip().replace('\\r\\n','\\n')+'\\n', layer, 'exec')"
p3190
sI190
S''
sI191
S"def restricted(code, environment=None, layer='Unknown'):"
p3191
ssg3167
S'(code=r"response.write(\'<!DOCTYPE html>\\r\\n<html>\\r\\n\\r\\...ody>\\r\\n\\r\\n\\r\\n\\r\\n  </html>\\r\\n\', escape=False)", layer=\'/Users/hainna01/Desktop/SeniorProject/finholt-se...ations/SeniorProject/views/default/formtable.html\')'
p3192
sg3169
S'compile2'
p3193
sasS'pyver'
p3194
S'Python 2.7.2: /Library/Frameworks/Python.framework/Versions/2.7/Resources/Python.app/Contents/MacOS/Python'
p3195
sS'session'
p3196
g68
(g69
g70
NtRp3197
(dp3198
g73
(dp3199
sg75
(lp3200
g68
(g77
g70
NtRp3201
(dp3202
g73
(dp3203
g81
I5
ssg82
Nsg75
(lp3204
g68
(g84
g70
NtRp3205
(dp3206
g73
(dp3207
sg82
g3201
sg75
(lp3208
g68
(g89
g70
NtRp3209
(dp3210
g73
(dp3211
g93
g94
ssg82
g3205
sg75
(lp3212
S'auth'
p3213
asbag68
(g89
g70
NtRp3214
(dp3215
g73
(dp3216
g100
g101
ssg82
g3205
sg75
(lp3217
S':'
asbag68
(g89
g70
NtRp3218
(dp3219
g73
(dp3220
sg82
g3205
sg75
(lp3221
g68
(g69
g70
NtRp3222
(dp3223
g73
(dp3224
g81
I5
ssg82
g3218
sg75
(lp3225
g68
(g77
g70
NtRp3226
(dp3227
g73
(dp3228
g81
I4
ssg82
Nsg75
(lp3229
g68
(g84
g70
NtRp3230
(dp3231
g73
(dp3232
sg82
g3226
sg75
(lp3233
g68
(g89
g70
NtRp3234
(dp3235
g73
(dp3236
g93
g94
ssg82
g3230
sg75
(lp3237
S'expiration'
p3238
asbag68
(g89
g70
NtRp3239
(dp3240
g73
(dp3241
g100
g101
ssg82
g3230
sg75
(lp3242
S':'
asbag68
(g89
g70
NtRp3243
(dp3244
g73
(dp3245
sg82
g3230
sg75
(lp3246
g68
(g69
g70
NtRp3247
(dp3248
g73
(dp3249
g81
I4
ssg82
g3243
sg75
(lp3250
S'3600'
p3251
asbasbasbag68
(g84
g70
NtRp3252
(dp3253
g73
(dp3254
sg82
g3226
sg75
(lp3255
g68
(g89
g70
NtRp3256
(dp3257
g73
(dp3258
g93
g94
ssg82
g3252
sg75
(lp3259
S'hmac_key'
p3260
asbag68
(g89
g70
NtRp3261
(dp3262
g73
(dp3263
g100
g101
ssg82
g3252
sg75
(lp3264
S':'
asbag68
(g89
g70
NtRp3265
(dp3266
g73
(dp3267
sg82
g3252
sg75
(lp3268
g68
(g69
g70
NtRp3269
(dp3270
g73
(dp3271
g81
I4
ssg82
g3265
sg75
(lp3272
S'14e7ef51-5e93-405c-acd5-7596baeb7e9b'
p3273
asbasbasbag68
(g84
g70
NtRp3274
(dp3275
g73
(dp3276
sg82
g3226
sg75
(lp3277
g68
(g89
g70
NtRp3278
(dp3279
g73
(dp3280
g93
g94
ssg82
g3274
sg75
(lp3281
S'last_visit'
p3282
asbag68
(g89
g70
NtRp3283
(dp3284
g73
(dp3285
g100
g101
ssg82
g3274
sg75
(lp3286
S':'
asbag68
(g89
g70
NtRp3287
(dp3288
g73
(dp3289
sg82
g3274
sg75
(lp3290
g68
(g69
g70
NtRp3291
(dp3292
g73
(dp3293
g81
I4
ssg82
g3287
sg75
(lp3294
S'datetime.datetime(2012, 12, 3, 9, 57, 57, 810754)'
p3295
asbasbasbag68
(g84
g70
NtRp3296
(dp3297
g73
(dp3298
sg82
g3226
sg75
(lp3299
g68
(g89
g70
NtRp3300
(dp3301
g73
(dp3302
g93
g94
ssg82
g3296
sg75
(lp3303
S'remember'
p3304
asbag68
(g89
g70
NtRp3305
(dp3306
g73
(dp3307
g100
g101
ssg82
g3296
sg75
(lp3308
S':'
asbag68
(g89
g70
NtRp3309
(dp3310
g73
(dp3311
sg82
g3296
sg75
(lp3312
g68
(g69
g70
NtRp3313
(dp3314
g73
(dp3315
g81
I4
ssg82
g3309
sg75
(lp3316
g111
asbasbasbag68
(g84
g70
NtRp3317
(dp3318
g73
(dp3319
sg82
g3226
sg75
(lp3320
g68
(g89
g70
NtRp3321
(dp3322
g73
(dp3323
g93
g94
ssg82
g3317
sg75
(lp3324
S'user'
p3325
asbag68
(g89
g70
NtRp3326
(dp3327
g73
(dp3328
g100
g101
ssg82
g3317
sg75
(lp3329
S':'
asbag68
(g89
g70
NtRp3330
(dp3331
g73
(dp3332
sg82
g3317
sg75
(lp3333
g68
(g69
g70
NtRp3334
(dp3335
g73
(dp3336
g81
I4
ssg82
g3330
sg75
(lp3337
g68
(g77
g70
NtRp3338
(dp3339
g73
(dp3340
g81
I3
ssg82
Nsg75
(lp3341
g68
(g84
g70
NtRp3342
(dp3343
g73
(dp3344
sg82
g3338
sg75
(lp3345
g68
(g89
g70
NtRp3346
(dp3347
g73
(dp3348
g93
g94
ssg82
g3342
sg75
(lp3349
S'email'
p3350
asbag68
(g89
g70
NtRp3351
(dp3352
g73
(dp3353
g100
g101
ssg82
g3342
sg75
(lp3354
S':'
asbag68
(g89
g70
NtRp3355
(dp3356
g73
(dp3357
sg82
g3342
sg75
(lp3358
g68
(g69
g70
NtRp3359
(dp3360
g73
(dp3361
g81
I3
ssg82
g3355
sg75
(lp3362
S'hainna01@luther.edu'
p3363
asbasbasbag68
(g84
g70
NtRp3364
(dp3365
g73
(dp3366
sg82
g3338
sg75
(lp3367
g68
(g89
g70
NtRp3368
(dp3369
g73
(dp3370
g93
g94
ssg82
g3364
sg75
(lp3371
S'first_name'
p3372
asbag68
(g89
g70
NtRp3373
(dp3374
g73
(dp3375
g100
g101
ssg82
g3364
sg75
(lp3376
S':'
asbag68
(g89
g70
NtRp3377
(dp3378
g73
(dp3379
sg82
g3364
sg75
(lp3380
g68
(g69
g70
NtRp3381
(dp3382
g73
(dp3383
g81
I3
ssg82
g3377
sg75
(lp3384
S'Nathan'
p3385
asbasbasbag68
(g84
g70
NtRp3386
(dp3387
g73
(dp3388
sg82
g3338
sg75
(lp3389
g68
(g89
g70
NtRp3390
(dp3391
g73
(dp3392
g93
g94
ssg82
g3386
sg75
(lp3393
S'id'
p3394
asbag68
(g89
g70
NtRp3395
(dp3396
g73
(dp3397
g100
g101
ssg82
g3386
sg75
(lp3398
S':'
asbag68
(g89
g70
NtRp3399
(dp3400
g73
(dp3401
sg82
g3386
sg75
(lp3402
g68
(g69
g70
NtRp3403
(dp3404
g73
(dp3405
g81
I3
ssg82
g3399
sg75
(lp3406
S'1'
asbasbasbag68
(g84
g70
NtRp3407
(dp3408
g73
(dp3409
sg82
g3338
sg75
(lp3410
g68
(g89
g70
NtRp3411
(dp3412
g73
(dp3413
g93
g94
ssg82
g3407
sg75
(lp3414
S'last_name'
p3415
asbag68
(g89
g70
NtRp3416
(dp3417
g73
(dp3418
g100
g101
ssg82
g3407
sg75
(lp3419
S':'
asbag68
(g89
g70
NtRp3420
(dp3421
g73
(dp3422
sg82
g3407
sg75
(lp3423
g68
(g69
g70
NtRp3424
(dp3425
g73
(dp3426
g81
I3
ssg82
g3420
sg75
(lp3427
S'Haines'
p3428
asbasbasbag68
(g84
g70
NtRp3429
(dp3430
g73
(dp3431
sg82
g3338
sg75
(lp3432
g68
(g89
g70
NtRp3433
(dp3434
g73
(dp3435
g93
g94
ssg82
g3429
sg75
(lp3436
S'password'
p3437
asbag68
(g89
g70
NtRp3438
(dp3439
g73
(dp3440
g100
g101
ssg82
g3429
sg75
(lp3441
S':'
asbag68
(g89
g70
NtRp3442
(dp3443
g73
(dp3444
sg82
g3429
sg75
(lp3445
g68
(g69
g70
NtRp3446
(dp3447
g73
(dp3448
g81
I3
ssg82
g3442
sg75
(lp3449
S'50a852c98d4c00aac81e02a436c95f05'
p3450
asbasbasbag68
(g84
g70
NtRp3451
(dp3452
g73
(dp3453
sg82
g3338
sg75
(lp3454
g68
(g89
g70
NtRp3455
(dp3456
g73
(dp3457
g93
g94
ssg82
g3451
sg75
(lp3458
S'phone'
p3459
asbag68
(g89
g70
NtRp3460
(dp3461
g73
(dp3462
g100
g101
ssg82
g3451
sg75
(lp3463
S':'
asbag68
(g89
g70
NtRp3464
(dp3465
g73
(dp3466
sg82
g3451
sg75
(lp3467
g68
(g69
g70
NtRp3468
(dp3469
g73
(dp3470
g81
I3
ssg82
g3464
sg75
(lp3471
S'6087977472'
p3472
asbasbasbag68
(g84
g70
NtRp3473
(dp3474
g73
(dp3475
sg82
g3338
sg75
(lp3476
g68
(g89
g70
NtRp3477
(dp3478
g73
(dp3479
g93
g94
ssg82
g3473
sg75
(lp3480
S'registration_id'
p3481
asbag68
(g89
g70
NtRp3482
(dp3483
g73
(dp3484
g100
g101
ssg82
g3473
sg75
(lp3485
S':'
asbag68
(g89
g70
NtRp3486
(dp3487
g73
(dp3488
sg82
g3473
sg75
(lp3489
g68
(g69
g70
NtRp3490
(dp3491
g73
(dp3492
g81
I3
ssg82
g3486
sg75
(lp3493
S''
asbasbasbag68
(g84
g70
NtRp3494
(dp3495
g73
(dp3496
sg82
g3338
sg75
(lp3497
g68
(g89
g70
NtRp3498
(dp3499
g73
(dp3500
g93
g94
ssg82
g3494
sg75
(lp3501
S'registration_key'
p3502
asbag68
(g89
g70
NtRp3503
(dp3504
g73
(dp3505
g100
g101
ssg82
g3494
sg75
(lp3506
S':'
asbag68
(g89
g70
NtRp3507
(dp3508
g73
(dp3509
sg82
g3494
sg75
(lp3510
g68
(g69
g70
NtRp3511
(dp3512
g73
(dp3513
g81
I3
ssg82
g3507
sg75
(lp3514
S''
asbasbasbag68
(g84
g70
NtRp3515
(dp3516
g73
(dp3517
sg82
g3338
sg75
(lp3518
g68
(g89
g70
NtRp3519
(dp3520
g73
(dp3521
g93
g94
ssg82
g3515
sg75
(lp3522
S'reset_password_key'
p3523
asbag68
(g89
g70
NtRp3524
(dp3525
g73
(dp3526
g100
g101
ssg82
g3515
sg75
(lp3527
S':'
asbag68
(g89
g70
NtRp3528
(dp3529
g73
(dp3530
sg82
g3515
sg75
(lp3531
g68
(g69
g70
NtRp3532
(dp3533
g73
(dp3534
g81
I3
ssg82
g3528
sg75
(lp3535
S''
asbasbasbag68
(g84
g70
NtRp3536
(dp3537
g73
(dp3538
sg82
g3338
sg75
(lp3539
g68
(g89
g70
NtRp3540
(dp3541
g73
(dp3542
g93
g94
ssg82
g3536
sg75
(lp3543
S'role'
p3544
asbag68
(g89
g70
NtRp3545
(dp3546
g73
(dp3547
g100
g101
ssg82
g3536
sg75
(lp3548
S':'
asbag68
(g89
g70
NtRp3549
(dp3550
g73
(dp3551
sg82
g3536
sg75
(lp3552
g68
(g69
g70
NtRp3553
(dp3554
g73
(dp3555
g81
I3
ssg82
g3549
sg75
(lp3556
S'Supreme Leader '
p3557
asbasbasbasbasbasbasbag68
(g84
g70
NtRp3558
(dp3559
g73
(dp3560
sg82
g3226
sg75
(lp3561
g68
(g89
g70
NtRp3562
(dp3563
g73
(dp3564
g93
g94
ssg82
g3558
sg75
(lp3565
S'user_groups'
p3566
asbag68
(g89
g70
NtRp3567
(dp3568
g73
(dp3569
g100
g101
ssg82
g3558
sg75
(lp3570
S':'
asbag68
(g89
g70
NtRp3571
(dp3572
g73
(dp3573
sg82
g3558
sg75
(lp3574
g68
(g69
g70
NtRp3575
(dp3576
g73
(dp3577
g81
I4
ssg82
g3571
sg75
(lp3578
g68
(g77
g70
NtRp3579
(dp3580
g73
(dp3581
g81
I3
ssg82
Nsg75
(lp3582
g68
(g84
g70
NtRp3583
(dp3584
g73
(dp3585
sg82
g3579
sg75
(lp3586
g68
(g89
g70
NtRp3587
(dp3588
g73
(dp3589
g93
g94
ssg82
g3583
sg75
(lp3590
S'1'
asbag68
(g89
g70
NtRp3591
(dp3592
g73
(dp3593
g100
g101
ssg82
g3583
sg75
(lp3594
S':'
asbag68
(g89
g70
NtRp3595
(dp3596
g73
(dp3597
sg82
g3583
sg75
(lp3598
g68
(g69
g70
NtRp3599
(dp3600
g73
(dp3601
g81
I3
ssg82
g3595
sg75
(lp3602
S'user_1'
p3603
asbasbasbasbasbasbasbasbasbasbasbasbasbsS'etype'
p3604
S"<type 'exceptions.SyntaxError'>"
p3605
sS'date'
p3606
S'Mon Dec  3 10:03:01 2012'
p3607
sS'response'
p3608
g68
(g69
g70
NtRp3609
(dp3610
g73
(dp3611
sg75
(lp3612
g68
(g77
g70
NtRp3613
(dp3614
g73
(dp3615
g81
I5
ssg82
Nsg75
(lp3616
g68
(g84
g70
NtRp3617
(dp3618
g73
(dp3619
sg82
g3613
sg75
(lp3620
g68
(g89
g70
NtRp3621
(dp3622
g73
(dp3623
g93
g94
ssg82
g3617
sg75
(lp3624
g166
asbag68
(g89
g70
NtRp3625
(dp3626
g73
(dp3627
g100
g101
ssg82
g3617
sg75
(lp3628
S':'
asbag68
(g89
g70
NtRp3629
(dp3630
g73
(dp3631
sg82
g3617
sg75
(lp3632
g68
(g69
g70
NtRp3633
(dp3634
g73
(dp3635
g81
I5
ssg82
g3629
sg75
(lp3636
S'<cStringIO.StringO object at 0x10c4552d0>'
p3637
asbasbasbag68
(g84
g70
NtRp3638
(dp3639
g73
(dp3640
sg82
g3613
sg75
(lp3641
g68
(g89
g70
NtRp3642
(dp3643
g73
(dp3644
g93
g94
ssg82
g3638
sg75
(lp3645
g232
asbag68
(g89
g70
NtRp3646
(dp3647
g73
(dp3648
g100
g101
ssg82
g3638
sg75
(lp3649
S':'
asbag68
(g89
g70
NtRp3650
(dp3651
g73
(dp3652
sg82
g3638
sg75
(lp3653
g68
(g69
g70
NtRp3654
(dp3655
g73
(dp3656
g81
I5
ssg82
g3650
sg75
(lp3657
g68
(g77
g70
NtRp3658
(dp3659
g73
(dp3660
g81
I4
ssg82
Nsg75
(lp3661
g68
(g84
g70
NtRp3662
(dp3663
g73
(dp3664
sg82
g3658
sg75
(lp3665
g68
(g89
g70
NtRp3666
(dp3667
g73
(dp3668
g93
g94
ssg82
g3662
sg75
(lp3669
S'session_id_seniorproject'
p3670
asbag68
(g89
g70
NtRp3671
(dp3672
g73
(dp3673
g100
g101
ssg82
g3662
sg75
(lp3674
S':'
asbag68
(g89
g70
NtRp3675
(dp3676
g73
(dp3677
sg82
g3662
sg75
(lp3678
g68
(g69
g70
NtRp3679
(dp3680
g73
(dp3681
g81
I4
ssg82
g3675
sg75
(lp3682
g68
(g77
g70
NtRp3683
(dp3684
g73
(dp3685
g81
I3
ssg82
Nsg75
(lp3686
g68
(g84
g70
NtRp3687
(dp3688
g73
(dp3689
sg82
g3683
sg75
(lp3690
g68
(g89
g70
NtRp3691
(dp3692
g73
(dp3693
g93
g94
ssg82
g3687
sg75
(lp3694
g282
asbag68
(g89
g70
NtRp3695
(dp3696
g73
(dp3697
g100
g101
ssg82
g3687
sg75
(lp3698
S':'
asbag68
(g89
g70
NtRp3699
(dp3700
g73
(dp3701
sg82
g3687
sg75
(lp3702
g68
(g69
g70
NtRp3703
(dp3704
g73
(dp3705
g81
I3
ssg82
g3699
sg75
(lp3706
S''
asbasbasbag68
(g84
g70
NtRp3707
(dp3708
g73
(dp3709
sg82
g3683
sg75
(lp3710
g68
(g89
g70
NtRp3711
(dp3712
g73
(dp3713
g93
g94
ssg82
g3707
sg75
(lp3714
g303
asbag68
(g89
g70
NtRp3715
(dp3716
g73
(dp3717
g100
g101
ssg82
g3707
sg75
(lp3718
S':'
asbag68
(g89
g70
NtRp3719
(dp3720
g73
(dp3721
sg82
g3707
sg75
(lp3722
g68
(g69
g70
NtRp3723
(dp3724
g73
(dp3725
g81
I3
ssg82
g3719
sg75
(lp3726
S''
asbasbasbag68
(g84
g70
NtRp3727
(dp3728
g73
(dp3729
sg82
g3683
sg75
(lp3730
g68
(g89
g70
NtRp3731
(dp3732
g73
(dp3733
g93
g94
ssg82
g3727
sg75
(lp3734
g324
asbag68
(g89
g70
NtRp3735
(dp3736
g73
(dp3737
g100
g101
ssg82
g3727
sg75
(lp3738
S':'
asbag68
(g89
g70
NtRp3739
(dp3740
g73
(dp3741
sg82
g3727
sg75
(lp3742
g68
(g69
g70
NtRp3743
(dp3744
g73
(dp3745
g81
I3
ssg82
g3739
sg75
(lp3746
S''
asbasbasbag68
(g84
g70
NtRp3747
(dp3748
g73
(dp3749
sg82
g3683
sg75
(lp3750
g68
(g89
g70
NtRp3751
(dp3752
g73
(dp3753
g93
g94
ssg82
g3747
sg75
(lp3754
g345
asbag68
(g89
g70
NtRp3755
(dp3756
g73
(dp3757
g100
g101
ssg82
g3747
sg75
(lp3758
S':'
asbag68
(g89
g70
NtRp3759
(dp3760
g73
(dp3761
sg82
g3747
sg75
(lp3762
g68
(g69
g70
NtRp3763
(dp3764
g73
(dp3765
g81
I3
ssg82
g3759
sg75
(lp3766
S''
asbasbasbag68
(g84
g70
NtRp3767
(dp3768
g73
(dp3769
sg82
g3683
sg75
(lp3770
g68
(g89
g70
NtRp3771
(dp3772
g73
(dp3773
g93
g94
ssg82
g3767
sg75
(lp3774
g366
asbag68
(g89
g70
NtRp3775
(dp3776
g73
(dp3777
g100
g101
ssg82
g3767
sg75
(lp3778
S':'
asbag68
(g89
g70
NtRp3779
(dp3780
g73
(dp3781
sg82
g3767
sg75
(lp3782
g68
(g69
g70
NtRp3783
(dp3784
g73
(dp3785
g81
I3
ssg82
g3779
sg75
(lp3786
S''
asbasbasbag68
(g84
g70
NtRp3787
(dp3788
g73
(dp3789
sg82
g3683
sg75
(lp3790
g68
(g89
g70
NtRp3791
(dp3792
g73
(dp3793
g93
g94
ssg82
g3787
sg75
(lp3794
g387
asbag68
(g89
g70
NtRp3795
(dp3796
g73
(dp3797
g100
g101
ssg82
g3787
sg75
(lp3798
S':'
asbag68
(g89
g70
NtRp3799
(dp3800
g73
(dp3801
sg82
g3787
sg75
(lp3802
g68
(g69
g70
NtRp3803
(dp3804
g73
(dp3805
g81
I3
ssg82
g3799
sg75
(lp3806
S'/'
asbasbasbag68
(g84
g70
NtRp3807
(dp3808
g73
(dp3809
sg82
g3683
sg75
(lp3810
g68
(g89
g70
NtRp3811
(dp3812
g73
(dp3813
g93
g94
ssg82
g3807
sg75
(lp3814
g408
asbag68
(g89
g70
NtRp3815
(dp3816
g73
(dp3817
g100
g101
ssg82
g3807
sg75
(lp3818
S':'
asbag68
(g89
g70
NtRp3819
(dp3820
g73
(dp3821
sg82
g3807
sg75
(lp3822
g68
(g69
g70
NtRp3823
(dp3824
g73
(dp3825
g81
I3
ssg82
g3819
sg75
(lp3826
S''
asbasbasbag68
(g84
g70
NtRp3827
(dp3828
g73
(dp3829
sg82
g3683
sg75
(lp3830
g68
(g89
g70
NtRp3831
(dp3832
g73
(dp3833
g93
g94
ssg82
g3827
sg75
(lp3834
g429
asbag68
(g89
g70
NtRp3835
(dp3836
g73
(dp3837
g100
g101
ssg82
g3827
sg75
(lp3838
S':'
asbag68
(g89
g70
NtRp3839
(dp3840
g73
(dp3841
sg82
g3827
sg75
(lp3842
g68
(g69
g70
NtRp3843
(dp3844
g73
(dp3845
g81
I3
ssg82
g3839
sg75
(lp3846
S''
asbasbasbasbasbasbasbasbasbasbasbag68
(g84
g70
NtRp3847
(dp3848
g73
(dp3849
sg82
g3613
sg75
(lp3850
g68
(g89
g70
NtRp3851
(dp3852
g73
(dp3853
g93
g94
ssg82
g3847
sg75
(lp3854
S'delimiters'
p3855
asbag68
(g89
g70
NtRp3856
(dp3857
g73
(dp3858
g100
g101
ssg82
g3847
sg75
(lp3859
S':'
asbag68
(g89
g70
NtRp3860
(dp3861
g73
(dp3862
sg82
g3847
sg75
(lp3863
g68
(g69
g70
NtRp3864
(dp3865
g73
(dp3866
g81
I5
ssg82
g3860
sg75
(lp3867
g68
(g77
g70
NtRp3868
(dp3869
g73
(dp3870
g81
I4
ssg82
Nsg75
(lp3871
g68
(g84
g70
NtRp3872
(dp3873
g73
(dp3874
sg82
g3868
sg75
(lp3875
g68
(g89
g70
NtRp3876
(dp3877
g73
(dp3878
sg82
g3872
sg75
(lp3879
g68
(g69
g70
NtRp3880
(dp3881
g73
(dp3882
g81
I4
ssg82
g3876
sg75
(lp3883
S'{{'
p3884
asbasbasbag68
(g84
g70
NtRp3885
(dp3886
g73
(dp3887
sg82
g3868
sg75
(lp3888
g68
(g89
g70
NtRp3889
(dp3890
g73
(dp3891
sg82
g3885
sg75
(lp3892
g68
(g69
g70
NtRp3893
(dp3894
g73
(dp3895
g81
I4
ssg82
g3889
sg75
(lp3896
S'}}'
p3897
asbasbasbasbasbasbasbag68
(g84
g70
NtRp3898
(dp3899
g73
(dp3900
sg82
g3613
sg75
(lp3901
g68
(g89
g70
NtRp3902
(dp3903
g73
(dp3904
g93
g94
ssg82
g3898
sg75
(lp3905
S'files'
p3906
asbag68
(g89
g70
NtRp3907
(dp3908
g73
(dp3909
g100
g101
ssg82
g3898
sg75
(lp3910
S':'
asbag68
(g89
g70
NtRp3911
(dp3912
g73
(dp3913
sg82
g3898
sg75
(lp3914
g68
(g69
g70
NtRp3915
(dp3916
g73
(dp3917
g81
I5
ssg82
g3911
sg75
(lp3918
g68
(g77
g70
NtRp3919
(dp3920
g73
(dp3921
g81
I4
ssg82
Nsg75
(lp3922
sbasbasbasbag68
(g84
g70
NtRp3923
(dp3924
g73
(dp3925
sg82
g3613
sg75
(lp3926
g68
(g89
g70
NtRp3927
(dp3928
g73
(dp3929
g93
g94
ssg82
g3923
sg75
(lp3930
S'flash'
p3931
asbag68
(g89
g70
NtRp3932
(dp3933
g73
(dp3934
g100
g101
ssg82
g3923
sg75
(lp3935
S':'
asbag68
(g89
g70
NtRp3936
(dp3937
g73
(dp3938
sg82
g3923
sg75
(lp3939
g68
(g69
g70
NtRp3940
(dp3941
g73
(dp3942
g81
I5
ssg82
g3936
sg75
(lp3943
S'please fill out the form'
p3944
asbasbasbag68
(g84
g70
NtRp3945
(dp3946
g73
(dp3947
sg82
g3613
sg75
(lp3948
g68
(g89
g70
NtRp3949
(dp3950
g73
(dp3951
g93
g94
ssg82
g3945
sg75
(lp3952
S'generic_patterns'
p3953
asbag68
(g89
g70
NtRp3954
(dp3955
g73
(dp3956
g100
g101
ssg82
g3945
sg75
(lp3957
S':'
asbag68
(g89
g70
NtRp3958
(dp3959
g73
(dp3960
sg82
g3945
sg75
(lp3961
g68
(g69
g70
NtRp3962
(dp3963
g73
(dp3964
g81
I5
ssg82
g3958
sg75
(lp3965
g68
(g77
g70
NtRp3966
(dp3967
g73
(dp3968
g81
I4
ssg82
Nsg75
(lp3969
g68
(g84
g70
NtRp3970
(dp3971
g73
(dp3972
sg82
g3966
sg75
(lp3973
g68
(g89
g70
NtRp3974
(dp3975
g73
(dp3976
sg82
g3970
sg75
(lp3977
g68
(g69
g70
NtRp3978
(dp3979
g73
(dp3980
g81
I4
ssg82
g3974
sg75
(lp3981
S'*'
asbasbasbasbasbasbasbag68
(g84
g70
NtRp3982
(dp3983
g73
(dp3984
sg82
g3613
sg75
(lp3985
g68
(g89
g70
NtRp3986
(dp3987
g73
(dp3988
g93
g94
ssg82
g3982
sg75
(lp3989
S'headers'
p3990
asbag68
(g89
g70
NtRp3991
(dp3992
g73
(dp3993
g100
g101
ssg82
g3982
sg75
(lp3994
S':'
asbag68
(g89
g70
NtRp3995
(dp3996
g73
(dp3997
sg82
g3982
sg75
(lp3998
g68
(g69
g70
NtRp3999
(dp4000
g73
(dp4001
g81
I5
ssg82
g3995
sg75
(lp4002
g68
(g77
g70
NtRp4003
(dp4004
g73
(dp4005
g81
I4
ssg82
Nsg75
(lp4006
g68
(g84
g70
NtRp4007
(dp4008
g73
(dp4009
sg82
g4003
sg75
(lp4010
g68
(g89
g70
NtRp4011
(dp4012
g73
(dp4013
g93
g94
ssg82
g4007
sg75
(lp4014
S'Cache-Control'
p4015
asbag68
(g89
g70
NtRp4016
(dp4017
g73
(dp4018
g100
g101
ssg82
g4007
sg75
(lp4019
S':'
asbag68
(g89
g70
NtRp4020
(dp4021
g73
(dp4022
sg82
g4007
sg75
(lp4023
g68
(g69
g70
NtRp4024
(dp4025
g73
(dp4026
g81
I4
ssg82
g4020
sg75
(lp4027
S'no-store, no-cache, must-revalidate, post-check=0, pre-check=0'
p4028
asbasbasbag68
(g84
g70
NtRp4029
(dp4030
g73
(dp4031
sg82
g4003
sg75
(lp4032
g68
(g89
g70
NtRp4033
(dp4034
g73
(dp4035
g93
g94
ssg82
g4029
sg75
(lp4036
S'Content-Type'
p4037
asbag68
(g89
g70
NtRp4038
(dp4039
g73
(dp4040
g100
g101
ssg82
g4029
sg75
(lp4041
S':'
asbag68
(g89
g70
NtRp4042
(dp4043
g73
(dp4044
sg82
g4029
sg75
(lp4045
g68
(g69
g70
NtRp4046
(dp4047
g73
(dp4048
g81
I4
ssg82
g4042
sg75
(lp4049
S'text/html; charset=utf-8'
p4050
asbasbasbag68
(g84
g70
NtRp4051
(dp4052
g73
(dp4053
sg82
g4003
sg75
(lp4054
g68
(g89
g70
NtRp4055
(dp4056
g73
(dp4057
g93
g94
ssg82
g4051
sg75
(lp4058
S'Expires'
p4059
asbag68
(g89
g70
NtRp4060
(dp4061
g73
(dp4062
g100
g101
ssg82
g4051
sg75
(lp4063
S':'
asbag68
(g89
g70
NtRp4064
(dp4065
g73
(dp4066
sg82
g4051
sg75
(lp4067
g68
(g69
g70
NtRp4068
(dp4069
g73
(dp4070
g81
I4
ssg82
g4064
sg75
(lp4071
S'Mon, 03 Dec 2012 16:03:01 GMT'
p4072
asbasbasbag68
(g84
g70
NtRp4073
(dp4074
g73
(dp4075
sg82
g4003
sg75
(lp4076
g68
(g89
g70
NtRp4077
(dp4078
g73
(dp4079
g93
g94
ssg82
g4073
sg75
(lp4080
S'Pragma'
p4081
asbag68
(g89
g70
NtRp4082
(dp4083
g73
(dp4084
g100
g101
ssg82
g4073
sg75
(lp4085
S':'
asbag68
(g89
g70
NtRp4086
(dp4087
g73
(dp4088
sg82
g4073
sg75
(lp4089
g68
(g69
g70
NtRp4090
(dp4091
g73
(dp4092
g81
I4
ssg82
g4086
sg75
(lp4093
S'no-cache'
p4094
asbasbasbag68
(g84
g70
NtRp4095
(dp4096
g73
(dp4097
sg82
g4003
sg75
(lp4098
g68
(g89
g70
NtRp4099
(dp4100
g73
(dp4101
g93
g94
ssg82
g4095
sg75
(lp4102
S'X-Powered-By'
p4103
asbag68
(g89
g70
NtRp4104
(dp4105
g73
(dp4106
g100
g101
ssg82
g4095
sg75
(lp4107
S':'
asbag68
(g89
g70
NtRp4108
(dp4109
g73
(dp4110
sg82
g4095
sg75
(lp4111
g68
(g69
g70
NtRp4112
(dp4113
g73
(dp4114
g81
I4
ssg82
g4108
sg75
(lp4115
S'web2py'
p4116
asbasbasbasbasbasbasbag68
(g84
g70
NtRp4117
(dp4118
g73
(dp4119
sg82
g3613
sg75
(lp4120
g68
(g89
g70
NtRp4121
(dp4122
g73
(dp4123
g93
g94
ssg82
g4117
sg75
(lp4124
S'menu'
p4125
asbag68
(g89
g70
NtRp4126
(dp4127
g73
(dp4128
g100
g101
ssg82
g4117
sg75
(lp4129
S':'
asbag68
(g89
g70
NtRp4130
(dp4131
g73
(dp4132
sg82
g4117
sg75
(lp4133
g68
(g69
g70
NtRp4134
(dp4135
g73
(dp4136
g81
I5
ssg82
g4130
sg75
(lp4137
g68
(g77
g70
NtRp4138
(dp4139
g73
(dp4140
g81
I4
ssg82
Nsg75
(lp4141
g68
(g84
g70
NtRp4142
(dp4143
g73
(dp4144
sg82
g4138
sg75
(lp4145
g68
(g89
g70
NtRp4146
(dp4147
g73
(dp4148
sg82
g4142
sg75
(lp4149
g68
(g69
g70
NtRp4150
(dp4151
g73
(dp4152
g81
I4
ssg82
g4146
sg75
(lp4153
g68
(g77
g70
NtRp4154
(dp4155
g73
(dp4156
g81
I3
ssg82
Nsg75
(lp4157
g68
(g84
g70
NtRp4158
(dp4159
g73
(dp4160
sg82
g4154
sg75
(lp4161
g68
(g89
g70
NtRp4162
(dp4163
g73
(dp4164
sg82
g4158
sg75
(lp4165
g68
(g69
g70
NtRp4166
(dp4167
g73
(dp4168
g81
I3
ssg82
g4162
sg75
(lp4169
cgluon.languages
lazyT_unpickle
p4170
(S't\x04\x00\x00\x00Home'
tRp4171
asbasbasbag68
(g84
g70
NtRp4172
(dp4173
g73
(dp4174
sg82
g4154
sg75
(lp4175
g68
(g89
g70
NtRp4176
(dp4177
g73
(dp4178
sg82
g4172
sg75
(lp4179
g68
(g69
g70
NtRp4180
(dp4181
g73
(dp4182
g81
I3
ssg82
g4176
sg75
(lp4183
g111
asbasbasbag68
(g84
g70
NtRp4184
(dp4185
g73
(dp4186
sg82
g4154
sg75
(lp4187
g68
(g89
g70
NtRp4188
(dp4189
g73
(dp4190
sg82
g4184
sg75
(lp4191
g68
(g69
g70
NtRp4192
(dp4193
g73
(dp4194
g81
I3
ssg82
g4188
sg75
(lp4195
S'/SeniorProject/default/index'
p4196
asbasbasbag68
(g84
g70
NtRp4197
(dp4198
g73
(dp4199
sg82
g4154
sg75
(lp4200
g68
(g89
g70
NtRp4201
(dp4202
g73
(dp4203
sg82
g4197
sg75
(lp4204
g68
(g69
g70
NtRp4205
(dp4206
g73
(dp4207
g81
I3
ssg82
g4201
sg75
(lp4208
g68
(g77
g70
NtRp4209
(dp4210
g73
(dp4211
g81
I2
ssg82
Nsg75
(lp4212
sbasbasbasbasbasbasbasbag68
(g84
g70
NtRp4213
(dp4214
g73
(dp4215
sg82
g4138
sg75
(lp4216
g68
(g89
g70
NtRp4217
(dp4218
g73
(dp4219
sg82
g4213
sg75
(lp4220
g68
(g69
g70
NtRp4221
(dp4222
g73
(dp4223
g81
I4
ssg82
g4217
sg75
(lp4224
g68
(g77
g70
NtRp4225
(dp4226
g73
(dp4227
g81
I3
ssg82
Nsg75
(lp4228
g68
(g84
g70
NtRp4229
(dp4230
g73
(dp4231
sg82
g4225
sg75
(lp4232
g68
(g89
g70
NtRp4233
(dp4234
g73
(dp4235
sg82
g4229
sg75
(lp4236
g68
(g69
g70
NtRp4237
(dp4238
g73
(dp4239
g81
I3
ssg82
g4233
sg75
(lp4240
g68
(cgluon.html
SPAN
p4241
g70
NtRp4242
(dp4243
g73
(dp4244
g93
S'color:yellow'
p4245
ssg82
Nsg75
(lp4246
g4116
asbasbasbasbag68
(g84
g70
NtRp4247
(dp4248
g73
(dp4249
sg82
g4225
sg75
(lp4250
g68
(g89
g70
NtRp4251
(dp4252
g73
(dp4253
sg82
g4247
sg75
(lp4254
g68
(g69
g70
NtRp4255
(dp4256
g73
(dp4257
g81
I3
ssg82
g4251
sg75
(lp4258
g111
asbasbasbag68
(g84
g70
NtRp4259
(dp4260
g73
(dp4261
sg82
g4225
sg75
(lp4262
g68
(g89
g70
NtRp4263
(dp4264
g73
(dp4265
sg82
g4259
sg75
(lp4266
g68
(g69
g70
NtRp4267
(dp4268
g73
(dp4269
g81
I3
ssg82
g4263
sg75
(lp4270
S'None'
p4271
asbasbasbag68
(g84
g70
NtRp4272
(dp4273
g73
(dp4274
sg82
g4225
sg75
(lp4275
g68
(g89
g70
NtRp4276
(dp4277
g73
(dp4278
sg82
g4272
sg75
(lp4279
g68
(g69
g70
NtRp4280
(dp4281
g73
(dp4282
g81
I3
ssg82
g4276
sg75
(lp4283
g68
(g77
g70
NtRp4284
(dp4285
g73
(dp4286
g81
I2
ssg82
Nsg75
(lp4287
g68
(g84
g70
NtRp4288
(dp4289
g73
(dp4290
sg82
g4284
sg75
(lp4291
g68
(g89
g70
NtRp4292
(dp4293
g73
(dp4294
sg82
g4288
sg75
(lp4295
g68
(g69
g70
NtRp4296
(dp4297
g73
(dp4298
g81
I2
ssg82
g4292
sg75
(lp4299
g68
(g77
g70
NtRp4300
(dp4301
g73
(dp4302
g81
I1
ssg82
Nsg75
(lp4303
g68
(g84
g70
NtRp4304
(dp4305
g73
(dp4306
sg82
g4300
sg75
(lp4307
g68
(g89
g70
NtRp4308
(dp4309
g73
(dp4310
sg82
g4304
sg75
(lp4311
g68
(g69
g70
NtRp4312
(dp4313
g73
(dp4314
g81
I1
ssg82
g4308
sg75
(lp4315
g4170
(S's\x08\x00\x00\x00My Sites'
tRp4316
asbasbasbag68
(g84
g70
NtRp4317
(dp4318
g73
(dp4319
sg82
g4300
sg75
(lp4320
g68
(g89
g70
NtRp4321
(dp4322
g73
(dp4323
sg82
g4317
sg75
(lp4324
g68
(g69
g70
NtRp4325
(dp4326
g73
(dp4327
g81
I1
ssg82
g4321
sg75
(lp4328
I00
asbasbasbag68
(g84
g70
NtRp4329
(dp4330
g73
(dp4331
sg82
g4300
sg75
(lp4332
g68
(g89
g70
NtRp4333
(dp4334
g73
(dp4335
sg82
g4329
sg75
(lp4336
g68
(g69
g70
NtRp4337
(dp4338
g73
(dp4339
g81
I1
ssg82
g4333
sg75
(lp4340
S'/admin/default/site'
p4341
asbasbasbasbasbasbasbag68
(g84
g70
NtRp4342
(dp4343
g73
(dp4344
sg82
g4284
sg75
(lp4345
g68
(g89
g70
NtRp4346
(dp4347
g73
(dp4348
sg82
g4342
sg75
(lp4349
g68
(g69
g70
NtRp4350
(dp4351
g73
(dp4352
g81
I2
ssg82
g4346
sg75
(lp4353
g68
(g77
g70
NtRp4354
(dp4355
g73
(dp4356
g81
I1
ssg82
Nsg75
(lp4357
g68
(g84
g70
NtRp4358
(dp4359
g73
(dp4360
sg82
g4354
sg75
(lp4361
g68
(g89
g70
NtRp4362
(dp4363
g73
(dp4364
sg82
g4358
sg75
(lp4365
g68
(g69
g70
NtRp4366
(dp4367
g73
(dp4368
g81
I1
ssg82
g4362
sg75
(lp4369
g4170
(S's\x08\x00\x00\x00This App'
tRp4370
asbasbasbag68
(g84
g70
NtRp4371
(dp4372
g73
(dp4373
sg82
g4354
sg75
(lp4374
g68
(g89
g70
NtRp4375
(dp4376
g73
(dp4377
sg82
g4371
sg75
(lp4378
g68
(g69
g70
NtRp4379
(dp4380
g73
(dp4381
g81
I1
ssg82
g4375
sg75
(lp4382
I00
asbasbasbag68
(g84
g70
NtRp4383
(dp4384
g73
(dp4385
sg82
g4354
sg75
(lp4386
g68
(g89
g70
NtRp4387
(dp4388
g73
(dp4389
sg82
g4383
sg75
(lp4390
g68
(g69
g70
NtRp4391
(dp4392
g73
(dp4393
g81
I1
ssg82
g4387
sg75
(lp4394
S'/admin/default/design/SeniorProject'
p4395
asbasbasbag68
(g84
g70
NtRp4396
(dp4397
g73
(dp4398
sg82
g4354
sg75
(lp4399
g68
(g89
g70
NtRp4400
(dp4401
g73
(dp4402
sg82
g4396
sg75
(lp4403
g68
(g69
g70
NtRp4404
(dp4405
g73
(dp4406
g81
I1
ssg82
g4400
sg75
(lp4407
(lp4408
(g4170
(S't\n\x00\x00\x00Controller'
tRp4409
I00
S'/admin/default/edit/SeniorProject/controllers/default.py'
tp4410
a(g4170
(S't\x04\x00\x00\x00View'
tRp4411
I00
S'/admin/default/edit/SeniorProject/views/default/formtable.html'
tp4412
a(g4170
(S't\x06\x00\x00\x00Layout'
tRp4413
I00
S'/admin/default/edit/SeniorProject/views/layout.html'
tp4414
a(g4170
(S't\n\x00\x00\x00Stylesheet'
tRp4415
I00
S'/admin/default/edit/SeniorProject/static/css/web2py.css'
tp4416
a(g4170
(S's\x08\x00\x00\x00DB Model'
tRp4417
I00
S'/admin/default/edit/SeniorProject/models/db.py'
tp4418
a(g4170
(S's\n\x00\x00\x00Menu Model'
tRp4419
I00
S'/admin/default/edit/SeniorProject/models/menu.py'
tp4420
a(g4170
(S't\x08\x00\x00\x00Database'
tRp4421
I00
S'/SeniorProject/appadmin/index'
tp4422
a(g4170
(S't\x06\x00\x00\x00Errors'
tRp4423
I00
S'/admin/default/errors/SeniorProject'
tp4424
a(g4170
(S't\x05\x00\x00\x00About'
tRp4425
I00
S'/admin/default/about/SeniorProject'
tp4426
aasbasbasbasbasbasbasbag68
(g84
g70
NtRp4427
(dp4428
g73
(dp4429
sg82
g4284
sg75
(lp4430
g68
(g89
g70
NtRp4431
(dp4432
g73
(dp4433
sg82
g4427
sg75
(lp4434
g68
(g69
g70
NtRp4435
(dp4436
g73
(dp4437
g81
I2
ssg82
g4431
sg75
(lp4438
g68
(g77
g70
NtRp4439
(dp4440
g73
(dp4441
g81
I1
ssg82
Nsg75
(lp4442
g68
(g84
g70
NtRp4443
(dp4444
g73
(dp4445
sg82
g4439
sg75
(lp4446
g68
(g89
g70
NtRp4447
(dp4448
g73
(dp4449
sg82
g4443
sg75
(lp4450
g68
(g69
g70
NtRp4451
(dp4452
g73
(dp4453
g81
I1
ssg82
g4447
sg75
(lp4454
S'web2py.com'
p4455
asbasbasbag68
(g84
g70
NtRp4456
(dp4457
g73
(dp4458
sg82
g4439
sg75
(lp4459
g68
(g89
g70
NtRp4460
(dp4461
g73
(dp4462
sg82
g4456
sg75
(lp4463
g68
(g69
g70
NtRp4464
(dp4465
g73
(dp4466
g81
I1
ssg82
g4460
sg75
(lp4467
I00
asbasbasbag68
(g84
g70
NtRp4468
(dp4469
g73
(dp4470
sg82
g4439
sg75
(lp4471
g68
(g89
g70
NtRp4472
(dp4473
g73
(dp4474
sg82
g4468
sg75
(lp4475
g68
(g69
g70
NtRp4476
(dp4477
g73
(dp4478
g81
I1
ssg82
g4472
sg75
(lp4479
S'http://www.web2py.com'
p4480
asbasbasbag68
(g84
g70
NtRp4481
(dp4482
g73
(dp4483
sg82
g4439
sg75
(lp4484
g68
(g89
g70
NtRp4485
(dp4486
g73
(dp4487
sg82
g4481
sg75
(lp4488
g68
(g69
g70
NtRp4489
(dp4490
g73
(dp4491
g81
I1
ssg82
g4485
sg75
(lp4492
(lp4493
(g4170
(S't\x08\x00\x00\x00Download'
tRp4494
I00
S'http://www.web2py.com/examples/default/download'
p4495
tp4496
a(g4170
(S't\x07\x00\x00\x00Support'
tRp4497
I00
S'http://www.web2py.com/examples/default/support'
p4498
tp4499
a(g4170
(S't\x04\x00\x00\x00Demo'
tRp4500
I00
S'http://web2py.com/demo_admin'
p4501
tp4502
a(g4170
(S's\x0e\x00\x00\x00Quick Examples'
tRp4503
I00
S'http://web2py.com/examples/default/examples'
p4504
tp4505
a(g4170
(S't\x03\x00\x00\x00FAQ'
tRp4506
I00
S'http://web2py.com/AlterEgo'
p4507
tp4508
a(g4170
(S't\x06\x00\x00\x00Videos'
tRp4509
I00
S'http://www.web2py.com/examples/default/videos/'
p4510
tp4511
a(g4170
(S's\x11\x00\x00\x00Free Applications'
tRp4512
I00
S'http://web2py.com/appliances'
p4513
tp4514
a(g4170
(S't\x07\x00\x00\x00Plugins'
tRp4515
I00
S'http://web2py.com/plugins'
p4516
tp4517
a(g4170
(S't\x07\x00\x00\x00Layouts'
tRp4518
I00
S'http://web2py.com/layouts'
p4519
tp4520
a(g4170
(S't\x07\x00\x00\x00Recipes'
tRp4521
I00
S'http://web2pyslices.com/'
p4522
tp4523
a(g4170
(S't\x08\x00\x00\x00Semantic'
tRp4524
I00
S'http://web2py.com/semantic'
p4525
tp4526
aasbasbasbasbasbasbasbag68
(g84
g70
NtRp4527
(dp4528
g73
(dp4529
sg82
g4284
sg75
(lp4530
g68
(g89
g70
NtRp4531
(dp4532
g73
(dp4533
sg82
g4527
sg75
(lp4534
g68
(g69
g70
NtRp4535
(dp4536
g73
(dp4537
g81
I2
ssg82
g4531
sg75
(lp4538
g68
(g77
g70
NtRp4539
(dp4540
g73
(dp4541
g81
I1
ssg82
Nsg75
(lp4542
g68
(g84
g70
NtRp4543
(dp4544
g73
(dp4545
sg82
g4539
sg75
(lp4546
g68
(g89
g70
NtRp4547
(dp4548
g73
(dp4549
sg82
g4543
sg75
(lp4550
g68
(g69
g70
NtRp4551
(dp4552
g73
(dp4553
g81
I1
ssg82
g4547
sg75
(lp4554
g4170
(S't\r\x00\x00\x00Documentation'
tRp4555
asbasbasbag68
(g84
g70
NtRp4556
(dp4557
g73
(dp4558
sg82
g4539
sg75
(lp4559
g68
(g89
g70
NtRp4560
(dp4561
g73
(dp4562
sg82
g4556
sg75
(lp4563
g68
(g69
g70
NtRp4564
(dp4565
g73
(dp4566
g81
I1
ssg82
g4560
sg75
(lp4567
I00
asbasbasbag68
(g84
g70
NtRp4568
(dp4569
g73
(dp4570
sg82
g4539
sg75
(lp4571
g68
(g89
g70
NtRp4572
(dp4573
g73
(dp4574
sg82
g4568
sg75
(lp4575
g68
(g69
g70
NtRp4576
(dp4577
g73
(dp4578
g81
I1
ssg82
g4572
sg75
(lp4579
S'http://www.web2py.com/book'
p4580
asbasbasbag68
(g84
g70
NtRp4581
(dp4582
g73
(dp4583
sg82
g4539
sg75
(lp4584
g68
(g89
g70
NtRp4585
(dp4586
g73
(dp4587
sg82
g4581
sg75
(lp4588
g68
(g69
g70
NtRp4589
(dp4590
g73
(dp4591
g81
I1
ssg82
g4585
sg75
(lp4592
(lp4593
(g4170
(S't\x07\x00\x00\x00Preface'
tRp4594
I00
S'http://www.web2py.com/book/default/chapter/00'
p4595
tp4596
a(g4170
(S't\x0c\x00\x00\x00Introduction'
tRp4597
I00
S'http://www.web2py.com/book/default/chapter/01'
p4598
tp4599
a(g4170
(S't\x06\x00\x00\x00Python'
tRp4600
I00
S'http://www.web2py.com/book/default/chapter/02'
p4601
tp4602
a(g4170
(S't\x08\x00\x00\x00Overview'
tRp4603
I00
S'http://www.web2py.com/book/default/chapter/03'
p4604
tp4605
a(g4170
(S's\x08\x00\x00\x00The Core'
tRp4606
I00
S'http://www.web2py.com/book/default/chapter/04'
p4607
tp4608
a(g4170
(S's\t\x00\x00\x00The Views'
tRp4609
I00
S'http://www.web2py.com/book/default/chapter/05'
p4610
tp4611
a(g4170
(S't\x08\x00\x00\x00Database'
tRp4612
I00
S'http://www.web2py.com/book/default/chapter/06'
p4613
tp4614
a(g4170
(S's\x14\x00\x00\x00Forms and Validators'
tRp4615
I00
S'http://www.web2py.com/book/default/chapter/07'
p4616
tp4617
a(g4170
(S's\r\x00\x00\x00Email and SMS'
tRp4618
I00
S'http://www.web2py.com/book/default/chapter/08'
p4619
tp4620
a(g4170
(S's\x0e\x00\x00\x00Access Control'
tRp4621
I00
S'http://www.web2py.com/book/default/chapter/09'
p4622
tp4623
a(g4170
(S't\x08\x00\x00\x00Services'
tRp4624
I00
S'http://www.web2py.com/book/default/chapter/10'
p4625
tp4626
a(g4170
(S's\x0c\x00\x00\x00Ajax Recipes'
tRp4627
I00
S'http://www.web2py.com/book/default/chapter/11'
p4628
tp4629
a(g4170
(S's\x16\x00\x00\x00Components and Plugins'
tRp4630
I00
S'http://www.web2py.com/book/default/chapter/12'
p4631
tp4632
a(g4170
(S's\x12\x00\x00\x00Deployment Recipes'
tRp4633
I00
S'http://www.web2py.com/book/default/chapter/13'
p4634
tp4635
a(g4170
(S's\r\x00\x00\x00Other Recipes'
tRp4636
I00
S'http://www.web2py.com/book/default/chapter/14'
p4637
tp4638
a(g4170
(S's\r\x00\x00\x00Buy this book'
tRp4639
I00
S'http://stores.lulu.com/web2py'
p4640
tp4641
aasbasbasbasbasbasbasbag68
(g84
g70
NtRp4642
(dp4643
g73
(dp4644
sg82
g4284
sg75
(lp4645
g68
(g89
g70
NtRp4646
(dp4647
g73
(dp4648
sg82
g4642
sg75
(lp4649
g68
(g69
g70
NtRp4650
(dp4651
g73
(dp4652
g81
I2
ssg82
g4646
sg75
(lp4653
g68
(g77
g70
NtRp4654
(dp4655
g73
(dp4656
g81
I1
ssg82
Nsg75
(lp4657
g68
(g84
g70
NtRp4658
(dp4659
g73
(dp4660
sg82
g4654
sg75
(lp4661
g68
(g89
g70
NtRp4662
(dp4663
g73
(dp4664
sg82
g4658
sg75
(lp4665
g68
(g69
g70
NtRp4666
(dp4667
g73
(dp4668
g81
I1
ssg82
g4662
sg75
(lp4669
g4170
(S't\t\x00\x00\x00Community'
tRp4670
asbasbasbag68
(g84
g70
NtRp4671
(dp4672
g73
(dp4673
sg82
g4654
sg75
(lp4674
g68
(g89
g70
NtRp4675
(dp4676
g73
(dp4677
sg82
g4671
sg75
(lp4678
g68
(g69
g70
NtRp4679
(dp4680
g73
(dp4681
g81
I1
ssg82
g4675
sg75
(lp4682
I00
asbasbasbag68
(g84
g70
NtRp4683
(dp4684
g73
(dp4685
sg82
g4654
sg75
(lp4686
g68
(g89
g70
NtRp4687
(dp4688
g73
(dp4689
sg82
g4683
sg75
(lp4690
g68
(g69
g70
NtRp4691
(dp4692
g73
(dp4693
g81
I1
ssg82
g4687
sg75
(lp4694
Nasbasbasbag68
(g84
g70
NtRp4695
(dp4696
g73
(dp4697
sg82
g4654
sg75
(lp4698
g68
(g89
g70
NtRp4699
(dp4700
g73
(dp4701
sg82
g4695
sg75
(lp4702
g68
(g69
g70
NtRp4703
(dp4704
g73
(dp4705
g81
I1
ssg82
g4699
sg75
(lp4706
(lp4707
(g4170
(S't\x06\x00\x00\x00Groups'
tRp4708
I00
S'http://www.web2py.com/examples/default/usergroups'
p4709
tp4710
a(g4170
(S't\x07\x00\x00\x00Twitter'
tRp4711
I00
S'http://twitter.com/web2py'
p4712
tp4713
a(g4170
(S's\t\x00\x00\x00Live Chat'
tRp4714
I00
S'http://webchat.freenode.net/?channels=web2py'
p4715
tp4716
aasbasbasbasbasbasbasbag68
(g84
g70
NtRp4717
(dp4718
g73
(dp4719
sg82
g4284
sg75
(lp4720
g68
(g89
g70
NtRp4721
(dp4722
g73
(dp4723
sg82
g4717
sg75
(lp4724
g68
(g69
g70
NtRp4725
(dp4726
g73
(dp4727
g81
I2
ssg82
g4721
sg75
(lp4728
g68
(g77
g70
NtRp4729
(dp4730
g73
(dp4731
g81
I1
ssg82
Nsg75
(lp4732
g68
(g84
g70
NtRp4733
(dp4734
g73
(dp4735
sg82
g4729
sg75
(lp4736
g68
(g89
g70
NtRp4737
(dp4738
g73
(dp4739
sg82
g4733
sg75
(lp4740
g68
(g69
g70
NtRp4741
(dp4742
g73
(dp4743
g81
I1
ssg82
g4737
sg75
(lp4744
g4170
(S't\x07\x00\x00\x00Plugins'
tRp4745
asbasbasbag68
(g84
g70
NtRp4746
(dp4747
g73
(dp4748
sg82
g4729
sg75
(lp4749
g68
(g89
g70
NtRp4750
(dp4751
g73
(dp4752
sg82
g4746
sg75
(lp4753
g68
(g69
g70
NtRp4754
(dp4755
g73
(dp4756
g81
I1
ssg82
g4750
sg75
(lp4757
I00
asbasbasbag68
(g84
g70
NtRp4758
(dp4759
g73
(dp4760
sg82
g4729
sg75
(lp4761
g68
(g89
g70
NtRp4762
(dp4763
g73
(dp4764
sg82
g4758
sg75
(lp4765
g68
(g69
g70
NtRp4766
(dp4767
g73
(dp4768
g81
I1
ssg82
g4762
sg75
(lp4769
Nasbasbasbag68
(g84
g70
NtRp4770
(dp4771
g73
(dp4772
sg82
g4729
sg75
(lp4773
g68
(g89
g70
NtRp4774
(dp4775
g73
(dp4776
sg82
g4770
sg75
(lp4777
g68
(g69
g70
NtRp4778
(dp4779
g73
(dp4780
g81
I1
ssg82
g4774
sg75
(lp4781
(lp4782
(S'plugin_wiki'
p4783
I00
S'http://web2py.com/examples/default/download'
p4784
tp4785
a(g4170
(S's\r\x00\x00\x00Other Plugins'
tRp4786
I00
g4516
tp4787
a(g4170
(S's\x0e\x00\x00\x00Layout Plugins'
tRp4788
I00
g4519
tp4789
aasbasbasbasbasbasbasbasbasbasbasbasbasbasbasbasbasbasbasbag68
(g84
g70
NtRp4790
(dp4791
g73
(dp4792
sg82
g3613
sg75
(lp4793
g68
(g89
g70
NtRp4794
(dp4795
g73
(dp4796
g93
g94
ssg82
g4790
sg75
(lp4797
S'meta'
p4798
asbag68
(g89
g70
NtRp4799
(dp4800
g73
(dp4801
g100
g101
ssg82
g4790
sg75
(lp4802
S':'
asbag68
(g89
g70
NtRp4803
(dp4804
g73
(dp4805
sg82
g4790
sg75
(lp4806
g68
(g69
g70
NtRp4807
(dp4808
g73
(dp4809
g81
I5
ssg82
g4803
sg75
(lp4810
g68
(g77
g70
NtRp4811
(dp4812
g73
(dp4813
g81
I4
ssg82
Nsg75
(lp4814
g68
(g84
g70
NtRp4815
(dp4816
g73
(dp4817
sg82
g4811
sg75
(lp4818
g68
(g89
g70
NtRp4819
(dp4820
g73
(dp4821
g93
g94
ssg82
g4815
sg75
(lp4822
S'author'
p4823
asbag68
(g89
g70
NtRp4824
(dp4825
g73
(dp4826
g100
g101
ssg82
g4815
sg75
(lp4827
S':'
asbag68
(g89
g70
NtRp4828
(dp4829
g73
(dp4830
sg82
g4815
sg75
(lp4831
g68
(g69
g70
NtRp4832
(dp4833
g73
(dp4834
g81
I4
ssg82
g4828
sg75
(lp4835
S'Your Name <you@example.com>'
p4836
asbasbasbag68
(g84
g70
NtRp4837
(dp4838
g73
(dp4839
sg82
g4811
sg75
(lp4840
g68
(g89
g70
NtRp4841
(dp4842
g73
(dp4843
g93
g94
ssg82
g4837
sg75
(lp4844
S'copyright'
p4845
asbag68
(g89
g70
NtRp4846
(dp4847
g73
(dp4848
g100
g101
ssg82
g4837
sg75
(lp4849
S':'
asbag68
(g89
g70
NtRp4850
(dp4851
g73
(dp4852
sg82
g4837
sg75
(lp4853
g68
(g69
g70
NtRp4854
(dp4855
g73
(dp4856
g81
I4
ssg82
g4850
sg75
(lp4857
S'Copyright 2011'
p4858
asbasbasbag68
(g84
g70
NtRp4859
(dp4860
g73
(dp4861
sg82
g4811
sg75
(lp4862
g68
(g89
g70
NtRp4863
(dp4864
g73
(dp4865
g93
g94
ssg82
g4859
sg75
(lp4866
S'description'
p4867
asbag68
(g89
g70
NtRp4868
(dp4869
g73
(dp4870
g100
g101
ssg82
g4859
sg75
(lp4871
S':'
asbag68
(g89
g70
NtRp4872
(dp4873
g73
(dp4874
sg82
g4859
sg75
(lp4875
g68
(g69
g70
NtRp4876
(dp4877
g73
(dp4878
g81
I4
ssg82
g4872
sg75
(lp4879
S'a cool new app'
p4880
asbasbasbag68
(g84
g70
NtRp4881
(dp4882
g73
(dp4883
sg82
g4811
sg75
(lp4884
g68
(g89
g70
NtRp4885
(dp4886
g73
(dp4887
g93
g94
ssg82
g4881
sg75
(lp4888
S'generator'
p4889
asbag68
(g89
g70
NtRp4890
(dp4891
g73
(dp4892
g100
g101
ssg82
g4881
sg75
(lp4893
S':'
asbag68
(g89
g70
NtRp4894
(dp4895
g73
(dp4896
sg82
g4881
sg75
(lp4897
g68
(g69
g70
NtRp4898
(dp4899
g73
(dp4900
g81
I4
ssg82
g4894
sg75
(lp4901
S'Web2py Web Framework'
p4902
asbasbasbag68
(g84
g70
NtRp4903
(dp4904
g73
(dp4905
sg82
g4811
sg75
(lp4906
g68
(g89
g70
NtRp4907
(dp4908
g73
(dp4909
g93
g94
ssg82
g4903
sg75
(lp4910
S'keywords'
p4911
asbag68
(g89
g70
NtRp4912
(dp4913
g73
(dp4914
g100
g101
ssg82
g4903
sg75
(lp4915
S':'
asbag68
(g89
g70
NtRp4916
(dp4917
g73
(dp4918
sg82
g4903
sg75
(lp4919
g68
(g69
g70
NtRp4920
(dp4921
g73
(dp4922
g81
I4
ssg82
g4916
sg75
(lp4923
S'web2py, python, framework'
p4924
asbasbasbasbasbasbasbag68
(g84
g70
NtRp4925
(dp4926
g73
(dp4927
sg82
g3613
sg75
(lp4928
g68
(g89
g70
NtRp4929
(dp4930
g73
(dp4931
g93
g94
ssg82
g4925
sg75
(lp4932
S'postprocessing'
p4933
asbag68
(g89
g70
NtRp4934
(dp4935
g73
(dp4936
g100
g101
ssg82
g4925
sg75
(lp4937
S':'
asbag68
(g89
g70
NtRp4938
(dp4939
g73
(dp4940
sg82
g4925
sg75
(lp4941
g68
(g69
g70
NtRp4942
(dp4943
g73
(dp4944
g81
I5
ssg82
g4938
sg75
(lp4945
g68
(g77
g70
NtRp4946
(dp4947
g73
(dp4948
g81
I4
ssg82
Nsg75
(lp4949
sbasbasbasbag68
(g84
g70
NtRp4950
(dp4951
g73
(dp4952
sg82
g3613
sg75
(lp4953
g68
(g89
g70
NtRp4954
(dp4955
g73
(dp4956
g93
g94
ssg82
g4950
sg75
(lp4957
S'session_file'
p4958
asbag68
(g89
g70
NtRp4959
(dp4960
g73
(dp4961
g100
g101
ssg82
g4950
sg75
(lp4962
S':'
asbag68
(g89
g70
NtRp4963
(dp4964
g73
(dp4965
sg82
g4950
sg75
(lp4966
g68
(g69
g70
NtRp4967
(dp4968
g73
(dp4969
g81
I5
ssg82
g4963
sg75
(lp4970
S"<open file '/Users/hainna01/Desktop/SeniorProject/finholt-senior-project/web2py/applications/SeniorProject/sessions/127.0.0.1-35fcac76-7f11-47e5-9e54-eb77cd194136', mode 'rb+' at 0x105b3eb70>"
p4971
asbasbasbag68
(g84
g70
NtRp4972
(dp4973
g73
(dp4974
sg82
g3613
sg75
(lp4975
g68
(g89
g70
NtRp4976
(dp4977
g73
(dp4978
g93
g94
ssg82
g4972
sg75
(lp4979
S'session_filename'
p4980
asbag68
(g89
g70
NtRp4981
(dp4982
g73
(dp4983
g100
g101
ssg82
g4972
sg75
(lp4984
S':'
asbag68
(g89
g70
NtRp4985
(dp4986
g73
(dp4987
sg82
g4972
sg75
(lp4988
g68
(g69
g70
NtRp4989
(dp4990
g73
(dp4991
g81
I5
ssg82
g4985
sg75
(lp4992
S'/Users/hainna01/Desktop/SeniorProject/finholt-senior-project/web2py/applications/SeniorProject/sessions/127.0.0.1-35fcac76-7f11-47e5-9e54-eb77cd194136'
p4993
asbasbasbag68
(g84
g70
NtRp4994
(dp4995
g73
(dp4996
sg82
g3613
sg75
(lp4997
g68
(g89
g70
NtRp4998
(dp4999
g73
(dp5000
g93
g94
ssg82
g4994
sg75
(lp5001
S'session_id'
p5002
asbag68
(g89
g70
NtRp5003
(dp5004
g73
(dp5005
g100
g101
ssg82
g4994
sg75
(lp5006
S':'
asbag68
(g89
g70
NtRp5007
(dp5008
g73
(dp5009
sg82
g4994
sg75
(lp5010
g68
(g69
g70
NtRp5011
(dp5012
g73
(dp5013
g81
I5
ssg82
g5007
sg75
(lp5014
S'127.0.0.1-35fcac76-7f11-47e5-9e54-eb77cd194136'
p5015
asbasbasbag68
(g84
g70
NtRp5016
(dp5017
g73
(dp5018
sg82
g3613
sg75
(lp5019
g68
(g89
g70
NtRp5020
(dp5021
g73
(dp5022
g93
g94
ssg82
g5016
sg75
(lp5023
S'session_id_name'
p5024
asbag68
(g89
g70
NtRp5025
(dp5026
g73
(dp5027
g100
g101
ssg82
g5016
sg75
(lp5028
S':'
asbag68
(g89
g70
NtRp5029
(dp5030
g73
(dp5031
sg82
g5016
sg75
(lp5032
g68
(g69
g70
NtRp5033
(dp5034
g73
(dp5035
g81
I5
ssg82
g5029
sg75
(lp5036
g3670
asbasbasbag68
(g84
g70
NtRp5037
(dp5038
g73
(dp5039
sg82
g3613
sg75
(lp5040
g68
(g89
g70
NtRp5041
(dp5042
g73
(dp5043
g93
g94
ssg82
g5037
sg75
(lp5044
S'session_locked'
p5045
asbag68
(g89
g70
NtRp5046
(dp5047
g73
(dp5048
g100
g101
ssg82
g5037
sg75
(lp5049
S':'
asbag68
(g89
g70
NtRp5050
(dp5051
g73
(dp5052
sg82
g5037
sg75
(lp5053
g68
(g69
g70
NtRp5054
(dp5055
g73
(dp5056
g81
I5
ssg82
g5050
sg75
(lp5057
g1712
asbasbasbag68
(g84
g70
NtRp5058
(dp5059
g73
(dp5060
sg82
g3613
sg75
(lp5061
g68
(g89
g70
NtRp5062
(dp5063
g73
(dp5064
g93
g94
ssg82
g5058
sg75
(lp5065
S'session_new'
p5066
asbag68
(g89
g70
NtRp5067
(dp5068
g73
(dp5069
g100
g101
ssg82
g5058
sg75
(lp5070
S':'
asbag68
(g89
g70
NtRp5071
(dp5072
g73
(dp5073
sg82
g5058
sg75
(lp5074
g68
(g69
g70
NtRp5075
(dp5076
g73
(dp5077
g81
I5
ssg82
g5071
sg75
(lp5078
g111
asbasbasbag68
(g84
g70
NtRp5079
(dp5080
g73
(dp5081
sg82
g3613
sg75
(lp5082
g68
(g89
g70
NtRp5083
(dp5084
g73
(dp5085
g93
g94
ssg82
g5079
sg75
(lp5086
S'status'
p5087
asbag68
(g89
g70
NtRp5088
(dp5089
g73
(dp5090
g100
g101
ssg82
g5079
sg75
(lp5091
S':'
asbag68
(g89
g70
NtRp5092
(dp5093
g73
(dp5094
sg82
g5079
sg75
(lp5095
g68
(g69
g70
NtRp5096
(dp5097
g73
(dp5098
g81
I5
ssg82
g5092
sg75
(lp5099
S'200'
p5100
asbasbasbag68
(g84
g70
NtRp5101
(dp5102
g73
(dp5103
sg82
g3613
sg75
(lp5104
g68
(g89
g70
NtRp5105
(dp5106
g73
(dp5107
g93
g94
ssg82
g5101
sg75
(lp5108
S'subtitle'
p5109
asbag68
(g89
g70
NtRp5110
(dp5111
g73
(dp5112
g100
g101
ssg82
g5101
sg75
(lp5113
S':'
asbag68
(g89
g70
NtRp5114
(dp5115
g73
(dp5116
sg82
g5101
sg75
(lp5117
g68
(g69
g70
NtRp5118
(dp5119
g73
(dp5120
g81
I5
ssg82
g5114
sg75
(lp5121
g4170
(S's\r\x00\x00\x00customize me!'
tRp5122
asbasbasbag68
(g84
g70
NtRp5123
(dp5124
g73
(dp5125
sg82
g3613
sg75
(lp5126
g68
(g89
g70
NtRp5127
(dp5128
g73
(dp5129
g93
g94
ssg82
g5123
sg75
(lp5130
S'title'
p5131
asbag68
(g89
g70
NtRp5132
(dp5133
g73
(dp5134
g100
g101
ssg82
g5123
sg75
(lp5135
S':'
asbag68
(g89
g70
NtRp5136
(dp5137
g73
(dp5138
sg82
g5123
sg75
(lp5139
g68
(g69
g70
NtRp5140
(dp5141
g73
(dp5142
g81
I5
ssg82
g5136
sg75
(lp5143
S'Seniorproject'
p5144
asbasbasbag68
(g84
g70
NtRp5145
(dp5146
g73
(dp5147
sg82
g3613
sg75
(lp5148
g68
(g89
g70
NtRp5149
(dp5150
g73
(dp5151
g93
g94
ssg82
g5145
sg75
(lp5152
g2419
asbag68
(g89
g70
NtRp5153
(dp5154
g73
(dp5155
g100
g101
ssg82
g5145
sg75
(lp5156
S':'
asbag68
(g89
g70
NtRp5157
(dp5158
g73
(dp5159
sg82
g5145
sg75
(lp5160
g68
(g69
g70
NtRp5161
(dp5162
g73
(dp5163
g81
I5
ssg82
g5157
sg75
(lp5164
g2432
asbasbasbag68
(g84
g70
NtRp5165
(dp5166
g73
(dp5167
sg82
g3613
sg75
(lp5168
g68
(g89
g70
NtRp5169
(dp5170
g73
(dp5171
g93
g94
ssg82
g5165
sg75
(lp5172
S'view'
p5173
asbag68
(g89
g70
NtRp5174
(dp5175
g73
(dp5176
g100
g101
ssg82
g5165
sg75
(lp5177
S':'
asbag68
(g89
g70
NtRp5178
(dp5179
g73
(dp5180
sg82
g5165
sg75
(lp5181
g68
(g69
g70
NtRp5182
(dp5183
g73
(dp5184
g81
I5
ssg82
g5178
sg75
(lp5185
S'default/formtable.html'
p5186
asbasbasbasbasbsS'locals'
p5187
(dp5188
g4
S"'/Users/hainna01/Desktop/SeniorProject/finholt-se...ations/SeniorProject/views/default/formtable.html'"
p5189
sg6
S'r"response.write(\'<!DOCTYPE html>\\r\\n<html>\\r\\n\\r\\...ody>\\r\\n\\r\\n\\r\\n\\r\\n  </html>\\r\\n\', escape=False)"'
p5190
sssS'traceback'
p5191
S'Traceback (most recent call last):\n  File "/Users/hainna01/Desktop/SeniorProject/finholt-senior-project/web2py/gluon/restricted.py", line 204, in restricted\n    ccode = compile2(code,layer)\n  File "/Users/hainna01/Desktop/SeniorProject/finholt-senior-project/web2py/gluon/restricted.py", line 189, in compile2\n    return compile(code.rstrip().replace(\'\\r\\n\',\'\\n\')+\'\\n\', layer, \'exec\')\n  File "/Users/hainna01/Desktop/SeniorProject/finholt-senior-project/web2py/applications/SeniorProject/views/default/formtable.html", line 50\n    str(=request.vars.projectNum)\n        ^\nSyntaxError: invalid syntax\n'
p5192
s.