(dp1
S'output'
p2
S"<type 'exceptions.KeyError'> 'Submittal'"
p3
sS'layer'
p4
S'C:\\Users\\Alysse\\Documents\\GitHub\\finholt-senior-project\\web2py\\applications\\SeniorProject\\controllers/default.py'
p5
sS'code'
p6
S'# -*- coding: utf-8 -*-\n# this file is released under public domain and you can use without limitations\n\n#########################################################################\n## This is a samples controller\n## - index is the default action of any application\n## - user is required for authentication and authorization\n## - download is for downloading files uploaded in the db (does streaming)\n## - call exposes all registered services (none by default)\n#########################################################################\nccdForm = SQLFORM(db.CCD, labels={\'ccdNum\':\'CCD #\',\'projectNum\': "Project #"})\n\nrfiForm = SQLFORM(db.RFI, labels={\'rfiNum\':\'RFI #\', \'requestBy\':\'Request by\', \'dateSent\':\'Date sent\', \'reqRefTo\':\'Request referred to\', \'dateRec\':\'Date received\', \'drawingNum\':\'Drawing #\', \'detailNum\':\'Detail #\', \'specSection\':\'Spec Section #\', \'sheetName\':\'Sheet Name\', \'grids\':\'Grids\', \'sectionPage\':\'Section Page #\', \'description\':\'Description\', \'suggestion\':\'Contractor\\\'s suggestion\', \'reply\':\'Reply\', \'responseBy\':\'Response by\', \'responseDate\':\'Response date\'})\n\nsubmittalForm = SQLFORM(db.Submittal, labels={\'statusFlag\':\'Status flag\', \'assignedTo\':\'Assigned to\'})\n\nproposalRequestForm = SQLFORM(db.ProposalRequest, labels={\'reqNum\':\'Request #\', \'amendNum\':\'Amendment #\', \'projectNum\':\'Project #\', \'subject\':\'Subject\', \'propDate\':\'Proposal Date\', \'sentTo\':\'Sent to\', \'cc\':\'CC\', \'description\':\'Description\'})\n\nproposalForm = SQLFORM(db.Proposal, labels={\'reqNum\':\'Request #\', \'propDate\':\'Proposal Date\'})\n\nmeetingMinutesForm = SQLFORM(db.MeetingMinutes, labels={\'meetDate\':\'Meeting Date\'})\n\n\nprojects = db(db.Project).select()\n\ndef index():\n    """\n    example action using the internationalization operator T and flash\n    rendered by views/default/index.html or views/generic.html\n    """\n    \n    if ccdForm.process().accepted:\n        response.flash = \'form accepted\'\n    elif ccdForm.errors:\n        response.flash = \'form has errors\'\n    else:\n        response.flash = \'please fill out the form\'\n    \n    return dict(ccdForm=ccdForm,projects=projects)\n\ndef user():\n    """\n    exposes:\n    http://..../[app]/default/user/login\n    http://..../[app]/default/user/logout\n    http://..../[app]/default/user/register\n    http://..../[app]/default/user/profile\n    http://..../[app]/default/user/retrieve_password\n    http://..../[app]/default/user/change_password\n    use @auth.requires_login()\n        @auth.requires_membership(\'group name\')\n        @auth.requires_permission(\'read\',\'table name\',record_id)\n    to decorate functions that need access control\n    """\n    return dict(form=auth())\n\n\ndef download():\n    """\n    allows downloading of uploaded files\n    http://..../[app]/default/download/[filename]\n    """\n    return response.download(request,db)\n\n\ndef call():\n    """\n    exposes services. for example:\n    http://..../[app]/default/call/jsonrpc\n    decorate with @services.jsonrpc the functions to expose\n    supports xml, json, xmlrpc, jsonrpc, amfrpc, rss, csv\n    """\n    return service()\n\n\n@auth.requires_signature()\ndef data():\n    """\n    http://..../[app]/default/data/tables\n    http://..../[app]/default/data/create/[table]\n    http://..../[app]/default/data/read/[table]/[id]\n    http://..../[app]/default/data/update/[table]/[id]\n    http://..../[app]/default/data/delete/[table]/[id]\n    http://..../[app]/default/data/select/[table]\n    http://..../[app]/default/data/search/[table]\n    but URLs must be signed, i.e. linked with\n      A(\'table\',_href=URL(\'data/tables\',user_signature=True))\n    or with the signed load operator\n      LOAD(\'default\',\'data.load\',args=\'tables\',ajax=True,user_signature=True)\n    """\n    return dict(form=crud())\n\ndef createproject():\n    form = SQLFORM(db.Project)\n    if form.process().accepted:\n       response.flash = \'form accepted\'\n    elif form.errors:\n       response.flash = \'form has errors\'\n    else:\n       response.flash = \'please fill out the form\'\n    return dict(form=form)\n\ndef formtable():\n    formType = request.vars.formType\n    if ccdForm.process().accepted:\n        response.flash = \'form accepted\'\n    elif ccdForm.errors:\n        response.flash = \'form has errors\'\n    else:\n        response.flash = \'please fill out the form\'    \n    table = None\n    image = None\n    if formType == "CCD":\n        rows = db(db.CCD.projectNum == str(request.vars.projectNum)).select()\n        myextracolumns = [{\'label\': \'CCD Thumbnail(for testing)\',\'class\':\'\',\'selected\':False, \'width\':\'\', \'content\': lambda row, rc: IMG(_width="40",_height="40",_src=URL(\'default\',\'download\',args=row.file))}]\n        table = SQLTABLE(rows,columns=["CCD.ccdNum",\'CCD.file\'],headers={"CCD.ccdNum":"CCD #","CCD.file":"CCD File"},extracolumns=myextracolumns)\n    return dict(formType=formType,\n                ccdForm=ccdForm,\n                projects=projects,\n                table= table,\n                image=image)\n\nresponse._vars=response._caller(index)\n'
p7
sS'snapshot'
p8
(dp9
sS'traceback'
p10
S'Traceback (most recent call last):\n  File "C:\\Users\\Alysse\\Documents\\GitHub\\finholt-senior-project\\web2py\\gluon\\restricted.py", line 205, in restricted\n    exec ccode in environment\n  File "C:\\Users\\Alysse\\Documents\\GitHub\\finholt-senior-project\\web2py\\applications\\SeniorProject\\controllers/default.py", line 15, in <module>\n    submittalForm = SQLFORM(db.Submittal, labels={\'statusFlag\':\'Status flag\', \'assignedTo\':\'Assigned to\'})\n  File "C:\\Users\\Alysse\\Documents\\GitHub\\finholt-senior-project\\web2py\\gluon\\dal.py", line 6343, in __getattr__\n    return self[key]\n  File "C:\\Users\\Alysse\\Documents\\GitHub\\finholt-senior-project\\web2py\\gluon\\dal.py", line 6337, in __getitem__\n    return dict.__getitem__(self, str(key))\nKeyError: \'Submittal\'\n'
p11
s.