(dp1
S'output'
p2
S'<class \'sqlite3.OperationalError\'> near "to": syntax error'
p3
sS'layer'
p4
S'C:\\Users\\Alysse\\Documents\\GitHub\\finholt-senior-project\\web2py\\applications\\SeniorProject\\models\\db.py'
p5
sS'code'
p6
S'# -*- coding: utf-8 -*-\n\n#########################################################################\n## This scaffolding model makes your app work on Google App Engine too\n## File is released under public domain and you can use without limitations\n#########################################################################\n\n## if SSL/HTTPS is properly configured and you want all HTTP requests to\n## be redirected to HTTPS, uncomment the line below:\n# request.requires_https()\n\nif not request.env.web2py_runtime_gae:\n    ## if NOT running on Google App Engine use SQLite or other DB\n    db = DAL(\'sqlite://storage.sqlite\')\nelse:\n    ## connect to Google BigTable (optional \'google:datastore://namespace\')\n    db = DAL(\'google:datastore\')\n    ## store sessions and tickets there\n    session.connect(request, response, db = db)\n    ## or store session in Memcache, Redis, etc.\n    ## from gluon.contrib.memdb import MEMDB\n    ## from google.appengine.api.memcache import Client\n    ## session.connect(request, response, db = MEMDB(Client()))\n\n## by default give a view/generic.extension to all actions from localhost\n## none otherwise. a pattern can be \'controller/function.extension\'\nresponse.generic_patterns = [\'*\'] if request.is_local else []\n## (optional) optimize handling of static files\n# response.optimize_css = \'concat,minify,inline\'\n# response.optimize_js = \'concat,minify,inline\'\n\n#########################################################################\n## Here is sample code if you need for\n## - email capabilities\n## - authentication (registration, login, logout, ... )\n## - authorization (role based authorization)\n## - services (xml, csv, json, xmlrpc, jsonrpc, amf, rss)\n## - old style crud actions\n## (more options discussed in gluon/tools.py)\n#########################################################################\n\nfrom gluon.tools import Auth, Crud, Service, PluginManager, prettydate\nauth = Auth(db, hmac_key=Auth.get_or_create_key())\ncrud, service, plugins = Crud(db), Service(), PluginManager()\n\n## create all tables needed by auth if not custom tables\nauth.define_tables()\n\n## configure email\nmail=auth.settings.mailer\nmail.settings.server = \'logging\' or \'smtp.gmail.com:587\'\nmail.settings.sender = \'you@gmail.com\'\nmail.settings.login = \'username:password\'\n\n## configure auth policy\nauth.settings.registration_requires_verification = False\nauth.settings.registration_requires_approval = False\nauth.settings.reset_password_requires_verification = True\n\n## if you need to use OpenID, Facebook, MySpace, Twitter, Linkedin, etc.\n## register with janrain.com, write your domain:api_key in private/janrain.key\nfrom gluon.contrib.login_methods.rpx_account import use_janrain\nuse_janrain(auth,filename=\'private/janrain.key\')\n\n#########################################################################\n## Define your tables below (or better in another model file) for example\n##\n## >>> db.define_table(\'mytable\',Field(\'myfield\',\'string\'))\n##\n## Fields can be \'string\',\'text\',\'password\',\'integer\',\'double\',\'boolean\'\n##       \'date\',\'time\',\'datetime\',\'blob\',\'upload\', \'reference TABLENAME\'\n## There is an implicit \'id integer autoincrement\' field\n## Consult manual for more options, validators, etc.\n##\n## More API examples for controllers:\n##\n## >>> db.mytable.insert(myfield=\'value\')\n## >>> rows=db(db.mytable.myfield==\'value\').select(db.mytable.ALL)\n## >>> for row in rows: print row.id, row.myfield\n#########################################################################\n\ndb.define_table("Project", Field(\'name\',\'string\'), Field(\'openDate\',\'date\'), Field(\'closedDate\',\'date\'))\n\ndb.define_table("CCD", Field(\'ccdNum\',\'string\'), Field(\'projectNum\',\'string\'), Field(\'file\',\'upload\'))\n\ndb.define_table("Submittals", Field(\'statusFlag\',\'string\'), Field(\'assignedTo\',\'string\'), Field(\'submittal\',\'upload\'))\n\ndb.define_table("RFI", Field(\'rfiNum\',\'string\'), Field(\'requestBy\',\'string\'), Field(\'dateSent\',\'date\'), Field(\'reqRefTo\',\'string\'), Field(\'dateRec\',\'date\'), Field(\'drawingNum\',\'integer\'), Field(\'detailNum\',\'integer\'), Field(\'specSection\',\'integer\'), Field(\'sheetName\',\'string\'), Field(\'grids\',\'string\'), Field(\'sectionPage\',\'integer\'), Field(\'description\',\'text\'), Field(\'suggestion\',\'text\'), Field(\'reply\',\'text\'), Field(\'responseBy\',\'string\'), Field(\'responseDate\',\'date\'), Field(\'autoGenBlurb\',\'text\'), Field(\'statusFlag\',\'string\'))\n\ndb.define_table("ProposalRequest", Field(\'reqNum\',\'string\'), Field(\'amendNum\',\'string\'), Field(\'projectNum\',\'string\'), Field(\'subject\',\'text\'), Field(\'propDate\',\'date\'), Field(\'to\',\'string\'), Field(\'cc\',\'list:string\'), Field(\'staticBlurb\',\'text\'), Field(\'description\',\'text\'))\n\ndb.define_table("Proposal", Field(\'reqNum\',\'integer\'), Field(\'propDate\',\'date\'), Field(\'file\',\'upload\'))\n\ndb.define_table("MeetingMinutes", Field(\'meetDate\',\'date\'), Field(\'file\',\'upload\'))\n'
p7
sS'snapshot'
p8
(dp9
S'exception'
p10
(dp11
S'__module__'
p12
S"'sqlite3'"
p13
sS'__getslice__'
p14
S"<method-wrapper '__getslice__' of OperationalError object>"
p15
sS'__str__'
p16
S"<method-wrapper '__str__' of OperationalError object>"
p17
sS'__reduce__'
p18
S'<built-in method __reduce__ of OperationalError object>'
p19
sS'__dict__'
p20
S'{}'
p21
sS'__sizeof__'
p22
S'<built-in method __sizeof__ of OperationalError object>'
p23
sS'__weakref__'
p24
S'None'
p25
sS'__init__'
p26
S"<method-wrapper '__init__' of OperationalError object>"
p27
sS'__setattr__'
p28
S"<method-wrapper '__setattr__' of OperationalError object>"
p29
sS'__reduce_ex__'
p30
S'<built-in method __reduce_ex__ of OperationalError object>'
p31
sS'__new__'
p32
S'<built-in method __new__ of type object>'
p33
sS'__format__'
p34
S'<built-in method __format__ of OperationalError object>'
p35
sS'__class__'
p36
S"<class 'sqlite3.OperationalError'>"
p37
sS'__doc__'
p38
S'None'
p39
sS'__getitem__'
p40
S"<method-wrapper '__getitem__' of OperationalError object>"
p41
sS'__setstate__'
p42
S'<built-in method __setstate__ of OperationalError object>'
p43
sS'__getattribute__'
p44
S"<method-wrapper '__getattribute__' of OperationalError object>"
p45
sS'args'
p46
S'(\'near "to": syntax error\',)'
p47
sS'__subclasshook__'
p48
S'<built-in method __subclasshook__ of type object>'
p49
sS'__unicode__'
p50
S'<built-in method __unicode__ of OperationalError object>'
p51
sS'__delattr__'
p52
S"<method-wrapper '__delattr__' of OperationalError object>"
p53
sS'__repr__'
p54
S"<method-wrapper '__repr__' of OperationalError object>"
p55
sS'__hash__'
p56
S"<method-wrapper '__hash__' of OperationalError object>"
p57
ssS'evalue'
p58
S'near "to": syntax error'
p59
sS'request'
p60
ccopy_reg
_reconstructor
p61
(cgluon.html
BEAUTIFY
p62
c__builtin__
object
p63
NtRp64
(dp65
S'attributes'
p66
(dp67
sS'components'
p68
(lp69
g61
(cgluon.html
TABLE
p70
g63
NtRp71
(dp72
g66
(dp73
S'level'
p74
I5
ssS'parent'
p75
Nsg68
(lp76
g61
(cgluon.html
TR
p77
g63
NtRp78
(dp79
g66
(dp80
sg75
g71
sg68
(lp81
g61
(cgluon.html
TD
p82
g63
NtRp83
(dp84
g66
(dp85
S'_style'
p86
S'font-weight:bold;vertical-align:top'
p87
ssg75
g78
sg68
(lp88
S'ajax'
p89
asbag61
(g82
g63
NtRp90
(dp91
g66
(dp92
S'_valign'
p93
S'top'
p94
ssg75
g78
sg68
(lp95
S':'
asbag61
(g82
g63
NtRp96
(dp97
g66
(dp98
sg75
g78
sg68
(lp99
g61
(g62
g63
NtRp100
(dp101
g66
(dp102
g74
I5
ssg75
g96
sg68
(lp103
S'False'
p104
asbasbasbag61
(g77
g63
NtRp105
(dp106
g66
(dp107
sg75
g71
sg68
(lp108
g61
(g82
g63
NtRp109
(dp110
g66
(dp111
g86
g87
ssg75
g105
sg68
(lp112
S'application'
p113
asbag61
(g82
g63
NtRp114
(dp115
g66
(dp116
g93
g94
ssg75
g105
sg68
(lp117
S':'
asbag61
(g82
g63
NtRp118
(dp119
g66
(dp120
sg75
g105
sg68
(lp121
g61
(g62
g63
NtRp122
(dp123
g66
(dp124
g74
I5
ssg75
g118
sg68
(lp125
S'SeniorProject'
p126
asbasbasbag61
(g77
g63
NtRp127
(dp128
g66
(dp129
sg75
g71
sg68
(lp130
g61
(g82
g63
NtRp131
(dp132
g66
(dp133
g86
g87
ssg75
g127
sg68
(lp134
g46
asbag61
(g82
g63
NtRp135
(dp136
g66
(dp137
g93
g94
ssg75
g127
sg68
(lp138
S':'
asbag61
(g82
g63
NtRp139
(dp140
g66
(dp141
sg75
g127
sg68
(lp142
g61
(g62
g63
NtRp143
(dp144
g66
(dp145
g74
I5
ssg75
g139
sg68
(lp146
g61
(g70
g63
NtRp147
(dp148
g66
(dp149
g74
I4
ssg75
Nsg68
(lp150
sbasbasbasbag61
(g77
g63
NtRp151
(dp152
g66
(dp153
sg75
g71
sg68
(lp154
g61
(g82
g63
NtRp155
(dp156
g66
(dp157
g86
g87
ssg75
g151
sg68
(lp158
S'body'
p159
asbag61
(g82
g63
NtRp160
(dp161
g66
(dp162
g93
g94
ssg75
g151
sg68
(lp163
S':'
asbag61
(g82
g63
NtRp164
(dp165
g66
(dp166
sg75
g151
sg68
(lp167
g61
(g62
g63
NtRp168
(dp169
g66
(dp170
g74
I5
ssg75
g164
sg68
(lp171
S'<cStringIO.StringO object at 0x03D701C0>'
p172
asbasbasbag61
(g77
g63
NtRp173
(dp174
g66
(dp175
sg75
g71
sg68
(lp176
g61
(g82
g63
NtRp177
(dp178
g66
(dp179
g86
g87
ssg75
g173
sg68
(lp180
S'client'
p181
asbag61
(g82
g63
NtRp182
(dp183
g66
(dp184
g93
g94
ssg75
g173
sg68
(lp185
S':'
asbag61
(g82
g63
NtRp186
(dp187
g66
(dp188
sg75
g173
sg68
(lp189
g61
(g62
g63
NtRp190
(dp191
g66
(dp192
g74
I5
ssg75
g186
sg68
(lp193
S'127.0.0.1'
p194
asbasbasbag61
(g77
g63
NtRp195
(dp196
g66
(dp197
sg75
g71
sg68
(lp198
g61
(g82
g63
NtRp199
(dp200
g66
(dp201
g86
g87
ssg75
g195
sg68
(lp202
S'controller'
p203
asbag61
(g82
g63
NtRp204
(dp205
g66
(dp206
g93
g94
ssg75
g195
sg68
(lp207
S':'
asbag61
(g82
g63
NtRp208
(dp209
g66
(dp210
sg75
g195
sg68
(lp211
g61
(g62
g63
NtRp212
(dp213
g66
(dp214
g74
I5
ssg75
g208
sg68
(lp215
S'default'
p216
asbasbasbag61
(g77
g63
NtRp217
(dp218
g66
(dp219
sg75
g71
sg68
(lp220
g61
(g82
g63
NtRp221
(dp222
g66
(dp223
g86
g87
ssg75
g217
sg68
(lp224
S'cookies'
p225
asbag61
(g82
g63
NtRp226
(dp227
g66
(dp228
g93
g94
ssg75
g217
sg68
(lp229
S':'
asbag61
(g82
g63
NtRp230
(dp231
g66
(dp232
sg75
g217
sg68
(lp233
g61
(g62
g63
NtRp234
(dp235
g66
(dp236
g74
I5
ssg75
g230
sg68
(lp237
g61
(g70
g63
NtRp238
(dp239
g66
(dp240
g74
I4
ssg75
Nsg68
(lp241
g61
(g77
g63
NtRp242
(dp243
g66
(dp244
sg75
g238
sg68
(lp245
g61
(g82
g63
NtRp246
(dp247
g66
(dp248
g86
g87
ssg75
g242
sg68
(lp249
S'session_id_admin'
p250
asbag61
(g82
g63
NtRp251
(dp252
g66
(dp253
g93
g94
ssg75
g242
sg68
(lp254
S':'
asbag61
(g82
g63
NtRp255
(dp256
g66
(dp257
sg75
g242
sg68
(lp258
g61
(g62
g63
NtRp259
(dp260
g66
(dp261
g74
I4
ssg75
g255
sg68
(lp262
g61
(g70
g63
NtRp263
(dp264
g66
(dp265
g74
I3
ssg75
Nsg68
(lp266
g61
(g77
g63
NtRp267
(dp268
g66
(dp269
sg75
g263
sg68
(lp270
g61
(g82
g63
NtRp271
(dp272
g66
(dp273
g86
g87
ssg75
g267
sg68
(lp274
S'comment'
p275
asbag61
(g82
g63
NtRp276
(dp277
g66
(dp278
g93
g94
ssg75
g267
sg68
(lp279
S':'
asbag61
(g82
g63
NtRp280
(dp281
g66
(dp282
sg75
g267
sg68
(lp283
g61
(g62
g63
NtRp284
(dp285
g66
(dp286
g74
I3
ssg75
g280
sg68
(lp287
S''
asbasbasbag61
(g77
g63
NtRp288
(dp289
g66
(dp290
sg75
g263
sg68
(lp291
g61
(g82
g63
NtRp292
(dp293
g66
(dp294
g86
g87
ssg75
g288
sg68
(lp295
S'domain'
p296
asbag61
(g82
g63
NtRp297
(dp298
g66
(dp299
g93
g94
ssg75
g288
sg68
(lp300
S':'
asbag61
(g82
g63
NtRp301
(dp302
g66
(dp303
sg75
g288
sg68
(lp304
g61
(g62
g63
NtRp305
(dp306
g66
(dp307
g74
I3
ssg75
g301
sg68
(lp308
S''
asbasbasbag61
(g77
g63
NtRp309
(dp310
g66
(dp311
sg75
g263
sg68
(lp312
g61
(g82
g63
NtRp313
(dp314
g66
(dp315
g86
g87
ssg75
g309
sg68
(lp316
S'expires'
p317
asbag61
(g82
g63
NtRp318
(dp319
g66
(dp320
g93
g94
ssg75
g309
sg68
(lp321
S':'
asbag61
(g82
g63
NtRp322
(dp323
g66
(dp324
sg75
g309
sg68
(lp325
g61
(g62
g63
NtRp326
(dp327
g66
(dp328
g74
I3
ssg75
g322
sg68
(lp329
S''
asbasbasbag61
(g77
g63
NtRp330
(dp331
g66
(dp332
sg75
g263
sg68
(lp333
g61
(g82
g63
NtRp334
(dp335
g66
(dp336
g86
g87
ssg75
g330
sg68
(lp337
S'httponly'
p338
asbag61
(g82
g63
NtRp339
(dp340
g66
(dp341
g93
g94
ssg75
g330
sg68
(lp342
S':'
asbag61
(g82
g63
NtRp343
(dp344
g66
(dp345
sg75
g330
sg68
(lp346
g61
(g62
g63
NtRp347
(dp348
g66
(dp349
g74
I3
ssg75
g343
sg68
(lp350
S''
asbasbasbag61
(g77
g63
NtRp351
(dp352
g66
(dp353
sg75
g263
sg68
(lp354
g61
(g82
g63
NtRp355
(dp356
g66
(dp357
g86
g87
ssg75
g351
sg68
(lp358
S'max-age'
p359
asbag61
(g82
g63
NtRp360
(dp361
g66
(dp362
g93
g94
ssg75
g351
sg68
(lp363
S':'
asbag61
(g82
g63
NtRp364
(dp365
g66
(dp366
sg75
g351
sg68
(lp367
g61
(g62
g63
NtRp368
(dp369
g66
(dp370
g74
I3
ssg75
g364
sg68
(lp371
S''
asbasbasbag61
(g77
g63
NtRp372
(dp373
g66
(dp374
sg75
g263
sg68
(lp375
g61
(g82
g63
NtRp376
(dp377
g66
(dp378
g86
g87
ssg75
g372
sg68
(lp379
S'path'
p380
asbag61
(g82
g63
NtRp381
(dp382
g66
(dp383
g93
g94
ssg75
g372
sg68
(lp384
S':'
asbag61
(g82
g63
NtRp385
(dp386
g66
(dp387
sg75
g372
sg68
(lp388
g61
(g62
g63
NtRp389
(dp390
g66
(dp391
g74
I3
ssg75
g385
sg68
(lp392
S''
asbasbasbag61
(g77
g63
NtRp393
(dp394
g66
(dp395
sg75
g263
sg68
(lp396
g61
(g82
g63
NtRp397
(dp398
g66
(dp399
g86
g87
ssg75
g393
sg68
(lp400
S'secure'
p401
asbag61
(g82
g63
NtRp402
(dp403
g66
(dp404
g93
g94
ssg75
g393
sg68
(lp405
S':'
asbag61
(g82
g63
NtRp406
(dp407
g66
(dp408
sg75
g393
sg68
(lp409
g61
(g62
g63
NtRp410
(dp411
g66
(dp412
g74
I3
ssg75
g406
sg68
(lp413
S''
asbasbasbag61
(g77
g63
NtRp414
(dp415
g66
(dp416
sg75
g263
sg68
(lp417
g61
(g82
g63
NtRp418
(dp419
g66
(dp420
g86
g87
ssg75
g414
sg68
(lp421
S'version'
p422
asbag61
(g82
g63
NtRp423
(dp424
g66
(dp425
g93
g94
ssg75
g414
sg68
(lp426
S':'
asbag61
(g82
g63
NtRp427
(dp428
g66
(dp429
sg75
g414
sg68
(lp430
g61
(g62
g63
NtRp431
(dp432
g66
(dp433
g74
I3
ssg75
g427
sg68
(lp434
S''
asbasbasbasbasbasbasbag61
(g77
g63
NtRp435
(dp436
g66
(dp437
sg75
g238
sg68
(lp438
g61
(g82
g63
NtRp439
(dp440
g66
(dp441
g86
g87
ssg75
g435
sg68
(lp442
S'session_id_seniorproject'
p443
asbag61
(g82
g63
NtRp444
(dp445
g66
(dp446
g93
g94
ssg75
g435
sg68
(lp447
S':'
asbag61
(g82
g63
NtRp448
(dp449
g66
(dp450
sg75
g435
sg68
(lp451
g61
(g62
g63
NtRp452
(dp453
g66
(dp454
g74
I4
ssg75
g448
sg68
(lp455
g61
(g70
g63
NtRp456
(dp457
g66
(dp458
g74
I3
ssg75
Nsg68
(lp459
g61
(g77
g63
NtRp460
(dp461
g66
(dp462
sg75
g456
sg68
(lp463
g61
(g82
g63
NtRp464
(dp465
g66
(dp466
g86
g87
ssg75
g460
sg68
(lp467
g275
asbag61
(g82
g63
NtRp468
(dp469
g66
(dp470
g93
g94
ssg75
g460
sg68
(lp471
S':'
asbag61
(g82
g63
NtRp472
(dp473
g66
(dp474
sg75
g460
sg68
(lp475
g61
(g62
g63
NtRp476
(dp477
g66
(dp478
g74
I3
ssg75
g472
sg68
(lp479
S''
asbasbasbag61
(g77
g63
NtRp480
(dp481
g66
(dp482
sg75
g456
sg68
(lp483
g61
(g82
g63
NtRp484
(dp485
g66
(dp486
g86
g87
ssg75
g480
sg68
(lp487
g296
asbag61
(g82
g63
NtRp488
(dp489
g66
(dp490
g93
g94
ssg75
g480
sg68
(lp491
S':'
asbag61
(g82
g63
NtRp492
(dp493
g66
(dp494
sg75
g480
sg68
(lp495
g61
(g62
g63
NtRp496
(dp497
g66
(dp498
g74
I3
ssg75
g492
sg68
(lp499
S''
asbasbasbag61
(g77
g63
NtRp500
(dp501
g66
(dp502
sg75
g456
sg68
(lp503
g61
(g82
g63
NtRp504
(dp505
g66
(dp506
g86
g87
ssg75
g500
sg68
(lp507
g317
asbag61
(g82
g63
NtRp508
(dp509
g66
(dp510
g93
g94
ssg75
g500
sg68
(lp511
S':'
asbag61
(g82
g63
NtRp512
(dp513
g66
(dp514
sg75
g500
sg68
(lp515
g61
(g62
g63
NtRp516
(dp517
g66
(dp518
g74
I3
ssg75
g512
sg68
(lp519
S''
asbasbasbag61
(g77
g63
NtRp520
(dp521
g66
(dp522
sg75
g456
sg68
(lp523
g61
(g82
g63
NtRp524
(dp525
g66
(dp526
g86
g87
ssg75
g520
sg68
(lp527
g338
asbag61
(g82
g63
NtRp528
(dp529
g66
(dp530
g93
g94
ssg75
g520
sg68
(lp531
S':'
asbag61
(g82
g63
NtRp532
(dp533
g66
(dp534
sg75
g520
sg68
(lp535
g61
(g62
g63
NtRp536
(dp537
g66
(dp538
g74
I3
ssg75
g532
sg68
(lp539
S''
asbasbasbag61
(g77
g63
NtRp540
(dp541
g66
(dp542
sg75
g456
sg68
(lp543
g61
(g82
g63
NtRp544
(dp545
g66
(dp546
g86
g87
ssg75
g540
sg68
(lp547
g359
asbag61
(g82
g63
NtRp548
(dp549
g66
(dp550
g93
g94
ssg75
g540
sg68
(lp551
S':'
asbag61
(g82
g63
NtRp552
(dp553
g66
(dp554
sg75
g540
sg68
(lp555
g61
(g62
g63
NtRp556
(dp557
g66
(dp558
g74
I3
ssg75
g552
sg68
(lp559
S''
asbasbasbag61
(g77
g63
NtRp560
(dp561
g66
(dp562
sg75
g456
sg68
(lp563
g61
(g82
g63
NtRp564
(dp565
g66
(dp566
g86
g87
ssg75
g560
sg68
(lp567
g380
asbag61
(g82
g63
NtRp568
(dp569
g66
(dp570
g93
g94
ssg75
g560
sg68
(lp571
S':'
asbag61
(g82
g63
NtRp572
(dp573
g66
(dp574
sg75
g560
sg68
(lp575
g61
(g62
g63
NtRp576
(dp577
g66
(dp578
g74
I3
ssg75
g572
sg68
(lp579
S''
asbasbasbag61
(g77
g63
NtRp580
(dp581
g66
(dp582
sg75
g456
sg68
(lp583
g61
(g82
g63
NtRp584
(dp585
g66
(dp586
g86
g87
ssg75
g580
sg68
(lp587
g401
asbag61
(g82
g63
NtRp588
(dp589
g66
(dp590
g93
g94
ssg75
g580
sg68
(lp591
S':'
asbag61
(g82
g63
NtRp592
(dp593
g66
(dp594
sg75
g580
sg68
(lp595
g61
(g62
g63
NtRp596
(dp597
g66
(dp598
g74
I3
ssg75
g592
sg68
(lp599
S''
asbasbasbag61
(g77
g63
NtRp600
(dp601
g66
(dp602
sg75
g456
sg68
(lp603
g61
(g82
g63
NtRp604
(dp605
g66
(dp606
g86
g87
ssg75
g600
sg68
(lp607
g422
asbag61
(g82
g63
NtRp608
(dp609
g66
(dp610
g93
g94
ssg75
g600
sg68
(lp611
S':'
asbag61
(g82
g63
NtRp612
(dp613
g66
(dp614
sg75
g600
sg68
(lp615
g61
(g62
g63
NtRp616
(dp617
g66
(dp618
g74
I3
ssg75
g612
sg68
(lp619
S''
asbasbasbasbasbasbasbag61
(g77
g63
NtRp620
(dp621
g66
(dp622
sg75
g238
sg68
(lp623
g61
(g82
g63
NtRp624
(dp625
g66
(dp626
g86
g87
ssg75
g620
sg68
(lp627
S'session_id_welcome'
p628
asbag61
(g82
g63
NtRp629
(dp630
g66
(dp631
g93
g94
ssg75
g620
sg68
(lp632
S':'
asbag61
(g82
g63
NtRp633
(dp634
g66
(dp635
sg75
g620
sg68
(lp636
g61
(g62
g63
NtRp637
(dp638
g66
(dp639
g74
I4
ssg75
g633
sg68
(lp640
g61
(g70
g63
NtRp641
(dp642
g66
(dp643
g74
I3
ssg75
Nsg68
(lp644
g61
(g77
g63
NtRp645
(dp646
g66
(dp647
sg75
g641
sg68
(lp648
g61
(g82
g63
NtRp649
(dp650
g66
(dp651
g86
g87
ssg75
g645
sg68
(lp652
g275
asbag61
(g82
g63
NtRp653
(dp654
g66
(dp655
g93
g94
ssg75
g645
sg68
(lp656
S':'
asbag61
(g82
g63
NtRp657
(dp658
g66
(dp659
sg75
g645
sg68
(lp660
g61
(g62
g63
NtRp661
(dp662
g66
(dp663
g74
I3
ssg75
g657
sg68
(lp664
S''
asbasbasbag61
(g77
g63
NtRp665
(dp666
g66
(dp667
sg75
g641
sg68
(lp668
g61
(g82
g63
NtRp669
(dp670
g66
(dp671
g86
g87
ssg75
g665
sg68
(lp672
g296
asbag61
(g82
g63
NtRp673
(dp674
g66
(dp675
g93
g94
ssg75
g665
sg68
(lp676
S':'
asbag61
(g82
g63
NtRp677
(dp678
g66
(dp679
sg75
g665
sg68
(lp680
g61
(g62
g63
NtRp681
(dp682
g66
(dp683
g74
I3
ssg75
g677
sg68
(lp684
S''
asbasbasbag61
(g77
g63
NtRp685
(dp686
g66
(dp687
sg75
g641
sg68
(lp688
g61
(g82
g63
NtRp689
(dp690
g66
(dp691
g86
g87
ssg75
g685
sg68
(lp692
g317
asbag61
(g82
g63
NtRp693
(dp694
g66
(dp695
g93
g94
ssg75
g685
sg68
(lp696
S':'
asbag61
(g82
g63
NtRp697
(dp698
g66
(dp699
sg75
g685
sg68
(lp700
g61
(g62
g63
NtRp701
(dp702
g66
(dp703
g74
I3
ssg75
g697
sg68
(lp704
S''
asbasbasbag61
(g77
g63
NtRp705
(dp706
g66
(dp707
sg75
g641
sg68
(lp708
g61
(g82
g63
NtRp709
(dp710
g66
(dp711
g86
g87
ssg75
g705
sg68
(lp712
g338
asbag61
(g82
g63
NtRp713
(dp714
g66
(dp715
g93
g94
ssg75
g705
sg68
(lp716
S':'
asbag61
(g82
g63
NtRp717
(dp718
g66
(dp719
sg75
g705
sg68
(lp720
g61
(g62
g63
NtRp721
(dp722
g66
(dp723
g74
I3
ssg75
g717
sg68
(lp724
S''
asbasbasbag61
(g77
g63
NtRp725
(dp726
g66
(dp727
sg75
g641
sg68
(lp728
g61
(g82
g63
NtRp729
(dp730
g66
(dp731
g86
g87
ssg75
g725
sg68
(lp732
g359
asbag61
(g82
g63
NtRp733
(dp734
g66
(dp735
g93
g94
ssg75
g725
sg68
(lp736
S':'
asbag61
(g82
g63
NtRp737
(dp738
g66
(dp739
sg75
g725
sg68
(lp740
g61
(g62
g63
NtRp741
(dp742
g66
(dp743
g74
I3
ssg75
g737
sg68
(lp744
S''
asbasbasbag61
(g77
g63
NtRp745
(dp746
g66
(dp747
sg75
g641
sg68
(lp748
g61
(g82
g63
NtRp749
(dp750
g66
(dp751
g86
g87
ssg75
g745
sg68
(lp752
g380
asbag61
(g82
g63
NtRp753
(dp754
g66
(dp755
g93
g94
ssg75
g745
sg68
(lp756
S':'
asbag61
(g82
g63
NtRp757
(dp758
g66
(dp759
sg75
g745
sg68
(lp760
g61
(g62
g63
NtRp761
(dp762
g66
(dp763
g74
I3
ssg75
g757
sg68
(lp764
S''
asbasbasbag61
(g77
g63
NtRp765
(dp766
g66
(dp767
sg75
g641
sg68
(lp768
g61
(g82
g63
NtRp769
(dp770
g66
(dp771
g86
g87
ssg75
g765
sg68
(lp772
g401
asbag61
(g82
g63
NtRp773
(dp774
g66
(dp775
g93
g94
ssg75
g765
sg68
(lp776
S':'
asbag61
(g82
g63
NtRp777
(dp778
g66
(dp779
sg75
g765
sg68
(lp780
g61
(g62
g63
NtRp781
(dp782
g66
(dp783
g74
I3
ssg75
g777
sg68
(lp784
S''
asbasbasbag61
(g77
g63
NtRp785
(dp786
g66
(dp787
sg75
g641
sg68
(lp788
g61
(g82
g63
NtRp789
(dp790
g66
(dp791
g86
g87
ssg75
g785
sg68
(lp792
g422
asbag61
(g82
g63
NtRp793
(dp794
g66
(dp795
g93
g94
ssg75
g785
sg68
(lp796
S':'
asbag61
(g82
g63
NtRp797
(dp798
g66
(dp799
sg75
g785
sg68
(lp800
g61
(g62
g63
NtRp801
(dp802
g66
(dp803
g74
I3
ssg75
g797
sg68
(lp804
S''
asbasbasbasbasbasbasbasbasbasbasbag61
(g77
g63
NtRp805
(dp806
g66
(dp807
sg75
g71
sg68
(lp808
g61
(g82
g63
NtRp809
(dp810
g66
(dp811
g86
g87
ssg75
g805
sg68
(lp812
S'env'
p813
asbag61
(g82
g63
NtRp814
(dp815
g66
(dp816
g93
g94
ssg75
g805
sg68
(lp817
S':'
asbag61
(g82
g63
NtRp818
(dp819
g66
(dp820
sg75
g805
sg68
(lp821
g61
(g62
g63
NtRp822
(dp823
g66
(dp824
g74
I5
ssg75
g818
sg68
(lp825
g61
(g70
g63
NtRp826
(dp827
g66
(dp828
g74
I4
ssg75
Nsg68
(lp829
g61
(g77
g63
NtRp830
(dp831
g66
(dp832
sg75
g826
sg68
(lp833
g61
(g82
g63
NtRp834
(dp835
g66
(dp836
g86
g87
ssg75
g830
sg68
(lp837
S'app_folders'
p838
asbag61
(g82
g63
NtRp839
(dp840
g66
(dp841
g93
g94
ssg75
g830
sg68
(lp842
S':'
asbag61
(g82
g63
NtRp843
(dp844
g66
(dp845
sg75
g830
sg68
(lp846
g61
(g62
g63
NtRp847
(dp848
g66
(dp849
g74
I4
ssg75
g843
sg68
(lp850
S"set(['C:\\\\Users\\\\Alysse\\\\Documents\\\\GitHub\\\\finholt-senior-project\\\\web2py\\\\applications\\\\admin\\\\', 'C:\\\\Users\\\\Alysse\\\\Documents\\\\GitHub\\\\finholt-senior-project\\\\web2py\\\\applications\\\\welcome\\\\', 'C:\\\\Users\\\\Alysse\\\\Documents\\\\GitHub\\\\finholt-senior-project\\\\web2py\\\\applications\\\\SeniorProject\\\\'])"
p851
asbasbasbag61
(g77
g63
NtRp852
(dp853
g66
(dp854
sg75
g826
sg68
(lp855
g61
(g82
g63
NtRp856
(dp857
g66
(dp858
g86
g87
ssg75
g852
sg68
(lp859
S'applications_parent'
p860
asbag61
(g82
g63
NtRp861
(dp862
g66
(dp863
g93
g94
ssg75
g852
sg68
(lp864
S':'
asbag61
(g82
g63
NtRp865
(dp866
g66
(dp867
sg75
g852
sg68
(lp868
g61
(g62
g63
NtRp869
(dp870
g66
(dp871
g74
I4
ssg75
g865
sg68
(lp872
S'C:\\Users\\Alysse\\Documents\\GitHub\\finholt-senior-project\\web2py'
p873
asbasbasbag61
(g77
g63
NtRp874
(dp875
g66
(dp876
sg75
g826
sg68
(lp877
g61
(g82
g63
NtRp878
(dp879
g66
(dp880
g86
g87
ssg75
g874
sg68
(lp881
S'cmd_args'
p882
asbag61
(g82
g63
NtRp883
(dp884
g66
(dp885
g93
g94
ssg75
g874
sg68
(lp886
S':'
asbag61
(g82
g63
NtRp887
(dp888
g66
(dp889
sg75
g874
sg68
(lp890
g61
(g62
g63
NtRp891
(dp892
g66
(dp893
g74
I4
ssg75
g887
sg68
(lp894
g61
(g70
g63
NtRp895
(dp896
g66
(dp897
g74
I3
ssg75
Nsg68
(lp898
sbasbasbasbag61
(g77
g63
NtRp899
(dp900
g66
(dp901
sg75
g826
sg68
(lp902
g61
(g82
g63
NtRp903
(dp904
g66
(dp905
g86
g87
ssg75
g899
sg68
(lp906
S'cmd_options'
p907
asbag61
(g82
g63
NtRp908
(dp909
g66
(dp910
g93
g94
ssg75
g899
sg68
(lp911
S':'
asbag61
(g82
g63
NtRp912
(dp913
g66
(dp914
sg75
g899
sg68
(lp915
g61
(g62
g63
NtRp916
(dp917
g66
(dp918
g74
I4
ssg75
g912
sg68
(lp919
S"<Values at 0x36f4940: {'verbose': False, 'ip': '127.0.0.1', 'shutdown_timeout': 5, 'taskbar': False, 'nocron': False, 'pid_filename': 'httpserver.pid', 'maxthreads': None, 'softcron': False, 'server_name': 'Alysse-PC', 'bpython': False, 'nogui': False, 'port': 8000, 'extcron': False, 'debuglevel': 30, 'test': None, 'folder': 'C:\\\\Users\\\\Alysse\\\\Documents\\\\GitHub\\\\finholt-senior-project\\\\web2py', 'config': '', 'import_models': False, 'winservice': '', 'shell': None, 'run': '', 'log_filename': 'httpserver.log', 'args': [''], 'socket_timeout': 5, 'ssl_ca_certificate': None, 'scheduler': None, 'profiler_filename': None, 'ssl_private_key': '', 'password': '<ask>', 'request_queue_size': 5, 'ssl_certificate': '', 'cronjob': False, 'numthreads': None, 'quiet': False, 'interfaces': None, 'minthreads': None, 'timeout': 10, 'plain': False, 'nobanner': False}>"
p920
asbasbasbag61
(g77
g63
NtRp921
(dp922
g66
(dp923
sg75
g826
sg68
(lp924
g61
(g82
g63
NtRp925
(dp926
g66
(dp927
g86
g87
ssg75
g921
sg68
(lp928
S'db_sessions'
p929
asbag61
(g82
g63
NtRp930
(dp931
g66
(dp932
g93
g94
ssg75
g921
sg68
(lp933
S':'
asbag61
(g82
g63
NtRp934
(dp935
g66
(dp936
sg75
g921
sg68
(lp937
g61
(g62
g63
NtRp938
(dp939
g66
(dp940
g74
I4
ssg75
g934
sg68
(lp941
S'set([])'
p942
asbasbasbag61
(g77
g63
NtRp943
(dp944
g66
(dp945
sg75
g826
sg68
(lp946
g61
(g82
g63
NtRp947
(dp948
g66
(dp949
g86
g87
ssg75
g943
sg68
(lp950
S'debugging'
p951
asbag61
(g82
g63
NtRp952
(dp953
g66
(dp954
g93
g94
ssg75
g943
sg68
(lp955
S':'
asbag61
(g82
g63
NtRp956
(dp957
g66
(dp958
sg75
g943
sg68
(lp959
g61
(g62
g63
NtRp960
(dp961
g66
(dp962
g74
I4
ssg75
g956
sg68
(lp963
g104
asbasbasbag61
(g77
g63
NtRp964
(dp965
g66
(dp966
sg75
g826
sg68
(lp967
g61
(g82
g63
NtRp968
(dp969
g66
(dp970
g86
g87
ssg75
g964
sg68
(lp971
S'gluon_parent'
p972
asbag61
(g82
g63
NtRp973
(dp974
g66
(dp975
g93
g94
ssg75
g964
sg68
(lp976
S':'
asbag61
(g82
g63
NtRp977
(dp978
g66
(dp979
sg75
g964
sg68
(lp980
g61
(g62
g63
NtRp981
(dp982
g66
(dp983
g74
I4
ssg75
g977
sg68
(lp984
S'C:\\Users\\Alysse\\Documents\\GitHub\\finholt-senior-project\\web2py'
p985
asbasbasbag61
(g77
g63
NtRp986
(dp987
g66
(dp988
sg75
g826
sg68
(lp989
g61
(g82
g63
NtRp990
(dp991
g66
(dp992
g86
g87
ssg75
g986
sg68
(lp993
S'http_accept'
p994
asbag61
(g82
g63
NtRp995
(dp996
g66
(dp997
g93
g94
ssg75
g986
sg68
(lp998
S':'
asbag61
(g82
g63
NtRp999
(dp1000
g66
(dp1001
sg75
g986
sg68
(lp1002
g61
(g62
g63
NtRp1003
(dp1004
g66
(dp1005
g74
I4
ssg75
g999
sg68
(lp1006
S'text/html,application/xhtml+xml,application/xml;q=0.9,*/*;q=0.8'
p1007
asbasbasbag61
(g77
g63
NtRp1008
(dp1009
g66
(dp1010
sg75
g826
sg68
(lp1011
g61
(g82
g63
NtRp1012
(dp1013
g66
(dp1014
g86
g87
ssg75
g1008
sg68
(lp1015
S'http_accept_charset'
p1016
asbag61
(g82
g63
NtRp1017
(dp1018
g66
(dp1019
g93
g94
ssg75
g1008
sg68
(lp1020
S':'
asbag61
(g82
g63
NtRp1021
(dp1022
g66
(dp1023
sg75
g1008
sg68
(lp1024
g61
(g62
g63
NtRp1025
(dp1026
g66
(dp1027
g74
I4
ssg75
g1021
sg68
(lp1028
S'ISO-8859-1,utf-8;q=0.7,*;q=0.3'
p1029
asbasbasbag61
(g77
g63
NtRp1030
(dp1031
g66
(dp1032
sg75
g826
sg68
(lp1033
g61
(g82
g63
NtRp1034
(dp1035
g66
(dp1036
g86
g87
ssg75
g1030
sg68
(lp1037
S'http_accept_encoding'
p1038
asbag61
(g82
g63
NtRp1039
(dp1040
g66
(dp1041
g93
g94
ssg75
g1030
sg68
(lp1042
S':'
asbag61
(g82
g63
NtRp1043
(dp1044
g66
(dp1045
sg75
g1030
sg68
(lp1046
g61
(g62
g63
NtRp1047
(dp1048
g66
(dp1049
g74
I4
ssg75
g1043
sg68
(lp1050
S'gzip,deflate,sdch'
p1051
asbasbasbag61
(g77
g63
NtRp1052
(dp1053
g66
(dp1054
sg75
g826
sg68
(lp1055
g61
(g82
g63
NtRp1056
(dp1057
g66
(dp1058
g86
g87
ssg75
g1052
sg68
(lp1059
S'http_accept_language'
p1060
asbag61
(g82
g63
NtRp1061
(dp1062
g66
(dp1063
g93
g94
ssg75
g1052
sg68
(lp1064
S':'
asbag61
(g82
g63
NtRp1065
(dp1066
g66
(dp1067
sg75
g1052
sg68
(lp1068
g61
(g62
g63
NtRp1069
(dp1070
g66
(dp1071
g74
I4
ssg75
g1065
sg68
(lp1072
S'en-US,en;q=0.8'
p1073
asbasbasbag61
(g77
g63
NtRp1074
(dp1075
g66
(dp1076
sg75
g826
sg68
(lp1077
g61
(g82
g63
NtRp1078
(dp1079
g66
(dp1080
g86
g87
ssg75
g1074
sg68
(lp1081
S'http_cache_control'
p1082
asbag61
(g82
g63
NtRp1083
(dp1084
g66
(dp1085
g93
g94
ssg75
g1074
sg68
(lp1086
S':'
asbag61
(g82
g63
NtRp1087
(dp1088
g66
(dp1089
sg75
g1074
sg68
(lp1090
g61
(g62
g63
NtRp1091
(dp1092
g66
(dp1093
g74
I4
ssg75
g1087
sg68
(lp1094
S'max-age=0'
p1095
asbasbasbag61
(g77
g63
NtRp1096
(dp1097
g66
(dp1098
sg75
g826
sg68
(lp1099
g61
(g82
g63
NtRp1100
(dp1101
g66
(dp1102
g86
g87
ssg75
g1096
sg68
(lp1103
S'http_connection'
p1104
asbag61
(g82
g63
NtRp1105
(dp1106
g66
(dp1107
g93
g94
ssg75
g1096
sg68
(lp1108
S':'
asbag61
(g82
g63
NtRp1109
(dp1110
g66
(dp1111
sg75
g1096
sg68
(lp1112
g61
(g62
g63
NtRp1113
(dp1114
g66
(dp1115
g74
I4
ssg75
g1109
sg68
(lp1116
S'keep-alive'
p1117
asbasbasbag61
(g77
g63
NtRp1118
(dp1119
g66
(dp1120
sg75
g826
sg68
(lp1121
g61
(g82
g63
NtRp1122
(dp1123
g66
(dp1124
g86
g87
ssg75
g1118
sg68
(lp1125
S'http_cookie'
p1126
asbag61
(g82
g63
NtRp1127
(dp1128
g66
(dp1129
g93
g94
ssg75
g1118
sg68
(lp1130
S':'
asbag61
(g82
g63
NtRp1131
(dp1132
g66
(dp1133
sg75
g1118
sg68
(lp1134
g61
(g62
g63
NtRp1135
(dp1136
g66
(dp1137
g74
I4
ssg75
g1131
sg68
(lp1138
S'session_id_welcome=127.0.0.1-7aaa610b-edae-4df4-ab5f-314d3549232c; session_id_seniorproject=127.0.0.1-1fc43717-b20e-40c0-9730-a5ec5f89c91b; session_id_admin=127.0.0.1-f76e1bee-5391-45d4-b10c-9148164fb282'
p1139
asbasbasbag61
(g77
g63
NtRp1140
(dp1141
g66
(dp1142
sg75
g826
sg68
(lp1143
g61
(g82
g63
NtRp1144
(dp1145
g66
(dp1146
g86
g87
ssg75
g1140
sg68
(lp1147
S'http_host'
p1148
asbag61
(g82
g63
NtRp1149
(dp1150
g66
(dp1151
g93
g94
ssg75
g1140
sg68
(lp1152
S':'
asbag61
(g82
g63
NtRp1153
(dp1154
g66
(dp1155
sg75
g1140
sg68
(lp1156
g61
(g62
g63
NtRp1157
(dp1158
g66
(dp1159
g74
I4
ssg75
g1153
sg68
(lp1160
S'127.0.0.1:8000'
p1161
asbasbasbag61
(g77
g63
NtRp1162
(dp1163
g66
(dp1164
sg75
g826
sg68
(lp1165
g61
(g82
g63
NtRp1166
(dp1167
g66
(dp1168
g86
g87
ssg75
g1162
sg68
(lp1169
S'http_referer'
p1170
asbag61
(g82
g63
NtRp1171
(dp1172
g66
(dp1173
g93
g94
ssg75
g1162
sg68
(lp1174
S':'
asbag61
(g82
g63
NtRp1175
(dp1176
g66
(dp1177
sg75
g1162
sg68
(lp1178
g61
(g62
g63
NtRp1179
(dp1180
g66
(dp1181
g74
I4
ssg75
g1175
sg68
(lp1182
S'http://127.0.0.1:8000/SeniorProject/default/formtable?formType=Submittal&projectNum=1'
p1183
asbasbasbag61
(g77
g63
NtRp1184
(dp1185
g66
(dp1186
sg75
g826
sg68
(lp1187
g61
(g82
g63
NtRp1188
(dp1189
g66
(dp1190
g86
g87
ssg75
g1184
sg68
(lp1191
S'http_user_agent'
p1192
asbag61
(g82
g63
NtRp1193
(dp1194
g66
(dp1195
g93
g94
ssg75
g1184
sg68
(lp1196
S':'
asbag61
(g82
g63
NtRp1197
(dp1198
g66
(dp1199
sg75
g1184
sg68
(lp1200
g61
(g62
g63
NtRp1201
(dp1202
g66
(dp1203
g74
I4
ssg75
g1197
sg68
(lp1204
S'Mozilla/5.0 (Windows NT 6.0) AppleWebKit/537.4 (KHTML, like Gecko) Chrome/22.0.1229.94 Safari/537.4'
p1205
asbasbasbag61
(g77
g63
NtRp1206
(dp1207
g66
(dp1208
sg75
g826
sg68
(lp1209
g61
(g82
g63
NtRp1210
(dp1211
g66
(dp1212
g86
g87
ssg75
g1206
sg68
(lp1213
S'is_jython'
p1214
asbag61
(g82
g63
NtRp1215
(dp1216
g66
(dp1217
g93
g94
ssg75
g1206
sg68
(lp1218
S':'
asbag61
(g82
g63
NtRp1219
(dp1220
g66
(dp1221
sg75
g1206
sg68
(lp1222
g61
(g62
g63
NtRp1223
(dp1224
g66
(dp1225
g74
I4
ssg75
g1219
sg68
(lp1226
g104
asbasbasbag61
(g77
g63
NtRp1227
(dp1228
g66
(dp1229
sg75
g826
sg68
(lp1230
g61
(g82
g63
NtRp1231
(dp1232
g66
(dp1233
g86
g87
ssg75
g1227
sg68
(lp1234
S'is_pypy'
p1235
asbag61
(g82
g63
NtRp1236
(dp1237
g66
(dp1238
g93
g94
ssg75
g1227
sg68
(lp1239
S':'
asbag61
(g82
g63
NtRp1240
(dp1241
g66
(dp1242
sg75
g1227
sg68
(lp1243
g61
(g62
g63
NtRp1244
(dp1245
g66
(dp1246
g74
I4
ssg75
g1240
sg68
(lp1247
g104
asbasbasbag61
(g77
g63
NtRp1248
(dp1249
g66
(dp1250
sg75
g826
sg68
(lp1251
g61
(g82
g63
NtRp1252
(dp1253
g66
(dp1254
g86
g87
ssg75
g1248
sg68
(lp1255
S'path_info'
p1256
asbag61
(g82
g63
NtRp1257
(dp1258
g66
(dp1259
g93
g94
ssg75
g1248
sg68
(lp1260
S':'
asbag61
(g82
g63
NtRp1261
(dp1262
g66
(dp1263
sg75
g1248
sg68
(lp1264
g61
(g62
g63
NtRp1265
(dp1266
g66
(dp1267
g74
I4
ssg75
g1261
sg68
(lp1268
S'/SeniorProject/default/formtable'
p1269
asbasbasbag61
(g77
g63
NtRp1270
(dp1271
g66
(dp1272
sg75
g826
sg68
(lp1273
g61
(g82
g63
NtRp1274
(dp1275
g66
(dp1276
g86
g87
ssg75
g1270
sg68
(lp1277
S'query_string'
p1278
asbag61
(g82
g63
NtRp1279
(dp1280
g66
(dp1281
g93
g94
ssg75
g1270
sg68
(lp1282
S':'
asbag61
(g82
g63
NtRp1283
(dp1284
g66
(dp1285
sg75
g1270
sg68
(lp1286
g61
(g62
g63
NtRp1287
(dp1288
g66
(dp1289
g74
I4
ssg75
g1283
sg68
(lp1290
S'formType=CCD&projectNum=1'
p1291
asbasbasbag61
(g77
g63
NtRp1292
(dp1293
g66
(dp1294
sg75
g826
sg68
(lp1295
g61
(g82
g63
NtRp1296
(dp1297
g66
(dp1298
g86
g87
ssg75
g1292
sg68
(lp1299
S'remote_addr'
p1300
asbag61
(g82
g63
NtRp1301
(dp1302
g66
(dp1303
g93
g94
ssg75
g1292
sg68
(lp1304
S':'
asbag61
(g82
g63
NtRp1305
(dp1306
g66
(dp1307
sg75
g1292
sg68
(lp1308
g61
(g62
g63
NtRp1309
(dp1310
g66
(dp1311
g74
I4
ssg75
g1305
sg68
(lp1312
g194
asbasbasbag61
(g77
g63
NtRp1313
(dp1314
g66
(dp1315
sg75
g826
sg68
(lp1316
g61
(g82
g63
NtRp1317
(dp1318
g66
(dp1319
g86
g87
ssg75
g1313
sg68
(lp1320
S'remote_port'
p1321
asbag61
(g82
g63
NtRp1322
(dp1323
g66
(dp1324
g93
g94
ssg75
g1313
sg68
(lp1325
S':'
asbag61
(g82
g63
NtRp1326
(dp1327
g66
(dp1328
sg75
g1313
sg68
(lp1329
g61
(g62
g63
NtRp1330
(dp1331
g66
(dp1332
g74
I4
ssg75
g1326
sg68
(lp1333
S'51448'
p1334
asbasbasbag61
(g77
g63
NtRp1335
(dp1336
g66
(dp1337
sg75
g826
sg68
(lp1338
g61
(g82
g63
NtRp1339
(dp1340
g66
(dp1341
g86
g87
ssg75
g1335
sg68
(lp1342
S'request_method'
p1343
asbag61
(g82
g63
NtRp1344
(dp1345
g66
(dp1346
g93
g94
ssg75
g1335
sg68
(lp1347
S':'
asbag61
(g82
g63
NtRp1348
(dp1349
g66
(dp1350
sg75
g1335
sg68
(lp1351
g61
(g62
g63
NtRp1352
(dp1353
g66
(dp1354
g74
I4
ssg75
g1348
sg68
(lp1355
S'GET'
p1356
asbasbasbag61
(g77
g63
NtRp1357
(dp1358
g66
(dp1359
sg75
g826
sg68
(lp1360
g61
(g82
g63
NtRp1361
(dp1362
g66
(dp1363
g86
g87
ssg75
g1357
sg68
(lp1364
S'script_name'
p1365
asbag61
(g82
g63
NtRp1366
(dp1367
g66
(dp1368
g93
g94
ssg75
g1357
sg68
(lp1369
S':'
asbag61
(g82
g63
NtRp1370
(dp1371
g66
(dp1372
sg75
g1357
sg68
(lp1373
g61
(g62
g63
NtRp1374
(dp1375
g66
(dp1376
g74
I4
ssg75
g1370
sg68
(lp1377
S''
asbasbasbag61
(g77
g63
NtRp1378
(dp1379
g66
(dp1380
sg75
g826
sg68
(lp1381
g61
(g82
g63
NtRp1382
(dp1383
g66
(dp1384
g86
g87
ssg75
g1378
sg68
(lp1385
S'server_name'
p1386
asbag61
(g82
g63
NtRp1387
(dp1388
g66
(dp1389
g93
g94
ssg75
g1378
sg68
(lp1390
S':'
asbag61
(g82
g63
NtRp1391
(dp1392
g66
(dp1393
sg75
g1378
sg68
(lp1394
g61
(g62
g63
NtRp1395
(dp1396
g66
(dp1397
g74
I4
ssg75
g1391
sg68
(lp1398
S'Alysse-PC'
p1399
asbasbasbag61
(g77
g63
NtRp1400
(dp1401
g66
(dp1402
sg75
g826
sg68
(lp1403
g61
(g82
g63
NtRp1404
(dp1405
g66
(dp1406
g86
g87
ssg75
g1400
sg68
(lp1407
S'server_port'
p1408
asbag61
(g82
g63
NtRp1409
(dp1410
g66
(dp1411
g93
g94
ssg75
g1400
sg68
(lp1412
S':'
asbag61
(g82
g63
NtRp1413
(dp1414
g66
(dp1415
sg75
g1400
sg68
(lp1416
g61
(g62
g63
NtRp1417
(dp1418
g66
(dp1419
g74
I4
ssg75
g1413
sg68
(lp1420
S'8000'
p1421
asbasbasbag61
(g77
g63
NtRp1422
(dp1423
g66
(dp1424
sg75
g826
sg68
(lp1425
g61
(g82
g63
NtRp1426
(dp1427
g66
(dp1428
g86
g87
ssg75
g1422
sg68
(lp1429
S'server_protocol'
p1430
asbag61
(g82
g63
NtRp1431
(dp1432
g66
(dp1433
g93
g94
ssg75
g1422
sg68
(lp1434
S':'
asbag61
(g82
g63
NtRp1435
(dp1436
g66
(dp1437
sg75
g1422
sg68
(lp1438
g61
(g62
g63
NtRp1439
(dp1440
g66
(dp1441
g74
I4
ssg75
g1435
sg68
(lp1442
S'HTTP/1.1'
p1443
asbasbasbag61
(g77
g63
NtRp1444
(dp1445
g66
(dp1446
sg75
g826
sg68
(lp1447
g61
(g82
g63
NtRp1448
(dp1449
g66
(dp1450
g86
g87
ssg75
g1444
sg68
(lp1451
S'server_software'
p1452
asbag61
(g82
g63
NtRp1453
(dp1454
g66
(dp1455
g93
g94
ssg75
g1444
sg68
(lp1456
S':'
asbag61
(g82
g63
NtRp1457
(dp1458
g66
(dp1459
sg75
g1444
sg68
(lp1460
g61
(g62
g63
NtRp1461
(dp1462
g66
(dp1463
g74
I4
ssg75
g1457
sg68
(lp1464
S'Rocket 1.2.4'
p1465
asbasbasbag61
(g77
g63
NtRp1466
(dp1467
g66
(dp1468
sg75
g826
sg68
(lp1469
g61
(g82
g63
NtRp1470
(dp1471
g66
(dp1472
g86
g87
ssg75
g1466
sg68
(lp1473
S'web2py_crontype'
p1474
asbag61
(g82
g63
NtRp1475
(dp1476
g66
(dp1477
g93
g94
ssg75
g1466
sg68
(lp1478
S':'
asbag61
(g82
g63
NtRp1479
(dp1480
g66
(dp1481
sg75
g1466
sg68
(lp1482
g61
(g62
g63
NtRp1483
(dp1484
g66
(dp1485
g74
I4
ssg75
g1479
sg68
(lp1486
S'hard'
p1487
asbasbasbag61
(g77
g63
NtRp1488
(dp1489
g66
(dp1490
sg75
g826
sg68
(lp1491
g61
(g82
g63
NtRp1492
(dp1493
g66
(dp1494
g86
g87
ssg75
g1488
sg68
(lp1495
S'web2py_path'
p1496
asbag61
(g82
g63
NtRp1497
(dp1498
g66
(dp1499
g93
g94
ssg75
g1488
sg68
(lp1500
S':'
asbag61
(g82
g63
NtRp1501
(dp1502
g66
(dp1503
sg75
g1488
sg68
(lp1504
g61
(g62
g63
NtRp1505
(dp1506
g66
(dp1507
g74
I4
ssg75
g1501
sg68
(lp1508
g873
asbasbasbag61
(g77
g63
NtRp1509
(dp1510
g66
(dp1511
sg75
g826
sg68
(lp1512
g61
(g82
g63
NtRp1513
(dp1514
g66
(dp1515
g86
g87
ssg75
g1509
sg68
(lp1516
S'web2py_version'
p1517
asbag61
(g82
g63
NtRp1518
(dp1519
g66
(dp1520
g93
g94
ssg75
g1509
sg68
(lp1521
S':'
asbag61
(g82
g63
NtRp1522
(dp1523
g66
(dp1524
sg75
g1509
sg68
(lp1525
g61
(g62
g63
NtRp1526
(dp1527
g66
(dp1528
g74
I4
ssg75
g1522
sg68
(lp1529
g61
(g70
g63
NtRp1530
(dp1531
g66
(dp1532
g74
I3
ssg75
Nsg68
(lp1533
g61
(g77
g63
NtRp1534
(dp1535
g66
(dp1536
sg75
g1530
sg68
(lp1537
g61
(g82
g63
NtRp1538
(dp1539
g66
(dp1540
sg75
g1534
sg68
(lp1541
g61
(g62
g63
NtRp1542
(dp1543
g66
(dp1544
g74
I3
ssg75
g1538
sg68
(lp1545
S'1'
asbasbasbag61
(g77
g63
NtRp1546
(dp1547
g66
(dp1548
sg75
g1530
sg68
(lp1549
g61
(g82
g63
NtRp1550
(dp1551
g66
(dp1552
sg75
g1546
sg68
(lp1553
g61
(g62
g63
NtRp1554
(dp1555
g66
(dp1556
g74
I3
ssg75
g1550
sg68
(lp1557
S'99'
p1558
asbasbasbag61
(g77
g63
NtRp1559
(dp1560
g66
(dp1561
sg75
g1530
sg68
(lp1562
g61
(g82
g63
NtRp1563
(dp1564
g66
(dp1565
sg75
g1559
sg68
(lp1566
g61
(g62
g63
NtRp1567
(dp1568
g66
(dp1569
g74
I3
ssg75
g1563
sg68
(lp1570
S'7'
asbasbasbag61
(g77
g63
NtRp1571
(dp1572
g66
(dp1573
sg75
g1530
sg68
(lp1574
g61
(g82
g63
NtRp1575
(dp1576
g66
(dp1577
sg75
g1571
sg68
(lp1578
g61
(g62
g63
NtRp1579
(dp1580
g66
(dp1581
g74
I3
ssg75
g1575
sg68
(lp1582
S'datetime.datetime(2012, 3, 4, 22, 12, 8)'
p1583
asbasbasbag61
(g77
g63
NtRp1584
(dp1585
g66
(dp1586
sg75
g1530
sg68
(lp1587
g61
(g82
g63
NtRp1588
(dp1589
g66
(dp1590
sg75
g1584
sg68
(lp1591
g61
(g62
g63
NtRp1592
(dp1593
g66
(dp1594
g74
I3
ssg75
g1588
sg68
(lp1595
S'stable'
p1596
asbasbasbasbasbasbasbag61
(g77
g63
NtRp1597
(dp1598
g66
(dp1599
sg75
g826
sg68
(lp1600
g61
(g82
g63
NtRp1601
(dp1602
g66
(dp1603
g86
g87
ssg75
g1597
sg68
(lp1604
S'wsgi_errors'
p1605
asbag61
(g82
g63
NtRp1606
(dp1607
g66
(dp1608
g93
g94
ssg75
g1597
sg68
(lp1609
S':'
asbag61
(g82
g63
NtRp1610
(dp1611
g66
(dp1612
sg75
g1597
sg68
(lp1613
g61
(g62
g63
NtRp1614
(dp1615
g66
(dp1616
g74
I4
ssg75
g1610
sg68
(lp1617
S"<open file '<stderr>', mode 'w' at 0x019B50D0>"
p1618
asbasbasbag61
(g77
g63
NtRp1619
(dp1620
g66
(dp1621
sg75
g826
sg68
(lp1622
g61
(g82
g63
NtRp1623
(dp1624
g66
(dp1625
g86
g87
ssg75
g1619
sg68
(lp1626
S'wsgi_file_wrapper'
p1627
asbag61
(g82
g63
NtRp1628
(dp1629
g66
(dp1630
g93
g94
ssg75
g1619
sg68
(lp1631
S':'
asbag61
(g82
g63
NtRp1632
(dp1633
g66
(dp1634
sg75
g1619
sg68
(lp1635
g61
(g62
g63
NtRp1636
(dp1637
g66
(dp1638
g74
I4
ssg75
g1632
sg68
(lp1639
S'<class wsgiref.util.FileWrapper at 0x03325AE8>'
p1640
asbasbasbag61
(g77
g63
NtRp1641
(dp1642
g66
(dp1643
sg75
g826
sg68
(lp1644
g61
(g82
g63
NtRp1645
(dp1646
g66
(dp1647
g86
g87
ssg75
g1641
sg68
(lp1648
S'wsgi_input'
p1649
asbag61
(g82
g63
NtRp1650
(dp1651
g66
(dp1652
g93
g94
ssg75
g1641
sg68
(lp1653
S':'
asbag61
(g82
g63
NtRp1654
(dp1655
g66
(dp1656
sg75
g1641
sg68
(lp1657
g61
(g62
g63
NtRp1658
(dp1659
g66
(dp1660
g74
I4
ssg75
g1654
sg68
(lp1661
S'<socket._fileobject object at 0x03F4C6F0>'
p1662
asbasbasbag61
(g77
g63
NtRp1663
(dp1664
g66
(dp1665
sg75
g826
sg68
(lp1666
g61
(g82
g63
NtRp1667
(dp1668
g66
(dp1669
g86
g87
ssg75
g1663
sg68
(lp1670
S'wsgi_multiprocess'
p1671
asbag61
(g82
g63
NtRp1672
(dp1673
g66
(dp1674
g93
g94
ssg75
g1663
sg68
(lp1675
S':'
asbag61
(g82
g63
NtRp1676
(dp1677
g66
(dp1678
sg75
g1663
sg68
(lp1679
g61
(g62
g63
NtRp1680
(dp1681
g66
(dp1682
g74
I4
ssg75
g1676
sg68
(lp1683
g104
asbasbasbag61
(g77
g63
NtRp1684
(dp1685
g66
(dp1686
sg75
g826
sg68
(lp1687
g61
(g82
g63
NtRp1688
(dp1689
g66
(dp1690
g86
g87
ssg75
g1684
sg68
(lp1691
S'wsgi_multithread'
p1692
asbag61
(g82
g63
NtRp1693
(dp1694
g66
(dp1695
g93
g94
ssg75
g1684
sg68
(lp1696
S':'
asbag61
(g82
g63
NtRp1697
(dp1698
g66
(dp1699
sg75
g1684
sg68
(lp1700
g61
(g62
g63
NtRp1701
(dp1702
g66
(dp1703
g74
I4
ssg75
g1697
sg68
(lp1704
S'True'
p1705
asbasbasbag61
(g77
g63
NtRp1706
(dp1707
g66
(dp1708
sg75
g826
sg68
(lp1709
g61
(g82
g63
NtRp1710
(dp1711
g66
(dp1712
g86
g87
ssg75
g1706
sg68
(lp1713
S'wsgi_run_once'
p1714
asbag61
(g82
g63
NtRp1715
(dp1716
g66
(dp1717
g93
g94
ssg75
g1706
sg68
(lp1718
S':'
asbag61
(g82
g63
NtRp1719
(dp1720
g66
(dp1721
sg75
g1706
sg68
(lp1722
g61
(g62
g63
NtRp1723
(dp1724
g66
(dp1725
g74
I4
ssg75
g1719
sg68
(lp1726
g104
asbasbasbag61
(g77
g63
NtRp1727
(dp1728
g66
(dp1729
sg75
g826
sg68
(lp1730
g61
(g82
g63
NtRp1731
(dp1732
g66
(dp1733
g86
g87
ssg75
g1727
sg68
(lp1734
S'wsgi_url_scheme'
p1735
asbag61
(g82
g63
NtRp1736
(dp1737
g66
(dp1738
g93
g94
ssg75
g1727
sg68
(lp1739
S':'
asbag61
(g82
g63
NtRp1740
(dp1741
g66
(dp1742
sg75
g1727
sg68
(lp1743
g61
(g62
g63
NtRp1744
(dp1745
g66
(dp1746
g74
I4
ssg75
g1740
sg68
(lp1747
S'http'
p1748
asbasbasbag61
(g77
g63
NtRp1749
(dp1750
g66
(dp1751
sg75
g826
sg68
(lp1752
g61
(g82
g63
NtRp1753
(dp1754
g66
(dp1755
g86
g87
ssg75
g1749
sg68
(lp1756
S'wsgi_version'
p1757
asbag61
(g82
g63
NtRp1758
(dp1759
g66
(dp1760
g93
g94
ssg75
g1749
sg68
(lp1761
S':'
asbag61
(g82
g63
NtRp1762
(dp1763
g66
(dp1764
sg75
g1749
sg68
(lp1765
g61
(g62
g63
NtRp1766
(dp1767
g66
(dp1768
g74
I4
ssg75
g1762
sg68
(lp1769
g61
(g70
g63
NtRp1770
(dp1771
g66
(dp1772
g74
I3
ssg75
Nsg68
(lp1773
g61
(g77
g63
NtRp1774
(dp1775
g66
(dp1776
sg75
g1770
sg68
(lp1777
g61
(g82
g63
NtRp1778
(dp1779
g66
(dp1780
sg75
g1774
sg68
(lp1781
g61
(g62
g63
NtRp1782
(dp1783
g66
(dp1784
g74
I3
ssg75
g1778
sg68
(lp1785
S'1'
asbasbasbag61
(g77
g63
NtRp1786
(dp1787
g66
(dp1788
sg75
g1770
sg68
(lp1789
g61
(g82
g63
NtRp1790
(dp1791
g66
(dp1792
sg75
g1786
sg68
(lp1793
g61
(g62
g63
NtRp1794
(dp1795
g66
(dp1796
g74
I3
ssg75
g1790
sg68
(lp1797
S'0'
asbasbasbasbasbasbasbasbasbasbasbag61
(g77
g63
NtRp1798
(dp1799
g66
(dp1800
sg75
g71
sg68
(lp1801
g61
(g82
g63
NtRp1802
(dp1803
g66
(dp1804
g86
g87
ssg75
g1798
sg68
(lp1805
S'extension'
p1806
asbag61
(g82
g63
NtRp1807
(dp1808
g66
(dp1809
g93
g94
ssg75
g1798
sg68
(lp1810
S':'
asbag61
(g82
g63
NtRp1811
(dp1812
g66
(dp1813
sg75
g1798
sg68
(lp1814
g61
(g62
g63
NtRp1815
(dp1816
g66
(dp1817
g74
I5
ssg75
g1811
sg68
(lp1818
S'html'
p1819
asbasbasbag61
(g77
g63
NtRp1820
(dp1821
g66
(dp1822
sg75
g71
sg68
(lp1823
g61
(g82
g63
NtRp1824
(dp1825
g66
(dp1826
g86
g87
ssg75
g1820
sg68
(lp1827
S'folder'
p1828
asbag61
(g82
g63
NtRp1829
(dp1830
g66
(dp1831
g93
g94
ssg75
g1820
sg68
(lp1832
S':'
asbag61
(g82
g63
NtRp1833
(dp1834
g66
(dp1835
sg75
g1820
sg68
(lp1836
g61
(g62
g63
NtRp1837
(dp1838
g66
(dp1839
g74
I5
ssg75
g1833
sg68
(lp1840
S'C:\\Users\\Alysse\\Documents\\GitHub\\finholt-senior-project\\web2py\\applications\\SeniorProject\\'
p1841
asbasbasbag61
(g77
g63
NtRp1842
(dp1843
g66
(dp1844
sg75
g71
sg68
(lp1845
g61
(g82
g63
NtRp1846
(dp1847
g66
(dp1848
g86
g87
ssg75
g1842
sg68
(lp1849
S'function'
p1850
asbag61
(g82
g63
NtRp1851
(dp1852
g66
(dp1853
g93
g94
ssg75
g1842
sg68
(lp1854
S':'
asbag61
(g82
g63
NtRp1855
(dp1856
g66
(dp1857
sg75
g1842
sg68
(lp1858
g61
(g62
g63
NtRp1859
(dp1860
g66
(dp1861
g74
I5
ssg75
g1855
sg68
(lp1862
S'formtable'
p1863
asbasbasbag61
(g77
g63
NtRp1864
(dp1865
g66
(dp1866
sg75
g71
sg68
(lp1867
g61
(g82
g63
NtRp1868
(dp1869
g66
(dp1870
g86
g87
ssg75
g1864
sg68
(lp1871
S'get_vars'
p1872
asbag61
(g82
g63
NtRp1873
(dp1874
g66
(dp1875
g93
g94
ssg75
g1864
sg68
(lp1876
S':'
asbag61
(g82
g63
NtRp1877
(dp1878
g66
(dp1879
sg75
g1864
sg68
(lp1880
g61
(g62
g63
NtRp1881
(dp1882
g66
(dp1883
g74
I5
ssg75
g1877
sg68
(lp1884
g61
(g70
g63
NtRp1885
(dp1886
g66
(dp1887
g74
I4
ssg75
Nsg68
(lp1888
g61
(g77
g63
NtRp1889
(dp1890
g66
(dp1891
sg75
g1885
sg68
(lp1892
g61
(g82
g63
NtRp1893
(dp1894
g66
(dp1895
g86
g87
ssg75
g1889
sg68
(lp1896
S'formType'
p1897
asbag61
(g82
g63
NtRp1898
(dp1899
g66
(dp1900
g93
g94
ssg75
g1889
sg68
(lp1901
S':'
asbag61
(g82
g63
NtRp1902
(dp1903
g66
(dp1904
sg75
g1889
sg68
(lp1905
g61
(g62
g63
NtRp1906
(dp1907
g66
(dp1908
g74
I4
ssg75
g1902
sg68
(lp1909
S'CCD'
p1910
asbasbasbag61
(g77
g63
NtRp1911
(dp1912
g66
(dp1913
sg75
g1885
sg68
(lp1914
g61
(g82
g63
NtRp1915
(dp1916
g66
(dp1917
g86
g87
ssg75
g1911
sg68
(lp1918
S'projectNum'
p1919
asbag61
(g82
g63
NtRp1920
(dp1921
g66
(dp1922
g93
g94
ssg75
g1911
sg68
(lp1923
S':'
asbag61
(g82
g63
NtRp1924
(dp1925
g66
(dp1926
sg75
g1911
sg68
(lp1927
g61
(g62
g63
NtRp1928
(dp1929
g66
(dp1930
g74
I4
ssg75
g1924
sg68
(lp1931
S'1'
asbasbasbasbasbasbasbag61
(g77
g63
NtRp1932
(dp1933
g66
(dp1934
sg75
g71
sg68
(lp1935
g61
(g82
g63
NtRp1936
(dp1937
g66
(dp1938
g86
g87
ssg75
g1932
sg68
(lp1939
S'global_settings'
p1940
asbag61
(g82
g63
NtRp1941
(dp1942
g66
(dp1943
g93
g94
ssg75
g1932
sg68
(lp1944
S':'
asbag61
(g82
g63
NtRp1945
(dp1946
g66
(dp1947
sg75
g1932
sg68
(lp1948
g61
(g62
g63
NtRp1949
(dp1950
g66
(dp1951
g74
I5
ssg75
g1945
sg68
(lp1952
g61
(g70
g63
NtRp1953
(dp1954
g66
(dp1955
g74
I4
ssg75
Nsg68
(lp1956
g61
(g77
g63
NtRp1957
(dp1958
g66
(dp1959
sg75
g1953
sg68
(lp1960
g61
(g82
g63
NtRp1961
(dp1962
g66
(dp1963
g86
g87
ssg75
g1957
sg68
(lp1964
g838
asbag61
(g82
g63
NtRp1965
(dp1966
g66
(dp1967
g93
g94
ssg75
g1957
sg68
(lp1968
S':'
asbag61
(g82
g63
NtRp1969
(dp1970
g66
(dp1971
sg75
g1957
sg68
(lp1972
g61
(g62
g63
NtRp1973
(dp1974
g66
(dp1975
g74
I4
ssg75
g1969
sg68
(lp1976
S"set(['C:\\\\Users\\\\Alysse\\\\Documents\\\\GitHub\\\\finholt-senior-project\\\\web2py\\\\applications\\\\admin\\\\', 'C:\\\\Users\\\\Alysse\\\\Documents\\\\GitHub\\\\finholt-senior-project\\\\web2py\\\\applications\\\\welcome\\\\', 'C:\\\\Users\\\\Alysse\\\\Documents\\\\GitHub\\\\finholt-senior-project\\\\web2py\\\\applications\\\\SeniorProject\\\\'])"
p1977
asbasbasbag61
(g77
g63
NtRp1978
(dp1979
g66
(dp1980
sg75
g1953
sg68
(lp1981
g61
(g82
g63
NtRp1982
(dp1983
g66
(dp1984
g86
g87
ssg75
g1978
sg68
(lp1985
g860
asbag61
(g82
g63
NtRp1986
(dp1987
g66
(dp1988
g93
g94
ssg75
g1978
sg68
(lp1989
S':'
asbag61
(g82
g63
NtRp1990
(dp1991
g66
(dp1992
sg75
g1978
sg68
(lp1993
g61
(g62
g63
NtRp1994
(dp1995
g66
(dp1996
g74
I4
ssg75
g1990
sg68
(lp1997
g873
asbasbasbag61
(g77
g63
NtRp1998
(dp1999
g66
(dp2000
sg75
g1953
sg68
(lp2001
g61
(g82
g63
NtRp2002
(dp2003
g66
(dp2004
g86
g87
ssg75
g1998
sg68
(lp2005
g882
asbag61
(g82
g63
NtRp2006
(dp2007
g66
(dp2008
g93
g94
ssg75
g1998
sg68
(lp2009
S':'
asbag61
(g82
g63
NtRp2010
(dp2011
g66
(dp2012
sg75
g1998
sg68
(lp2013
g61
(g62
g63
NtRp2014
(dp2015
g66
(dp2016
g74
I4
ssg75
g2010
sg68
(lp2017
g61
(g70
g63
NtRp2018
(dp2019
g66
(dp2020
g74
I3
ssg75
Nsg68
(lp2021
sbasbasbasbag61
(g77
g63
NtRp2022
(dp2023
g66
(dp2024
sg75
g1953
sg68
(lp2025
g61
(g82
g63
NtRp2026
(dp2027
g66
(dp2028
g86
g87
ssg75
g2022
sg68
(lp2029
g907
asbag61
(g82
g63
NtRp2030
(dp2031
g66
(dp2032
g93
g94
ssg75
g2022
sg68
(lp2033
S':'
asbag61
(g82
g63
NtRp2034
(dp2035
g66
(dp2036
sg75
g2022
sg68
(lp2037
g61
(g62
g63
NtRp2038
(dp2039
g66
(dp2040
g74
I4
ssg75
g2034
sg68
(lp2041
S"<Values at 0x36f4940: {'verbose': False, 'ip': '127.0.0.1', 'shutdown_timeout': 5, 'taskbar': False, 'nocron': False, 'pid_filename': 'httpserver.pid', 'maxthreads': None, 'softcron': False, 'server_name': 'Alysse-PC', 'bpython': False, 'nogui': False, 'port': 8000, 'extcron': False, 'debuglevel': 30, 'test': None, 'folder': 'C:\\\\Users\\\\Alysse\\\\Documents\\\\GitHub\\\\finholt-senior-project\\\\web2py', 'config': '', 'import_models': False, 'winservice': '', 'shell': None, 'run': '', 'log_filename': 'httpserver.log', 'args': [''], 'socket_timeout': 5, 'ssl_ca_certificate': None, 'scheduler': None, 'profiler_filename': None, 'ssl_private_key': '', 'password': '<ask>', 'request_queue_size': 5, 'ssl_certificate': '', 'cronjob': False, 'numthreads': None, 'quiet': False, 'interfaces': None, 'minthreads': None, 'timeout': 10, 'plain': False, 'nobanner': False}>"
p2042
asbasbasbag61
(g77
g63
NtRp2043
(dp2044
g66
(dp2045
sg75
g1953
sg68
(lp2046
g61
(g82
g63
NtRp2047
(dp2048
g66
(dp2049
g86
g87
ssg75
g2043
sg68
(lp2050
g929
asbag61
(g82
g63
NtRp2051
(dp2052
g66
(dp2053
g93
g94
ssg75
g2043
sg68
(lp2054
S':'
asbag61
(g82
g63
NtRp2055
(dp2056
g66
(dp2057
sg75
g2043
sg68
(lp2058
g61
(g62
g63
NtRp2059
(dp2060
g66
(dp2061
g74
I4
ssg75
g2055
sg68
(lp2062
S'set([])'
p2063
asbasbasbag61
(g77
g63
NtRp2064
(dp2065
g66
(dp2066
sg75
g1953
sg68
(lp2067
g61
(g82
g63
NtRp2068
(dp2069
g66
(dp2070
g86
g87
ssg75
g2064
sg68
(lp2071
g951
asbag61
(g82
g63
NtRp2072
(dp2073
g66
(dp2074
g93
g94
ssg75
g2064
sg68
(lp2075
S':'
asbag61
(g82
g63
NtRp2076
(dp2077
g66
(dp2078
sg75
g2064
sg68
(lp2079
g61
(g62
g63
NtRp2080
(dp2081
g66
(dp2082
g74
I4
ssg75
g2076
sg68
(lp2083
g104
asbasbasbag61
(g77
g63
NtRp2084
(dp2085
g66
(dp2086
sg75
g1953
sg68
(lp2087
g61
(g82
g63
NtRp2088
(dp2089
g66
(dp2090
g86
g87
ssg75
g2084
sg68
(lp2091
g972
asbag61
(g82
g63
NtRp2092
(dp2093
g66
(dp2094
g93
g94
ssg75
g2084
sg68
(lp2095
S':'
asbag61
(g82
g63
NtRp2096
(dp2097
g66
(dp2098
sg75
g2084
sg68
(lp2099
g61
(g62
g63
NtRp2100
(dp2101
g66
(dp2102
g74
I4
ssg75
g2096
sg68
(lp2103
g985
asbasbasbag61
(g77
g63
NtRp2104
(dp2105
g66
(dp2106
sg75
g1953
sg68
(lp2107
g61
(g82
g63
NtRp2108
(dp2109
g66
(dp2110
g86
g87
ssg75
g2104
sg68
(lp2111
g1214
asbag61
(g82
g63
NtRp2112
(dp2113
g66
(dp2114
g93
g94
ssg75
g2104
sg68
(lp2115
S':'
asbag61
(g82
g63
NtRp2116
(dp2117
g66
(dp2118
sg75
g2104
sg68
(lp2119
g61
(g62
g63
NtRp2120
(dp2121
g66
(dp2122
g74
I4
ssg75
g2116
sg68
(lp2123
g104
asbasbasbag61
(g77
g63
NtRp2124
(dp2125
g66
(dp2126
sg75
g1953
sg68
(lp2127
g61
(g82
g63
NtRp2128
(dp2129
g66
(dp2130
g86
g87
ssg75
g2124
sg68
(lp2131
g1235
asbag61
(g82
g63
NtRp2132
(dp2133
g66
(dp2134
g93
g94
ssg75
g2124
sg68
(lp2135
S':'
asbag61
(g82
g63
NtRp2136
(dp2137
g66
(dp2138
sg75
g2124
sg68
(lp2139
g61
(g62
g63
NtRp2140
(dp2141
g66
(dp2142
g74
I4
ssg75
g2136
sg68
(lp2143
g104
asbasbasbag61
(g77
g63
NtRp2144
(dp2145
g66
(dp2146
sg75
g1953
sg68
(lp2147
g61
(g82
g63
NtRp2148
(dp2149
g66
(dp2150
g86
g87
ssg75
g2144
sg68
(lp2151
g1474
asbag61
(g82
g63
NtRp2152
(dp2153
g66
(dp2154
g93
g94
ssg75
g2144
sg68
(lp2155
S':'
asbag61
(g82
g63
NtRp2156
(dp2157
g66
(dp2158
sg75
g2144
sg68
(lp2159
g61
(g62
g63
NtRp2160
(dp2161
g66
(dp2162
g74
I4
ssg75
g2156
sg68
(lp2163
g1487
asbasbasbag61
(g77
g63
NtRp2164
(dp2165
g66
(dp2166
sg75
g1953
sg68
(lp2167
g61
(g82
g63
NtRp2168
(dp2169
g66
(dp2170
g86
g87
ssg75
g2164
sg68
(lp2171
g1517
asbag61
(g82
g63
NtRp2172
(dp2173
g66
(dp2174
g93
g94
ssg75
g2164
sg68
(lp2175
S':'
asbag61
(g82
g63
NtRp2176
(dp2177
g66
(dp2178
sg75
g2164
sg68
(lp2179
g61
(g62
g63
NtRp2180
(dp2181
g66
(dp2182
g74
I4
ssg75
g2176
sg68
(lp2183
g61
(g70
g63
NtRp2184
(dp2185
g66
(dp2186
g74
I3
ssg75
Nsg68
(lp2187
g61
(g77
g63
NtRp2188
(dp2189
g66
(dp2190
sg75
g2184
sg68
(lp2191
g61
(g82
g63
NtRp2192
(dp2193
g66
(dp2194
sg75
g2188
sg68
(lp2195
g61
(g62
g63
NtRp2196
(dp2197
g66
(dp2198
g74
I3
ssg75
g2192
sg68
(lp2199
S'1'
asbasbasbag61
(g77
g63
NtRp2200
(dp2201
g66
(dp2202
sg75
g2184
sg68
(lp2203
g61
(g82
g63
NtRp2204
(dp2205
g66
(dp2206
sg75
g2200
sg68
(lp2207
g61
(g62
g63
NtRp2208
(dp2209
g66
(dp2210
g74
I3
ssg75
g2204
sg68
(lp2211
S'99'
p2212
asbasbasbag61
(g77
g63
NtRp2213
(dp2214
g66
(dp2215
sg75
g2184
sg68
(lp2216
g61
(g82
g63
NtRp2217
(dp2218
g66
(dp2219
sg75
g2213
sg68
(lp2220
g61
(g62
g63
NtRp2221
(dp2222
g66
(dp2223
g74
I3
ssg75
g2217
sg68
(lp2224
S'7'
asbasbasbag61
(g77
g63
NtRp2225
(dp2226
g66
(dp2227
sg75
g2184
sg68
(lp2228
g61
(g82
g63
NtRp2229
(dp2230
g66
(dp2231
sg75
g2225
sg68
(lp2232
g61
(g62
g63
NtRp2233
(dp2234
g66
(dp2235
g74
I3
ssg75
g2229
sg68
(lp2236
S'datetime.datetime(2012, 3, 4, 22, 12, 8)'
p2237
asbasbasbag61
(g77
g63
NtRp2238
(dp2239
g66
(dp2240
sg75
g2184
sg68
(lp2241
g61
(g82
g63
NtRp2242
(dp2243
g66
(dp2244
sg75
g2238
sg68
(lp2245
g61
(g62
g63
NtRp2246
(dp2247
g66
(dp2248
g74
I3
ssg75
g2242
sg68
(lp2249
g1596
asbasbasbasbasbasbasbasbasbasbasbag61
(g77
g63
NtRp2250
(dp2251
g66
(dp2252
sg75
g71
sg68
(lp2253
g61
(g82
g63
NtRp2254
(dp2255
g66
(dp2256
g86
g87
ssg75
g2250
sg68
(lp2257
S'is_https'
p2258
asbag61
(g82
g63
NtRp2259
(dp2260
g66
(dp2261
g93
g94
ssg75
g2250
sg68
(lp2262
S':'
asbag61
(g82
g63
NtRp2263
(dp2264
g66
(dp2265
sg75
g2250
sg68
(lp2266
g61
(g62
g63
NtRp2267
(dp2268
g66
(dp2269
g74
I5
ssg75
g2263
sg68
(lp2270
g104
asbasbasbag61
(g77
g63
NtRp2271
(dp2272
g66
(dp2273
sg75
g71
sg68
(lp2274
g61
(g82
g63
NtRp2275
(dp2276
g66
(dp2277
g86
g87
ssg75
g2271
sg68
(lp2278
S'is_local'
p2279
asbag61
(g82
g63
NtRp2280
(dp2281
g66
(dp2282
g93
g94
ssg75
g2271
sg68
(lp2283
S':'
asbag61
(g82
g63
NtRp2284
(dp2285
g66
(dp2286
sg75
g2271
sg68
(lp2287
g61
(g62
g63
NtRp2288
(dp2289
g66
(dp2290
g74
I5
ssg75
g2284
sg68
(lp2291
g1705
asbasbasbag61
(g77
g63
NtRp2292
(dp2293
g66
(dp2294
sg75
g71
sg68
(lp2295
g61
(g82
g63
NtRp2296
(dp2297
g66
(dp2298
g86
g87
ssg75
g2292
sg68
(lp2299
S'is_restful'
p2300
asbag61
(g82
g63
NtRp2301
(dp2302
g66
(dp2303
g93
g94
ssg75
g2292
sg68
(lp2304
S':'
asbag61
(g82
g63
NtRp2305
(dp2306
g66
(dp2307
sg75
g2292
sg68
(lp2308
g61
(g62
g63
NtRp2309
(dp2310
g66
(dp2311
g74
I5
ssg75
g2305
sg68
(lp2312
g104
asbasbasbag61
(g77
g63
NtRp2313
(dp2314
g66
(dp2315
sg75
g71
sg68
(lp2316
g61
(g82
g63
NtRp2317
(dp2318
g66
(dp2319
g86
g87
ssg75
g2313
sg68
(lp2320
S'now'
p2321
asbag61
(g82
g63
NtRp2322
(dp2323
g66
(dp2324
g93
g94
ssg75
g2313
sg68
(lp2325
S':'
asbag61
(g82
g63
NtRp2326
(dp2327
g66
(dp2328
sg75
g2313
sg68
(lp2329
g61
(g62
g63
NtRp2330
(dp2331
g66
(dp2332
g74
I5
ssg75
g2326
sg68
(lp2333
S'datetime.datetime(2012, 10, 22, 18, 16, 56, 321000)'
p2334
asbasbasbag61
(g77
g63
NtRp2335
(dp2336
g66
(dp2337
sg75
g71
sg68
(lp2338
g61
(g82
g63
NtRp2339
(dp2340
g66
(dp2341
g86
g87
ssg75
g2335
sg68
(lp2342
S'post_vars'
p2343
asbag61
(g82
g63
NtRp2344
(dp2345
g66
(dp2346
g93
g94
ssg75
g2335
sg68
(lp2347
S':'
asbag61
(g82
g63
NtRp2348
(dp2349
g66
(dp2350
sg75
g2335
sg68
(lp2351
g61
(g62
g63
NtRp2352
(dp2353
g66
(dp2354
g74
I5
ssg75
g2348
sg68
(lp2355
g61
(g70
g63
NtRp2356
(dp2357
g66
(dp2358
g74
I4
ssg75
Nsg68
(lp2359
sbasbasbasbag61
(g77
g63
NtRp2360
(dp2361
g66
(dp2362
sg75
g71
sg68
(lp2363
g61
(g82
g63
NtRp2364
(dp2365
g66
(dp2366
g86
g87
ssg75
g2360
sg68
(lp2367
S'url'
p2368
asbag61
(g82
g63
NtRp2369
(dp2370
g66
(dp2371
g93
g94
ssg75
g2360
sg68
(lp2372
S':'
asbag61
(g82
g63
NtRp2373
(dp2374
g66
(dp2375
sg75
g2360
sg68
(lp2376
g61
(g62
g63
NtRp2377
(dp2378
g66
(dp2379
g74
I5
ssg75
g2373
sg68
(lp2380
S'/SeniorProject/default/formtable'
p2381
asbasbasbag61
(g77
g63
NtRp2382
(dp2383
g66
(dp2384
sg75
g71
sg68
(lp2385
g61
(g82
g63
NtRp2386
(dp2387
g66
(dp2388
g86
g87
ssg75
g2382
sg68
(lp2389
S'utcnow'
p2390
asbag61
(g82
g63
NtRp2391
(dp2392
g66
(dp2393
g93
g94
ssg75
g2382
sg68
(lp2394
S':'
asbag61
(g82
g63
NtRp2395
(dp2396
g66
(dp2397
sg75
g2382
sg68
(lp2398
g61
(g62
g63
NtRp2399
(dp2400
g66
(dp2401
g74
I5
ssg75
g2395
sg68
(lp2402
S'datetime.datetime(2012, 10, 22, 23, 16, 56, 321000)'
p2403
asbasbasbag61
(g77
g63
NtRp2404
(dp2405
g66
(dp2406
sg75
g71
sg68
(lp2407
g61
(g82
g63
NtRp2408
(dp2409
g66
(dp2410
g86
g87
ssg75
g2404
sg68
(lp2411
S'uuid'
p2412
asbag61
(g82
g63
NtRp2413
(dp2414
g66
(dp2415
g93
g94
ssg75
g2404
sg68
(lp2416
S':'
asbag61
(g82
g63
NtRp2417
(dp2418
g66
(dp2419
sg75
g2404
sg68
(lp2420
g61
(g62
g63
NtRp2421
(dp2422
g66
(dp2423
g74
I5
ssg75
g2417
sg68
(lp2424
S'SeniorProject/127.0.0.1.2012-10-22.18-16-56.8b9ac977-0f6f-4930-b86f-c6cfa2e9f448'
p2425
asbasbasbag61
(g77
g63
NtRp2426
(dp2427
g66
(dp2428
sg75
g71
sg68
(lp2429
g61
(g82
g63
NtRp2430
(dp2431
g66
(dp2432
g86
g87
ssg75
g2426
sg68
(lp2433
S'vars'
p2434
asbag61
(g82
g63
NtRp2435
(dp2436
g66
(dp2437
g93
g94
ssg75
g2426
sg68
(lp2438
S':'
asbag61
(g82
g63
NtRp2439
(dp2440
g66
(dp2441
sg75
g2426
sg68
(lp2442
g61
(g62
g63
NtRp2443
(dp2444
g66
(dp2445
g74
I5
ssg75
g2439
sg68
(lp2446
g61
(g70
g63
NtRp2447
(dp2448
g66
(dp2449
g74
I4
ssg75
Nsg68
(lp2450
g61
(g77
g63
NtRp2451
(dp2452
g66
(dp2453
sg75
g2447
sg68
(lp2454
g61
(g82
g63
NtRp2455
(dp2456
g66
(dp2457
g86
g87
ssg75
g2451
sg68
(lp2458
g1897
asbag61
(g82
g63
NtRp2459
(dp2460
g66
(dp2461
g93
g94
ssg75
g2451
sg68
(lp2462
S':'
asbag61
(g82
g63
NtRp2463
(dp2464
g66
(dp2465
sg75
g2451
sg68
(lp2466
g61
(g62
g63
NtRp2467
(dp2468
g66
(dp2469
g74
I4
ssg75
g2463
sg68
(lp2470
g1910
asbasbasbag61
(g77
g63
NtRp2471
(dp2472
g66
(dp2473
sg75
g2447
sg68
(lp2474
g61
(g82
g63
NtRp2475
(dp2476
g66
(dp2477
g86
g87
ssg75
g2471
sg68
(lp2478
g1919
asbag61
(g82
g63
NtRp2479
(dp2480
g66
(dp2481
g93
g94
ssg75
g2471
sg68
(lp2482
S':'
asbag61
(g82
g63
NtRp2483
(dp2484
g66
(dp2485
sg75
g2471
sg68
(lp2486
g61
(g62
g63
NtRp2487
(dp2488
g66
(dp2489
g74
I4
ssg75
g2483
sg68
(lp2490
S'1'
asbasbasbasbasbasbasbag61
(g77
g63
NtRp2491
(dp2492
g66
(dp2493
sg75
g71
sg68
(lp2494
g61
(g82
g63
NtRp2495
(dp2496
g66
(dp2497
g86
g87
ssg75
g2491
sg68
(lp2498
S'wsgi'
p2499
asbag61
(g82
g63
NtRp2500
(dp2501
g66
(dp2502
g93
g94
ssg75
g2491
sg68
(lp2503
S':'
asbag61
(g82
g63
NtRp2504
(dp2505
g66
(dp2506
sg75
g2491
sg68
(lp2507
g61
(g62
g63
NtRp2508
(dp2509
g66
(dp2510
g74
I5
ssg75
g2504
sg68
(lp2511
g61
(g70
g63
NtRp2512
(dp2513
g66
(dp2514
g74
I4
ssg75
Nsg68
(lp2515
g61
(g77
g63
NtRp2516
(dp2517
g66
(dp2518
sg75
g2512
sg68
(lp2519
g61
(g82
g63
NtRp2520
(dp2521
g66
(dp2522
g86
g87
ssg75
g2516
sg68
(lp2523
S'environ'
p2524
asbag61
(g82
g63
NtRp2525
(dp2526
g66
(dp2527
g93
g94
ssg75
g2516
sg68
(lp2528
S':'
asbag61
(g82
g63
NtRp2529
(dp2530
g66
(dp2531
sg75
g2516
sg68
(lp2532
g61
(g62
g63
NtRp2533
(dp2534
g66
(dp2535
g74
I4
ssg75
g2529
sg68
(lp2536
g61
(g70
g63
NtRp2537
(dp2538
g66
(dp2539
g74
I3
ssg75
Nsg68
(lp2540
g61
(g77
g63
NtRp2541
(dp2542
g66
(dp2543
sg75
g2537
sg68
(lp2544
g61
(g82
g63
NtRp2545
(dp2546
g66
(dp2547
g86
g87
ssg75
g2541
sg68
(lp2548
S'HTTP_ACCEPT'
p2549
asbag61
(g82
g63
NtRp2550
(dp2551
g66
(dp2552
g93
g94
ssg75
g2541
sg68
(lp2553
S':'
asbag61
(g82
g63
NtRp2554
(dp2555
g66
(dp2556
sg75
g2541
sg68
(lp2557
g61
(g62
g63
NtRp2558
(dp2559
g66
(dp2560
g74
I3
ssg75
g2554
sg68
(lp2561
g1007
asbasbasbag61
(g77
g63
NtRp2562
(dp2563
g66
(dp2564
sg75
g2537
sg68
(lp2565
g61
(g82
g63
NtRp2566
(dp2567
g66
(dp2568
g86
g87
ssg75
g2562
sg68
(lp2569
S'HTTP_ACCEPT_CHARSET'
p2570
asbag61
(g82
g63
NtRp2571
(dp2572
g66
(dp2573
g93
g94
ssg75
g2562
sg68
(lp2574
S':'
asbag61
(g82
g63
NtRp2575
(dp2576
g66
(dp2577
sg75
g2562
sg68
(lp2578
g61
(g62
g63
NtRp2579
(dp2580
g66
(dp2581
g74
I3
ssg75
g2575
sg68
(lp2582
g1029
asbasbasbag61
(g77
g63
NtRp2583
(dp2584
g66
(dp2585
sg75
g2537
sg68
(lp2586
g61
(g82
g63
NtRp2587
(dp2588
g66
(dp2589
g86
g87
ssg75
g2583
sg68
(lp2590
S'HTTP_ACCEPT_ENCODING'
p2591
asbag61
(g82
g63
NtRp2592
(dp2593
g66
(dp2594
g93
g94
ssg75
g2583
sg68
(lp2595
S':'
asbag61
(g82
g63
NtRp2596
(dp2597
g66
(dp2598
sg75
g2583
sg68
(lp2599
g61
(g62
g63
NtRp2600
(dp2601
g66
(dp2602
g74
I3
ssg75
g2596
sg68
(lp2603
g1051
asbasbasbag61
(g77
g63
NtRp2604
(dp2605
g66
(dp2606
sg75
g2537
sg68
(lp2607
g61
(g82
g63
NtRp2608
(dp2609
g66
(dp2610
g86
g87
ssg75
g2604
sg68
(lp2611
S'HTTP_ACCEPT_LANGUAGE'
p2612
asbag61
(g82
g63
NtRp2613
(dp2614
g66
(dp2615
g93
g94
ssg75
g2604
sg68
(lp2616
S':'
asbag61
(g82
g63
NtRp2617
(dp2618
g66
(dp2619
sg75
g2604
sg68
(lp2620
g61
(g62
g63
NtRp2621
(dp2622
g66
(dp2623
g74
I3
ssg75
g2617
sg68
(lp2624
g1073
asbasbasbag61
(g77
g63
NtRp2625
(dp2626
g66
(dp2627
sg75
g2537
sg68
(lp2628
g61
(g82
g63
NtRp2629
(dp2630
g66
(dp2631
g86
g87
ssg75
g2625
sg68
(lp2632
S'HTTP_CACHE_CONTROL'
p2633
asbag61
(g82
g63
NtRp2634
(dp2635
g66
(dp2636
g93
g94
ssg75
g2625
sg68
(lp2637
S':'
asbag61
(g82
g63
NtRp2638
(dp2639
g66
(dp2640
sg75
g2625
sg68
(lp2641
g61
(g62
g63
NtRp2642
(dp2643
g66
(dp2644
g74
I3
ssg75
g2638
sg68
(lp2645
g1095
asbasbasbag61
(g77
g63
NtRp2646
(dp2647
g66
(dp2648
sg75
g2537
sg68
(lp2649
g61
(g82
g63
NtRp2650
(dp2651
g66
(dp2652
g86
g87
ssg75
g2646
sg68
(lp2653
S'HTTP_CONNECTION'
p2654
asbag61
(g82
g63
NtRp2655
(dp2656
g66
(dp2657
g93
g94
ssg75
g2646
sg68
(lp2658
S':'
asbag61
(g82
g63
NtRp2659
(dp2660
g66
(dp2661
sg75
g2646
sg68
(lp2662
g61
(g62
g63
NtRp2663
(dp2664
g66
(dp2665
g74
I3
ssg75
g2659
sg68
(lp2666
g1117
asbasbasbag61
(g77
g63
NtRp2667
(dp2668
g66
(dp2669
sg75
g2537
sg68
(lp2670
g61
(g82
g63
NtRp2671
(dp2672
g66
(dp2673
g86
g87
ssg75
g2667
sg68
(lp2674
S'HTTP_COOKIE'
p2675
asbag61
(g82
g63
NtRp2676
(dp2677
g66
(dp2678
g93
g94
ssg75
g2667
sg68
(lp2679
S':'
asbag61
(g82
g63
NtRp2680
(dp2681
g66
(dp2682
sg75
g2667
sg68
(lp2683
g61
(g62
g63
NtRp2684
(dp2685
g66
(dp2686
g74
I3
ssg75
g2680
sg68
(lp2687
g1139
asbasbasbag61
(g77
g63
NtRp2688
(dp2689
g66
(dp2690
sg75
g2537
sg68
(lp2691
g61
(g82
g63
NtRp2692
(dp2693
g66
(dp2694
g86
g87
ssg75
g2688
sg68
(lp2695
S'HTTP_HOST'
p2696
asbag61
(g82
g63
NtRp2697
(dp2698
g66
(dp2699
g93
g94
ssg75
g2688
sg68
(lp2700
S':'
asbag61
(g82
g63
NtRp2701
(dp2702
g66
(dp2703
sg75
g2688
sg68
(lp2704
g61
(g62
g63
NtRp2705
(dp2706
g66
(dp2707
g74
I3
ssg75
g2701
sg68
(lp2708
g1161
asbasbasbag61
(g77
g63
NtRp2709
(dp2710
g66
(dp2711
sg75
g2537
sg68
(lp2712
g61
(g82
g63
NtRp2713
(dp2714
g66
(dp2715
g86
g87
ssg75
g2709
sg68
(lp2716
S'HTTP_REFERER'
p2717
asbag61
(g82
g63
NtRp2718
(dp2719
g66
(dp2720
g93
g94
ssg75
g2709
sg68
(lp2721
S':'
asbag61
(g82
g63
NtRp2722
(dp2723
g66
(dp2724
sg75
g2709
sg68
(lp2725
g61
(g62
g63
NtRp2726
(dp2727
g66
(dp2728
g74
I3
ssg75
g2722
sg68
(lp2729
g1183
asbasbasbag61
(g77
g63
NtRp2730
(dp2731
g66
(dp2732
sg75
g2537
sg68
(lp2733
g61
(g82
g63
NtRp2734
(dp2735
g66
(dp2736
g86
g87
ssg75
g2730
sg68
(lp2737
S'HTTP_USER_AGENT'
p2738
asbag61
(g82
g63
NtRp2739
(dp2740
g66
(dp2741
g93
g94
ssg75
g2730
sg68
(lp2742
S':'
asbag61
(g82
g63
NtRp2743
(dp2744
g66
(dp2745
sg75
g2730
sg68
(lp2746
g61
(g62
g63
NtRp2747
(dp2748
g66
(dp2749
g74
I3
ssg75
g2743
sg68
(lp2750
g1205
asbasbasbag61
(g77
g63
NtRp2751
(dp2752
g66
(dp2753
sg75
g2537
sg68
(lp2754
g61
(g82
g63
NtRp2755
(dp2756
g66
(dp2757
g86
g87
ssg75
g2751
sg68
(lp2758
S'PATH_INFO'
p2759
asbag61
(g82
g63
NtRp2760
(dp2761
g66
(dp2762
g93
g94
ssg75
g2751
sg68
(lp2763
S':'
asbag61
(g82
g63
NtRp2764
(dp2765
g66
(dp2766
sg75
g2751
sg68
(lp2767
g61
(g62
g63
NtRp2768
(dp2769
g66
(dp2770
g74
I3
ssg75
g2764
sg68
(lp2771
g1269
asbasbasbag61
(g77
g63
NtRp2772
(dp2773
g66
(dp2774
sg75
g2537
sg68
(lp2775
g61
(g82
g63
NtRp2776
(dp2777
g66
(dp2778
g86
g87
ssg75
g2772
sg68
(lp2779
S'QUERY_STRING'
p2780
asbag61
(g82
g63
NtRp2781
(dp2782
g66
(dp2783
g93
g94
ssg75
g2772
sg68
(lp2784
S':'
asbag61
(g82
g63
NtRp2785
(dp2786
g66
(dp2787
sg75
g2772
sg68
(lp2788
g61
(g62
g63
NtRp2789
(dp2790
g66
(dp2791
g74
I3
ssg75
g2785
sg68
(lp2792
g1291
asbasbasbag61
(g77
g63
NtRp2793
(dp2794
g66
(dp2795
sg75
g2537
sg68
(lp2796
g61
(g82
g63
NtRp2797
(dp2798
g66
(dp2799
g86
g87
ssg75
g2793
sg68
(lp2800
S'REMOTE_ADDR'
p2801
asbag61
(g82
g63
NtRp2802
(dp2803
g66
(dp2804
g93
g94
ssg75
g2793
sg68
(lp2805
S':'
asbag61
(g82
g63
NtRp2806
(dp2807
g66
(dp2808
sg75
g2793
sg68
(lp2809
g61
(g62
g63
NtRp2810
(dp2811
g66
(dp2812
g74
I3
ssg75
g2806
sg68
(lp2813
g194
asbasbasbag61
(g77
g63
NtRp2814
(dp2815
g66
(dp2816
sg75
g2537
sg68
(lp2817
g61
(g82
g63
NtRp2818
(dp2819
g66
(dp2820
g86
g87
ssg75
g2814
sg68
(lp2821
S'REMOTE_PORT'
p2822
asbag61
(g82
g63
NtRp2823
(dp2824
g66
(dp2825
g93
g94
ssg75
g2814
sg68
(lp2826
S':'
asbag61
(g82
g63
NtRp2827
(dp2828
g66
(dp2829
sg75
g2814
sg68
(lp2830
g61
(g62
g63
NtRp2831
(dp2832
g66
(dp2833
g74
I3
ssg75
g2827
sg68
(lp2834
g1334
asbasbasbag61
(g77
g63
NtRp2835
(dp2836
g66
(dp2837
sg75
g2537
sg68
(lp2838
g61
(g82
g63
NtRp2839
(dp2840
g66
(dp2841
g86
g87
ssg75
g2835
sg68
(lp2842
S'REQUEST_METHOD'
p2843
asbag61
(g82
g63
NtRp2844
(dp2845
g66
(dp2846
g93
g94
ssg75
g2835
sg68
(lp2847
S':'
asbag61
(g82
g63
NtRp2848
(dp2849
g66
(dp2850
sg75
g2835
sg68
(lp2851
g61
(g62
g63
NtRp2852
(dp2853
g66
(dp2854
g74
I3
ssg75
g2848
sg68
(lp2855
g1356
asbasbasbag61
(g77
g63
NtRp2856
(dp2857
g66
(dp2858
sg75
g2537
sg68
(lp2859
g61
(g82
g63
NtRp2860
(dp2861
g66
(dp2862
g86
g87
ssg75
g2856
sg68
(lp2863
S'SCRIPT_NAME'
p2864
asbag61
(g82
g63
NtRp2865
(dp2866
g66
(dp2867
g93
g94
ssg75
g2856
sg68
(lp2868
S':'
asbag61
(g82
g63
NtRp2869
(dp2870
g66
(dp2871
sg75
g2856
sg68
(lp2872
g61
(g62
g63
NtRp2873
(dp2874
g66
(dp2875
g74
I3
ssg75
g2869
sg68
(lp2876
S''
asbasbasbag61
(g77
g63
NtRp2877
(dp2878
g66
(dp2879
sg75
g2537
sg68
(lp2880
g61
(g82
g63
NtRp2881
(dp2882
g66
(dp2883
g86
g87
ssg75
g2877
sg68
(lp2884
S'SERVER_NAME'
p2885
asbag61
(g82
g63
NtRp2886
(dp2887
g66
(dp2888
g93
g94
ssg75
g2877
sg68
(lp2889
S':'
asbag61
(g82
g63
NtRp2890
(dp2891
g66
(dp2892
sg75
g2877
sg68
(lp2893
g61
(g62
g63
NtRp2894
(dp2895
g66
(dp2896
g74
I3
ssg75
g2890
sg68
(lp2897
g1399
asbasbasbag61
(g77
g63
NtRp2898
(dp2899
g66
(dp2900
sg75
g2537
sg68
(lp2901
g61
(g82
g63
NtRp2902
(dp2903
g66
(dp2904
g86
g87
ssg75
g2898
sg68
(lp2905
S'SERVER_PORT'
p2906
asbag61
(g82
g63
NtRp2907
(dp2908
g66
(dp2909
g93
g94
ssg75
g2898
sg68
(lp2910
S':'
asbag61
(g82
g63
NtRp2911
(dp2912
g66
(dp2913
sg75
g2898
sg68
(lp2914
g61
(g62
g63
NtRp2915
(dp2916
g66
(dp2917
g74
I3
ssg75
g2911
sg68
(lp2918
g1421
asbasbasbag61
(g77
g63
NtRp2919
(dp2920
g66
(dp2921
sg75
g2537
sg68
(lp2922
g61
(g82
g63
NtRp2923
(dp2924
g66
(dp2925
g86
g87
ssg75
g2919
sg68
(lp2926
S'SERVER_PROTOCOL'
p2927
asbag61
(g82
g63
NtRp2928
(dp2929
g66
(dp2930
g93
g94
ssg75
g2919
sg68
(lp2931
S':'
asbag61
(g82
g63
NtRp2932
(dp2933
g66
(dp2934
sg75
g2919
sg68
(lp2935
g61
(g62
g63
NtRp2936
(dp2937
g66
(dp2938
g74
I3
ssg75
g2932
sg68
(lp2939
g1443
asbasbasbag61
(g77
g63
NtRp2940
(dp2941
g66
(dp2942
sg75
g2537
sg68
(lp2943
g61
(g82
g63
NtRp2944
(dp2945
g66
(dp2946
g86
g87
ssg75
g2940
sg68
(lp2947
S'SERVER_SOFTWARE'
p2948
asbag61
(g82
g63
NtRp2949
(dp2950
g66
(dp2951
g93
g94
ssg75
g2940
sg68
(lp2952
S':'
asbag61
(g82
g63
NtRp2953
(dp2954
g66
(dp2955
sg75
g2940
sg68
(lp2956
g61
(g62
g63
NtRp2957
(dp2958
g66
(dp2959
g74
I3
ssg75
g2953
sg68
(lp2960
g1465
asbasbasbag61
(g77
g63
NtRp2961
(dp2962
g66
(dp2963
sg75
g2537
sg68
(lp2964
g61
(g82
g63
NtRp2965
(dp2966
g66
(dp2967
g86
g87
ssg75
g2961
sg68
(lp2968
S'wsgi.errors'
p2969
asbag61
(g82
g63
NtRp2970
(dp2971
g66
(dp2972
g93
g94
ssg75
g2961
sg68
(lp2973
S':'
asbag61
(g82
g63
NtRp2974
(dp2975
g66
(dp2976
sg75
g2961
sg68
(lp2977
g61
(g62
g63
NtRp2978
(dp2979
g66
(dp2980
g74
I3
ssg75
g2974
sg68
(lp2981
S"<open file '<stderr>', mode 'w' at 0x019B50D0>"
p2982
asbasbasbag61
(g77
g63
NtRp2983
(dp2984
g66
(dp2985
sg75
g2537
sg68
(lp2986
g61
(g82
g63
NtRp2987
(dp2988
g66
(dp2989
g86
g87
ssg75
g2983
sg68
(lp2990
S'wsgi.file_wrapper'
p2991
asbag61
(g82
g63
NtRp2992
(dp2993
g66
(dp2994
g93
g94
ssg75
g2983
sg68
(lp2995
S':'
asbag61
(g82
g63
NtRp2996
(dp2997
g66
(dp2998
sg75
g2983
sg68
(lp2999
g61
(g62
g63
NtRp3000
(dp3001
g66
(dp3002
g74
I3
ssg75
g2996
sg68
(lp3003
S'<class wsgiref.util.FileWrapper at 0x03325AE8>'
p3004
asbasbasbag61
(g77
g63
NtRp3005
(dp3006
g66
(dp3007
sg75
g2537
sg68
(lp3008
g61
(g82
g63
NtRp3009
(dp3010
g66
(dp3011
g86
g87
ssg75
g3005
sg68
(lp3012
S'wsgi.input'
p3013
asbag61
(g82
g63
NtRp3014
(dp3015
g66
(dp3016
g93
g94
ssg75
g3005
sg68
(lp3017
S':'
asbag61
(g82
g63
NtRp3018
(dp3019
g66
(dp3020
sg75
g3005
sg68
(lp3021
g61
(g62
g63
NtRp3022
(dp3023
g66
(dp3024
g74
I3
ssg75
g3018
sg68
(lp3025
S'<cStringIO.StringO object at 0x03D701C0>'
p3026
asbasbasbag61
(g77
g63
NtRp3027
(dp3028
g66
(dp3029
sg75
g2537
sg68
(lp3030
g61
(g82
g63
NtRp3031
(dp3032
g66
(dp3033
g86
g87
ssg75
g3027
sg68
(lp3034
S'wsgi.multiprocess'
p3035
asbag61
(g82
g63
NtRp3036
(dp3037
g66
(dp3038
g93
g94
ssg75
g3027
sg68
(lp3039
S':'
asbag61
(g82
g63
NtRp3040
(dp3041
g66
(dp3042
sg75
g3027
sg68
(lp3043
g61
(g62
g63
NtRp3044
(dp3045
g66
(dp3046
g74
I3
ssg75
g3040
sg68
(lp3047
g104
asbasbasbag61
(g77
g63
NtRp3048
(dp3049
g66
(dp3050
sg75
g2537
sg68
(lp3051
g61
(g82
g63
NtRp3052
(dp3053
g66
(dp3054
g86
g87
ssg75
g3048
sg68
(lp3055
S'wsgi.multithread'
p3056
asbag61
(g82
g63
NtRp3057
(dp3058
g66
(dp3059
g93
g94
ssg75
g3048
sg68
(lp3060
S':'
asbag61
(g82
g63
NtRp3061
(dp3062
g66
(dp3063
sg75
g3048
sg68
(lp3064
g61
(g62
g63
NtRp3065
(dp3066
g66
(dp3067
g74
I3
ssg75
g3061
sg68
(lp3068
g1705
asbasbasbag61
(g77
g63
NtRp3069
(dp3070
g66
(dp3071
sg75
g2537
sg68
(lp3072
g61
(g82
g63
NtRp3073
(dp3074
g66
(dp3075
g86
g87
ssg75
g3069
sg68
(lp3076
S'wsgi.run_once'
p3077
asbag61
(g82
g63
NtRp3078
(dp3079
g66
(dp3080
g93
g94
ssg75
g3069
sg68
(lp3081
S':'
asbag61
(g82
g63
NtRp3082
(dp3083
g66
(dp3084
sg75
g3069
sg68
(lp3085
g61
(g62
g63
NtRp3086
(dp3087
g66
(dp3088
g74
I3
ssg75
g3082
sg68
(lp3089
g104
asbasbasbag61
(g77
g63
NtRp3090
(dp3091
g66
(dp3092
sg75
g2537
sg68
(lp3093
g61
(g82
g63
NtRp3094
(dp3095
g66
(dp3096
g86
g87
ssg75
g3090
sg68
(lp3097
S'wsgi.url_scheme'
p3098
asbag61
(g82
g63
NtRp3099
(dp3100
g66
(dp3101
g93
g94
ssg75
g3090
sg68
(lp3102
S':'
asbag61
(g82
g63
NtRp3103
(dp3104
g66
(dp3105
sg75
g3090
sg68
(lp3106
g61
(g62
g63
NtRp3107
(dp3108
g66
(dp3109
g74
I3
ssg75
g3103
sg68
(lp3110
g1748
asbasbasbag61
(g77
g63
NtRp3111
(dp3112
g66
(dp3113
sg75
g2537
sg68
(lp3114
g61
(g82
g63
NtRp3115
(dp3116
g66
(dp3117
g86
g87
ssg75
g3111
sg68
(lp3118
S'wsgi.version'
p3119
asbag61
(g82
g63
NtRp3120
(dp3121
g66
(dp3122
g93
g94
ssg75
g3111
sg68
(lp3123
S':'
asbag61
(g82
g63
NtRp3124
(dp3125
g66
(dp3126
sg75
g3111
sg68
(lp3127
g61
(g62
g63
NtRp3128
(dp3129
g66
(dp3130
g74
I3
ssg75
g3124
sg68
(lp3131
S'1'
asbasbasbasbasbasbasbasbasbasbasbasbasbsS'frames'
p3132
(lp3133
(dp3134
S'file'
p3135
S'C:\\Users\\Alysse\\Documents\\GitHub\\finholt-senior-project\\web2py\\gluon\\restricted.py'
p3136
sS'dump'
p3137
(dp3138
S'environment'
p3139
S"{'A': <class 'gluon.html.A'>, 'Auth': <class 'gluon.tools.Auth'>, 'B': <class 'gluon.html.B'>, 'BEAUTIFY': <class 'gluon.html.BEAUTIFY'>, 'BODY': <class 'gluon.html.BODY'>, 'BR': <class 'gluon.html.BR'>, 'BUTTON': <class 'gluon.html.BUTTON'>, 'CAT': <class 'gluon.html.CAT'>, 'CENTER': <class 'gluon.html.CENTER'>, 'CLEANUP': <class 'gluon.validators.CLEANUP'>, ...}"
p3140
sS'ccode'
p3141
S'<code object <module> at 03D78C38, file "C:\\User...pplications\\SeniorProject\\models\\db.py", line 12>'
p3142
ssS'lnum'
p3143
I205
sS'lines'
p3144
(dp3145
I200
S'    try:'
p3146
sI201
S'        if type(code) == types.CodeType:'
p3147
sI202
S'            ccode = code'
p3148
sI203
S'        else:'
p3149
sI204
S'            ccode = compile2(code,layer)'
p3150
sI205
S'        exec ccode in environment'
p3151
sI206
S'    except HTTP:'
p3152
sI207
S'        raise'
p3153
sI208
S'    except RestrictedError:'
p3154
sI209
S'        # do not encapsulate (obfuscate) the original RestrictedError'
p3155
ssS'call'
p3156
S'(code="# -*- coding: utf-8 -*-\\n\\n#######################...ield(\'meetDate\',\'date\'), Field(\'file\',\'upload\'))\\n", environment={\'A\': <class \'gluon.html.A\'>, \'Auth\': <class \'gluon.tools.Auth\'>, \'B\': <class \'gluon.html.B\'>, \'BEAUTIFY\': <class \'gluon.html.BEAUTIFY\'>, \'BODY\': <class \'gluon.html.BODY\'>, \'BR\': <class \'gluon.html.BR\'>, \'BUTTON\': <class \'gluon.html.BUTTON\'>, \'CAT\': <class \'gluon.html.CAT\'>, \'CENTER\': <class \'gluon.html.CENTER\'>, \'CLEANUP\': <class \'gluon.validators.CLEANUP\'>, ...}, layer=r\'C:\\Users\\Alysse\\Documents\\GitHub\\finholt-senior-...ct\\web2py\\applications\\SeniorProject\\models\\db.py\')'
p3157
sS'func'
p3158
S'restricted'
p3159
sa(dp3160
g3135
S'C:\\Users\\Alysse\\Documents\\GitHub\\finholt-senior-project\\web2py\\applications\\SeniorProject\\models\\db.py'
p3161
sg3137
(dp3162
S'Field'
p3163
S"<class 'gluon.dal.Field'>"
p3164
sS'db.define_table'
p3165
S"<bound method DAL.define_table of <DAL {'auth_ev...key': <gluon.dal.Field object at 0x03DB32B0>}>}>>"
p3166
sS'db'
p3167
S"<DAL {'auth_event': <Table {'origin': <gluon.dal..._key': <gluon.dal.Field object at 0x03DB32B0>}>}>"
p3168
ssg3143
I90
sg3144
(dp3169
I85
S''
sI86
S'db.define_table("Submittals", Field(\'statusFlag\',\'string\'), Field(\'assignedTo\',\'string\'), Field(\'submittal\',\'upload\'))'
p3170
sI87
S''
sI88
S'db.define_table("RFI", Field(\'rfiNum\',\'string\'), Field(\'requestBy\',\'string\'), Field(\'dateSent\',\'date\'), Field(\'reqRefTo\',\'string\'), Field(\'dateRec\',\'date\'), Field(\'drawingNum\',\'integer\'), Field(\'detailNum\',\'integer\'), Field(\'specSection\',\'integer\'), Field(\'sheetName\',\'string\'), Field(\'grids\',\'string\'), Field(\'sectionPage\',\'integer\'), Field(\'description\',\'text\'), Field(\'suggestion\',\'text\'), Field(\'reply\',\'text\'), Field(\'responseBy\',\'string\'), Field(\'responseDate\',\'date\'), Field(\'autoGenBlurb\',\'text\'), Field(\'statusFlag\',\'string\'))'
p3171
sI89
S''
sI90
S'db.define_table("ProposalRequest", Field(\'reqNum\',\'string\'), Field(\'amendNum\',\'string\'), Field(\'projectNum\',\'string\'), Field(\'subject\',\'text\'), Field(\'propDate\',\'date\'), Field(\'to\',\'string\'), Field(\'cc\',\'list:string\'), Field(\'staticBlurb\',\'text\'), Field(\'description\',\'text\'))'
p3172
sI91
S''
sI92
S'db.define_table("Proposal", Field(\'reqNum\',\'integer\'), Field(\'propDate\',\'date\'), Field(\'file\',\'upload\'))'
p3173
sI93
S''
sI94
S'db.define_table("MeetingMinutes", Field(\'meetDate\',\'date\'), Field(\'file\',\'upload\'))'
p3174
ssg3156
S'()'
p3175
sg3158
S'<module>'
p3176
sa(dp3177
g3135
S'C:\\Users\\Alysse\\Documents\\GitHub\\finholt-senior-project\\web2py\\gluon\\dal.py'
p3178
sg3137
(dp3179
S'polymodel'
p3180
S'None'
p3181
ssg3143
I6320
sg3144
(dp3182
I6315
S"        if migrate or self._adapter.dbengine=='google:datastore':"
p3183
sI6316
S'            try:'
p3184
sI6317
S'                sql_locker.acquire()'
p3185
sI6318
S'                self._adapter.create_table(t,migrate=migrate,'
p3186
sI6319
S'                                           fake_migrate=fake_migrate,'
p3187
sI6320
S'                                           polymodel=polymodel)'
p3188
sI6321
S'            finally:'
p3189
sI6322
S'                sql_locker.release()'
p3190
sI6323
S'        else:'
p3191
sI6324
S'            t._dbt = None'
p3192
ssg3156
S"(self=<DAL {'auth_event': <Table {'origin': <gluon.dal..._key': <gluon.dal.Field object at 0x03DB32B0>}>}>, tablename='ProposalRequest', *fields=(<gluon.dal.Field object>, <gluon.dal.Field object>, <gluon.dal.Field object>, <gluon.dal.Field object>, <gluon.dal.Field object>, <gluon.dal.Field object>, <gluon.dal.Field object>, <gluon.dal.Field object>, <gluon.dal.Field object>), **args={})"
p3193
sg3158
S'define_table'
p3194
sa(dp3195
g3135
S'C:\\Users\\Alysse\\Documents\\GitHub\\finholt-senior-project\\web2py\\gluon\\dal.py'
p3196
sg3137
(dp3197
S'query'
p3198
S"'CREATE TABLE ProposalRequest(\\n    id INTEGER PRI...XT,\\n    staticBlurb TEXT,\\n    description TEXT\\n);'"
p3199
sS'self'
p3200
S'<gluon.dal.SQLiteAdapter object>'
p3201
sS'table'
p3202
S"<Table {'cc': <gluon.dal.Field object at 0x037AE...cBlurb': <gluon.dal.Field object at 0x037AE270>}>"
p3203
sS'self.create_sequence_and_triggers'
p3204
S'<bound method SQLiteAdapter.create_sequence_and_triggers of <gluon.dal.SQLiteAdapter object>>'
p3205
ssg3143
I719
sg3144
(dp3206
I714
S'            if table._dbt:'
p3207
sI715
S"                logfile.write('timestamp: %s\\n'"
p3208
sI716
S'                               % datetime.datetime.today().isoformat())'
p3209
sI717
S"                logfile.write(query + '\\n')"
p3210
sI718
S'            if not fake_migrate:'
p3211
sI719
S'                self.create_sequence_and_triggers(query,table)'
p3212
sI720
S'                table._db.commit()'
p3213
sI721
S'            if table._dbt:'
p3214
sI722
S"                tfile = self.file_open(table._dbt, 'w')"
p3215
sI723
S'                cPickle.dump(sql_fields, tfile)'
p3216
ssg3156
S"(self=<gluon.dal.SQLiteAdapter object>, table=<Table {'cc': <gluon.dal.Field object at 0x037AE...cBlurb': <gluon.dal.Field object at 0x037AE270>}>, migrate=True, fake_migrate=False, polymodel=None)"
p3217
sg3158
S'create_table'
p3218
sa(dp3219
g3135
S'C:\\Users\\Alysse\\Documents\\GitHub\\finholt-senior-project\\web2py\\gluon\\dal.py'
p3220
sg3137
(dp3221
S'query'
p3222
S"'CREATE TABLE ProposalRequest(\\n    id INTEGER PRI...XT,\\n    staticBlurb TEXT,\\n    description TEXT\\n);'"
p3223
sS'self'
p3224
S'<gluon.dal.SQLiteAdapter object>'
p3225
sS'self.execute'
p3226
S'<bound method SQLiteAdapter.execute of <gluon.dal.SQLiteAdapter object>>'
p3227
ssg3143
I1381
sg3144
(dp3228
I1376
S''
sI1377
S'    def constraint_name(self, table, fieldname):'
p3229
sI1378
S"        return '%s_%s__constraint' % (table,fieldname)"
p3230
sI1379
S''
sI1380
S'    def create_sequence_and_triggers(self, query, table, **args):'
p3231
sI1381
S'        self.execute(query)'
p3232
sI1382
S''
sI1383
S'    def log_execute(self, *a, **b):'
p3233
sI1384
S'        self.db._lastsql = a[0]'
p3234
sI1385
S'        t0 = time.time()'
p3235
ssg3156
S"(self=<gluon.dal.SQLiteAdapter object>, query='CREATE TABLE ProposalRequest(\\n    id INTEGER PRI...XT,\\n    staticBlurb TEXT,\\n    description TEXT\\n);', table=<Table {'cc': <gluon.dal.Field object at 0x037AE...cBlurb': <gluon.dal.Field object at 0x037AE270>}>, **args={})"
p3236
sg3158
S'create_sequence_and_triggers'
p3237
sa(dp3238
g3135
S'C:\\Users\\Alysse\\Documents\\GitHub\\finholt-senior-project\\web2py\\gluon\\dal.py'
p3239
sg3137
(dp3240
S'a'
S"('CREATE TABLE ProposalRequest(\\n    id INTEGER PRI...XT,\\n    staticBlurb TEXT,\\n    description TEXT\\n);',)"
p3241
sS'self'
p3242
S'<gluon.dal.SQLiteAdapter object>'
p3243
sS'b'
g21
sS'self.log_execute'
p3244
S'<bound method SQLiteAdapter.log_execute of <gluon.dal.SQLiteAdapter object>>'
p3245
ssg3143
I1392
sg3144
(dp3246
I1387
S'        self.db._timings.append((a[0],time.time()-t0))'
p3247
sI1388
S'        del self.db._timings[:-TIMINGSSIZE]'
p3248
sI1389
S'        return ret'
p3249
sI1390
S''
sI1391
S'    def execute(self, *a, **b):'
p3250
sI1392
S'        return self.log_execute(*a, **b)'
p3251
sI1393
S''
sI1394
S'    def represent(self, obj, fieldtype):'
p3252
sI1395
S'        if isinstance(obj, CALLABLETYPES):'
p3253
sI1396
S'            obj = obj()'
p3254
ssg3156
S"(self=<gluon.dal.SQLiteAdapter object>, *a=('CREATE TABLE ProposalRequest(\\n    id INTEGER PRI...XT,\\n    staticBlurb TEXT,\\n    description TEXT\\n);',), **b={})"
p3255
sg3158
S'execute'
p3256
sa(dp3257
g3135
S'C:\\Users\\Alysse\\Documents\\GitHub\\finholt-senior-project\\web2py\\gluon\\dal.py'
p3258
sg3137
(dp3259
S'a'
S"('CREATE TABLE ProposalRequest(\\n    id INTEGER PRI...XT,\\n    staticBlurb TEXT,\\n    description TEXT\\n);',)"
p3260
sS'b'
g21
sS'self'
p3261
S'<gluon.dal.SQLiteAdapter object>'
p3262
sS'ret'
p3263
S'undefined'
p3264
sS'self.cursor'
p3265
S'<sqlite3.Cursor object>'
p3266
sS'self.cursor.execute'
p3267
S'<built-in method execute of sqlite3.Cursor object>'
p3268
ssg3143
I1386
sg3144
(dp3269
I1381
S'        self.execute(query)'
p3270
sI1382
S''
sI1383
S'    def log_execute(self, *a, **b):'
p3271
sI1384
S'        self.db._lastsql = a[0]'
p3272
sI1385
S'        t0 = time.time()'
p3273
sI1386
S'        ret = self.cursor.execute(*a, **b)'
p3274
sI1387
S'        self.db._timings.append((a[0],time.time()-t0))'
p3275
sI1388
S'        del self.db._timings[:-TIMINGSSIZE]'
p3276
sI1389
S'        return ret'
p3277
sI1390
S''
ssg3156
S"(self=<gluon.dal.SQLiteAdapter object>, *a=('CREATE TABLE ProposalRequest(\\n    id INTEGER PRI...XT,\\n    staticBlurb TEXT,\\n    description TEXT\\n);',), **b={})"
p3278
sg3158
S'log_execute'
p3279
sasS'pyver'
p3280
S'Python 2.7.3: C:\\Python27\\python.exe'
p3281
sS'session'
p3282
g61
(g62
g63
NtRp3283
(dp3284
g66
(dp3285
sg68
(lp3286
g61
(g70
g63
NtRp3287
(dp3288
g66
(dp3289
g74
I5
ssg75
Nsg68
(lp3290
g61
(g77
g63
NtRp3291
(dp3292
g66
(dp3293
sg75
g3287
sg68
(lp3294
g61
(g82
g63
NtRp3295
(dp3296
g66
(dp3297
g86
g87
ssg75
g3291
sg68
(lp3298
S'last_query'
p3299
asbag61
(g82
g63
NtRp3300
(dp3301
g66
(dp3302
g93
g94
ssg75
g3291
sg68
(lp3303
S':'
asbag61
(g82
g63
NtRp3304
(dp3305
g66
(dp3306
sg75
g3291
sg68
(lp3307
g61
(g62
g63
NtRp3308
(dp3309
g66
(dp3310
g74
I5
ssg75
g3304
sg68
(lp3311
S'db.CCD.id>0'
p3312
asbasbasbasbasbsS'etype'
p3313
S"<class 'sqlite3.OperationalError'>"
p3314
sS'date'
p3315
S'Mon Oct 22 18:16:56 2012'
p3316
sS'response'
p3317
g61
(g62
g63
NtRp3318
(dp3319
g66
(dp3320
sg68
(lp3321
g61
(g70
g63
NtRp3322
(dp3323
g66
(dp3324
g74
I5
ssg75
Nsg68
(lp3325
g61
(g77
g63
NtRp3326
(dp3327
g66
(dp3328
sg75
g3322
sg68
(lp3329
g61
(g82
g63
NtRp3330
(dp3331
g66
(dp3332
g86
g87
ssg75
g3326
sg68
(lp3333
g159
asbag61
(g82
g63
NtRp3334
(dp3335
g66
(dp3336
g93
g94
ssg75
g3326
sg68
(lp3337
S':'
asbag61
(g82
g63
NtRp3338
(dp3339
g66
(dp3340
sg75
g3326
sg68
(lp3341
g61
(g62
g63
NtRp3342
(dp3343
g66
(dp3344
g74
I5
ssg75
g3338
sg68
(lp3345
S'<cStringIO.StringO object at 0x037AE7A0>'
p3346
asbasbasbag61
(g77
g63
NtRp3347
(dp3348
g66
(dp3349
sg75
g3322
sg68
(lp3350
g61
(g82
g63
NtRp3351
(dp3352
g66
(dp3353
g86
g87
ssg75
g3347
sg68
(lp3354
g225
asbag61
(g82
g63
NtRp3355
(dp3356
g66
(dp3357
g93
g94
ssg75
g3347
sg68
(lp3358
S':'
asbag61
(g82
g63
NtRp3359
(dp3360
g66
(dp3361
sg75
g3347
sg68
(lp3362
g61
(g62
g63
NtRp3363
(dp3364
g66
(dp3365
g74
I5
ssg75
g3359
sg68
(lp3366
g61
(g70
g63
NtRp3367
(dp3368
g66
(dp3369
g74
I4
ssg75
Nsg68
(lp3370
g61
(g77
g63
NtRp3371
(dp3372
g66
(dp3373
sg75
g3367
sg68
(lp3374
g61
(g82
g63
NtRp3375
(dp3376
g66
(dp3377
g86
g87
ssg75
g3371
sg68
(lp3378
S'session_id_seniorproject'
p3379
asbag61
(g82
g63
NtRp3380
(dp3381
g66
(dp3382
g93
g94
ssg75
g3371
sg68
(lp3383
S':'
asbag61
(g82
g63
NtRp3384
(dp3385
g66
(dp3386
sg75
g3371
sg68
(lp3387
g61
(g62
g63
NtRp3388
(dp3389
g66
(dp3390
g74
I4
ssg75
g3384
sg68
(lp3391
g61
(g70
g63
NtRp3392
(dp3393
g66
(dp3394
g74
I3
ssg75
Nsg68
(lp3395
g61
(g77
g63
NtRp3396
(dp3397
g66
(dp3398
sg75
g3392
sg68
(lp3399
g61
(g82
g63
NtRp3400
(dp3401
g66
(dp3402
g86
g87
ssg75
g3396
sg68
(lp3403
g275
asbag61
(g82
g63
NtRp3404
(dp3405
g66
(dp3406
g93
g94
ssg75
g3396
sg68
(lp3407
S':'
asbag61
(g82
g63
NtRp3408
(dp3409
g66
(dp3410
sg75
g3396
sg68
(lp3411
g61
(g62
g63
NtRp3412
(dp3413
g66
(dp3414
g74
I3
ssg75
g3408
sg68
(lp3415
S''
asbasbasbag61
(g77
g63
NtRp3416
(dp3417
g66
(dp3418
sg75
g3392
sg68
(lp3419
g61
(g82
g63
NtRp3420
(dp3421
g66
(dp3422
g86
g87
ssg75
g3416
sg68
(lp3423
g296
asbag61
(g82
g63
NtRp3424
(dp3425
g66
(dp3426
g93
g94
ssg75
g3416
sg68
(lp3427
S':'
asbag61
(g82
g63
NtRp3428
(dp3429
g66
(dp3430
sg75
g3416
sg68
(lp3431
g61
(g62
g63
NtRp3432
(dp3433
g66
(dp3434
g74
I3
ssg75
g3428
sg68
(lp3435
S''
asbasbasbag61
(g77
g63
NtRp3436
(dp3437
g66
(dp3438
sg75
g3392
sg68
(lp3439
g61
(g82
g63
NtRp3440
(dp3441
g66
(dp3442
g86
g87
ssg75
g3436
sg68
(lp3443
g317
asbag61
(g82
g63
NtRp3444
(dp3445
g66
(dp3446
g93
g94
ssg75
g3436
sg68
(lp3447
S':'
asbag61
(g82
g63
NtRp3448
(dp3449
g66
(dp3450
sg75
g3436
sg68
(lp3451
g61
(g62
g63
NtRp3452
(dp3453
g66
(dp3454
g74
I3
ssg75
g3448
sg68
(lp3455
S''
asbasbasbag61
(g77
g63
NtRp3456
(dp3457
g66
(dp3458
sg75
g3392
sg68
(lp3459
g61
(g82
g63
NtRp3460
(dp3461
g66
(dp3462
g86
g87
ssg75
g3456
sg68
(lp3463
g338
asbag61
(g82
g63
NtRp3464
(dp3465
g66
(dp3466
g93
g94
ssg75
g3456
sg68
(lp3467
S':'
asbag61
(g82
g63
NtRp3468
(dp3469
g66
(dp3470
sg75
g3456
sg68
(lp3471
g61
(g62
g63
NtRp3472
(dp3473
g66
(dp3474
g74
I3
ssg75
g3468
sg68
(lp3475
S''
asbasbasbag61
(g77
g63
NtRp3476
(dp3477
g66
(dp3478
sg75
g3392
sg68
(lp3479
g61
(g82
g63
NtRp3480
(dp3481
g66
(dp3482
g86
g87
ssg75
g3476
sg68
(lp3483
g359
asbag61
(g82
g63
NtRp3484
(dp3485
g66
(dp3486
g93
g94
ssg75
g3476
sg68
(lp3487
S':'
asbag61
(g82
g63
NtRp3488
(dp3489
g66
(dp3490
sg75
g3476
sg68
(lp3491
g61
(g62
g63
NtRp3492
(dp3493
g66
(dp3494
g74
I3
ssg75
g3488
sg68
(lp3495
S''
asbasbasbag61
(g77
g63
NtRp3496
(dp3497
g66
(dp3498
sg75
g3392
sg68
(lp3499
g61
(g82
g63
NtRp3500
(dp3501
g66
(dp3502
g86
g87
ssg75
g3496
sg68
(lp3503
g380
asbag61
(g82
g63
NtRp3504
(dp3505
g66
(dp3506
g93
g94
ssg75
g3496
sg68
(lp3507
S':'
asbag61
(g82
g63
NtRp3508
(dp3509
g66
(dp3510
sg75
g3496
sg68
(lp3511
g61
(g62
g63
NtRp3512
(dp3513
g66
(dp3514
g74
I3
ssg75
g3508
sg68
(lp3515
S'/'
asbasbasbag61
(g77
g63
NtRp3516
(dp3517
g66
(dp3518
sg75
g3392
sg68
(lp3519
g61
(g82
g63
NtRp3520
(dp3521
g66
(dp3522
g86
g87
ssg75
g3516
sg68
(lp3523
g401
asbag61
(g82
g63
NtRp3524
(dp3525
g66
(dp3526
g93
g94
ssg75
g3516
sg68
(lp3527
S':'
asbag61
(g82
g63
NtRp3528
(dp3529
g66
(dp3530
sg75
g3516
sg68
(lp3531
g61
(g62
g63
NtRp3532
(dp3533
g66
(dp3534
g74
I3
ssg75
g3528
sg68
(lp3535
S''
asbasbasbag61
(g77
g63
NtRp3536
(dp3537
g66
(dp3538
sg75
g3392
sg68
(lp3539
g61
(g82
g63
NtRp3540
(dp3541
g66
(dp3542
g86
g87
ssg75
g3536
sg68
(lp3543
g422
asbag61
(g82
g63
NtRp3544
(dp3545
g66
(dp3546
g93
g94
ssg75
g3536
sg68
(lp3547
S':'
asbag61
(g82
g63
NtRp3548
(dp3549
g66
(dp3550
sg75
g3536
sg68
(lp3551
g61
(g62
g63
NtRp3552
(dp3553
g66
(dp3554
g74
I3
ssg75
g3548
sg68
(lp3555
S''
asbasbasbasbasbasbasbasbasbasbasbag61
(g77
g63
NtRp3556
(dp3557
g66
(dp3558
sg75
g3322
sg68
(lp3559
g61
(g82
g63
NtRp3560
(dp3561
g66
(dp3562
g86
g87
ssg75
g3556
sg68
(lp3563
S'delimiters'
p3564
asbag61
(g82
g63
NtRp3565
(dp3566
g66
(dp3567
g93
g94
ssg75
g3556
sg68
(lp3568
S':'
asbag61
(g82
g63
NtRp3569
(dp3570
g66
(dp3571
sg75
g3556
sg68
(lp3572
g61
(g62
g63
NtRp3573
(dp3574
g66
(dp3575
g74
I5
ssg75
g3569
sg68
(lp3576
g61
(g70
g63
NtRp3577
(dp3578
g66
(dp3579
g74
I4
ssg75
Nsg68
(lp3580
g61
(g77
g63
NtRp3581
(dp3582
g66
(dp3583
sg75
g3577
sg68
(lp3584
g61
(g82
g63
NtRp3585
(dp3586
g66
(dp3587
sg75
g3581
sg68
(lp3588
g61
(g62
g63
NtRp3589
(dp3590
g66
(dp3591
g74
I4
ssg75
g3585
sg68
(lp3592
S'{{'
p3593
asbasbasbag61
(g77
g63
NtRp3594
(dp3595
g66
(dp3596
sg75
g3577
sg68
(lp3597
g61
(g82
g63
NtRp3598
(dp3599
g66
(dp3600
sg75
g3594
sg68
(lp3601
g61
(g62
g63
NtRp3602
(dp3603
g66
(dp3604
g74
I4
ssg75
g3598
sg68
(lp3605
S'}}'
p3606
asbasbasbasbasbasbasbag61
(g77
g63
NtRp3607
(dp3608
g66
(dp3609
sg75
g3322
sg68
(lp3610
g61
(g82
g63
NtRp3611
(dp3612
g66
(dp3613
g86
g87
ssg75
g3607
sg68
(lp3614
S'files'
p3615
asbag61
(g82
g63
NtRp3616
(dp3617
g66
(dp3618
g93
g94
ssg75
g3607
sg68
(lp3619
S':'
asbag61
(g82
g63
NtRp3620
(dp3621
g66
(dp3622
sg75
g3607
sg68
(lp3623
g61
(g62
g63
NtRp3624
(dp3625
g66
(dp3626
g74
I5
ssg75
g3620
sg68
(lp3627
g61
(g70
g63
NtRp3628
(dp3629
g66
(dp3630
g74
I4
ssg75
Nsg68
(lp3631
sbasbasbasbag61
(g77
g63
NtRp3632
(dp3633
g66
(dp3634
sg75
g3322
sg68
(lp3635
g61
(g82
g63
NtRp3636
(dp3637
g66
(dp3638
g86
g87
ssg75
g3632
sg68
(lp3639
S'flash'
p3640
asbag61
(g82
g63
NtRp3641
(dp3642
g66
(dp3643
g93
g94
ssg75
g3632
sg68
(lp3644
S':'
asbag61
(g82
g63
NtRp3645
(dp3646
g66
(dp3647
sg75
g3632
sg68
(lp3648
g61
(g62
g63
NtRp3649
(dp3650
g66
(dp3651
g74
I5
ssg75
g3645
sg68
(lp3652
S''
asbasbasbag61
(g77
g63
NtRp3653
(dp3654
g66
(dp3655
sg75
g3322
sg68
(lp3656
g61
(g82
g63
NtRp3657
(dp3658
g66
(dp3659
g86
g87
ssg75
g3653
sg68
(lp3660
S'generic_patterns'
p3661
asbag61
(g82
g63
NtRp3662
(dp3663
g66
(dp3664
g93
g94
ssg75
g3653
sg68
(lp3665
S':'
asbag61
(g82
g63
NtRp3666
(dp3667
g66
(dp3668
sg75
g3653
sg68
(lp3669
g61
(g62
g63
NtRp3670
(dp3671
g66
(dp3672
g74
I5
ssg75
g3666
sg68
(lp3673
g61
(g70
g63
NtRp3674
(dp3675
g66
(dp3676
g74
I4
ssg75
Nsg68
(lp3677
g61
(g77
g63
NtRp3678
(dp3679
g66
(dp3680
sg75
g3674
sg68
(lp3681
g61
(g82
g63
NtRp3682
(dp3683
g66
(dp3684
sg75
g3678
sg68
(lp3685
g61
(g62
g63
NtRp3686
(dp3687
g66
(dp3688
g74
I4
ssg75
g3682
sg68
(lp3689
S'*'
asbasbasbasbasbasbasbag61
(g77
g63
NtRp3690
(dp3691
g66
(dp3692
sg75
g3322
sg68
(lp3693
g61
(g82
g63
NtRp3694
(dp3695
g66
(dp3696
g86
g87
ssg75
g3690
sg68
(lp3697
S'headers'
p3698
asbag61
(g82
g63
NtRp3699
(dp3700
g66
(dp3701
g93
g94
ssg75
g3690
sg68
(lp3702
S':'
asbag61
(g82
g63
NtRp3703
(dp3704
g66
(dp3705
sg75
g3690
sg68
(lp3706
g61
(g62
g63
NtRp3707
(dp3708
g66
(dp3709
g74
I5
ssg75
g3703
sg68
(lp3710
g61
(g70
g63
NtRp3711
(dp3712
g66
(dp3713
g74
I4
ssg75
Nsg68
(lp3714
g61
(g77
g63
NtRp3715
(dp3716
g66
(dp3717
sg75
g3711
sg68
(lp3718
g61
(g82
g63
NtRp3719
(dp3720
g66
(dp3721
g86
g87
ssg75
g3715
sg68
(lp3722
S'Cache-Control'
p3723
asbag61
(g82
g63
NtRp3724
(dp3725
g66
(dp3726
g93
g94
ssg75
g3715
sg68
(lp3727
S':'
asbag61
(g82
g63
NtRp3728
(dp3729
g66
(dp3730
sg75
g3715
sg68
(lp3731
g61
(g62
g63
NtRp3732
(dp3733
g66
(dp3734
g74
I4
ssg75
g3728
sg68
(lp3735
S'no-store, no-cache, must-revalidate, post-check=0, pre-check=0'
p3736
asbasbasbag61
(g77
g63
NtRp3737
(dp3738
g66
(dp3739
sg75
g3711
sg68
(lp3740
g61
(g82
g63
NtRp3741
(dp3742
g66
(dp3743
g86
g87
ssg75
g3737
sg68
(lp3744
S'Content-Type'
p3745
asbag61
(g82
g63
NtRp3746
(dp3747
g66
(dp3748
g93
g94
ssg75
g3737
sg68
(lp3749
S':'
asbag61
(g82
g63
NtRp3750
(dp3751
g66
(dp3752
sg75
g3737
sg68
(lp3753
g61
(g62
g63
NtRp3754
(dp3755
g66
(dp3756
g74
I4
ssg75
g3750
sg68
(lp3757
S'text/html; charset=utf-8'
p3758
asbasbasbag61
(g77
g63
NtRp3759
(dp3760
g66
(dp3761
sg75
g3711
sg68
(lp3762
g61
(g82
g63
NtRp3763
(dp3764
g66
(dp3765
g86
g87
ssg75
g3759
sg68
(lp3766
S'Expires'
p3767
asbag61
(g82
g63
NtRp3768
(dp3769
g66
(dp3770
g93
g94
ssg75
g3759
sg68
(lp3771
S':'
asbag61
(g82
g63
NtRp3772
(dp3773
g66
(dp3774
sg75
g3759
sg68
(lp3775
g61
(g62
g63
NtRp3776
(dp3777
g66
(dp3778
g74
I4
ssg75
g3772
sg68
(lp3779
S'Mon, 22 Oct 2012 23:16:56 GMT'
p3780
asbasbasbag61
(g77
g63
NtRp3781
(dp3782
g66
(dp3783
sg75
g3711
sg68
(lp3784
g61
(g82
g63
NtRp3785
(dp3786
g66
(dp3787
g86
g87
ssg75
g3781
sg68
(lp3788
S'Pragma'
p3789
asbag61
(g82
g63
NtRp3790
(dp3791
g66
(dp3792
g93
g94
ssg75
g3781
sg68
(lp3793
S':'
asbag61
(g82
g63
NtRp3794
(dp3795
g66
(dp3796
sg75
g3781
sg68
(lp3797
g61
(g62
g63
NtRp3798
(dp3799
g66
(dp3800
g74
I4
ssg75
g3794
sg68
(lp3801
S'no-cache'
p3802
asbasbasbag61
(g77
g63
NtRp3803
(dp3804
g66
(dp3805
sg75
g3711
sg68
(lp3806
g61
(g82
g63
NtRp3807
(dp3808
g66
(dp3809
g86
g87
ssg75
g3803
sg68
(lp3810
S'X-Powered-By'
p3811
asbag61
(g82
g63
NtRp3812
(dp3813
g66
(dp3814
g93
g94
ssg75
g3803
sg68
(lp3815
S':'
asbag61
(g82
g63
NtRp3816
(dp3817
g66
(dp3818
sg75
g3803
sg68
(lp3819
g61
(g62
g63
NtRp3820
(dp3821
g66
(dp3822
g74
I4
ssg75
g3816
sg68
(lp3823
S'web2py'
p3824
asbasbasbasbasbasbasbag61
(g77
g63
NtRp3825
(dp3826
g66
(dp3827
sg75
g3322
sg68
(lp3828
g61
(g82
g63
NtRp3829
(dp3830
g66
(dp3831
g86
g87
ssg75
g3825
sg68
(lp3832
S'menu'
p3833
asbag61
(g82
g63
NtRp3834
(dp3835
g66
(dp3836
g93
g94
ssg75
g3825
sg68
(lp3837
S':'
asbag61
(g82
g63
NtRp3838
(dp3839
g66
(dp3840
sg75
g3825
sg68
(lp3841
g61
(g62
g63
NtRp3842
(dp3843
g66
(dp3844
g74
I5
ssg75
g3838
sg68
(lp3845
g61
(g70
g63
NtRp3846
(dp3847
g66
(dp3848
g74
I4
ssg75
Nsg68
(lp3849
sbasbasbasbag61
(g77
g63
NtRp3850
(dp3851
g66
(dp3852
sg75
g3322
sg68
(lp3853
g61
(g82
g63
NtRp3854
(dp3855
g66
(dp3856
g86
g87
ssg75
g3850
sg68
(lp3857
S'meta'
p3858
asbag61
(g82
g63
NtRp3859
(dp3860
g66
(dp3861
g93
g94
ssg75
g3850
sg68
(lp3862
S':'
asbag61
(g82
g63
NtRp3863
(dp3864
g66
(dp3865
sg75
g3850
sg68
(lp3866
g61
(g62
g63
NtRp3867
(dp3868
g66
(dp3869
g74
I5
ssg75
g3863
sg68
(lp3870
g61
(g70
g63
NtRp3871
(dp3872
g66
(dp3873
g74
I4
ssg75
Nsg68
(lp3874
sbasbasbasbag61
(g77
g63
NtRp3875
(dp3876
g66
(dp3877
sg75
g3322
sg68
(lp3878
g61
(g82
g63
NtRp3879
(dp3880
g66
(dp3881
g86
g87
ssg75
g3875
sg68
(lp3882
S'postprocessing'
p3883
asbag61
(g82
g63
NtRp3884
(dp3885
g66
(dp3886
g93
g94
ssg75
g3875
sg68
(lp3887
S':'
asbag61
(g82
g63
NtRp3888
(dp3889
g66
(dp3890
sg75
g3875
sg68
(lp3891
g61
(g62
g63
NtRp3892
(dp3893
g66
(dp3894
g74
I5
ssg75
g3888
sg68
(lp3895
g61
(g70
g63
NtRp3896
(dp3897
g66
(dp3898
g74
I4
ssg75
Nsg68
(lp3899
sbasbasbasbag61
(g77
g63
NtRp3900
(dp3901
g66
(dp3902
sg75
g3322
sg68
(lp3903
g61
(g82
g63
NtRp3904
(dp3905
g66
(dp3906
g86
g87
ssg75
g3900
sg68
(lp3907
S'session_file'
p3908
asbag61
(g82
g63
NtRp3909
(dp3910
g66
(dp3911
g93
g94
ssg75
g3900
sg68
(lp3912
S':'
asbag61
(g82
g63
NtRp3913
(dp3914
g66
(dp3915
sg75
g3900
sg68
(lp3916
g61
(g62
g63
NtRp3917
(dp3918
g66
(dp3919
g74
I5
ssg75
g3913
sg68
(lp3920
S"<open file 'C:\\Users\\Alysse\\Documents\\GitHub\\finholt-senior-project\\web2py\\applications\\SeniorProject\\sessions\\127.0.0.1-1fc43717-b20e-40c0-9730-a5ec5f89c91b', mode 'rb+' at 0x03D7B5A0>"
p3921
asbasbasbag61
(g77
g63
NtRp3922
(dp3923
g66
(dp3924
sg75
g3322
sg68
(lp3925
g61
(g82
g63
NtRp3926
(dp3927
g66
(dp3928
g86
g87
ssg75
g3922
sg68
(lp3929
S'session_filename'
p3930
asbag61
(g82
g63
NtRp3931
(dp3932
g66
(dp3933
g93
g94
ssg75
g3922
sg68
(lp3934
S':'
asbag61
(g82
g63
NtRp3935
(dp3936
g66
(dp3937
sg75
g3922
sg68
(lp3938
g61
(g62
g63
NtRp3939
(dp3940
g66
(dp3941
g74
I5
ssg75
g3935
sg68
(lp3942
S'C:\\Users\\Alysse\\Documents\\GitHub\\finholt-senior-project\\web2py\\applications\\SeniorProject\\sessions\\127.0.0.1-1fc43717-b20e-40c0-9730-a5ec5f89c91b'
p3943
asbasbasbag61
(g77
g63
NtRp3944
(dp3945
g66
(dp3946
sg75
g3322
sg68
(lp3947
g61
(g82
g63
NtRp3948
(dp3949
g66
(dp3950
g86
g87
ssg75
g3944
sg68
(lp3951
S'session_id'
p3952
asbag61
(g82
g63
NtRp3953
(dp3954
g66
(dp3955
g93
g94
ssg75
g3944
sg68
(lp3956
S':'
asbag61
(g82
g63
NtRp3957
(dp3958
g66
(dp3959
sg75
g3944
sg68
(lp3960
g61
(g62
g63
NtRp3961
(dp3962
g66
(dp3963
g74
I5
ssg75
g3957
sg68
(lp3964
S'127.0.0.1-1fc43717-b20e-40c0-9730-a5ec5f89c91b'
p3965
asbasbasbag61
(g77
g63
NtRp3966
(dp3967
g66
(dp3968
sg75
g3322
sg68
(lp3969
g61
(g82
g63
NtRp3970
(dp3971
g66
(dp3972
g86
g87
ssg75
g3966
sg68
(lp3973
S'session_id_name'
p3974
asbag61
(g82
g63
NtRp3975
(dp3976
g66
(dp3977
g93
g94
ssg75
g3966
sg68
(lp3978
S':'
asbag61
(g82
g63
NtRp3979
(dp3980
g66
(dp3981
sg75
g3966
sg68
(lp3982
g61
(g62
g63
NtRp3983
(dp3984
g66
(dp3985
g74
I5
ssg75
g3979
sg68
(lp3986
g3379
asbasbasbag61
(g77
g63
NtRp3987
(dp3988
g66
(dp3989
sg75
g3322
sg68
(lp3990
g61
(g82
g63
NtRp3991
(dp3992
g66
(dp3993
g86
g87
ssg75
g3987
sg68
(lp3994
S'session_locked'
p3995
asbag61
(g82
g63
NtRp3996
(dp3997
g66
(dp3998
g93
g94
ssg75
g3987
sg68
(lp3999
S':'
asbag61
(g82
g63
NtRp4000
(dp4001
g66
(dp4002
sg75
g3987
sg68
(lp4003
g61
(g62
g63
NtRp4004
(dp4005
g66
(dp4006
g74
I5
ssg75
g4000
sg68
(lp4007
g1705
asbasbasbag61
(g77
g63
NtRp4008
(dp4009
g66
(dp4010
sg75
g3322
sg68
(lp4011
g61
(g82
g63
NtRp4012
(dp4013
g66
(dp4014
g86
g87
ssg75
g4008
sg68
(lp4015
S'session_new'
p4016
asbag61
(g82
g63
NtRp4017
(dp4018
g66
(dp4019
g93
g94
ssg75
g4008
sg68
(lp4020
S':'
asbag61
(g82
g63
NtRp4021
(dp4022
g66
(dp4023
sg75
g4008
sg68
(lp4024
g61
(g62
g63
NtRp4025
(dp4026
g66
(dp4027
g74
I5
ssg75
g4021
sg68
(lp4028
g104
asbasbasbag61
(g77
g63
NtRp4029
(dp4030
g66
(dp4031
sg75
g3322
sg68
(lp4032
g61
(g82
g63
NtRp4033
(dp4034
g66
(dp4035
g86
g87
ssg75
g4029
sg68
(lp4036
S'status'
p4037
asbag61
(g82
g63
NtRp4038
(dp4039
g66
(dp4040
g93
g94
ssg75
g4029
sg68
(lp4041
S':'
asbag61
(g82
g63
NtRp4042
(dp4043
g66
(dp4044
sg75
g4029
sg68
(lp4045
g61
(g62
g63
NtRp4046
(dp4047
g66
(dp4048
g74
I5
ssg75
g4042
sg68
(lp4049
S'200'
p4050
asbasbasbag61
(g77
g63
NtRp4051
(dp4052
g66
(dp4053
sg75
g3322
sg68
(lp4054
g61
(g82
g63
NtRp4055
(dp4056
g66
(dp4057
g86
g87
ssg75
g4051
sg68
(lp4058
g2412
asbag61
(g82
g63
NtRp4059
(dp4060
g66
(dp4061
g93
g94
ssg75
g4051
sg68
(lp4062
S':'
asbag61
(g82
g63
NtRp4063
(dp4064
g66
(dp4065
sg75
g4051
sg68
(lp4066
g61
(g62
g63
NtRp4067
(dp4068
g66
(dp4069
g74
I5
ssg75
g4063
sg68
(lp4070
g2425
asbasbasbag61
(g77
g63
NtRp4071
(dp4072
g66
(dp4073
sg75
g3322
sg68
(lp4074
g61
(g82
g63
NtRp4075
(dp4076
g66
(dp4077
g86
g87
ssg75
g4071
sg68
(lp4078
S'view'
p4079
asbag61
(g82
g63
NtRp4080
(dp4081
g66
(dp4082
g93
g94
ssg75
g4071
sg68
(lp4083
S':'
asbag61
(g82
g63
NtRp4084
(dp4085
g66
(dp4086
sg75
g4071
sg68
(lp4087
g61
(g62
g63
NtRp4088
(dp4089
g66
(dp4090
g74
I5
ssg75
g4084
sg68
(lp4091
S'default/formtable.html'
p4092
asbasbasbasbasbsS'locals'
p4093
(dp4094
S'a'
S"('CREATE TABLE ProposalRequest(\\n    id INTEGER PRI...XT,\\n    staticBlurb TEXT,\\n    description TEXT\\n);',)"
p4095
sS'self'
p4096
S'<gluon.dal.SQLiteAdapter object>'
p4097
sS'b'
g21
sS't0'
p4098
S'1350947816.861'
p4099
sssS'traceback'
p4100
S'Traceback (most recent call last):\n  File "C:\\Users\\Alysse\\Documents\\GitHub\\finholt-senior-project\\web2py\\gluon\\restricted.py", line 205, in restricted\n    exec ccode in environment\n  File "C:\\Users\\Alysse\\Documents\\GitHub\\finholt-senior-project\\web2py\\applications\\SeniorProject\\models\\db.py", line 90, in <module>\n    db.define_table("ProposalRequest", Field(\'reqNum\',\'string\'), Field(\'amendNum\',\'string\'), Field(\'projectNum\',\'string\'), Field(\'subject\',\'text\'), Field(\'propDate\',\'date\'), Field(\'to\',\'string\'), Field(\'cc\',\'list:string\'), Field(\'staticBlurb\',\'text\'), Field(\'description\',\'text\'))\n  File "C:\\Users\\Alysse\\Documents\\GitHub\\finholt-senior-project\\web2py\\gluon\\dal.py", line 6320, in define_table\n    polymodel=polymodel)\n  File "C:\\Users\\Alysse\\Documents\\GitHub\\finholt-senior-project\\web2py\\gluon\\dal.py", line 719, in create_table\n    self.create_sequence_and_triggers(query,table)\n  File "C:\\Users\\Alysse\\Documents\\GitHub\\finholt-senior-project\\web2py\\gluon\\dal.py", line 1381, in create_sequence_and_triggers\n    self.execute(query)\n  File "C:\\Users\\Alysse\\Documents\\GitHub\\finholt-senior-project\\web2py\\gluon\\dal.py", line 1392, in execute\n    return self.log_execute(*a, **b)\n  File "C:\\Users\\Alysse\\Documents\\GitHub\\finholt-senior-project\\web2py\\gluon\\dal.py", line 1386, in log_execute\n    ret = self.cursor.execute(*a, **b)\nOperationalError: near "to": syntax error\n'
p4101
s.