(dp1
S'output'
p2
S"<type 'exceptions.IOError'> [Errno 2] No such file or directory: 'C:\\\\Users\\\\Alysse\\\\Documents\\\\GitHub\\\\finholt-senior-project\\\\web2py\\\\applications\\\\SeniorProject\\\\databases\\\\..\\\\uploads\\\\Proposal.file.be7814aef2aec21c.416c797373652048616665726d616e2c204a657373696520436c696e652c204e69636f6c652048617964656e206d61746368696e672120466562727561727920352c20323031322e4a5047.JPG'"
p3
sS'layer'
p4
S'C:\\Users\\Alysse\\Documents\\GitHub\\finholt-senior-project\\web2py\\applications\\SeniorProject\\controllers/default.py'
p5
sS'code'
p6
S'# -*- coding: utf-8 -*-\n# this file is released under public domain and you can use without limitations\n\n#########################################################################\n## This is a samples controller\n## - index is the default action of any application\n## - user is required for authentication and authorization\n## - download is for downloading files uploaded in the db (does streaming)\n## - call exposes all registered services (none by default)\n#########################################################################\nccdForm = SQLFORM(db.CCD, labels={\'ccdNum\':\'CCD #\',\'projectNum\': "Project #"})\n\nrfiForm = SQLFORM(db.RFI, labels={\'rfiNum\':\'RFI #\', \'requestBy\':\'Request by\', \'dateSent\':\'Date sent\', \'reqRefTo\':\'Request referred to\', \'dateRec\':\'Date received\', \'drawingNum\':\'Drawing #\', \'detailNum\':\'Detail #\', \'specSection\':\'Spec Section #\', \'sheetName\':\'Sheet Name\', \'grids\':\'Grids\', \'sectionPage\':\'Section Page #\', \'description\':\'Description\', \'suggestion\':\'Contractor suggestion\', \'reply\':\'Reply\', \'responseBy\':\'Response by\', \'responseDate\':\'Response date\'})\n\nsubmittalForm = SQLFORM(db.Submittal, labels={\'statusFlag\':\'Status flag\', \'assignedTo\':\'Assigned to\'})\n\nproposalRequestForm = SQLFORM(db.ProposalRequest, labels={\'reqNum\':\'Request #\', \'amendNum\':\'Amendment #\', \'projectNum\':\'Project #\', \'subject\':\'Subject\', \'propDate\':\'Proposal Date\', \'sentTo\':\'Sent to\', \'cc\':\'CC\', \'description\':\'Description\'})\n\nproposalForm = SQLFORM(db.Proposal, labels={\'reqNum\':\'Request #\', \'propDate\':\'Proposal Date\'})\n\nmeetingMinutesForm = SQLFORM(db.MeetingMinutes, labels={\'meetDate\':\'Meeting Date\'})\n\n\nprojects = db(db.Project).select()\n\nfooter = DIV("This website brought to you by the Supreme Leader and Minion #2 (Scott)", _id="footer")\n\ndef index():\n    """\n    example action using the internationalization operator T and flash\n    rendered by views/default/index.html or views/generic.html\n    """\n    \n    if ccdForm.process().accepted:\n        response.flash = \'form accepted\'\n    elif ccdForm.errors:\n        response.flash = \'form has errors\'\n    else:\n        response.flash = \'please fill out the form\'\n        \n    if rfiForm.process().accepted:\n        response.flash = \'form accepted\'\n    elif rfiForm.errors:\n        response.flash = \'form has errors\'\n    else:\n        response.flash = \'please fill out the form\'\n        \n    if submittalForm.process().accepted:\n        response.flash = \'form accepted\'\n    elif submittalForm.errors:\n        response.flash = \'form has errors\'\n    else:\n        response.flash = \'please fill out the form\'\n        \n    if proposalRequestForm.process().accepted:\n        response.flash = \'form accepted\'\n    elif proposalRequestForm.errors:\n        response.flash = \'form has errors\'\n    else:\n        response.flash = \'please fill out the form\'\n        \n    if proposalForm.process().accepted:\n        response.flash = \'form accepted\'\n    elif proposalForm.errors:\n        response.flash = \'form has errors\'\n    else:\n        response.flash = \'please fill out the form\'\n    \n    if meetingMinutesForm.process().accepted:\n        response.flash = \'form accepted\'\n    elif meetingMinutesForm.errors:\n        response.flash = \'form has errors\'\n    else:\n        response.flash = \'please fill out the form\'\n    \n    return dict(ccdForm=ccdForm,\n                projects=projects,\n                rfiForm=rfiForm,\n                submittalForm=submittalForm,\n                proposalRequestForm=proposalRequestForm,\n                proposalForm=proposalForm,\n                meetingMinutesForm=meetingMinutesForm,\n                footer=footer)\n\ndef user():\n    """\n    exposes:\n    http://..../[app]/default/user/login\n    http://..../[app]/default/user/logout\n    http://..../[app]/default/user/register\n    http://..../[app]/default/user/profile\n    http://..../[app]/default/user/retrieve_password\n    http://..../[app]/default/user/change_password\n    use @auth.requires_login()\n        @auth.requires_membership(\'group name\')\n        @auth.requires_permission(\'read\',\'table name\',record_id)\n    to decorate functions that need access control\n    """\n    return dict(form=auth())\n\n\ndef download():\n    """\n    allows downloading of uploaded files\n    http://..../[app]/default/download/[filename]\n    """\n    return response.download(request,db)\n\n\ndef call():\n    """\n    exposes services. for example:\n    http://..../[app]/default/call/jsonrpc\n    decorate with @services.jsonrpc the functions to expose\n    supports xml, json, xmlrpc, jsonrpc, amfrpc, rss, csv\n    """\n    return service()\n\n\n@auth.requires_signature()\ndef data():\n    """\n    http://..../[app]/default/data/tables\n    http://..../[app]/default/data/create/[table]\n    http://..../[app]/default/data/read/[table]/[id]\n    http://..../[app]/default/data/update/[table]/[id]\n    http://..../[app]/default/data/delete/[table]/[id]\n    http://..../[app]/default/data/select/[table]\n    http://..../[app]/default/data/search/[table]\n    but URLs must be signed, i.e. linked with\n      A(\'table\',_href=URL(\'data/tables\',user_signature=True))\n    or with the signed load operator\n      LOAD(\'default\',\'data.load\',args=\'tables\',ajax=True,user_signature=True)\n    """\n    return dict(form=crud())\n\ndef createproject():\n    form = SQLFORM(db.Project)\n    if form.process().accepted:\n       response.flash = \'form accepted\'\n    elif form.errors:\n       response.flash = \'form has errors\'\n    else:\n       response.flash = \'please fill out the form\'\n    return dict(form=form)\n\ndef formtable():\n    formType = request.vars.formType\n    if ccdForm.process().accepted:\n        response.flash = \'form accepted\'\n    elif ccdForm.errors:\n        response.flash = \'form has errors\'\n    else:\n        response.flash = \'please fill out the form\'    \n    table = None\n    image = None\n    if formType == "CCD":\n        rows = db(db.CCD.projectNum == str(request.vars.projectNum)).select()\n        myextracolumns = [{\'label\': \'CCD Thumbnail(for testing)\',\'class\':\'\',\'selected\':False, \'width\':\'\', \'content\': lambda row, rc: IMG(_width="40",_height="40",_src=URL(\'default\',\'download\',args=row.file))}]\n        table = SQLTABLE(rows,columns=["CCD.ccdNum",\'CCD.file\'],headers={"CCD.ccdNum":"CCD #","CCD.file":"CCD File"},extracolumns=myextracolumns)\n    return dict(formType=formType,\n                ccdForm=ccdForm,                \n                rfiForm=rfiForm,\n                submittalForm=submittalForm,\n                proposalRequestForm=proposalRequestForm,\n                proposalForm=proposalForm,\n                meetingMinutesForm=meetingMinutesForm,\n                projects=projects,\n                table= table,\n                image=image,\n                footer=footer)\n\nresponse._vars=response._caller(index)\n'
p7
sS'snapshot'
p8
(dp9
S'exception'
p10
(dp11
S'__getslice__'
p12
S"<method-wrapper '__getslice__' of exceptions.IOError object>"
p13
sS'__str__'
p14
S"<method-wrapper '__str__' of exceptions.IOError object>"
p15
sS'__reduce__'
p16
S'<built-in method __reduce__ of exceptions.IOError object>'
p17
sS'__dict__'
p18
S'{}'
p19
sS'__sizeof__'
p20
S'<built-in method __sizeof__ of exceptions.IOError object>'
p21
sS'__init__'
p22
S"<method-wrapper '__init__' of exceptions.IOError object>"
p23
sS'__setattr__'
p24
S"<method-wrapper '__setattr__' of exceptions.IOError object>"
p25
sS'__reduce_ex__'
p26
S'<built-in method __reduce_ex__ of exceptions.IOError object>'
p27
sS'__new__'
p28
S'<built-in method __new__ of type object>'
p29
sS'errno'
p30
S'2'
sS'__format__'
p31
S'<built-in method __format__ of exceptions.IOError object>'
p32
sS'__class__'
p33
S"<type 'exceptions.IOError'>"
p34
sS'filename'
p35
S"r'C:\\Users\\Alysse\\Documents\\GitHub\\finholt-senior-...72120466562727561727920352c20323031322e4a5047.JPG'"
p36
sS'__doc__'
p37
S"'I/O operation failed.'"
p38
sS'__getitem__'
p39
S"<method-wrapper '__getitem__' of exceptions.IOError object>"
p40
sS'__setstate__'
p41
S'<built-in method __setstate__ of exceptions.IOError object>'
p42
sS'__getattribute__'
p43
S"<method-wrapper '__getattribute__' of exceptions.IOError object>"
p44
sS'args'
p45
S"(2, 'No such file or directory')"
p46
sS'__subclasshook__'
p47
S'<built-in method __subclasshook__ of type object>'
p48
sS'__unicode__'
p49
S'<built-in method __unicode__ of exceptions.IOError object>'
p50
sS'strerror'
p51
S"'No such file or directory'"
p52
sS'__delattr__'
p53
S"<method-wrapper '__delattr__' of exceptions.IOError object>"
p54
sS'__repr__'
p55
S"<method-wrapper '__repr__' of exceptions.IOError object>"
p56
sS'__hash__'
p57
S"<method-wrapper '__hash__' of exceptions.IOError object>"
p58
ssS'evalue'
p59
S"[Errno 2] No such file or directory: 'C:\\\\Users\\\\Alysse\\\\Documents\\\\GitHub\\\\finholt-senior-project\\\\web2py\\\\applications\\\\SeniorProject\\\\databases\\\\..\\\\uploads\\\\Proposal.file.be7814aef2aec21c.416c797373652048616665726d616e2c204a657373696520436c696e652c204e69636f6c652048617964656e206d61746368696e672120466562727561727920352c20323031322e4a5047.JPG'"
p60
sS'request'
p61
ccopy_reg
_reconstructor
p62
(cgluon.html
BEAUTIFY
p63
c__builtin__
object
p64
NtRp65
(dp66
S'attributes'
p67
(dp68
sS'components'
p69
(lp70
g62
(cgluon.html
TABLE
p71
g64
NtRp72
(dp73
g67
(dp74
S'level'
p75
I5
ssS'parent'
p76
Nsg69
(lp77
g62
(cgluon.html
TR
p78
g64
NtRp79
(dp80
g67
(dp81
sg76
g72
sg69
(lp82
g62
(cgluon.html
TD
p83
g64
NtRp84
(dp85
g67
(dp86
S'_style'
p87
S'font-weight:bold;vertical-align:top'
p88
ssg76
g79
sg69
(lp89
S'ajax'
p90
asbag62
(g83
g64
NtRp91
(dp92
g67
(dp93
S'_valign'
p94
S'top'
p95
ssg76
g79
sg69
(lp96
S':'
asbag62
(g83
g64
NtRp97
(dp98
g67
(dp99
sg76
g79
sg69
(lp100
g62
(g63
g64
NtRp101
(dp102
g67
(dp103
g75
I5
ssg76
g97
sg69
(lp104
S'False'
p105
asbasbasbag62
(g78
g64
NtRp106
(dp107
g67
(dp108
sg76
g72
sg69
(lp109
g62
(g83
g64
NtRp110
(dp111
g67
(dp112
g87
g88
ssg76
g106
sg69
(lp113
S'application'
p114
asbag62
(g83
g64
NtRp115
(dp116
g67
(dp117
g94
g95
ssg76
g106
sg69
(lp118
S':'
asbag62
(g83
g64
NtRp119
(dp120
g67
(dp121
sg76
g106
sg69
(lp122
g62
(g63
g64
NtRp123
(dp124
g67
(dp125
g75
I5
ssg76
g119
sg69
(lp126
S'SeniorProject'
p127
asbasbasbag62
(g78
g64
NtRp128
(dp129
g67
(dp130
sg76
g72
sg69
(lp131
g62
(g83
g64
NtRp132
(dp133
g67
(dp134
g87
g88
ssg76
g128
sg69
(lp135
g45
asbag62
(g83
g64
NtRp136
(dp137
g67
(dp138
g94
g95
ssg76
g128
sg69
(lp139
S':'
asbag62
(g83
g64
NtRp140
(dp141
g67
(dp142
sg76
g128
sg69
(lp143
g62
(g63
g64
NtRp144
(dp145
g67
(dp146
g75
I5
ssg76
g140
sg69
(lp147
g62
(g71
g64
NtRp148
(dp149
g67
(dp150
g75
I4
ssg76
Nsg69
(lp151
sbasbasbasbag62
(g78
g64
NtRp152
(dp153
g67
(dp154
sg76
g72
sg69
(lp155
g62
(g83
g64
NtRp156
(dp157
g67
(dp158
g87
g88
ssg76
g152
sg69
(lp159
S'body'
p160
asbag62
(g83
g64
NtRp161
(dp162
g67
(dp163
g94
g95
ssg76
g152
sg69
(lp164
S':'
asbag62
(g83
g64
NtRp165
(dp166
g67
(dp167
sg76
g152
sg69
(lp168
g62
(g63
g64
NtRp169
(dp170
g67
(dp171
g75
I5
ssg76
g165
sg69
(lp172
S"<open file '<fdopen>', mode 'w+b' at 0x03EAEE90>"
p173
asbasbasbag62
(g78
g64
NtRp174
(dp175
g67
(dp176
sg76
g72
sg69
(lp177
g62
(g83
g64
NtRp178
(dp179
g67
(dp180
g87
g88
ssg76
g174
sg69
(lp181
S'client'
p182
asbag62
(g83
g64
NtRp183
(dp184
g67
(dp185
g94
g95
ssg76
g174
sg69
(lp186
S':'
asbag62
(g83
g64
NtRp187
(dp188
g67
(dp189
sg76
g174
sg69
(lp190
g62
(g63
g64
NtRp191
(dp192
g67
(dp193
g75
I5
ssg76
g187
sg69
(lp194
S'127.0.0.1'
p195
asbasbasbag62
(g78
g64
NtRp196
(dp197
g67
(dp198
sg76
g72
sg69
(lp199
g62
(g83
g64
NtRp200
(dp201
g67
(dp202
g87
g88
ssg76
g196
sg69
(lp203
S'controller'
p204
asbag62
(g83
g64
NtRp205
(dp206
g67
(dp207
g94
g95
ssg76
g196
sg69
(lp208
S':'
asbag62
(g83
g64
NtRp209
(dp210
g67
(dp211
sg76
g196
sg69
(lp212
g62
(g63
g64
NtRp213
(dp214
g67
(dp215
g75
I5
ssg76
g209
sg69
(lp216
S'default'
p217
asbasbasbag62
(g78
g64
NtRp218
(dp219
g67
(dp220
sg76
g72
sg69
(lp221
g62
(g83
g64
NtRp222
(dp223
g67
(dp224
g87
g88
ssg76
g218
sg69
(lp225
S'cookies'
p226
asbag62
(g83
g64
NtRp227
(dp228
g67
(dp229
g94
g95
ssg76
g218
sg69
(lp230
S':'
asbag62
(g83
g64
NtRp231
(dp232
g67
(dp233
sg76
g218
sg69
(lp234
g62
(g63
g64
NtRp235
(dp236
g67
(dp237
g75
I5
ssg76
g231
sg69
(lp238
g62
(g71
g64
NtRp239
(dp240
g67
(dp241
g75
I4
ssg76
Nsg69
(lp242
g62
(g78
g64
NtRp243
(dp244
g67
(dp245
sg76
g239
sg69
(lp246
g62
(g83
g64
NtRp247
(dp248
g67
(dp249
g87
g88
ssg76
g243
sg69
(lp250
S'session_id_admin'
p251
asbag62
(g83
g64
NtRp252
(dp253
g67
(dp254
g94
g95
ssg76
g243
sg69
(lp255
S':'
asbag62
(g83
g64
NtRp256
(dp257
g67
(dp258
sg76
g243
sg69
(lp259
g62
(g63
g64
NtRp260
(dp261
g67
(dp262
g75
I4
ssg76
g256
sg69
(lp263
g62
(g71
g64
NtRp264
(dp265
g67
(dp266
g75
I3
ssg76
Nsg69
(lp267
g62
(g78
g64
NtRp268
(dp269
g67
(dp270
sg76
g264
sg69
(lp271
g62
(g83
g64
NtRp272
(dp273
g67
(dp274
g87
g88
ssg76
g268
sg69
(lp275
S'comment'
p276
asbag62
(g83
g64
NtRp277
(dp278
g67
(dp279
g94
g95
ssg76
g268
sg69
(lp280
S':'
asbag62
(g83
g64
NtRp281
(dp282
g67
(dp283
sg76
g268
sg69
(lp284
g62
(g63
g64
NtRp285
(dp286
g67
(dp287
g75
I3
ssg76
g281
sg69
(lp288
S''
asbasbasbag62
(g78
g64
NtRp289
(dp290
g67
(dp291
sg76
g264
sg69
(lp292
g62
(g83
g64
NtRp293
(dp294
g67
(dp295
g87
g88
ssg76
g289
sg69
(lp296
S'domain'
p297
asbag62
(g83
g64
NtRp298
(dp299
g67
(dp300
g94
g95
ssg76
g289
sg69
(lp301
S':'
asbag62
(g83
g64
NtRp302
(dp303
g67
(dp304
sg76
g289
sg69
(lp305
g62
(g63
g64
NtRp306
(dp307
g67
(dp308
g75
I3
ssg76
g302
sg69
(lp309
S''
asbasbasbag62
(g78
g64
NtRp310
(dp311
g67
(dp312
sg76
g264
sg69
(lp313
g62
(g83
g64
NtRp314
(dp315
g67
(dp316
g87
g88
ssg76
g310
sg69
(lp317
S'expires'
p318
asbag62
(g83
g64
NtRp319
(dp320
g67
(dp321
g94
g95
ssg76
g310
sg69
(lp322
S':'
asbag62
(g83
g64
NtRp323
(dp324
g67
(dp325
sg76
g310
sg69
(lp326
g62
(g63
g64
NtRp327
(dp328
g67
(dp329
g75
I3
ssg76
g323
sg69
(lp330
S''
asbasbasbag62
(g78
g64
NtRp331
(dp332
g67
(dp333
sg76
g264
sg69
(lp334
g62
(g83
g64
NtRp335
(dp336
g67
(dp337
g87
g88
ssg76
g331
sg69
(lp338
S'httponly'
p339
asbag62
(g83
g64
NtRp340
(dp341
g67
(dp342
g94
g95
ssg76
g331
sg69
(lp343
S':'
asbag62
(g83
g64
NtRp344
(dp345
g67
(dp346
sg76
g331
sg69
(lp347
g62
(g63
g64
NtRp348
(dp349
g67
(dp350
g75
I3
ssg76
g344
sg69
(lp351
S''
asbasbasbag62
(g78
g64
NtRp352
(dp353
g67
(dp354
sg76
g264
sg69
(lp355
g62
(g83
g64
NtRp356
(dp357
g67
(dp358
g87
g88
ssg76
g352
sg69
(lp359
S'max-age'
p360
asbag62
(g83
g64
NtRp361
(dp362
g67
(dp363
g94
g95
ssg76
g352
sg69
(lp364
S':'
asbag62
(g83
g64
NtRp365
(dp366
g67
(dp367
sg76
g352
sg69
(lp368
g62
(g63
g64
NtRp369
(dp370
g67
(dp371
g75
I3
ssg76
g365
sg69
(lp372
S''
asbasbasbag62
(g78
g64
NtRp373
(dp374
g67
(dp375
sg76
g264
sg69
(lp376
g62
(g83
g64
NtRp377
(dp378
g67
(dp379
g87
g88
ssg76
g373
sg69
(lp380
S'path'
p381
asbag62
(g83
g64
NtRp382
(dp383
g67
(dp384
g94
g95
ssg76
g373
sg69
(lp385
S':'
asbag62
(g83
g64
NtRp386
(dp387
g67
(dp388
sg76
g373
sg69
(lp389
g62
(g63
g64
NtRp390
(dp391
g67
(dp392
g75
I3
ssg76
g386
sg69
(lp393
S''
asbasbasbag62
(g78
g64
NtRp394
(dp395
g67
(dp396
sg76
g264
sg69
(lp397
g62
(g83
g64
NtRp398
(dp399
g67
(dp400
g87
g88
ssg76
g394
sg69
(lp401
S'secure'
p402
asbag62
(g83
g64
NtRp403
(dp404
g67
(dp405
g94
g95
ssg76
g394
sg69
(lp406
S':'
asbag62
(g83
g64
NtRp407
(dp408
g67
(dp409
sg76
g394
sg69
(lp410
g62
(g63
g64
NtRp411
(dp412
g67
(dp413
g75
I3
ssg76
g407
sg69
(lp414
S''
asbasbasbag62
(g78
g64
NtRp415
(dp416
g67
(dp417
sg76
g264
sg69
(lp418
g62
(g83
g64
NtRp419
(dp420
g67
(dp421
g87
g88
ssg76
g415
sg69
(lp422
S'version'
p423
asbag62
(g83
g64
NtRp424
(dp425
g67
(dp426
g94
g95
ssg76
g415
sg69
(lp427
S':'
asbag62
(g83
g64
NtRp428
(dp429
g67
(dp430
sg76
g415
sg69
(lp431
g62
(g63
g64
NtRp432
(dp433
g67
(dp434
g75
I3
ssg76
g428
sg69
(lp435
S''
asbasbasbasbasbasbasbag62
(g78
g64
NtRp436
(dp437
g67
(dp438
sg76
g239
sg69
(lp439
g62
(g83
g64
NtRp440
(dp441
g67
(dp442
g87
g88
ssg76
g436
sg69
(lp443
S'session_id_seniorproject'
p444
asbag62
(g83
g64
NtRp445
(dp446
g67
(dp447
g94
g95
ssg76
g436
sg69
(lp448
S':'
asbag62
(g83
g64
NtRp449
(dp450
g67
(dp451
sg76
g436
sg69
(lp452
g62
(g63
g64
NtRp453
(dp454
g67
(dp455
g75
I4
ssg76
g449
sg69
(lp456
g62
(g71
g64
NtRp457
(dp458
g67
(dp459
g75
I3
ssg76
Nsg69
(lp460
g62
(g78
g64
NtRp461
(dp462
g67
(dp463
sg76
g457
sg69
(lp464
g62
(g83
g64
NtRp465
(dp466
g67
(dp467
g87
g88
ssg76
g461
sg69
(lp468
g276
asbag62
(g83
g64
NtRp469
(dp470
g67
(dp471
g94
g95
ssg76
g461
sg69
(lp472
S':'
asbag62
(g83
g64
NtRp473
(dp474
g67
(dp475
sg76
g461
sg69
(lp476
g62
(g63
g64
NtRp477
(dp478
g67
(dp479
g75
I3
ssg76
g473
sg69
(lp480
S''
asbasbasbag62
(g78
g64
NtRp481
(dp482
g67
(dp483
sg76
g457
sg69
(lp484
g62
(g83
g64
NtRp485
(dp486
g67
(dp487
g87
g88
ssg76
g481
sg69
(lp488
g297
asbag62
(g83
g64
NtRp489
(dp490
g67
(dp491
g94
g95
ssg76
g481
sg69
(lp492
S':'
asbag62
(g83
g64
NtRp493
(dp494
g67
(dp495
sg76
g481
sg69
(lp496
g62
(g63
g64
NtRp497
(dp498
g67
(dp499
g75
I3
ssg76
g493
sg69
(lp500
S''
asbasbasbag62
(g78
g64
NtRp501
(dp502
g67
(dp503
sg76
g457
sg69
(lp504
g62
(g83
g64
NtRp505
(dp506
g67
(dp507
g87
g88
ssg76
g501
sg69
(lp508
g318
asbag62
(g83
g64
NtRp509
(dp510
g67
(dp511
g94
g95
ssg76
g501
sg69
(lp512
S':'
asbag62
(g83
g64
NtRp513
(dp514
g67
(dp515
sg76
g501
sg69
(lp516
g62
(g63
g64
NtRp517
(dp518
g67
(dp519
g75
I3
ssg76
g513
sg69
(lp520
S''
asbasbasbag62
(g78
g64
NtRp521
(dp522
g67
(dp523
sg76
g457
sg69
(lp524
g62
(g83
g64
NtRp525
(dp526
g67
(dp527
g87
g88
ssg76
g521
sg69
(lp528
g339
asbag62
(g83
g64
NtRp529
(dp530
g67
(dp531
g94
g95
ssg76
g521
sg69
(lp532
S':'
asbag62
(g83
g64
NtRp533
(dp534
g67
(dp535
sg76
g521
sg69
(lp536
g62
(g63
g64
NtRp537
(dp538
g67
(dp539
g75
I3
ssg76
g533
sg69
(lp540
S''
asbasbasbag62
(g78
g64
NtRp541
(dp542
g67
(dp543
sg76
g457
sg69
(lp544
g62
(g83
g64
NtRp545
(dp546
g67
(dp547
g87
g88
ssg76
g541
sg69
(lp548
g360
asbag62
(g83
g64
NtRp549
(dp550
g67
(dp551
g94
g95
ssg76
g541
sg69
(lp552
S':'
asbag62
(g83
g64
NtRp553
(dp554
g67
(dp555
sg76
g541
sg69
(lp556
g62
(g63
g64
NtRp557
(dp558
g67
(dp559
g75
I3
ssg76
g553
sg69
(lp560
S''
asbasbasbag62
(g78
g64
NtRp561
(dp562
g67
(dp563
sg76
g457
sg69
(lp564
g62
(g83
g64
NtRp565
(dp566
g67
(dp567
g87
g88
ssg76
g561
sg69
(lp568
g381
asbag62
(g83
g64
NtRp569
(dp570
g67
(dp571
g94
g95
ssg76
g561
sg69
(lp572
S':'
asbag62
(g83
g64
NtRp573
(dp574
g67
(dp575
sg76
g561
sg69
(lp576
g62
(g63
g64
NtRp577
(dp578
g67
(dp579
g75
I3
ssg76
g573
sg69
(lp580
S''
asbasbasbag62
(g78
g64
NtRp581
(dp582
g67
(dp583
sg76
g457
sg69
(lp584
g62
(g83
g64
NtRp585
(dp586
g67
(dp587
g87
g88
ssg76
g581
sg69
(lp588
g402
asbag62
(g83
g64
NtRp589
(dp590
g67
(dp591
g94
g95
ssg76
g581
sg69
(lp592
S':'
asbag62
(g83
g64
NtRp593
(dp594
g67
(dp595
sg76
g581
sg69
(lp596
g62
(g63
g64
NtRp597
(dp598
g67
(dp599
g75
I3
ssg76
g593
sg69
(lp600
S''
asbasbasbag62
(g78
g64
NtRp601
(dp602
g67
(dp603
sg76
g457
sg69
(lp604
g62
(g83
g64
NtRp605
(dp606
g67
(dp607
g87
g88
ssg76
g601
sg69
(lp608
g423
asbag62
(g83
g64
NtRp609
(dp610
g67
(dp611
g94
g95
ssg76
g601
sg69
(lp612
S':'
asbag62
(g83
g64
NtRp613
(dp614
g67
(dp615
sg76
g601
sg69
(lp616
g62
(g63
g64
NtRp617
(dp618
g67
(dp619
g75
I3
ssg76
g613
sg69
(lp620
S''
asbasbasbasbasbasbasbag62
(g78
g64
NtRp621
(dp622
g67
(dp623
sg76
g239
sg69
(lp624
g62
(g83
g64
NtRp625
(dp626
g67
(dp627
g87
g88
ssg76
g621
sg69
(lp628
S'session_id_welcome'
p629
asbag62
(g83
g64
NtRp630
(dp631
g67
(dp632
g94
g95
ssg76
g621
sg69
(lp633
S':'
asbag62
(g83
g64
NtRp634
(dp635
g67
(dp636
sg76
g621
sg69
(lp637
g62
(g63
g64
NtRp638
(dp639
g67
(dp640
g75
I4
ssg76
g634
sg69
(lp641
g62
(g71
g64
NtRp642
(dp643
g67
(dp644
g75
I3
ssg76
Nsg69
(lp645
g62
(g78
g64
NtRp646
(dp647
g67
(dp648
sg76
g642
sg69
(lp649
g62
(g83
g64
NtRp650
(dp651
g67
(dp652
g87
g88
ssg76
g646
sg69
(lp653
g276
asbag62
(g83
g64
NtRp654
(dp655
g67
(dp656
g94
g95
ssg76
g646
sg69
(lp657
S':'
asbag62
(g83
g64
NtRp658
(dp659
g67
(dp660
sg76
g646
sg69
(lp661
g62
(g63
g64
NtRp662
(dp663
g67
(dp664
g75
I3
ssg76
g658
sg69
(lp665
S''
asbasbasbag62
(g78
g64
NtRp666
(dp667
g67
(dp668
sg76
g642
sg69
(lp669
g62
(g83
g64
NtRp670
(dp671
g67
(dp672
g87
g88
ssg76
g666
sg69
(lp673
g297
asbag62
(g83
g64
NtRp674
(dp675
g67
(dp676
g94
g95
ssg76
g666
sg69
(lp677
S':'
asbag62
(g83
g64
NtRp678
(dp679
g67
(dp680
sg76
g666
sg69
(lp681
g62
(g63
g64
NtRp682
(dp683
g67
(dp684
g75
I3
ssg76
g678
sg69
(lp685
S''
asbasbasbag62
(g78
g64
NtRp686
(dp687
g67
(dp688
sg76
g642
sg69
(lp689
g62
(g83
g64
NtRp690
(dp691
g67
(dp692
g87
g88
ssg76
g686
sg69
(lp693
g318
asbag62
(g83
g64
NtRp694
(dp695
g67
(dp696
g94
g95
ssg76
g686
sg69
(lp697
S':'
asbag62
(g83
g64
NtRp698
(dp699
g67
(dp700
sg76
g686
sg69
(lp701
g62
(g63
g64
NtRp702
(dp703
g67
(dp704
g75
I3
ssg76
g698
sg69
(lp705
S''
asbasbasbag62
(g78
g64
NtRp706
(dp707
g67
(dp708
sg76
g642
sg69
(lp709
g62
(g83
g64
NtRp710
(dp711
g67
(dp712
g87
g88
ssg76
g706
sg69
(lp713
g339
asbag62
(g83
g64
NtRp714
(dp715
g67
(dp716
g94
g95
ssg76
g706
sg69
(lp717
S':'
asbag62
(g83
g64
NtRp718
(dp719
g67
(dp720
sg76
g706
sg69
(lp721
g62
(g63
g64
NtRp722
(dp723
g67
(dp724
g75
I3
ssg76
g718
sg69
(lp725
S''
asbasbasbag62
(g78
g64
NtRp726
(dp727
g67
(dp728
sg76
g642
sg69
(lp729
g62
(g83
g64
NtRp730
(dp731
g67
(dp732
g87
g88
ssg76
g726
sg69
(lp733
g360
asbag62
(g83
g64
NtRp734
(dp735
g67
(dp736
g94
g95
ssg76
g726
sg69
(lp737
S':'
asbag62
(g83
g64
NtRp738
(dp739
g67
(dp740
sg76
g726
sg69
(lp741
g62
(g63
g64
NtRp742
(dp743
g67
(dp744
g75
I3
ssg76
g738
sg69
(lp745
S''
asbasbasbag62
(g78
g64
NtRp746
(dp747
g67
(dp748
sg76
g642
sg69
(lp749
g62
(g83
g64
NtRp750
(dp751
g67
(dp752
g87
g88
ssg76
g746
sg69
(lp753
g381
asbag62
(g83
g64
NtRp754
(dp755
g67
(dp756
g94
g95
ssg76
g746
sg69
(lp757
S':'
asbag62
(g83
g64
NtRp758
(dp759
g67
(dp760
sg76
g746
sg69
(lp761
g62
(g63
g64
NtRp762
(dp763
g67
(dp764
g75
I3
ssg76
g758
sg69
(lp765
S''
asbasbasbag62
(g78
g64
NtRp766
(dp767
g67
(dp768
sg76
g642
sg69
(lp769
g62
(g83
g64
NtRp770
(dp771
g67
(dp772
g87
g88
ssg76
g766
sg69
(lp773
g402
asbag62
(g83
g64
NtRp774
(dp775
g67
(dp776
g94
g95
ssg76
g766
sg69
(lp777
S':'
asbag62
(g83
g64
NtRp778
(dp779
g67
(dp780
sg76
g766
sg69
(lp781
g62
(g63
g64
NtRp782
(dp783
g67
(dp784
g75
I3
ssg76
g778
sg69
(lp785
S''
asbasbasbag62
(g78
g64
NtRp786
(dp787
g67
(dp788
sg76
g642
sg69
(lp789
g62
(g83
g64
NtRp790
(dp791
g67
(dp792
g87
g88
ssg76
g786
sg69
(lp793
g423
asbag62
(g83
g64
NtRp794
(dp795
g67
(dp796
g94
g95
ssg76
g786
sg69
(lp797
S':'
asbag62
(g83
g64
NtRp798
(dp799
g67
(dp800
sg76
g786
sg69
(lp801
g62
(g63
g64
NtRp802
(dp803
g67
(dp804
g75
I3
ssg76
g798
sg69
(lp805
S''
asbasbasbasbasbasbasbasbasbasbasbag62
(g78
g64
NtRp806
(dp807
g67
(dp808
sg76
g72
sg69
(lp809
g62
(g83
g64
NtRp810
(dp811
g67
(dp812
g87
g88
ssg76
g806
sg69
(lp813
S'env'
p814
asbag62
(g83
g64
NtRp815
(dp816
g67
(dp817
g94
g95
ssg76
g806
sg69
(lp818
S':'
asbag62
(g83
g64
NtRp819
(dp820
g67
(dp821
sg76
g806
sg69
(lp822
g62
(g63
g64
NtRp823
(dp824
g67
(dp825
g75
I5
ssg76
g819
sg69
(lp826
g62
(g71
g64
NtRp827
(dp828
g67
(dp829
g75
I4
ssg76
Nsg69
(lp830
g62
(g78
g64
NtRp831
(dp832
g67
(dp833
sg76
g827
sg69
(lp834
g62
(g83
g64
NtRp835
(dp836
g67
(dp837
g87
g88
ssg76
g831
sg69
(lp838
S'app_folders'
p839
asbag62
(g83
g64
NtRp840
(dp841
g67
(dp842
g94
g95
ssg76
g831
sg69
(lp843
S':'
asbag62
(g83
g64
NtRp844
(dp845
g67
(dp846
sg76
g831
sg69
(lp847
g62
(g63
g64
NtRp848
(dp849
g67
(dp850
g75
I4
ssg76
g844
sg69
(lp851
S"set(['C:\\\\Users\\\\Alysse\\\\Documents\\\\GitHub\\\\finholt-senior-project\\\\web2py\\\\applications\\\\admin\\\\', 'C:\\\\Users\\\\Alysse\\\\Documents\\\\GitHub\\\\finholt-senior-project\\\\web2py\\\\applications\\\\Starcraft2\\\\', 'C:\\\\Users\\\\Alysse\\\\Documents\\\\GitHub\\\\finholt-senior-project\\\\web2py\\\\applications\\\\welcome\\\\', 'C:\\\\Users\\\\Alysse\\\\Documents\\\\GitHub\\\\finholt-senior-project\\\\web2py\\\\applications\\\\SeniorProject\\\\'])"
p852
asbasbasbag62
(g78
g64
NtRp853
(dp854
g67
(dp855
sg76
g827
sg69
(lp856
g62
(g83
g64
NtRp857
(dp858
g67
(dp859
g87
g88
ssg76
g853
sg69
(lp860
S'applications_parent'
p861
asbag62
(g83
g64
NtRp862
(dp863
g67
(dp864
g94
g95
ssg76
g853
sg69
(lp865
S':'
asbag62
(g83
g64
NtRp866
(dp867
g67
(dp868
sg76
g853
sg69
(lp869
g62
(g63
g64
NtRp870
(dp871
g67
(dp872
g75
I4
ssg76
g866
sg69
(lp873
S'C:\\Users\\Alysse\\Documents\\GitHub\\finholt-senior-project\\web2py'
p874
asbasbasbag62
(g78
g64
NtRp875
(dp876
g67
(dp877
sg76
g827
sg69
(lp878
g62
(g83
g64
NtRp879
(dp880
g67
(dp881
g87
g88
ssg76
g875
sg69
(lp882
S'cmd_args'
p883
asbag62
(g83
g64
NtRp884
(dp885
g67
(dp886
g94
g95
ssg76
g875
sg69
(lp887
S':'
asbag62
(g83
g64
NtRp888
(dp889
g67
(dp890
sg76
g875
sg69
(lp891
g62
(g63
g64
NtRp892
(dp893
g67
(dp894
g75
I4
ssg76
g888
sg69
(lp895
g62
(g71
g64
NtRp896
(dp897
g67
(dp898
g75
I3
ssg76
Nsg69
(lp899
sbasbasbasbag62
(g78
g64
NtRp900
(dp901
g67
(dp902
sg76
g827
sg69
(lp903
g62
(g83
g64
NtRp904
(dp905
g67
(dp906
g87
g88
ssg76
g900
sg69
(lp907
S'cmd_options'
p908
asbag62
(g83
g64
NtRp909
(dp910
g67
(dp911
g94
g95
ssg76
g900
sg69
(lp912
S':'
asbag62
(g83
g64
NtRp913
(dp914
g67
(dp915
sg76
g900
sg69
(lp916
g62
(g63
g64
NtRp917
(dp918
g67
(dp919
g75
I4
ssg76
g913
sg69
(lp920
S"<Values at 0x3634940: {'verbose': False, 'ip': '127.0.0.1', 'shutdown_timeout': 5, 'taskbar': False, 'nocron': False, 'pid_filename': 'httpserver.pid', 'maxthreads': None, 'softcron': False, 'server_name': 'Alysse-PC', 'bpython': False, 'nogui': False, 'port': 8000, 'extcron': False, 'debuglevel': 30, 'test': None, 'folder': 'C:\\\\Users\\\\Alysse\\\\Documents\\\\GitHub\\\\finholt-senior-project\\\\web2py', 'config': '', 'import_models': False, 'winservice': '', 'shell': None, 'run': '', 'log_filename': 'httpserver.log', 'args': [''], 'socket_timeout': 5, 'ssl_ca_certificate': None, 'scheduler': None, 'profiler_filename': None, 'ssl_private_key': '', 'password': '<ask>', 'request_queue_size': 5, 'ssl_certificate': '', 'cronjob': False, 'numthreads': None, 'quiet': False, 'interfaces': None, 'minthreads': None, 'timeout': 10, 'plain': False, 'nobanner': False}>"
p921
asbasbasbag62
(g78
g64
NtRp922
(dp923
g67
(dp924
sg76
g827
sg69
(lp925
g62
(g83
g64
NtRp926
(dp927
g67
(dp928
g87
g88
ssg76
g922
sg69
(lp929
S'content_length'
p930
asbag62
(g83
g64
NtRp931
(dp932
g67
(dp933
g94
g95
ssg76
g922
sg69
(lp934
S':'
asbag62
(g83
g64
NtRp935
(dp936
g67
(dp937
sg76
g922
sg69
(lp938
g62
(g63
g64
NtRp939
(dp940
g67
(dp941
g75
I4
ssg76
g935
sg69
(lp942
S'2626303'
p943
asbasbasbag62
(g78
g64
NtRp944
(dp945
g67
(dp946
sg76
g827
sg69
(lp947
g62
(g83
g64
NtRp948
(dp949
g67
(dp950
g87
g88
ssg76
g944
sg69
(lp951
S'content_type'
p952
asbag62
(g83
g64
NtRp953
(dp954
g67
(dp955
g94
g95
ssg76
g944
sg69
(lp956
S':'
asbag62
(g83
g64
NtRp957
(dp958
g67
(dp959
sg76
g944
sg69
(lp960
g62
(g63
g64
NtRp961
(dp962
g67
(dp963
g75
I4
ssg76
g957
sg69
(lp964
S'multipart/form-data; boundary=----WebKitFormBoundarymt2nE3ZPIV8HT240'
p965
asbasbasbag62
(g78
g64
NtRp966
(dp967
g67
(dp968
sg76
g827
sg69
(lp969
g62
(g83
g64
NtRp970
(dp971
g67
(dp972
g87
g88
ssg76
g966
sg69
(lp973
S'db_sessions'
p974
asbag62
(g83
g64
NtRp975
(dp976
g67
(dp977
g94
g95
ssg76
g966
sg69
(lp978
S':'
asbag62
(g83
g64
NtRp979
(dp980
g67
(dp981
sg76
g966
sg69
(lp982
g62
(g63
g64
NtRp983
(dp984
g67
(dp985
g75
I4
ssg76
g979
sg69
(lp986
S'set([])'
p987
asbasbasbag62
(g78
g64
NtRp988
(dp989
g67
(dp990
sg76
g827
sg69
(lp991
g62
(g83
g64
NtRp992
(dp993
g67
(dp994
g87
g88
ssg76
g988
sg69
(lp995
S'debugging'
p996
asbag62
(g83
g64
NtRp997
(dp998
g67
(dp999
g94
g95
ssg76
g988
sg69
(lp1000
S':'
asbag62
(g83
g64
NtRp1001
(dp1002
g67
(dp1003
sg76
g988
sg69
(lp1004
g62
(g63
g64
NtRp1005
(dp1006
g67
(dp1007
g75
I4
ssg76
g1001
sg69
(lp1008
g105
asbasbasbag62
(g78
g64
NtRp1009
(dp1010
g67
(dp1011
sg76
g827
sg69
(lp1012
g62
(g83
g64
NtRp1013
(dp1014
g67
(dp1015
g87
g88
ssg76
g1009
sg69
(lp1016
S'gluon_parent'
p1017
asbag62
(g83
g64
NtRp1018
(dp1019
g67
(dp1020
g94
g95
ssg76
g1009
sg69
(lp1021
S':'
asbag62
(g83
g64
NtRp1022
(dp1023
g67
(dp1024
sg76
g1009
sg69
(lp1025
g62
(g63
g64
NtRp1026
(dp1027
g67
(dp1028
g75
I4
ssg76
g1022
sg69
(lp1029
S'C:\\Users\\Alysse\\Documents\\GitHub\\finholt-senior-project\\web2py'
p1030
asbasbasbag62
(g78
g64
NtRp1031
(dp1032
g67
(dp1033
sg76
g827
sg69
(lp1034
g62
(g83
g64
NtRp1035
(dp1036
g67
(dp1037
g87
g88
ssg76
g1031
sg69
(lp1038
S'http_accept'
p1039
asbag62
(g83
g64
NtRp1040
(dp1041
g67
(dp1042
g94
g95
ssg76
g1031
sg69
(lp1043
S':'
asbag62
(g83
g64
NtRp1044
(dp1045
g67
(dp1046
sg76
g1031
sg69
(lp1047
g62
(g63
g64
NtRp1048
(dp1049
g67
(dp1050
g75
I4
ssg76
g1044
sg69
(lp1051
S'text/html,application/xhtml+xml,application/xml;q=0.9,*/*;q=0.8'
p1052
asbasbasbag62
(g78
g64
NtRp1053
(dp1054
g67
(dp1055
sg76
g827
sg69
(lp1056
g62
(g83
g64
NtRp1057
(dp1058
g67
(dp1059
g87
g88
ssg76
g1053
sg69
(lp1060
S'http_accept_charset'
p1061
asbag62
(g83
g64
NtRp1062
(dp1063
g67
(dp1064
g94
g95
ssg76
g1053
sg69
(lp1065
S':'
asbag62
(g83
g64
NtRp1066
(dp1067
g67
(dp1068
sg76
g1053
sg69
(lp1069
g62
(g63
g64
NtRp1070
(dp1071
g67
(dp1072
g75
I4
ssg76
g1066
sg69
(lp1073
S'ISO-8859-1,utf-8;q=0.7,*;q=0.3'
p1074
asbasbasbag62
(g78
g64
NtRp1075
(dp1076
g67
(dp1077
sg76
g827
sg69
(lp1078
g62
(g83
g64
NtRp1079
(dp1080
g67
(dp1081
g87
g88
ssg76
g1075
sg69
(lp1082
S'http_accept_encoding'
p1083
asbag62
(g83
g64
NtRp1084
(dp1085
g67
(dp1086
g94
g95
ssg76
g1075
sg69
(lp1087
S':'
asbag62
(g83
g64
NtRp1088
(dp1089
g67
(dp1090
sg76
g1075
sg69
(lp1091
g62
(g63
g64
NtRp1092
(dp1093
g67
(dp1094
g75
I4
ssg76
g1088
sg69
(lp1095
S'gzip,deflate,sdch'
p1096
asbasbasbag62
(g78
g64
NtRp1097
(dp1098
g67
(dp1099
sg76
g827
sg69
(lp1100
g62
(g83
g64
NtRp1101
(dp1102
g67
(dp1103
g87
g88
ssg76
g1097
sg69
(lp1104
S'http_accept_language'
p1105
asbag62
(g83
g64
NtRp1106
(dp1107
g67
(dp1108
g94
g95
ssg76
g1097
sg69
(lp1109
S':'
asbag62
(g83
g64
NtRp1110
(dp1111
g67
(dp1112
sg76
g1097
sg69
(lp1113
g62
(g63
g64
NtRp1114
(dp1115
g67
(dp1116
g75
I4
ssg76
g1110
sg69
(lp1117
S'en-US,en;q=0.8'
p1118
asbasbasbag62
(g78
g64
NtRp1119
(dp1120
g67
(dp1121
sg76
g827
sg69
(lp1122
g62
(g83
g64
NtRp1123
(dp1124
g67
(dp1125
g87
g88
ssg76
g1119
sg69
(lp1126
S'http_cache_control'
p1127
asbag62
(g83
g64
NtRp1128
(dp1129
g67
(dp1130
g94
g95
ssg76
g1119
sg69
(lp1131
S':'
asbag62
(g83
g64
NtRp1132
(dp1133
g67
(dp1134
sg76
g1119
sg69
(lp1135
g62
(g63
g64
NtRp1136
(dp1137
g67
(dp1138
g75
I4
ssg76
g1132
sg69
(lp1139
S'max-age=0'
p1140
asbasbasbag62
(g78
g64
NtRp1141
(dp1142
g67
(dp1143
sg76
g827
sg69
(lp1144
g62
(g83
g64
NtRp1145
(dp1146
g67
(dp1147
g87
g88
ssg76
g1141
sg69
(lp1148
S'http_connection'
p1149
asbag62
(g83
g64
NtRp1150
(dp1151
g67
(dp1152
g94
g95
ssg76
g1141
sg69
(lp1153
S':'
asbag62
(g83
g64
NtRp1154
(dp1155
g67
(dp1156
sg76
g1141
sg69
(lp1157
g62
(g63
g64
NtRp1158
(dp1159
g67
(dp1160
g75
I4
ssg76
g1154
sg69
(lp1161
S'keep-alive'
p1162
asbasbasbag62
(g78
g64
NtRp1163
(dp1164
g67
(dp1165
sg76
g827
sg69
(lp1166
g62
(g83
g64
NtRp1167
(dp1168
g67
(dp1169
g87
g88
ssg76
g1163
sg69
(lp1170
S'http_content_length'
p1171
asbag62
(g83
g64
NtRp1172
(dp1173
g67
(dp1174
g94
g95
ssg76
g1163
sg69
(lp1175
S':'
asbag62
(g83
g64
NtRp1176
(dp1177
g67
(dp1178
sg76
g1163
sg69
(lp1179
g62
(g63
g64
NtRp1180
(dp1181
g67
(dp1182
g75
I4
ssg76
g1176
sg69
(lp1183
g943
asbasbasbag62
(g78
g64
NtRp1184
(dp1185
g67
(dp1186
sg76
g827
sg69
(lp1187
g62
(g83
g64
NtRp1188
(dp1189
g67
(dp1190
g87
g88
ssg76
g1184
sg69
(lp1191
S'http_content_type'
p1192
asbag62
(g83
g64
NtRp1193
(dp1194
g67
(dp1195
g94
g95
ssg76
g1184
sg69
(lp1196
S':'
asbag62
(g83
g64
NtRp1197
(dp1198
g67
(dp1199
sg76
g1184
sg69
(lp1200
g62
(g63
g64
NtRp1201
(dp1202
g67
(dp1203
g75
I4
ssg76
g1197
sg69
(lp1204
g965
asbasbasbag62
(g78
g64
NtRp1205
(dp1206
g67
(dp1207
sg76
g827
sg69
(lp1208
g62
(g83
g64
NtRp1209
(dp1210
g67
(dp1211
g87
g88
ssg76
g1205
sg69
(lp1212
S'http_cookie'
p1213
asbag62
(g83
g64
NtRp1214
(dp1215
g67
(dp1216
g94
g95
ssg76
g1205
sg69
(lp1217
S':'
asbag62
(g83
g64
NtRp1218
(dp1219
g67
(dp1220
sg76
g1205
sg69
(lp1221
g62
(g63
g64
NtRp1222
(dp1223
g67
(dp1224
g75
I4
ssg76
g1218
sg69
(lp1225
S'session_id_welcome=127.0.0.1-7ec584ee-5a40-4fa9-b74a-54e08d2e424b; session_id_admin=127.0.0.1-11622e58-0465-4aa6-bd23-3149d911f912; session_id_seniorproject=127.0.0.1-27e84226-676e-4898-b7a2-674f445a7186'
p1226
asbasbasbag62
(g78
g64
NtRp1227
(dp1228
g67
(dp1229
sg76
g827
sg69
(lp1230
g62
(g83
g64
NtRp1231
(dp1232
g67
(dp1233
g87
g88
ssg76
g1227
sg69
(lp1234
S'http_host'
p1235
asbag62
(g83
g64
NtRp1236
(dp1237
g67
(dp1238
g94
g95
ssg76
g1227
sg69
(lp1239
S':'
asbag62
(g83
g64
NtRp1240
(dp1241
g67
(dp1242
sg76
g1227
sg69
(lp1243
g62
(g63
g64
NtRp1244
(dp1245
g67
(dp1246
g75
I4
ssg76
g1240
sg69
(lp1247
S'127.0.0.1:8000'
p1248
asbasbasbag62
(g78
g64
NtRp1249
(dp1250
g67
(dp1251
sg76
g827
sg69
(lp1252
g62
(g83
g64
NtRp1253
(dp1254
g67
(dp1255
g87
g88
ssg76
g1249
sg69
(lp1256
S'http_origin'
p1257
asbag62
(g83
g64
NtRp1258
(dp1259
g67
(dp1260
g94
g95
ssg76
g1249
sg69
(lp1261
S':'
asbag62
(g83
g64
NtRp1262
(dp1263
g67
(dp1264
sg76
g1249
sg69
(lp1265
g62
(g63
g64
NtRp1266
(dp1267
g67
(dp1268
g75
I4
ssg76
g1262
sg69
(lp1269
S'http://127.0.0.1:8000'
p1270
asbasbasbag62
(g78
g64
NtRp1271
(dp1272
g67
(dp1273
sg76
g827
sg69
(lp1274
g62
(g83
g64
NtRp1275
(dp1276
g67
(dp1277
g87
g88
ssg76
g1271
sg69
(lp1278
S'http_referer'
p1279
asbag62
(g83
g64
NtRp1280
(dp1281
g67
(dp1282
g94
g95
ssg76
g1271
sg69
(lp1283
S':'
asbag62
(g83
g64
NtRp1284
(dp1285
g67
(dp1286
sg76
g1271
sg69
(lp1287
g62
(g63
g64
NtRp1288
(dp1289
g67
(dp1290
g75
I4
ssg76
g1284
sg69
(lp1291
S'http://127.0.0.1:8000/SeniorProject/default/index'
p1292
asbasbasbag62
(g78
g64
NtRp1293
(dp1294
g67
(dp1295
sg76
g827
sg69
(lp1296
g62
(g83
g64
NtRp1297
(dp1298
g67
(dp1299
g87
g88
ssg76
g1293
sg69
(lp1300
S'http_user_agent'
p1301
asbag62
(g83
g64
NtRp1302
(dp1303
g67
(dp1304
g94
g95
ssg76
g1293
sg69
(lp1305
S':'
asbag62
(g83
g64
NtRp1306
(dp1307
g67
(dp1308
sg76
g1293
sg69
(lp1309
g62
(g63
g64
NtRp1310
(dp1311
g67
(dp1312
g75
I4
ssg76
g1306
sg69
(lp1313
S'Mozilla/5.0 (Windows NT 6.0) AppleWebKit/537.4 (KHTML, like Gecko) Chrome/22.0.1229.94 Safari/537.4'
p1314
asbasbasbag62
(g78
g64
NtRp1315
(dp1316
g67
(dp1317
sg76
g827
sg69
(lp1318
g62
(g83
g64
NtRp1319
(dp1320
g67
(dp1321
g87
g88
ssg76
g1315
sg69
(lp1322
S'is_jython'
p1323
asbag62
(g83
g64
NtRp1324
(dp1325
g67
(dp1326
g94
g95
ssg76
g1315
sg69
(lp1327
S':'
asbag62
(g83
g64
NtRp1328
(dp1329
g67
(dp1330
sg76
g1315
sg69
(lp1331
g62
(g63
g64
NtRp1332
(dp1333
g67
(dp1334
g75
I4
ssg76
g1328
sg69
(lp1335
g105
asbasbasbag62
(g78
g64
NtRp1336
(dp1337
g67
(dp1338
sg76
g827
sg69
(lp1339
g62
(g83
g64
NtRp1340
(dp1341
g67
(dp1342
g87
g88
ssg76
g1336
sg69
(lp1343
S'is_pypy'
p1344
asbag62
(g83
g64
NtRp1345
(dp1346
g67
(dp1347
g94
g95
ssg76
g1336
sg69
(lp1348
S':'
asbag62
(g83
g64
NtRp1349
(dp1350
g67
(dp1351
sg76
g1336
sg69
(lp1352
g62
(g63
g64
NtRp1353
(dp1354
g67
(dp1355
g75
I4
ssg76
g1349
sg69
(lp1356
g105
asbasbasbag62
(g78
g64
NtRp1357
(dp1358
g67
(dp1359
sg76
g827
sg69
(lp1360
g62
(g83
g64
NtRp1361
(dp1362
g67
(dp1363
g87
g88
ssg76
g1357
sg69
(lp1364
S'path_info'
p1365
asbag62
(g83
g64
NtRp1366
(dp1367
g67
(dp1368
g94
g95
ssg76
g1357
sg69
(lp1369
S':'
asbag62
(g83
g64
NtRp1370
(dp1371
g67
(dp1372
sg76
g1357
sg69
(lp1373
g62
(g63
g64
NtRp1374
(dp1375
g67
(dp1376
g75
I4
ssg76
g1370
sg69
(lp1377
S'/SeniorProject/default/index'
p1378
asbasbasbag62
(g78
g64
NtRp1379
(dp1380
g67
(dp1381
sg76
g827
sg69
(lp1382
g62
(g83
g64
NtRp1383
(dp1384
g67
(dp1385
g87
g88
ssg76
g1379
sg69
(lp1386
S'query_string'
p1387
asbag62
(g83
g64
NtRp1388
(dp1389
g67
(dp1390
g94
g95
ssg76
g1379
sg69
(lp1391
S':'
asbag62
(g83
g64
NtRp1392
(dp1393
g67
(dp1394
sg76
g1379
sg69
(lp1395
g62
(g63
g64
NtRp1396
(dp1397
g67
(dp1398
g75
I4
ssg76
g1392
sg69
(lp1399
S''
asbasbasbag62
(g78
g64
NtRp1400
(dp1401
g67
(dp1402
sg76
g827
sg69
(lp1403
g62
(g83
g64
NtRp1404
(dp1405
g67
(dp1406
g87
g88
ssg76
g1400
sg69
(lp1407
S'remote_addr'
p1408
asbag62
(g83
g64
NtRp1409
(dp1410
g67
(dp1411
g94
g95
ssg76
g1400
sg69
(lp1412
S':'
asbag62
(g83
g64
NtRp1413
(dp1414
g67
(dp1415
sg76
g1400
sg69
(lp1416
g62
(g63
g64
NtRp1417
(dp1418
g67
(dp1419
g75
I4
ssg76
g1413
sg69
(lp1420
g195
asbasbasbag62
(g78
g64
NtRp1421
(dp1422
g67
(dp1423
sg76
g827
sg69
(lp1424
g62
(g83
g64
NtRp1425
(dp1426
g67
(dp1427
g87
g88
ssg76
g1421
sg69
(lp1428
S'remote_port'
p1429
asbag62
(g83
g64
NtRp1430
(dp1431
g67
(dp1432
g94
g95
ssg76
g1421
sg69
(lp1433
S':'
asbag62
(g83
g64
NtRp1434
(dp1435
g67
(dp1436
sg76
g1421
sg69
(lp1437
g62
(g63
g64
NtRp1438
(dp1439
g67
(dp1440
g75
I4
ssg76
g1434
sg69
(lp1441
S'53297'
p1442
asbasbasbag62
(g78
g64
NtRp1443
(dp1444
g67
(dp1445
sg76
g827
sg69
(lp1446
g62
(g83
g64
NtRp1447
(dp1448
g67
(dp1449
g87
g88
ssg76
g1443
sg69
(lp1450
S'request_method'
p1451
asbag62
(g83
g64
NtRp1452
(dp1453
g67
(dp1454
g94
g95
ssg76
g1443
sg69
(lp1455
S':'
asbag62
(g83
g64
NtRp1456
(dp1457
g67
(dp1458
sg76
g1443
sg69
(lp1459
g62
(g63
g64
NtRp1460
(dp1461
g67
(dp1462
g75
I4
ssg76
g1456
sg69
(lp1463
S'POST'
p1464
asbasbasbag62
(g78
g64
NtRp1465
(dp1466
g67
(dp1467
sg76
g827
sg69
(lp1468
g62
(g83
g64
NtRp1469
(dp1470
g67
(dp1471
g87
g88
ssg76
g1465
sg69
(lp1472
S'script_name'
p1473
asbag62
(g83
g64
NtRp1474
(dp1475
g67
(dp1476
g94
g95
ssg76
g1465
sg69
(lp1477
S':'
asbag62
(g83
g64
NtRp1478
(dp1479
g67
(dp1480
sg76
g1465
sg69
(lp1481
g62
(g63
g64
NtRp1482
(dp1483
g67
(dp1484
g75
I4
ssg76
g1478
sg69
(lp1485
S''
asbasbasbag62
(g78
g64
NtRp1486
(dp1487
g67
(dp1488
sg76
g827
sg69
(lp1489
g62
(g83
g64
NtRp1490
(dp1491
g67
(dp1492
g87
g88
ssg76
g1486
sg69
(lp1493
S'server_name'
p1494
asbag62
(g83
g64
NtRp1495
(dp1496
g67
(dp1497
g94
g95
ssg76
g1486
sg69
(lp1498
S':'
asbag62
(g83
g64
NtRp1499
(dp1500
g67
(dp1501
sg76
g1486
sg69
(lp1502
g62
(g63
g64
NtRp1503
(dp1504
g67
(dp1505
g75
I4
ssg76
g1499
sg69
(lp1506
S'Alysse-PC'
p1507
asbasbasbag62
(g78
g64
NtRp1508
(dp1509
g67
(dp1510
sg76
g827
sg69
(lp1511
g62
(g83
g64
NtRp1512
(dp1513
g67
(dp1514
g87
g88
ssg76
g1508
sg69
(lp1515
S'server_port'
p1516
asbag62
(g83
g64
NtRp1517
(dp1518
g67
(dp1519
g94
g95
ssg76
g1508
sg69
(lp1520
S':'
asbag62
(g83
g64
NtRp1521
(dp1522
g67
(dp1523
sg76
g1508
sg69
(lp1524
g62
(g63
g64
NtRp1525
(dp1526
g67
(dp1527
g75
I4
ssg76
g1521
sg69
(lp1528
S'8000'
p1529
asbasbasbag62
(g78
g64
NtRp1530
(dp1531
g67
(dp1532
sg76
g827
sg69
(lp1533
g62
(g83
g64
NtRp1534
(dp1535
g67
(dp1536
g87
g88
ssg76
g1530
sg69
(lp1537
S'server_protocol'
p1538
asbag62
(g83
g64
NtRp1539
(dp1540
g67
(dp1541
g94
g95
ssg76
g1530
sg69
(lp1542
S':'
asbag62
(g83
g64
NtRp1543
(dp1544
g67
(dp1545
sg76
g1530
sg69
(lp1546
g62
(g63
g64
NtRp1547
(dp1548
g67
(dp1549
g75
I4
ssg76
g1543
sg69
(lp1550
S'HTTP/1.1'
p1551
asbasbasbag62
(g78
g64
NtRp1552
(dp1553
g67
(dp1554
sg76
g827
sg69
(lp1555
g62
(g83
g64
NtRp1556
(dp1557
g67
(dp1558
g87
g88
ssg76
g1552
sg69
(lp1559
S'server_software'
p1560
asbag62
(g83
g64
NtRp1561
(dp1562
g67
(dp1563
g94
g95
ssg76
g1552
sg69
(lp1564
S':'
asbag62
(g83
g64
NtRp1565
(dp1566
g67
(dp1567
sg76
g1552
sg69
(lp1568
g62
(g63
g64
NtRp1569
(dp1570
g67
(dp1571
g75
I4
ssg76
g1565
sg69
(lp1572
S'Rocket 1.2.4'
p1573
asbasbasbag62
(g78
g64
NtRp1574
(dp1575
g67
(dp1576
sg76
g827
sg69
(lp1577
g62
(g83
g64
NtRp1578
(dp1579
g67
(dp1580
g87
g88
ssg76
g1574
sg69
(lp1581
S'web2py_crontype'
p1582
asbag62
(g83
g64
NtRp1583
(dp1584
g67
(dp1585
g94
g95
ssg76
g1574
sg69
(lp1586
S':'
asbag62
(g83
g64
NtRp1587
(dp1588
g67
(dp1589
sg76
g1574
sg69
(lp1590
g62
(g63
g64
NtRp1591
(dp1592
g67
(dp1593
g75
I4
ssg76
g1587
sg69
(lp1594
S'hard'
p1595
asbasbasbag62
(g78
g64
NtRp1596
(dp1597
g67
(dp1598
sg76
g827
sg69
(lp1599
g62
(g83
g64
NtRp1600
(dp1601
g67
(dp1602
g87
g88
ssg76
g1596
sg69
(lp1603
S'web2py_path'
p1604
asbag62
(g83
g64
NtRp1605
(dp1606
g67
(dp1607
g94
g95
ssg76
g1596
sg69
(lp1608
S':'
asbag62
(g83
g64
NtRp1609
(dp1610
g67
(dp1611
sg76
g1596
sg69
(lp1612
g62
(g63
g64
NtRp1613
(dp1614
g67
(dp1615
g75
I4
ssg76
g1609
sg69
(lp1616
g874
asbasbasbag62
(g78
g64
NtRp1617
(dp1618
g67
(dp1619
sg76
g827
sg69
(lp1620
g62
(g83
g64
NtRp1621
(dp1622
g67
(dp1623
g87
g88
ssg76
g1617
sg69
(lp1624
S'web2py_version'
p1625
asbag62
(g83
g64
NtRp1626
(dp1627
g67
(dp1628
g94
g95
ssg76
g1617
sg69
(lp1629
S':'
asbag62
(g83
g64
NtRp1630
(dp1631
g67
(dp1632
sg76
g1617
sg69
(lp1633
g62
(g63
g64
NtRp1634
(dp1635
g67
(dp1636
g75
I4
ssg76
g1630
sg69
(lp1637
g62
(g71
g64
NtRp1638
(dp1639
g67
(dp1640
g75
I3
ssg76
Nsg69
(lp1641
g62
(g78
g64
NtRp1642
(dp1643
g67
(dp1644
sg76
g1638
sg69
(lp1645
g62
(g83
g64
NtRp1646
(dp1647
g67
(dp1648
sg76
g1642
sg69
(lp1649
g62
(g63
g64
NtRp1650
(dp1651
g67
(dp1652
g75
I3
ssg76
g1646
sg69
(lp1653
S'1'
asbasbasbag62
(g78
g64
NtRp1654
(dp1655
g67
(dp1656
sg76
g1638
sg69
(lp1657
g62
(g83
g64
NtRp1658
(dp1659
g67
(dp1660
sg76
g1654
sg69
(lp1661
g62
(g63
g64
NtRp1662
(dp1663
g67
(dp1664
g75
I3
ssg76
g1658
sg69
(lp1665
S'99'
p1666
asbasbasbag62
(g78
g64
NtRp1667
(dp1668
g67
(dp1669
sg76
g1638
sg69
(lp1670
g62
(g83
g64
NtRp1671
(dp1672
g67
(dp1673
sg76
g1667
sg69
(lp1674
g62
(g63
g64
NtRp1675
(dp1676
g67
(dp1677
g75
I3
ssg76
g1671
sg69
(lp1678
S'7'
asbasbasbag62
(g78
g64
NtRp1679
(dp1680
g67
(dp1681
sg76
g1638
sg69
(lp1682
g62
(g83
g64
NtRp1683
(dp1684
g67
(dp1685
sg76
g1679
sg69
(lp1686
g62
(g63
g64
NtRp1687
(dp1688
g67
(dp1689
g75
I3
ssg76
g1683
sg69
(lp1690
S'datetime.datetime(2012, 3, 4, 22, 12, 8)'
p1691
asbasbasbag62
(g78
g64
NtRp1692
(dp1693
g67
(dp1694
sg76
g1638
sg69
(lp1695
g62
(g83
g64
NtRp1696
(dp1697
g67
(dp1698
sg76
g1692
sg69
(lp1699
g62
(g63
g64
NtRp1700
(dp1701
g67
(dp1702
g75
I3
ssg76
g1696
sg69
(lp1703
S'stable'
p1704
asbasbasbasbasbasbasbag62
(g78
g64
NtRp1705
(dp1706
g67
(dp1707
sg76
g827
sg69
(lp1708
g62
(g83
g64
NtRp1709
(dp1710
g67
(dp1711
g87
g88
ssg76
g1705
sg69
(lp1712
S'wsgi_errors'
p1713
asbag62
(g83
g64
NtRp1714
(dp1715
g67
(dp1716
g94
g95
ssg76
g1705
sg69
(lp1717
S':'
asbag62
(g83
g64
NtRp1718
(dp1719
g67
(dp1720
sg76
g1705
sg69
(lp1721
g62
(g63
g64
NtRp1722
(dp1723
g67
(dp1724
g75
I4
ssg76
g1718
sg69
(lp1725
S"<open file '<stderr>', mode 'w' at 0x019150D0>"
p1726
asbasbasbag62
(g78
g64
NtRp1727
(dp1728
g67
(dp1729
sg76
g827
sg69
(lp1730
g62
(g83
g64
NtRp1731
(dp1732
g67
(dp1733
g87
g88
ssg76
g1727
sg69
(lp1734
S'wsgi_file_wrapper'
p1735
asbag62
(g83
g64
NtRp1736
(dp1737
g67
(dp1738
g94
g95
ssg76
g1727
sg69
(lp1739
S':'
asbag62
(g83
g64
NtRp1740
(dp1741
g67
(dp1742
sg76
g1727
sg69
(lp1743
g62
(g63
g64
NtRp1744
(dp1745
g67
(dp1746
g75
I4
ssg76
g1740
sg69
(lp1747
S'<class wsgiref.util.FileWrapper at 0x03265AE8>'
p1748
asbasbasbag62
(g78
g64
NtRp1749
(dp1750
g67
(dp1751
sg76
g827
sg69
(lp1752
g62
(g83
g64
NtRp1753
(dp1754
g67
(dp1755
g87
g88
ssg76
g1749
sg69
(lp1756
S'wsgi_input'
p1757
asbag62
(g83
g64
NtRp1758
(dp1759
g67
(dp1760
g94
g95
ssg76
g1749
sg69
(lp1761
S':'
asbag62
(g83
g64
NtRp1762
(dp1763
g67
(dp1764
sg76
g1749
sg69
(lp1765
g62
(g63
g64
NtRp1766
(dp1767
g67
(dp1768
g75
I4
ssg76
g1762
sg69
(lp1769
S'<socket._fileobject object at 0x0431DE70>'
p1770
asbasbasbag62
(g78
g64
NtRp1771
(dp1772
g67
(dp1773
sg76
g827
sg69
(lp1774
g62
(g83
g64
NtRp1775
(dp1776
g67
(dp1777
g87
g88
ssg76
g1771
sg69
(lp1778
S'wsgi_multiprocess'
p1779
asbag62
(g83
g64
NtRp1780
(dp1781
g67
(dp1782
g94
g95
ssg76
g1771
sg69
(lp1783
S':'
asbag62
(g83
g64
NtRp1784
(dp1785
g67
(dp1786
sg76
g1771
sg69
(lp1787
g62
(g63
g64
NtRp1788
(dp1789
g67
(dp1790
g75
I4
ssg76
g1784
sg69
(lp1791
g105
asbasbasbag62
(g78
g64
NtRp1792
(dp1793
g67
(dp1794
sg76
g827
sg69
(lp1795
g62
(g83
g64
NtRp1796
(dp1797
g67
(dp1798
g87
g88
ssg76
g1792
sg69
(lp1799
S'wsgi_multithread'
p1800
asbag62
(g83
g64
NtRp1801
(dp1802
g67
(dp1803
g94
g95
ssg76
g1792
sg69
(lp1804
S':'
asbag62
(g83
g64
NtRp1805
(dp1806
g67
(dp1807
sg76
g1792
sg69
(lp1808
g62
(g63
g64
NtRp1809
(dp1810
g67
(dp1811
g75
I4
ssg76
g1805
sg69
(lp1812
S'True'
p1813
asbasbasbag62
(g78
g64
NtRp1814
(dp1815
g67
(dp1816
sg76
g827
sg69
(lp1817
g62
(g83
g64
NtRp1818
(dp1819
g67
(dp1820
g87
g88
ssg76
g1814
sg69
(lp1821
S'wsgi_run_once'
p1822
asbag62
(g83
g64
NtRp1823
(dp1824
g67
(dp1825
g94
g95
ssg76
g1814
sg69
(lp1826
S':'
asbag62
(g83
g64
NtRp1827
(dp1828
g67
(dp1829
sg76
g1814
sg69
(lp1830
g62
(g63
g64
NtRp1831
(dp1832
g67
(dp1833
g75
I4
ssg76
g1827
sg69
(lp1834
g105
asbasbasbag62
(g78
g64
NtRp1835
(dp1836
g67
(dp1837
sg76
g827
sg69
(lp1838
g62
(g83
g64
NtRp1839
(dp1840
g67
(dp1841
g87
g88
ssg76
g1835
sg69
(lp1842
S'wsgi_url_scheme'
p1843
asbag62
(g83
g64
NtRp1844
(dp1845
g67
(dp1846
g94
g95
ssg76
g1835
sg69
(lp1847
S':'
asbag62
(g83
g64
NtRp1848
(dp1849
g67
(dp1850
sg76
g1835
sg69
(lp1851
g62
(g63
g64
NtRp1852
(dp1853
g67
(dp1854
g75
I4
ssg76
g1848
sg69
(lp1855
S'http'
p1856
asbasbasbag62
(g78
g64
NtRp1857
(dp1858
g67
(dp1859
sg76
g827
sg69
(lp1860
g62
(g83
g64
NtRp1861
(dp1862
g67
(dp1863
g87
g88
ssg76
g1857
sg69
(lp1864
S'wsgi_version'
p1865
asbag62
(g83
g64
NtRp1866
(dp1867
g67
(dp1868
g94
g95
ssg76
g1857
sg69
(lp1869
S':'
asbag62
(g83
g64
NtRp1870
(dp1871
g67
(dp1872
sg76
g1857
sg69
(lp1873
g62
(g63
g64
NtRp1874
(dp1875
g67
(dp1876
g75
I4
ssg76
g1870
sg69
(lp1877
g62
(g71
g64
NtRp1878
(dp1879
g67
(dp1880
g75
I3
ssg76
Nsg69
(lp1881
g62
(g78
g64
NtRp1882
(dp1883
g67
(dp1884
sg76
g1878
sg69
(lp1885
g62
(g83
g64
NtRp1886
(dp1887
g67
(dp1888
sg76
g1882
sg69
(lp1889
g62
(g63
g64
NtRp1890
(dp1891
g67
(dp1892
g75
I3
ssg76
g1886
sg69
(lp1893
S'1'
asbasbasbag62
(g78
g64
NtRp1894
(dp1895
g67
(dp1896
sg76
g1878
sg69
(lp1897
g62
(g83
g64
NtRp1898
(dp1899
g67
(dp1900
sg76
g1894
sg69
(lp1901
g62
(g63
g64
NtRp1902
(dp1903
g67
(dp1904
g75
I3
ssg76
g1898
sg69
(lp1905
S'0'
asbasbasbasbasbasbasbasbasbasbasbag62
(g78
g64
NtRp1906
(dp1907
g67
(dp1908
sg76
g72
sg69
(lp1909
g62
(g83
g64
NtRp1910
(dp1911
g67
(dp1912
g87
g88
ssg76
g1906
sg69
(lp1913
S'extension'
p1914
asbag62
(g83
g64
NtRp1915
(dp1916
g67
(dp1917
g94
g95
ssg76
g1906
sg69
(lp1918
S':'
asbag62
(g83
g64
NtRp1919
(dp1920
g67
(dp1921
sg76
g1906
sg69
(lp1922
g62
(g63
g64
NtRp1923
(dp1924
g67
(dp1925
g75
I5
ssg76
g1919
sg69
(lp1926
S'html'
p1927
asbasbasbag62
(g78
g64
NtRp1928
(dp1929
g67
(dp1930
sg76
g72
sg69
(lp1931
g62
(g83
g64
NtRp1932
(dp1933
g67
(dp1934
g87
g88
ssg76
g1928
sg69
(lp1935
S'folder'
p1936
asbag62
(g83
g64
NtRp1937
(dp1938
g67
(dp1939
g94
g95
ssg76
g1928
sg69
(lp1940
S':'
asbag62
(g83
g64
NtRp1941
(dp1942
g67
(dp1943
sg76
g1928
sg69
(lp1944
g62
(g63
g64
NtRp1945
(dp1946
g67
(dp1947
g75
I5
ssg76
g1941
sg69
(lp1948
S'C:\\Users\\Alysse\\Documents\\GitHub\\finholt-senior-project\\web2py\\applications\\SeniorProject\\'
p1949
asbasbasbag62
(g78
g64
NtRp1950
(dp1951
g67
(dp1952
sg76
g72
sg69
(lp1953
g62
(g83
g64
NtRp1954
(dp1955
g67
(dp1956
g87
g88
ssg76
g1950
sg69
(lp1957
S'function'
p1958
asbag62
(g83
g64
NtRp1959
(dp1960
g67
(dp1961
g94
g95
ssg76
g1950
sg69
(lp1962
S':'
asbag62
(g83
g64
NtRp1963
(dp1964
g67
(dp1965
sg76
g1950
sg69
(lp1966
g62
(g63
g64
NtRp1967
(dp1968
g67
(dp1969
g75
I5
ssg76
g1963
sg69
(lp1970
S'index'
p1971
asbasbasbag62
(g78
g64
NtRp1972
(dp1973
g67
(dp1974
sg76
g72
sg69
(lp1975
g62
(g83
g64
NtRp1976
(dp1977
g67
(dp1978
g87
g88
ssg76
g1972
sg69
(lp1979
S'get_vars'
p1980
asbag62
(g83
g64
NtRp1981
(dp1982
g67
(dp1983
g94
g95
ssg76
g1972
sg69
(lp1984
S':'
asbag62
(g83
g64
NtRp1985
(dp1986
g67
(dp1987
sg76
g1972
sg69
(lp1988
g62
(g63
g64
NtRp1989
(dp1990
g67
(dp1991
g75
I5
ssg76
g1985
sg69
(lp1992
g62
(g71
g64
NtRp1993
(dp1994
g67
(dp1995
g75
I4
ssg76
Nsg69
(lp1996
sbasbasbasbag62
(g78
g64
NtRp1997
(dp1998
g67
(dp1999
sg76
g72
sg69
(lp2000
g62
(g83
g64
NtRp2001
(dp2002
g67
(dp2003
g87
g88
ssg76
g1997
sg69
(lp2004
S'global_settings'
p2005
asbag62
(g83
g64
NtRp2006
(dp2007
g67
(dp2008
g94
g95
ssg76
g1997
sg69
(lp2009
S':'
asbag62
(g83
g64
NtRp2010
(dp2011
g67
(dp2012
sg76
g1997
sg69
(lp2013
g62
(g63
g64
NtRp2014
(dp2015
g67
(dp2016
g75
I5
ssg76
g2010
sg69
(lp2017
g62
(g71
g64
NtRp2018
(dp2019
g67
(dp2020
g75
I4
ssg76
Nsg69
(lp2021
g62
(g78
g64
NtRp2022
(dp2023
g67
(dp2024
sg76
g2018
sg69
(lp2025
g62
(g83
g64
NtRp2026
(dp2027
g67
(dp2028
g87
g88
ssg76
g2022
sg69
(lp2029
g839
asbag62
(g83
g64
NtRp2030
(dp2031
g67
(dp2032
g94
g95
ssg76
g2022
sg69
(lp2033
S':'
asbag62
(g83
g64
NtRp2034
(dp2035
g67
(dp2036
sg76
g2022
sg69
(lp2037
g62
(g63
g64
NtRp2038
(dp2039
g67
(dp2040
g75
I4
ssg76
g2034
sg69
(lp2041
S"set(['C:\\\\Users\\\\Alysse\\\\Documents\\\\GitHub\\\\finholt-senior-project\\\\web2py\\\\applications\\\\admin\\\\', 'C:\\\\Users\\\\Alysse\\\\Documents\\\\GitHub\\\\finholt-senior-project\\\\web2py\\\\applications\\\\Starcraft2\\\\', 'C:\\\\Users\\\\Alysse\\\\Documents\\\\GitHub\\\\finholt-senior-project\\\\web2py\\\\applications\\\\welcome\\\\', 'C:\\\\Users\\\\Alysse\\\\Documents\\\\GitHub\\\\finholt-senior-project\\\\web2py\\\\applications\\\\SeniorProject\\\\'])"
p2042
asbasbasbag62
(g78
g64
NtRp2043
(dp2044
g67
(dp2045
sg76
g2018
sg69
(lp2046
g62
(g83
g64
NtRp2047
(dp2048
g67
(dp2049
g87
g88
ssg76
g2043
sg69
(lp2050
g861
asbag62
(g83
g64
NtRp2051
(dp2052
g67
(dp2053
g94
g95
ssg76
g2043
sg69
(lp2054
S':'
asbag62
(g83
g64
NtRp2055
(dp2056
g67
(dp2057
sg76
g2043
sg69
(lp2058
g62
(g63
g64
NtRp2059
(dp2060
g67
(dp2061
g75
I4
ssg76
g2055
sg69
(lp2062
g874
asbasbasbag62
(g78
g64
NtRp2063
(dp2064
g67
(dp2065
sg76
g2018
sg69
(lp2066
g62
(g83
g64
NtRp2067
(dp2068
g67
(dp2069
g87
g88
ssg76
g2063
sg69
(lp2070
g883
asbag62
(g83
g64
NtRp2071
(dp2072
g67
(dp2073
g94
g95
ssg76
g2063
sg69
(lp2074
S':'
asbag62
(g83
g64
NtRp2075
(dp2076
g67
(dp2077
sg76
g2063
sg69
(lp2078
g62
(g63
g64
NtRp2079
(dp2080
g67
(dp2081
g75
I4
ssg76
g2075
sg69
(lp2082
g62
(g71
g64
NtRp2083
(dp2084
g67
(dp2085
g75
I3
ssg76
Nsg69
(lp2086
sbasbasbasbag62
(g78
g64
NtRp2087
(dp2088
g67
(dp2089
sg76
g2018
sg69
(lp2090
g62
(g83
g64
NtRp2091
(dp2092
g67
(dp2093
g87
g88
ssg76
g2087
sg69
(lp2094
g908
asbag62
(g83
g64
NtRp2095
(dp2096
g67
(dp2097
g94
g95
ssg76
g2087
sg69
(lp2098
S':'
asbag62
(g83
g64
NtRp2099
(dp2100
g67
(dp2101
sg76
g2087
sg69
(lp2102
g62
(g63
g64
NtRp2103
(dp2104
g67
(dp2105
g75
I4
ssg76
g2099
sg69
(lp2106
S"<Values at 0x3634940: {'verbose': False, 'ip': '127.0.0.1', 'shutdown_timeout': 5, 'taskbar': False, 'nocron': False, 'pid_filename': 'httpserver.pid', 'maxthreads': None, 'softcron': False, 'server_name': 'Alysse-PC', 'bpython': False, 'nogui': False, 'port': 8000, 'extcron': False, 'debuglevel': 30, 'test': None, 'folder': 'C:\\\\Users\\\\Alysse\\\\Documents\\\\GitHub\\\\finholt-senior-project\\\\web2py', 'config': '', 'import_models': False, 'winservice': '', 'shell': None, 'run': '', 'log_filename': 'httpserver.log', 'args': [''], 'socket_timeout': 5, 'ssl_ca_certificate': None, 'scheduler': None, 'profiler_filename': None, 'ssl_private_key': '', 'password': '<ask>', 'request_queue_size': 5, 'ssl_certificate': '', 'cronjob': False, 'numthreads': None, 'quiet': False, 'interfaces': None, 'minthreads': None, 'timeout': 10, 'plain': False, 'nobanner': False}>"
p2107
asbasbasbag62
(g78
g64
NtRp2108
(dp2109
g67
(dp2110
sg76
g2018
sg69
(lp2111
g62
(g83
g64
NtRp2112
(dp2113
g67
(dp2114
g87
g88
ssg76
g2108
sg69
(lp2115
g974
asbag62
(g83
g64
NtRp2116
(dp2117
g67
(dp2118
g94
g95
ssg76
g2108
sg69
(lp2119
S':'
asbag62
(g83
g64
NtRp2120
(dp2121
g67
(dp2122
sg76
g2108
sg69
(lp2123
g62
(g63
g64
NtRp2124
(dp2125
g67
(dp2126
g75
I4
ssg76
g2120
sg69
(lp2127
S'set([])'
p2128
asbasbasbag62
(g78
g64
NtRp2129
(dp2130
g67
(dp2131
sg76
g2018
sg69
(lp2132
g62
(g83
g64
NtRp2133
(dp2134
g67
(dp2135
g87
g88
ssg76
g2129
sg69
(lp2136
g996
asbag62
(g83
g64
NtRp2137
(dp2138
g67
(dp2139
g94
g95
ssg76
g2129
sg69
(lp2140
S':'
asbag62
(g83
g64
NtRp2141
(dp2142
g67
(dp2143
sg76
g2129
sg69
(lp2144
g62
(g63
g64
NtRp2145
(dp2146
g67
(dp2147
g75
I4
ssg76
g2141
sg69
(lp2148
g105
asbasbasbag62
(g78
g64
NtRp2149
(dp2150
g67
(dp2151
sg76
g2018
sg69
(lp2152
g62
(g83
g64
NtRp2153
(dp2154
g67
(dp2155
g87
g88
ssg76
g2149
sg69
(lp2156
g1017
asbag62
(g83
g64
NtRp2157
(dp2158
g67
(dp2159
g94
g95
ssg76
g2149
sg69
(lp2160
S':'
asbag62
(g83
g64
NtRp2161
(dp2162
g67
(dp2163
sg76
g2149
sg69
(lp2164
g62
(g63
g64
NtRp2165
(dp2166
g67
(dp2167
g75
I4
ssg76
g2161
sg69
(lp2168
g1030
asbasbasbag62
(g78
g64
NtRp2169
(dp2170
g67
(dp2171
sg76
g2018
sg69
(lp2172
g62
(g83
g64
NtRp2173
(dp2174
g67
(dp2175
g87
g88
ssg76
g2169
sg69
(lp2176
g1323
asbag62
(g83
g64
NtRp2177
(dp2178
g67
(dp2179
g94
g95
ssg76
g2169
sg69
(lp2180
S':'
asbag62
(g83
g64
NtRp2181
(dp2182
g67
(dp2183
sg76
g2169
sg69
(lp2184
g62
(g63
g64
NtRp2185
(dp2186
g67
(dp2187
g75
I4
ssg76
g2181
sg69
(lp2188
g105
asbasbasbag62
(g78
g64
NtRp2189
(dp2190
g67
(dp2191
sg76
g2018
sg69
(lp2192
g62
(g83
g64
NtRp2193
(dp2194
g67
(dp2195
g87
g88
ssg76
g2189
sg69
(lp2196
g1344
asbag62
(g83
g64
NtRp2197
(dp2198
g67
(dp2199
g94
g95
ssg76
g2189
sg69
(lp2200
S':'
asbag62
(g83
g64
NtRp2201
(dp2202
g67
(dp2203
sg76
g2189
sg69
(lp2204
g62
(g63
g64
NtRp2205
(dp2206
g67
(dp2207
g75
I4
ssg76
g2201
sg69
(lp2208
g105
asbasbasbag62
(g78
g64
NtRp2209
(dp2210
g67
(dp2211
sg76
g2018
sg69
(lp2212
g62
(g83
g64
NtRp2213
(dp2214
g67
(dp2215
g87
g88
ssg76
g2209
sg69
(lp2216
g1582
asbag62
(g83
g64
NtRp2217
(dp2218
g67
(dp2219
g94
g95
ssg76
g2209
sg69
(lp2220
S':'
asbag62
(g83
g64
NtRp2221
(dp2222
g67
(dp2223
sg76
g2209
sg69
(lp2224
g62
(g63
g64
NtRp2225
(dp2226
g67
(dp2227
g75
I4
ssg76
g2221
sg69
(lp2228
g1595
asbasbasbag62
(g78
g64
NtRp2229
(dp2230
g67
(dp2231
sg76
g2018
sg69
(lp2232
g62
(g83
g64
NtRp2233
(dp2234
g67
(dp2235
g87
g88
ssg76
g2229
sg69
(lp2236
g1625
asbag62
(g83
g64
NtRp2237
(dp2238
g67
(dp2239
g94
g95
ssg76
g2229
sg69
(lp2240
S':'
asbag62
(g83
g64
NtRp2241
(dp2242
g67
(dp2243
sg76
g2229
sg69
(lp2244
g62
(g63
g64
NtRp2245
(dp2246
g67
(dp2247
g75
I4
ssg76
g2241
sg69
(lp2248
g62
(g71
g64
NtRp2249
(dp2250
g67
(dp2251
g75
I3
ssg76
Nsg69
(lp2252
g62
(g78
g64
NtRp2253
(dp2254
g67
(dp2255
sg76
g2249
sg69
(lp2256
g62
(g83
g64
NtRp2257
(dp2258
g67
(dp2259
sg76
g2253
sg69
(lp2260
g62
(g63
g64
NtRp2261
(dp2262
g67
(dp2263
g75
I3
ssg76
g2257
sg69
(lp2264
S'1'
asbasbasbag62
(g78
g64
NtRp2265
(dp2266
g67
(dp2267
sg76
g2249
sg69
(lp2268
g62
(g83
g64
NtRp2269
(dp2270
g67
(dp2271
sg76
g2265
sg69
(lp2272
g62
(g63
g64
NtRp2273
(dp2274
g67
(dp2275
g75
I3
ssg76
g2269
sg69
(lp2276
S'99'
p2277
asbasbasbag62
(g78
g64
NtRp2278
(dp2279
g67
(dp2280
sg76
g2249
sg69
(lp2281
g62
(g83
g64
NtRp2282
(dp2283
g67
(dp2284
sg76
g2278
sg69
(lp2285
g62
(g63
g64
NtRp2286
(dp2287
g67
(dp2288
g75
I3
ssg76
g2282
sg69
(lp2289
S'7'
asbasbasbag62
(g78
g64
NtRp2290
(dp2291
g67
(dp2292
sg76
g2249
sg69
(lp2293
g62
(g83
g64
NtRp2294
(dp2295
g67
(dp2296
sg76
g2290
sg69
(lp2297
g62
(g63
g64
NtRp2298
(dp2299
g67
(dp2300
g75
I3
ssg76
g2294
sg69
(lp2301
S'datetime.datetime(2012, 3, 4, 22, 12, 8)'
p2302
asbasbasbag62
(g78
g64
NtRp2303
(dp2304
g67
(dp2305
sg76
g2249
sg69
(lp2306
g62
(g83
g64
NtRp2307
(dp2308
g67
(dp2309
sg76
g2303
sg69
(lp2310
g62
(g63
g64
NtRp2311
(dp2312
g67
(dp2313
g75
I3
ssg76
g2307
sg69
(lp2314
g1704
asbasbasbasbasbasbasbasbasbasbasbag62
(g78
g64
NtRp2315
(dp2316
g67
(dp2317
sg76
g72
sg69
(lp2318
g62
(g83
g64
NtRp2319
(dp2320
g67
(dp2321
g87
g88
ssg76
g2315
sg69
(lp2322
S'is_https'
p2323
asbag62
(g83
g64
NtRp2324
(dp2325
g67
(dp2326
g94
g95
ssg76
g2315
sg69
(lp2327
S':'
asbag62
(g83
g64
NtRp2328
(dp2329
g67
(dp2330
sg76
g2315
sg69
(lp2331
g62
(g63
g64
NtRp2332
(dp2333
g67
(dp2334
g75
I5
ssg76
g2328
sg69
(lp2335
g105
asbasbasbag62
(g78
g64
NtRp2336
(dp2337
g67
(dp2338
sg76
g72
sg69
(lp2339
g62
(g83
g64
NtRp2340
(dp2341
g67
(dp2342
g87
g88
ssg76
g2336
sg69
(lp2343
S'is_local'
p2344
asbag62
(g83
g64
NtRp2345
(dp2346
g67
(dp2347
g94
g95
ssg76
g2336
sg69
(lp2348
S':'
asbag62
(g83
g64
NtRp2349
(dp2350
g67
(dp2351
sg76
g2336
sg69
(lp2352
g62
(g63
g64
NtRp2353
(dp2354
g67
(dp2355
g75
I5
ssg76
g2349
sg69
(lp2356
g1813
asbasbasbag62
(g78
g64
NtRp2357
(dp2358
g67
(dp2359
sg76
g72
sg69
(lp2360
g62
(g83
g64
NtRp2361
(dp2362
g67
(dp2363
g87
g88
ssg76
g2357
sg69
(lp2364
S'is_restful'
p2365
asbag62
(g83
g64
NtRp2366
(dp2367
g67
(dp2368
g94
g95
ssg76
g2357
sg69
(lp2369
S':'
asbag62
(g83
g64
NtRp2370
(dp2371
g67
(dp2372
sg76
g2357
sg69
(lp2373
g62
(g63
g64
NtRp2374
(dp2375
g67
(dp2376
g75
I5
ssg76
g2370
sg69
(lp2377
g105
asbasbasbag62
(g78
g64
NtRp2378
(dp2379
g67
(dp2380
sg76
g72
sg69
(lp2381
g62
(g83
g64
NtRp2382
(dp2383
g67
(dp2384
g87
g88
ssg76
g2378
sg69
(lp2385
S'now'
p2386
asbag62
(g83
g64
NtRp2387
(dp2388
g67
(dp2389
g94
g95
ssg76
g2378
sg69
(lp2390
S':'
asbag62
(g83
g64
NtRp2391
(dp2392
g67
(dp2393
sg76
g2378
sg69
(lp2394
g62
(g63
g64
NtRp2395
(dp2396
g67
(dp2397
g75
I5
ssg76
g2391
sg69
(lp2398
S'datetime.datetime(2012, 10, 23, 16, 3, 33, 605000)'
p2399
asbasbasbag62
(g78
g64
NtRp2400
(dp2401
g67
(dp2402
sg76
g72
sg69
(lp2403
g62
(g83
g64
NtRp2404
(dp2405
g67
(dp2406
g87
g88
ssg76
g2400
sg69
(lp2407
S'post_vars'
p2408
asbag62
(g83
g64
NtRp2409
(dp2410
g67
(dp2411
g94
g95
ssg76
g2400
sg69
(lp2412
S':'
asbag62
(g83
g64
NtRp2413
(dp2414
g67
(dp2415
sg76
g2400
sg69
(lp2416
g62
(g63
g64
NtRp2417
(dp2418
g67
(dp2419
g75
I5
ssg76
g2413
sg69
(lp2420
g62
(g71
g64
NtRp2421
(dp2422
g67
(dp2423
g75
I4
ssg76
Nsg69
(lp2424
g62
(g78
g64
NtRp2425
(dp2426
g67
(dp2427
sg76
g2421
sg69
(lp2428
g62
(g83
g64
NtRp2429
(dp2430
g67
(dp2431
g87
g88
ssg76
g2425
sg69
(lp2432
S'file'
p2433
asbag62
(g83
g64
NtRp2434
(dp2435
g67
(dp2436
g94
g95
ssg76
g2425
sg69
(lp2437
S':'
asbag62
(g83
g64
NtRp2438
(dp2439
g67
(dp2440
sg76
g2425
sg69
(lp2441
g62
(g63
g64
NtRp2442
(dp2443
g67
(dp2444
g75
I4
ssg76
g2438
sg69
(lp2445
S'FieldStorage object'
p2446
asbasbasbag62
(g78
g64
NtRp2447
(dp2448
g67
(dp2449
sg76
g2421
sg69
(lp2450
g62
(g83
g64
NtRp2451
(dp2452
g67
(dp2453
g87
g88
ssg76
g2447
sg69
(lp2454
S'propDate'
p2455
asbag62
(g83
g64
NtRp2456
(dp2457
g67
(dp2458
g94
g95
ssg76
g2447
sg69
(lp2459
S':'
asbag62
(g83
g64
NtRp2460
(dp2461
g67
(dp2462
sg76
g2447
sg69
(lp2463
g62
(g63
g64
NtRp2464
(dp2465
g67
(dp2466
g75
I4
ssg76
g2460
sg69
(lp2467
S'2012-10-22'
p2468
asbasbasbag62
(g78
g64
NtRp2469
(dp2470
g67
(dp2471
sg76
g2421
sg69
(lp2472
g62
(g83
g64
NtRp2473
(dp2474
g67
(dp2475
g87
g88
ssg76
g2469
sg69
(lp2476
S'reqNum'
p2477
asbag62
(g83
g64
NtRp2478
(dp2479
g67
(dp2480
g94
g95
ssg76
g2469
sg69
(lp2481
S':'
asbag62
(g83
g64
NtRp2482
(dp2483
g67
(dp2484
sg76
g2469
sg69
(lp2485
g62
(g63
g64
NtRp2486
(dp2487
g67
(dp2488
g75
I4
ssg76
g2482
sg69
(lp2489
S'1234'
p2490
asbasbasbasbasbasbasbag62
(g78
g64
NtRp2491
(dp2492
g67
(dp2493
sg76
g72
sg69
(lp2494
g62
(g83
g64
NtRp2495
(dp2496
g67
(dp2497
g87
g88
ssg76
g2491
sg69
(lp2498
S'url'
p2499
asbag62
(g83
g64
NtRp2500
(dp2501
g67
(dp2502
g94
g95
ssg76
g2491
sg69
(lp2503
S':'
asbag62
(g83
g64
NtRp2504
(dp2505
g67
(dp2506
sg76
g2491
sg69
(lp2507
g62
(g63
g64
NtRp2508
(dp2509
g67
(dp2510
g75
I5
ssg76
g2504
sg69
(lp2511
S'/SeniorProject/default/index'
p2512
asbasbasbag62
(g78
g64
NtRp2513
(dp2514
g67
(dp2515
sg76
g72
sg69
(lp2516
g62
(g83
g64
NtRp2517
(dp2518
g67
(dp2519
g87
g88
ssg76
g2513
sg69
(lp2520
S'utcnow'
p2521
asbag62
(g83
g64
NtRp2522
(dp2523
g67
(dp2524
g94
g95
ssg76
g2513
sg69
(lp2525
S':'
asbag62
(g83
g64
NtRp2526
(dp2527
g67
(dp2528
sg76
g2513
sg69
(lp2529
g62
(g63
g64
NtRp2530
(dp2531
g67
(dp2532
g75
I5
ssg76
g2526
sg69
(lp2533
S'datetime.datetime(2012, 10, 23, 21, 3, 33, 605000)'
p2534
asbasbasbag62
(g78
g64
NtRp2535
(dp2536
g67
(dp2537
sg76
g72
sg69
(lp2538
g62
(g83
g64
NtRp2539
(dp2540
g67
(dp2541
g87
g88
ssg76
g2535
sg69
(lp2542
S'uuid'
p2543
asbag62
(g83
g64
NtRp2544
(dp2545
g67
(dp2546
g94
g95
ssg76
g2535
sg69
(lp2547
S':'
asbag62
(g83
g64
NtRp2548
(dp2549
g67
(dp2550
sg76
g2535
sg69
(lp2551
g62
(g63
g64
NtRp2552
(dp2553
g67
(dp2554
g75
I5
ssg76
g2548
sg69
(lp2555
S'SeniorProject/127.0.0.1.2012-10-23.16-03-33.9dca841b-bb50-4bc1-bff0-9bfe22a434c1'
p2556
asbasbasbag62
(g78
g64
NtRp2557
(dp2558
g67
(dp2559
sg76
g72
sg69
(lp2560
g62
(g83
g64
NtRp2561
(dp2562
g67
(dp2563
g87
g88
ssg76
g2557
sg69
(lp2564
S'vars'
p2565
asbag62
(g83
g64
NtRp2566
(dp2567
g67
(dp2568
g94
g95
ssg76
g2557
sg69
(lp2569
S':'
asbag62
(g83
g64
NtRp2570
(dp2571
g67
(dp2572
sg76
g2557
sg69
(lp2573
g62
(g63
g64
NtRp2574
(dp2575
g67
(dp2576
g75
I5
ssg76
g2570
sg69
(lp2577
g62
(g71
g64
NtRp2578
(dp2579
g67
(dp2580
g75
I4
ssg76
Nsg69
(lp2581
g62
(g78
g64
NtRp2582
(dp2583
g67
(dp2584
sg76
g2578
sg69
(lp2585
g62
(g83
g64
NtRp2586
(dp2587
g67
(dp2588
g87
g88
ssg76
g2582
sg69
(lp2589
g2433
asbag62
(g83
g64
NtRp2590
(dp2591
g67
(dp2592
g94
g95
ssg76
g2582
sg69
(lp2593
S':'
asbag62
(g83
g64
NtRp2594
(dp2595
g67
(dp2596
sg76
g2582
sg69
(lp2597
g62
(g63
g64
NtRp2598
(dp2599
g67
(dp2600
g75
I4
ssg76
g2594
sg69
(lp2601
g2446
asbasbasbag62
(g78
g64
NtRp2602
(dp2603
g67
(dp2604
sg76
g2578
sg69
(lp2605
g62
(g83
g64
NtRp2606
(dp2607
g67
(dp2608
g87
g88
ssg76
g2602
sg69
(lp2609
g2455
asbag62
(g83
g64
NtRp2610
(dp2611
g67
(dp2612
g94
g95
ssg76
g2602
sg69
(lp2613
S':'
asbag62
(g83
g64
NtRp2614
(dp2615
g67
(dp2616
sg76
g2602
sg69
(lp2617
g62
(g63
g64
NtRp2618
(dp2619
g67
(dp2620
g75
I4
ssg76
g2614
sg69
(lp2621
g2468
asbasbasbag62
(g78
g64
NtRp2622
(dp2623
g67
(dp2624
sg76
g2578
sg69
(lp2625
g62
(g83
g64
NtRp2626
(dp2627
g67
(dp2628
g87
g88
ssg76
g2622
sg69
(lp2629
g2477
asbag62
(g83
g64
NtRp2630
(dp2631
g67
(dp2632
g94
g95
ssg76
g2622
sg69
(lp2633
S':'
asbag62
(g83
g64
NtRp2634
(dp2635
g67
(dp2636
sg76
g2622
sg69
(lp2637
g62
(g63
g64
NtRp2638
(dp2639
g67
(dp2640
g75
I4
ssg76
g2634
sg69
(lp2641
g2490
asbasbasbasbasbasbasbag62
(g78
g64
NtRp2642
(dp2643
g67
(dp2644
sg76
g72
sg69
(lp2645
g62
(g83
g64
NtRp2646
(dp2647
g67
(dp2648
g87
g88
ssg76
g2642
sg69
(lp2649
S'wsgi'
p2650
asbag62
(g83
g64
NtRp2651
(dp2652
g67
(dp2653
g94
g95
ssg76
g2642
sg69
(lp2654
S':'
asbag62
(g83
g64
NtRp2655
(dp2656
g67
(dp2657
sg76
g2642
sg69
(lp2658
g62
(g63
g64
NtRp2659
(dp2660
g67
(dp2661
g75
I5
ssg76
g2655
sg69
(lp2662
g62
(g71
g64
NtRp2663
(dp2664
g67
(dp2665
g75
I4
ssg76
Nsg69
(lp2666
g62
(g78
g64
NtRp2667
(dp2668
g67
(dp2669
sg76
g2663
sg69
(lp2670
g62
(g83
g64
NtRp2671
(dp2672
g67
(dp2673
g87
g88
ssg76
g2667
sg69
(lp2674
S'environ'
p2675
asbag62
(g83
g64
NtRp2676
(dp2677
g67
(dp2678
g94
g95
ssg76
g2667
sg69
(lp2679
S':'
asbag62
(g83
g64
NtRp2680
(dp2681
g67
(dp2682
sg76
g2667
sg69
(lp2683
g62
(g63
g64
NtRp2684
(dp2685
g67
(dp2686
g75
I4
ssg76
g2680
sg69
(lp2687
g62
(g71
g64
NtRp2688
(dp2689
g67
(dp2690
g75
I3
ssg76
Nsg69
(lp2691
g62
(g78
g64
NtRp2692
(dp2693
g67
(dp2694
sg76
g2688
sg69
(lp2695
g62
(g83
g64
NtRp2696
(dp2697
g67
(dp2698
g87
g88
ssg76
g2692
sg69
(lp2699
S'CONTENT_LENGTH'
p2700
asbag62
(g83
g64
NtRp2701
(dp2702
g67
(dp2703
g94
g95
ssg76
g2692
sg69
(lp2704
S':'
asbag62
(g83
g64
NtRp2705
(dp2706
g67
(dp2707
sg76
g2692
sg69
(lp2708
g62
(g63
g64
NtRp2709
(dp2710
g67
(dp2711
g75
I3
ssg76
g2705
sg69
(lp2712
g943
asbasbasbag62
(g78
g64
NtRp2713
(dp2714
g67
(dp2715
sg76
g2688
sg69
(lp2716
g62
(g83
g64
NtRp2717
(dp2718
g67
(dp2719
g87
g88
ssg76
g2713
sg69
(lp2720
S'CONTENT_TYPE'
p2721
asbag62
(g83
g64
NtRp2722
(dp2723
g67
(dp2724
g94
g95
ssg76
g2713
sg69
(lp2725
S':'
asbag62
(g83
g64
NtRp2726
(dp2727
g67
(dp2728
sg76
g2713
sg69
(lp2729
g62
(g63
g64
NtRp2730
(dp2731
g67
(dp2732
g75
I3
ssg76
g2726
sg69
(lp2733
g965
asbasbasbag62
(g78
g64
NtRp2734
(dp2735
g67
(dp2736
sg76
g2688
sg69
(lp2737
g62
(g83
g64
NtRp2738
(dp2739
g67
(dp2740
g87
g88
ssg76
g2734
sg69
(lp2741
S'HTTP_ACCEPT'
p2742
asbag62
(g83
g64
NtRp2743
(dp2744
g67
(dp2745
g94
g95
ssg76
g2734
sg69
(lp2746
S':'
asbag62
(g83
g64
NtRp2747
(dp2748
g67
(dp2749
sg76
g2734
sg69
(lp2750
g62
(g63
g64
NtRp2751
(dp2752
g67
(dp2753
g75
I3
ssg76
g2747
sg69
(lp2754
g1052
asbasbasbag62
(g78
g64
NtRp2755
(dp2756
g67
(dp2757
sg76
g2688
sg69
(lp2758
g62
(g83
g64
NtRp2759
(dp2760
g67
(dp2761
g87
g88
ssg76
g2755
sg69
(lp2762
S'HTTP_ACCEPT_CHARSET'
p2763
asbag62
(g83
g64
NtRp2764
(dp2765
g67
(dp2766
g94
g95
ssg76
g2755
sg69
(lp2767
S':'
asbag62
(g83
g64
NtRp2768
(dp2769
g67
(dp2770
sg76
g2755
sg69
(lp2771
g62
(g63
g64
NtRp2772
(dp2773
g67
(dp2774
g75
I3
ssg76
g2768
sg69
(lp2775
g1074
asbasbasbag62
(g78
g64
NtRp2776
(dp2777
g67
(dp2778
sg76
g2688
sg69
(lp2779
g62
(g83
g64
NtRp2780
(dp2781
g67
(dp2782
g87
g88
ssg76
g2776
sg69
(lp2783
S'HTTP_ACCEPT_ENCODING'
p2784
asbag62
(g83
g64
NtRp2785
(dp2786
g67
(dp2787
g94
g95
ssg76
g2776
sg69
(lp2788
S':'
asbag62
(g83
g64
NtRp2789
(dp2790
g67
(dp2791
sg76
g2776
sg69
(lp2792
g62
(g63
g64
NtRp2793
(dp2794
g67
(dp2795
g75
I3
ssg76
g2789
sg69
(lp2796
g1096
asbasbasbag62
(g78
g64
NtRp2797
(dp2798
g67
(dp2799
sg76
g2688
sg69
(lp2800
g62
(g83
g64
NtRp2801
(dp2802
g67
(dp2803
g87
g88
ssg76
g2797
sg69
(lp2804
S'HTTP_ACCEPT_LANGUAGE'
p2805
asbag62
(g83
g64
NtRp2806
(dp2807
g67
(dp2808
g94
g95
ssg76
g2797
sg69
(lp2809
S':'
asbag62
(g83
g64
NtRp2810
(dp2811
g67
(dp2812
sg76
g2797
sg69
(lp2813
g62
(g63
g64
NtRp2814
(dp2815
g67
(dp2816
g75
I3
ssg76
g2810
sg69
(lp2817
g1118
asbasbasbag62
(g78
g64
NtRp2818
(dp2819
g67
(dp2820
sg76
g2688
sg69
(lp2821
g62
(g83
g64
NtRp2822
(dp2823
g67
(dp2824
g87
g88
ssg76
g2818
sg69
(lp2825
S'HTTP_CACHE_CONTROL'
p2826
asbag62
(g83
g64
NtRp2827
(dp2828
g67
(dp2829
g94
g95
ssg76
g2818
sg69
(lp2830
S':'
asbag62
(g83
g64
NtRp2831
(dp2832
g67
(dp2833
sg76
g2818
sg69
(lp2834
g62
(g63
g64
NtRp2835
(dp2836
g67
(dp2837
g75
I3
ssg76
g2831
sg69
(lp2838
g1140
asbasbasbag62
(g78
g64
NtRp2839
(dp2840
g67
(dp2841
sg76
g2688
sg69
(lp2842
g62
(g83
g64
NtRp2843
(dp2844
g67
(dp2845
g87
g88
ssg76
g2839
sg69
(lp2846
S'HTTP_CONNECTION'
p2847
asbag62
(g83
g64
NtRp2848
(dp2849
g67
(dp2850
g94
g95
ssg76
g2839
sg69
(lp2851
S':'
asbag62
(g83
g64
NtRp2852
(dp2853
g67
(dp2854
sg76
g2839
sg69
(lp2855
g62
(g63
g64
NtRp2856
(dp2857
g67
(dp2858
g75
I3
ssg76
g2852
sg69
(lp2859
g1162
asbasbasbag62
(g78
g64
NtRp2860
(dp2861
g67
(dp2862
sg76
g2688
sg69
(lp2863
g62
(g83
g64
NtRp2864
(dp2865
g67
(dp2866
g87
g88
ssg76
g2860
sg69
(lp2867
S'HTTP_CONTENT_LENGTH'
p2868
asbag62
(g83
g64
NtRp2869
(dp2870
g67
(dp2871
g94
g95
ssg76
g2860
sg69
(lp2872
S':'
asbag62
(g83
g64
NtRp2873
(dp2874
g67
(dp2875
sg76
g2860
sg69
(lp2876
g62
(g63
g64
NtRp2877
(dp2878
g67
(dp2879
g75
I3
ssg76
g2873
sg69
(lp2880
g943
asbasbasbag62
(g78
g64
NtRp2881
(dp2882
g67
(dp2883
sg76
g2688
sg69
(lp2884
g62
(g83
g64
NtRp2885
(dp2886
g67
(dp2887
g87
g88
ssg76
g2881
sg69
(lp2888
S'HTTP_CONTENT_TYPE'
p2889
asbag62
(g83
g64
NtRp2890
(dp2891
g67
(dp2892
g94
g95
ssg76
g2881
sg69
(lp2893
S':'
asbag62
(g83
g64
NtRp2894
(dp2895
g67
(dp2896
sg76
g2881
sg69
(lp2897
g62
(g63
g64
NtRp2898
(dp2899
g67
(dp2900
g75
I3
ssg76
g2894
sg69
(lp2901
g965
asbasbasbag62
(g78
g64
NtRp2902
(dp2903
g67
(dp2904
sg76
g2688
sg69
(lp2905
g62
(g83
g64
NtRp2906
(dp2907
g67
(dp2908
g87
g88
ssg76
g2902
sg69
(lp2909
S'HTTP_COOKIE'
p2910
asbag62
(g83
g64
NtRp2911
(dp2912
g67
(dp2913
g94
g95
ssg76
g2902
sg69
(lp2914
S':'
asbag62
(g83
g64
NtRp2915
(dp2916
g67
(dp2917
sg76
g2902
sg69
(lp2918
g62
(g63
g64
NtRp2919
(dp2920
g67
(dp2921
g75
I3
ssg76
g2915
sg69
(lp2922
g1226
asbasbasbag62
(g78
g64
NtRp2923
(dp2924
g67
(dp2925
sg76
g2688
sg69
(lp2926
g62
(g83
g64
NtRp2927
(dp2928
g67
(dp2929
g87
g88
ssg76
g2923
sg69
(lp2930
S'HTTP_HOST'
p2931
asbag62
(g83
g64
NtRp2932
(dp2933
g67
(dp2934
g94
g95
ssg76
g2923
sg69
(lp2935
S':'
asbag62
(g83
g64
NtRp2936
(dp2937
g67
(dp2938
sg76
g2923
sg69
(lp2939
g62
(g63
g64
NtRp2940
(dp2941
g67
(dp2942
g75
I3
ssg76
g2936
sg69
(lp2943
g1248
asbasbasbag62
(g78
g64
NtRp2944
(dp2945
g67
(dp2946
sg76
g2688
sg69
(lp2947
g62
(g83
g64
NtRp2948
(dp2949
g67
(dp2950
g87
g88
ssg76
g2944
sg69
(lp2951
S'HTTP_ORIGIN'
p2952
asbag62
(g83
g64
NtRp2953
(dp2954
g67
(dp2955
g94
g95
ssg76
g2944
sg69
(lp2956
S':'
asbag62
(g83
g64
NtRp2957
(dp2958
g67
(dp2959
sg76
g2944
sg69
(lp2960
g62
(g63
g64
NtRp2961
(dp2962
g67
(dp2963
g75
I3
ssg76
g2957
sg69
(lp2964
g1270
asbasbasbag62
(g78
g64
NtRp2965
(dp2966
g67
(dp2967
sg76
g2688
sg69
(lp2968
g62
(g83
g64
NtRp2969
(dp2970
g67
(dp2971
g87
g88
ssg76
g2965
sg69
(lp2972
S'HTTP_REFERER'
p2973
asbag62
(g83
g64
NtRp2974
(dp2975
g67
(dp2976
g94
g95
ssg76
g2965
sg69
(lp2977
S':'
asbag62
(g83
g64
NtRp2978
(dp2979
g67
(dp2980
sg76
g2965
sg69
(lp2981
g62
(g63
g64
NtRp2982
(dp2983
g67
(dp2984
g75
I3
ssg76
g2978
sg69
(lp2985
g1292
asbasbasbag62
(g78
g64
NtRp2986
(dp2987
g67
(dp2988
sg76
g2688
sg69
(lp2989
g62
(g83
g64
NtRp2990
(dp2991
g67
(dp2992
g87
g88
ssg76
g2986
sg69
(lp2993
S'HTTP_USER_AGENT'
p2994
asbag62
(g83
g64
NtRp2995
(dp2996
g67
(dp2997
g94
g95
ssg76
g2986
sg69
(lp2998
S':'
asbag62
(g83
g64
NtRp2999
(dp3000
g67
(dp3001
sg76
g2986
sg69
(lp3002
g62
(g63
g64
NtRp3003
(dp3004
g67
(dp3005
g75
I3
ssg76
g2999
sg69
(lp3006
g1314
asbasbasbag62
(g78
g64
NtRp3007
(dp3008
g67
(dp3009
sg76
g2688
sg69
(lp3010
g62
(g83
g64
NtRp3011
(dp3012
g67
(dp3013
g87
g88
ssg76
g3007
sg69
(lp3014
S'PATH_INFO'
p3015
asbag62
(g83
g64
NtRp3016
(dp3017
g67
(dp3018
g94
g95
ssg76
g3007
sg69
(lp3019
S':'
asbag62
(g83
g64
NtRp3020
(dp3021
g67
(dp3022
sg76
g3007
sg69
(lp3023
g62
(g63
g64
NtRp3024
(dp3025
g67
(dp3026
g75
I3
ssg76
g3020
sg69
(lp3027
g1378
asbasbasbag62
(g78
g64
NtRp3028
(dp3029
g67
(dp3030
sg76
g2688
sg69
(lp3031
g62
(g83
g64
NtRp3032
(dp3033
g67
(dp3034
g87
g88
ssg76
g3028
sg69
(lp3035
S'QUERY_STRING'
p3036
asbag62
(g83
g64
NtRp3037
(dp3038
g67
(dp3039
g94
g95
ssg76
g3028
sg69
(lp3040
S':'
asbag62
(g83
g64
NtRp3041
(dp3042
g67
(dp3043
sg76
g3028
sg69
(lp3044
g62
(g63
g64
NtRp3045
(dp3046
g67
(dp3047
g75
I3
ssg76
g3041
sg69
(lp3048
S''
asbasbasbag62
(g78
g64
NtRp3049
(dp3050
g67
(dp3051
sg76
g2688
sg69
(lp3052
g62
(g83
g64
NtRp3053
(dp3054
g67
(dp3055
g87
g88
ssg76
g3049
sg69
(lp3056
S'REMOTE_ADDR'
p3057
asbag62
(g83
g64
NtRp3058
(dp3059
g67
(dp3060
g94
g95
ssg76
g3049
sg69
(lp3061
S':'
asbag62
(g83
g64
NtRp3062
(dp3063
g67
(dp3064
sg76
g3049
sg69
(lp3065
g62
(g63
g64
NtRp3066
(dp3067
g67
(dp3068
g75
I3
ssg76
g3062
sg69
(lp3069
g195
asbasbasbag62
(g78
g64
NtRp3070
(dp3071
g67
(dp3072
sg76
g2688
sg69
(lp3073
g62
(g83
g64
NtRp3074
(dp3075
g67
(dp3076
g87
g88
ssg76
g3070
sg69
(lp3077
S'REMOTE_PORT'
p3078
asbag62
(g83
g64
NtRp3079
(dp3080
g67
(dp3081
g94
g95
ssg76
g3070
sg69
(lp3082
S':'
asbag62
(g83
g64
NtRp3083
(dp3084
g67
(dp3085
sg76
g3070
sg69
(lp3086
g62
(g63
g64
NtRp3087
(dp3088
g67
(dp3089
g75
I3
ssg76
g3083
sg69
(lp3090
g1442
asbasbasbag62
(g78
g64
NtRp3091
(dp3092
g67
(dp3093
sg76
g2688
sg69
(lp3094
g62
(g83
g64
NtRp3095
(dp3096
g67
(dp3097
g87
g88
ssg76
g3091
sg69
(lp3098
S'REQUEST_METHOD'
p3099
asbag62
(g83
g64
NtRp3100
(dp3101
g67
(dp3102
g94
g95
ssg76
g3091
sg69
(lp3103
S':'
asbag62
(g83
g64
NtRp3104
(dp3105
g67
(dp3106
sg76
g3091
sg69
(lp3107
g62
(g63
g64
NtRp3108
(dp3109
g67
(dp3110
g75
I3
ssg76
g3104
sg69
(lp3111
g1464
asbasbasbag62
(g78
g64
NtRp3112
(dp3113
g67
(dp3114
sg76
g2688
sg69
(lp3115
g62
(g83
g64
NtRp3116
(dp3117
g67
(dp3118
g87
g88
ssg76
g3112
sg69
(lp3119
S'SCRIPT_NAME'
p3120
asbag62
(g83
g64
NtRp3121
(dp3122
g67
(dp3123
g94
g95
ssg76
g3112
sg69
(lp3124
S':'
asbag62
(g83
g64
NtRp3125
(dp3126
g67
(dp3127
sg76
g3112
sg69
(lp3128
g62
(g63
g64
NtRp3129
(dp3130
g67
(dp3131
g75
I3
ssg76
g3125
sg69
(lp3132
S''
asbasbasbag62
(g78
g64
NtRp3133
(dp3134
g67
(dp3135
sg76
g2688
sg69
(lp3136
g62
(g83
g64
NtRp3137
(dp3138
g67
(dp3139
g87
g88
ssg76
g3133
sg69
(lp3140
S'SERVER_NAME'
p3141
asbag62
(g83
g64
NtRp3142
(dp3143
g67
(dp3144
g94
g95
ssg76
g3133
sg69
(lp3145
S':'
asbag62
(g83
g64
NtRp3146
(dp3147
g67
(dp3148
sg76
g3133
sg69
(lp3149
g62
(g63
g64
NtRp3150
(dp3151
g67
(dp3152
g75
I3
ssg76
g3146
sg69
(lp3153
g1507
asbasbasbag62
(g78
g64
NtRp3154
(dp3155
g67
(dp3156
sg76
g2688
sg69
(lp3157
g62
(g83
g64
NtRp3158
(dp3159
g67
(dp3160
g87
g88
ssg76
g3154
sg69
(lp3161
S'SERVER_PORT'
p3162
asbag62
(g83
g64
NtRp3163
(dp3164
g67
(dp3165
g94
g95
ssg76
g3154
sg69
(lp3166
S':'
asbag62
(g83
g64
NtRp3167
(dp3168
g67
(dp3169
sg76
g3154
sg69
(lp3170
g62
(g63
g64
NtRp3171
(dp3172
g67
(dp3173
g75
I3
ssg76
g3167
sg69
(lp3174
g1529
asbasbasbag62
(g78
g64
NtRp3175
(dp3176
g67
(dp3177
sg76
g2688
sg69
(lp3178
g62
(g83
g64
NtRp3179
(dp3180
g67
(dp3181
g87
g88
ssg76
g3175
sg69
(lp3182
S'SERVER_PROTOCOL'
p3183
asbag62
(g83
g64
NtRp3184
(dp3185
g67
(dp3186
g94
g95
ssg76
g3175
sg69
(lp3187
S':'
asbag62
(g83
g64
NtRp3188
(dp3189
g67
(dp3190
sg76
g3175
sg69
(lp3191
g62
(g63
g64
NtRp3192
(dp3193
g67
(dp3194
g75
I3
ssg76
g3188
sg69
(lp3195
g1551
asbasbasbag62
(g78
g64
NtRp3196
(dp3197
g67
(dp3198
sg76
g2688
sg69
(lp3199
g62
(g83
g64
NtRp3200
(dp3201
g67
(dp3202
g87
g88
ssg76
g3196
sg69
(lp3203
S'SERVER_SOFTWARE'
p3204
asbag62
(g83
g64
NtRp3205
(dp3206
g67
(dp3207
g94
g95
ssg76
g3196
sg69
(lp3208
S':'
asbag62
(g83
g64
NtRp3209
(dp3210
g67
(dp3211
sg76
g3196
sg69
(lp3212
g62
(g63
g64
NtRp3213
(dp3214
g67
(dp3215
g75
I3
ssg76
g3209
sg69
(lp3216
g1573
asbasbasbag62
(g78
g64
NtRp3217
(dp3218
g67
(dp3219
sg76
g2688
sg69
(lp3220
g62
(g83
g64
NtRp3221
(dp3222
g67
(dp3223
g87
g88
ssg76
g3217
sg69
(lp3224
S'wsgi.errors'
p3225
asbag62
(g83
g64
NtRp3226
(dp3227
g67
(dp3228
g94
g95
ssg76
g3217
sg69
(lp3229
S':'
asbag62
(g83
g64
NtRp3230
(dp3231
g67
(dp3232
sg76
g3217
sg69
(lp3233
g62
(g63
g64
NtRp3234
(dp3235
g67
(dp3236
g75
I3
ssg76
g3230
sg69
(lp3237
S"<open file '<stderr>', mode 'w' at 0x019150D0>"
p3238
asbasbasbag62
(g78
g64
NtRp3239
(dp3240
g67
(dp3241
sg76
g2688
sg69
(lp3242
g62
(g83
g64
NtRp3243
(dp3244
g67
(dp3245
g87
g88
ssg76
g3239
sg69
(lp3246
S'wsgi.file_wrapper'
p3247
asbag62
(g83
g64
NtRp3248
(dp3249
g67
(dp3250
g94
g95
ssg76
g3239
sg69
(lp3251
S':'
asbag62
(g83
g64
NtRp3252
(dp3253
g67
(dp3254
sg76
g3239
sg69
(lp3255
g62
(g63
g64
NtRp3256
(dp3257
g67
(dp3258
g75
I3
ssg76
g3252
sg69
(lp3259
S'<class wsgiref.util.FileWrapper at 0x03265AE8>'
p3260
asbasbasbag62
(g78
g64
NtRp3261
(dp3262
g67
(dp3263
sg76
g2688
sg69
(lp3264
g62
(g83
g64
NtRp3265
(dp3266
g67
(dp3267
g87
g88
ssg76
g3261
sg69
(lp3268
S'wsgi.input'
p3269
asbag62
(g83
g64
NtRp3270
(dp3271
g67
(dp3272
g94
g95
ssg76
g3261
sg69
(lp3273
S':'
asbag62
(g83
g64
NtRp3274
(dp3275
g67
(dp3276
sg76
g3261
sg69
(lp3277
g62
(g63
g64
NtRp3278
(dp3279
g67
(dp3280
g75
I3
ssg76
g3274
sg69
(lp3281
S"<open file '<fdopen>', mode 'w+b' at 0x03EAEE90>"
p3282
asbasbasbag62
(g78
g64
NtRp3283
(dp3284
g67
(dp3285
sg76
g2688
sg69
(lp3286
g62
(g83
g64
NtRp3287
(dp3288
g67
(dp3289
g87
g88
ssg76
g3283
sg69
(lp3290
S'wsgi.multiprocess'
p3291
asbag62
(g83
g64
NtRp3292
(dp3293
g67
(dp3294
g94
g95
ssg76
g3283
sg69
(lp3295
S':'
asbag62
(g83
g64
NtRp3296
(dp3297
g67
(dp3298
sg76
g3283
sg69
(lp3299
g62
(g63
g64
NtRp3300
(dp3301
g67
(dp3302
g75
I3
ssg76
g3296
sg69
(lp3303
g105
asbasbasbag62
(g78
g64
NtRp3304
(dp3305
g67
(dp3306
sg76
g2688
sg69
(lp3307
g62
(g83
g64
NtRp3308
(dp3309
g67
(dp3310
g87
g88
ssg76
g3304
sg69
(lp3311
S'wsgi.multithread'
p3312
asbag62
(g83
g64
NtRp3313
(dp3314
g67
(dp3315
g94
g95
ssg76
g3304
sg69
(lp3316
S':'
asbag62
(g83
g64
NtRp3317
(dp3318
g67
(dp3319
sg76
g3304
sg69
(lp3320
g62
(g63
g64
NtRp3321
(dp3322
g67
(dp3323
g75
I3
ssg76
g3317
sg69
(lp3324
g1813
asbasbasbag62
(g78
g64
NtRp3325
(dp3326
g67
(dp3327
sg76
g2688
sg69
(lp3328
g62
(g83
g64
NtRp3329
(dp3330
g67
(dp3331
g87
g88
ssg76
g3325
sg69
(lp3332
S'wsgi.run_once'
p3333
asbag62
(g83
g64
NtRp3334
(dp3335
g67
(dp3336
g94
g95
ssg76
g3325
sg69
(lp3337
S':'
asbag62
(g83
g64
NtRp3338
(dp3339
g67
(dp3340
sg76
g3325
sg69
(lp3341
g62
(g63
g64
NtRp3342
(dp3343
g67
(dp3344
g75
I3
ssg76
g3338
sg69
(lp3345
g105
asbasbasbag62
(g78
g64
NtRp3346
(dp3347
g67
(dp3348
sg76
g2688
sg69
(lp3349
g62
(g83
g64
NtRp3350
(dp3351
g67
(dp3352
g87
g88
ssg76
g3346
sg69
(lp3353
S'wsgi.url_scheme'
p3354
asbag62
(g83
g64
NtRp3355
(dp3356
g67
(dp3357
g94
g95
ssg76
g3346
sg69
(lp3358
S':'
asbag62
(g83
g64
NtRp3359
(dp3360
g67
(dp3361
sg76
g3346
sg69
(lp3362
g62
(g63
g64
NtRp3363
(dp3364
g67
(dp3365
g75
I3
ssg76
g3359
sg69
(lp3366
g1856
asbasbasbag62
(g78
g64
NtRp3367
(dp3368
g67
(dp3369
sg76
g2688
sg69
(lp3370
g62
(g83
g64
NtRp3371
(dp3372
g67
(dp3373
g87
g88
ssg76
g3367
sg69
(lp3374
S'wsgi.version'
p3375
asbag62
(g83
g64
NtRp3376
(dp3377
g67
(dp3378
g94
g95
ssg76
g3367
sg69
(lp3379
S':'
asbag62
(g83
g64
NtRp3380
(dp3381
g67
(dp3382
sg76
g3367
sg69
(lp3383
g62
(g63
g64
NtRp3384
(dp3385
g67
(dp3386
g75
I3
ssg76
g3380
sg69
(lp3387
S'1'
asbasbasbasbasbasbasbasbasbasbasbasbasbsS'frames'
p3388
(lp3389
(dp3390
S'file'
p3391
S'C:\\Users\\Alysse\\Documents\\GitHub\\finholt-senior-project\\web2py\\gluon\\restricted.py'
p3392
sS'dump'
p3393
(dp3394
S'environment'
p3395
S"{'A': <class 'gluon.html.A'>, 'Auth': <class 'gluon.tools.Auth'>, 'B': <class 'gluon.html.B'>, 'BEAUTIFY': <class 'gluon.html.BEAUTIFY'>, 'BODY': <class 'gluon.html.BODY'>, 'BR': <class 'gluon.html.BR'>, 'BUTTON': <class 'gluon.html.BUTTON'>, 'CAT': <class 'gluon.html.CAT'>, 'CENTER': <class 'gluon.html.CENTER'>, 'CLEANUP': <class 'gluon.validators.CLEANUP'>, ...}"
p3396
sS'ccode'
p3397
S'<code object <module> at 0341E770, file "C:\\User...s\\SeniorProject\\controllers/default.py", line 11>'
p3398
ssS'lnum'
p3399
I205
sS'lines'
p3400
(dp3401
I200
S'    try:'
p3402
sI201
S'        if type(code) == types.CodeType:'
p3403
sI202
S'            ccode = code'
p3404
sI203
S'        else:'
p3405
sI204
S'            ccode = compile2(code,layer)'
p3406
sI205
S'        exec ccode in environment'
p3407
sI206
S'    except HTTP:'
p3408
sI207
S'        raise'
p3409
sI208
S'    except RestrictedError:'
p3410
sI209
S'        # do not encapsulate (obfuscate) the original RestrictedError'
p3411
ssS'call'
p3412
S"(code='# -*- coding: utf-8 -*-\\n# this file is released ...=footer)\\n\\nresponse._vars=response._caller(index)\\n', environment={'A': <class 'gluon.html.A'>, 'Auth': <class 'gluon.tools.Auth'>, 'B': <class 'gluon.html.B'>, 'BEAUTIFY': <class 'gluon.html.BEAUTIFY'>, 'BODY': <class 'gluon.html.BODY'>, 'BR': <class 'gluon.html.BR'>, 'BUTTON': <class 'gluon.html.BUTTON'>, 'CAT': <class 'gluon.html.CAT'>, 'CENTER': <class 'gluon.html.CENTER'>, 'CLEANUP': <class 'gluon.validators.CLEANUP'>, ...}, layer=r'C:\\Users\\Alysse\\Documents\\GitHub\\finholt-senior-...applications\\SeniorProject\\controllers/default.py')"
p3413
sS'func'
p3414
S'restricted'
p3415
sa(dp3416
g3391
S'C:\\Users\\Alysse\\Documents\\GitHub\\finholt-senior-project\\web2py\\applications\\SeniorProject\\controllers\\default.py'
p3417
sg3393
(dp3418
sg3399
I173
sg3400
(dp3419
I162
S'                ccdForm=ccdForm,'
p3420
sI163
S'                rfiForm=rfiForm,'
p3421
sI164
S'                submittalForm=submittalForm,'
p3422
sI165
S'                proposalRequestForm=proposalRequestForm,'
p3423
sI166
S'                proposalForm=proposalForm,'
p3424
sI167
S'                meetingMinutesForm=meetingMinutesForm,'
p3425
sI168
S'                projects=projects,'
p3426
sI169
S'                table= table,'
p3427
sI170
S'                image=image,'
p3428
sI171
S'                footer=footer)'
p3429
ssg3412
S'()'
p3430
sg3414
S'<module>'
p3431
sa(dp3432
g3391
S'C:\\Users\\Alysse\\Documents\\GitHub\\finholt-senior-project\\web2py\\gluon\\globals.py'
p3433
sg3393
(dp3434
S'self'
p3435
S'undefined'
p3436
sS'f'
S'<function index>'
p3437
ssg3399
I173
sg3400
(dp3438
I168
S'        self.menu = []             # used by the default view layout'
p3439
sI169
S'        self.files = []            # used by web2py_ajax.html'
p3440
sI170
S'        self.generic_patterns = [] # patterns to allow generic views'
p3441
sI171
S"        self.delimiters = ('{{','}}')"
p3442
sI172
S'        self._vars = None'
p3443
sI173
S'        self._caller = lambda f: f()'
p3444
sI174
S'        self._view_environment = None'
p3445
sI175
S'        self._custom_commit = None'
p3446
sI176
S'        self._custom_rollback = None'
p3447
sI177
S''
ssg3412
S'(f=<function index>)'
p3448
sg3414
S'<lambda>'
p3449
sa(dp3450
g3391
S'C:\\Users\\Alysse\\Documents\\GitHub\\finholt-senior-project\\web2py\\applications\\SeniorProject\\controllers\\default.py'
p3451
sg3393
(dp3452
S'proposalForm.process'
p3453
S'<bound method SQLFORM.process of <gluon.sqlhtml.SQLFORM object>>'
p3454
sS'global proposalForm'
p3455
S'<gluon.sqlhtml.SQLFORM object>'
p3456
sS').accepted'
p3457
g3436
ssg3399
I62
sg3400
(dp3458
I64
S'    elif proposalForm.errors:'
p3459
sI65
S"        response.flash = 'form has errors'"
p3460
sI66
S'    else:'
p3461
sI57
S'    elif proposalRequestForm.errors:'
p3462
sI58
S"        response.flash = 'form has errors'"
p3463
sI59
S'    else:'
p3464
sI60
S"        response.flash = 'please fill out the form'"
p3465
sI61
S''
sI62
S'    if proposalForm.process().accepted:'
p3466
sI63
S"        response.flash = 'form accepted'"
p3467
ssg3412
S'()'
p3468
sg3414
S'index'
p3469
sa(dp3470
g3391
S'C:\\Users\\Alysse\\Documents\\GitHub\\finholt-senior-project\\web2py\\gluon\\html.py'
p3471
sg3393
(dp3472
S'self'
p3473
S'<gluon.sqlhtml.SQLFORM object>'
p3474
sS'self.validate'
p3475
S'<bound method SQLFORM.validate of <gluon.sqlhtml.SQLFORM object>>'
p3476
sS'kwargs'
p3477
S"{'dbio': True}"
p3478
ssg3399
I1994
sg3400
(dp3479
I1989
S'        # or a function name to use as callback or None to do nothing.'
p3480
sI1990
S'        def action():'
p3481
sI1991
S'            return dict(form=SQLFORM(db.table).process(onsuccess=my_callback)'
p3482
sI1992
S'        """'
p3483
sI1993
S"        kwargs['dbio'] = kwargs.get('dbio',True) # necessary for SQLHTML forms"
p3484
sI1994
S'        self.validate(**kwargs)'
p3485
sI1995
S'        return self'
p3486
sI1996
S''
sI1997
S''
sI1998
S'class BEAUTIFY(DIV):'
p3487
ssg3412
S"(self=<gluon.sqlhtml.SQLFORM object>, **kwargs={'dbio': True})"
p3488
sg3414
S'process'
p3489
sa(dp3490
g3391
S'C:\\Users\\Alysse\\Documents\\GitHub\\finholt-senior-project\\web2py\\gluon\\html.py'
p3491
sg3393
(dp3492
S'self'
p3493
S'<gluon.sqlhtml.SQLFORM object>'
p3494
sS'self.accepts'
p3495
S'<bound method SQLFORM.accepts of <gluon.sqlhtml.SQLFORM object>>'
p3496
sS'kwargs'
p3497
S"{'dbio': True, 'request_vars': <Storage {'_formkey': '9c00d031-9aa5-400b-8061-d...a4\\xb9b\\x7f\\xff\\xd9'), 'propDate': '2012-10-22'}>, 'session': <Storage {'_formkey[CCD/create]': 'b0bb9454-ba81...reate]': 'd067e78f-b3f2-448c-a510-778ea1dc8bad'}>}"
p3498
ssg3399
I1941
sg3400
(dp3499
I1936
S"        for key in ('message_onsuccess','message_onfailure','onsuccess',"
p3500
sI1937
S"                    'onfailure','next'):"
p3501
sI1938
S'            if key in kwargs:'
p3502
sI1939
S'                del kwargs[key]'
p3503
sI1940
S''
sI1941
S'        if self.accepts(**kwargs):'
p3504
sI1942
S"            if onsuccess == 'flash':"
p3505
sI1943
S'                if next:'
p3506
sI1944
S'                    current.session.flash = message_onsuccess'
p3507
sI1945
S'                else:'
p3508
ssg3412
S"(self=<gluon.sqlhtml.SQLFORM object>, **kwargs={'dbio': True, 'request_vars': <Storage {'_formkey': '9c00d031-9aa5-400b-8061-d...a4\\xb9b\\x7f\\xff\\xd9'), 'propDate': '2012-10-22'}>, 'session': <Storage {'_formkey[CCD/create]': 'b0bb9454-ba81...reate]': 'd067e78f-b3f2-448c-a510-778ea1dc8bad'}>})"
p3509
sg3414
S'validate'
p3510
sa(dp3511
g3391
S'C:\\Users\\Alysse\\Documents\\GitHub\\finholt-senior-project\\web2py\\gluon\\sqlhtml.py'
p3512
sg3393
(dp3513
S'field.store'
p3514
S'<bound method Field.store of <gluon.dal.Field object>>'
p3515
sS'field'
p3516
S'<gluon.dal.Field object>'
p3517
sS'newfilename'
p3518
g3436
sS'source_file'
p3519
S"<open file '<fdopen>', mode 'w+b'>"
p3520
sS'original_filename'
p3521
S"'Alysse Haferman, Jessie Cline, Nicole Hayden matching! February 5, 2012.JPG'"
p3522
sS'field.uploadfolder'
p3523
S'None'
p3524
ssg3399
I1207
sg3400
(dp3525
I1202
S'                    (source_file, original_filename) = (f.file, f.filename)'
p3526
sI1203
S'                elif isinstance(f, (str, unicode)):'
p3527
sI1204
S'                    ### do not know why this happens, it should not'
p3528
sI1205
S'                    (source_file, original_filename) = \\'
p3529
sI1206
S"                        (cStringIO.StringIO(f), 'file.txt')"
p3530
sI1207
S'                newfilename = field.store(source_file, original_filename, field.uploadfolder)'
p3531
sI1208
S'                # this line is for backward compatibility only'
p3532
sI1209
S"                self.vars['%s_newfilename' % fieldname] = newfilename"
p3533
sI1210
S'                fields[fieldname] = newfilename'
p3534
sI1211
S'                if isinstance(field.uploadfield, str):'
p3535
ssg3412
S"(self=<gluon.sqlhtml.SQLFORM object>, request_vars=<Storage {'_formkey': '9c00d031-9aa5-400b-8061-d...a4\\xb9b\\x7f\\xff\\xd9'), 'propDate': '2012-10-22'}>, session=<Storage {'_formkey[CCD/create]': 'b0bb9454-ba81...reate]': 'd067e78f-b3f2-448c-a510-778ea1dc8bad'}>, formname='Proposal/create', keepvalues=False, onvalidation=None, dbio=True, hideerror=False, detect_record_change=False)"
p3536
sg3414
S'accepts'
p3537
sa(dp3538
g3391
S'C:\\Users\\Alysse\\Documents\\GitHub\\finholt-senior-project\\web2py\\gluon\\dal.py'
p3539
sg3393
(dp3540
S'builtinopen'
p3541
S'<built-in function open>'
p3542
sS'dest_file'
p3543
g3436
sS'pathfilename'
p3544
S"r'C:\\Users\\Alysse\\Documents\\GitHub\\finholt-senior-...72120466562727561727920352c20323031322e4a5047.JPG'"
p3545
ssg3399
I7364
sg3400
(dp3546
I7360
S'                path = os.path.join(path,"%s.%s" % (self._tablename, self.name),uuid_key[:2])'
p3547
sI7361
S'            if not os.path.exists(path):'
p3548
sI7362
S'                os.makedirs(path)'
p3549
sI7363
S'            pathfilename = os.path.join(path, newfilename)'
p3550
sI7364
S"            dest_file = open(pathfilename, 'wb')"
p3551
sI7365
S'            try:'
p3552
sI7366
S'                shutil.copyfileobj(file, dest_file)'
p3553
sI7367
S'            except IOError:'
p3554
sI7368
S'                raise IOError, \'Unable to store file "%s" because invalid permissions, readonly file system, or filename too long\' % pathfilename'
p3555
sI7359
S'            if self.uploadseparate:'
p3556
ssg3412
S"(self=<gluon.dal.Field object>, file=<open file '<fdopen>', mode 'w+b'>, filename='Alysse Haferman, Jessie Cline, Nicole Hayden matching! February 5, 2012.JPG', path=r'C:\\Users\\Alysse\\Documents\\GitHub\\finholt-senior-...y\\applications\\SeniorProject\\databases\\..\\uploads')"
p3557
sg3414
S'store'
p3558
sasS'pyver'
p3559
S'Python 2.7.3: C:\\Python27\\python.exe'
p3560
sS'session'
p3561
g62
(g63
g64
NtRp3562
(dp3563
g67
(dp3564
sg69
(lp3565
g62
(g71
g64
NtRp3566
(dp3567
g67
(dp3568
g75
I5
ssg76
Nsg69
(lp3569
g62
(g78
g64
NtRp3570
(dp3571
g67
(dp3572
sg76
g3566
sg69
(lp3573
g62
(g83
g64
NtRp3574
(dp3575
g67
(dp3576
g87
g88
ssg76
g3570
sg69
(lp3577
S'last_query'
p3578
asbag62
(g83
g64
NtRp3579
(dp3580
g67
(dp3581
g94
g95
ssg76
g3570
sg69
(lp3582
S':'
asbag62
(g83
g64
NtRp3583
(dp3584
g67
(dp3585
sg76
g3570
sg69
(lp3586
g62
(g63
g64
NtRp3587
(dp3588
g67
(dp3589
g75
I5
ssg76
g3583
sg69
(lp3590
S'db.MeetingMinutes.id>0'
p3591
asbasbasbasbasbsS'etype'
p3592
S"<type 'exceptions.IOError'>"
p3593
sS'date'
p3594
S'Tue Oct 23 16:03:34 2012'
p3595
sS'response'
p3596
g62
(g63
g64
NtRp3597
(dp3598
g67
(dp3599
sg69
(lp3600
g62
(g71
g64
NtRp3601
(dp3602
g67
(dp3603
g75
I5
ssg76
Nsg69
(lp3604
g62
(g78
g64
NtRp3605
(dp3606
g67
(dp3607
sg76
g3601
sg69
(lp3608
g62
(g83
g64
NtRp3609
(dp3610
g67
(dp3611
g87
g88
ssg76
g3605
sg69
(lp3612
g160
asbag62
(g83
g64
NtRp3613
(dp3614
g67
(dp3615
g94
g95
ssg76
g3605
sg69
(lp3616
S':'
asbag62
(g83
g64
NtRp3617
(dp3618
g67
(dp3619
sg76
g3605
sg69
(lp3620
g62
(g63
g64
NtRp3621
(dp3622
g67
(dp3623
g75
I5
ssg76
g3617
sg69
(lp3624
S'<cStringIO.StringO object at 0x03E8FBA0>'
p3625
asbasbasbag62
(g78
g64
NtRp3626
(dp3627
g67
(dp3628
sg76
g3601
sg69
(lp3629
g62
(g83
g64
NtRp3630
(dp3631
g67
(dp3632
g87
g88
ssg76
g3626
sg69
(lp3633
g226
asbag62
(g83
g64
NtRp3634
(dp3635
g67
(dp3636
g94
g95
ssg76
g3626
sg69
(lp3637
S':'
asbag62
(g83
g64
NtRp3638
(dp3639
g67
(dp3640
sg76
g3626
sg69
(lp3641
g62
(g63
g64
NtRp3642
(dp3643
g67
(dp3644
g75
I5
ssg76
g3638
sg69
(lp3645
g62
(g71
g64
NtRp3646
(dp3647
g67
(dp3648
g75
I4
ssg76
Nsg69
(lp3649
g62
(g78
g64
NtRp3650
(dp3651
g67
(dp3652
sg76
g3646
sg69
(lp3653
g62
(g83
g64
NtRp3654
(dp3655
g67
(dp3656
g87
g88
ssg76
g3650
sg69
(lp3657
S'session_id_seniorproject'
p3658
asbag62
(g83
g64
NtRp3659
(dp3660
g67
(dp3661
g94
g95
ssg76
g3650
sg69
(lp3662
S':'
asbag62
(g83
g64
NtRp3663
(dp3664
g67
(dp3665
sg76
g3650
sg69
(lp3666
g62
(g63
g64
NtRp3667
(dp3668
g67
(dp3669
g75
I4
ssg76
g3663
sg69
(lp3670
g62
(g71
g64
NtRp3671
(dp3672
g67
(dp3673
g75
I3
ssg76
Nsg69
(lp3674
g62
(g78
g64
NtRp3675
(dp3676
g67
(dp3677
sg76
g3671
sg69
(lp3678
g62
(g83
g64
NtRp3679
(dp3680
g67
(dp3681
g87
g88
ssg76
g3675
sg69
(lp3682
g276
asbag62
(g83
g64
NtRp3683
(dp3684
g67
(dp3685
g94
g95
ssg76
g3675
sg69
(lp3686
S':'
asbag62
(g83
g64
NtRp3687
(dp3688
g67
(dp3689
sg76
g3675
sg69
(lp3690
g62
(g63
g64
NtRp3691
(dp3692
g67
(dp3693
g75
I3
ssg76
g3687
sg69
(lp3694
S''
asbasbasbag62
(g78
g64
NtRp3695
(dp3696
g67
(dp3697
sg76
g3671
sg69
(lp3698
g62
(g83
g64
NtRp3699
(dp3700
g67
(dp3701
g87
g88
ssg76
g3695
sg69
(lp3702
g297
asbag62
(g83
g64
NtRp3703
(dp3704
g67
(dp3705
g94
g95
ssg76
g3695
sg69
(lp3706
S':'
asbag62
(g83
g64
NtRp3707
(dp3708
g67
(dp3709
sg76
g3695
sg69
(lp3710
g62
(g63
g64
NtRp3711
(dp3712
g67
(dp3713
g75
I3
ssg76
g3707
sg69
(lp3714
S''
asbasbasbag62
(g78
g64
NtRp3715
(dp3716
g67
(dp3717
sg76
g3671
sg69
(lp3718
g62
(g83
g64
NtRp3719
(dp3720
g67
(dp3721
g87
g88
ssg76
g3715
sg69
(lp3722
g318
asbag62
(g83
g64
NtRp3723
(dp3724
g67
(dp3725
g94
g95
ssg76
g3715
sg69
(lp3726
S':'
asbag62
(g83
g64
NtRp3727
(dp3728
g67
(dp3729
sg76
g3715
sg69
(lp3730
g62
(g63
g64
NtRp3731
(dp3732
g67
(dp3733
g75
I3
ssg76
g3727
sg69
(lp3734
S''
asbasbasbag62
(g78
g64
NtRp3735
(dp3736
g67
(dp3737
sg76
g3671
sg69
(lp3738
g62
(g83
g64
NtRp3739
(dp3740
g67
(dp3741
g87
g88
ssg76
g3735
sg69
(lp3742
g339
asbag62
(g83
g64
NtRp3743
(dp3744
g67
(dp3745
g94
g95
ssg76
g3735
sg69
(lp3746
S':'
asbag62
(g83
g64
NtRp3747
(dp3748
g67
(dp3749
sg76
g3735
sg69
(lp3750
g62
(g63
g64
NtRp3751
(dp3752
g67
(dp3753
g75
I3
ssg76
g3747
sg69
(lp3754
S''
asbasbasbag62
(g78
g64
NtRp3755
(dp3756
g67
(dp3757
sg76
g3671
sg69
(lp3758
g62
(g83
g64
NtRp3759
(dp3760
g67
(dp3761
g87
g88
ssg76
g3755
sg69
(lp3762
g360
asbag62
(g83
g64
NtRp3763
(dp3764
g67
(dp3765
g94
g95
ssg76
g3755
sg69
(lp3766
S':'
asbag62
(g83
g64
NtRp3767
(dp3768
g67
(dp3769
sg76
g3755
sg69
(lp3770
g62
(g63
g64
NtRp3771
(dp3772
g67
(dp3773
g75
I3
ssg76
g3767
sg69
(lp3774
S''
asbasbasbag62
(g78
g64
NtRp3775
(dp3776
g67
(dp3777
sg76
g3671
sg69
(lp3778
g62
(g83
g64
NtRp3779
(dp3780
g67
(dp3781
g87
g88
ssg76
g3775
sg69
(lp3782
g381
asbag62
(g83
g64
NtRp3783
(dp3784
g67
(dp3785
g94
g95
ssg76
g3775
sg69
(lp3786
S':'
asbag62
(g83
g64
NtRp3787
(dp3788
g67
(dp3789
sg76
g3775
sg69
(lp3790
g62
(g63
g64
NtRp3791
(dp3792
g67
(dp3793
g75
I3
ssg76
g3787
sg69
(lp3794
S'/'
asbasbasbag62
(g78
g64
NtRp3795
(dp3796
g67
(dp3797
sg76
g3671
sg69
(lp3798
g62
(g83
g64
NtRp3799
(dp3800
g67
(dp3801
g87
g88
ssg76
g3795
sg69
(lp3802
g402
asbag62
(g83
g64
NtRp3803
(dp3804
g67
(dp3805
g94
g95
ssg76
g3795
sg69
(lp3806
S':'
asbag62
(g83
g64
NtRp3807
(dp3808
g67
(dp3809
sg76
g3795
sg69
(lp3810
g62
(g63
g64
NtRp3811
(dp3812
g67
(dp3813
g75
I3
ssg76
g3807
sg69
(lp3814
S''
asbasbasbag62
(g78
g64
NtRp3815
(dp3816
g67
(dp3817
sg76
g3671
sg69
(lp3818
g62
(g83
g64
NtRp3819
(dp3820
g67
(dp3821
g87
g88
ssg76
g3815
sg69
(lp3822
g423
asbag62
(g83
g64
NtRp3823
(dp3824
g67
(dp3825
g94
g95
ssg76
g3815
sg69
(lp3826
S':'
asbag62
(g83
g64
NtRp3827
(dp3828
g67
(dp3829
sg76
g3815
sg69
(lp3830
g62
(g63
g64
NtRp3831
(dp3832
g67
(dp3833
g75
I3
ssg76
g3827
sg69
(lp3834
S''
asbasbasbasbasbasbasbasbasbasbasbag62
(g78
g64
NtRp3835
(dp3836
g67
(dp3837
sg76
g3601
sg69
(lp3838
g62
(g83
g64
NtRp3839
(dp3840
g67
(dp3841
g87
g88
ssg76
g3835
sg69
(lp3842
S'delimiters'
p3843
asbag62
(g83
g64
NtRp3844
(dp3845
g67
(dp3846
g94
g95
ssg76
g3835
sg69
(lp3847
S':'
asbag62
(g83
g64
NtRp3848
(dp3849
g67
(dp3850
sg76
g3835
sg69
(lp3851
g62
(g63
g64
NtRp3852
(dp3853
g67
(dp3854
g75
I5
ssg76
g3848
sg69
(lp3855
g62
(g71
g64
NtRp3856
(dp3857
g67
(dp3858
g75
I4
ssg76
Nsg69
(lp3859
g62
(g78
g64
NtRp3860
(dp3861
g67
(dp3862
sg76
g3856
sg69
(lp3863
g62
(g83
g64
NtRp3864
(dp3865
g67
(dp3866
sg76
g3860
sg69
(lp3867
g62
(g63
g64
NtRp3868
(dp3869
g67
(dp3870
g75
I4
ssg76
g3864
sg69
(lp3871
S'{{'
p3872
asbasbasbag62
(g78
g64
NtRp3873
(dp3874
g67
(dp3875
sg76
g3856
sg69
(lp3876
g62
(g83
g64
NtRp3877
(dp3878
g67
(dp3879
sg76
g3873
sg69
(lp3880
g62
(g63
g64
NtRp3881
(dp3882
g67
(dp3883
g75
I4
ssg76
g3877
sg69
(lp3884
S'}}'
p3885
asbasbasbasbasbasbasbag62
(g78
g64
NtRp3886
(dp3887
g67
(dp3888
sg76
g3601
sg69
(lp3889
g62
(g83
g64
NtRp3890
(dp3891
g67
(dp3892
g87
g88
ssg76
g3886
sg69
(lp3893
S'files'
p3894
asbag62
(g83
g64
NtRp3895
(dp3896
g67
(dp3897
g94
g95
ssg76
g3886
sg69
(lp3898
S':'
asbag62
(g83
g64
NtRp3899
(dp3900
g67
(dp3901
sg76
g3886
sg69
(lp3902
g62
(g63
g64
NtRp3903
(dp3904
g67
(dp3905
g75
I5
ssg76
g3899
sg69
(lp3906
g62
(g71
g64
NtRp3907
(dp3908
g67
(dp3909
g75
I4
ssg76
Nsg69
(lp3910
sbasbasbasbag62
(g78
g64
NtRp3911
(dp3912
g67
(dp3913
sg76
g3601
sg69
(lp3914
g62
(g83
g64
NtRp3915
(dp3916
g67
(dp3917
g87
g88
ssg76
g3911
sg69
(lp3918
S'flash'
p3919
asbag62
(g83
g64
NtRp3920
(dp3921
g67
(dp3922
g94
g95
ssg76
g3911
sg69
(lp3923
S':'
asbag62
(g83
g64
NtRp3924
(dp3925
g67
(dp3926
sg76
g3911
sg69
(lp3927
g62
(g63
g64
NtRp3928
(dp3929
g67
(dp3930
g75
I5
ssg76
g3924
sg69
(lp3931
S'please fill out the form'
p3932
asbasbasbag62
(g78
g64
NtRp3933
(dp3934
g67
(dp3935
sg76
g3601
sg69
(lp3936
g62
(g83
g64
NtRp3937
(dp3938
g67
(dp3939
g87
g88
ssg76
g3933
sg69
(lp3940
S'generic_patterns'
p3941
asbag62
(g83
g64
NtRp3942
(dp3943
g67
(dp3944
g94
g95
ssg76
g3933
sg69
(lp3945
S':'
asbag62
(g83
g64
NtRp3946
(dp3947
g67
(dp3948
sg76
g3933
sg69
(lp3949
g62
(g63
g64
NtRp3950
(dp3951
g67
(dp3952
g75
I5
ssg76
g3946
sg69
(lp3953
g62
(g71
g64
NtRp3954
(dp3955
g67
(dp3956
g75
I4
ssg76
Nsg69
(lp3957
g62
(g78
g64
NtRp3958
(dp3959
g67
(dp3960
sg76
g3954
sg69
(lp3961
g62
(g83
g64
NtRp3962
(dp3963
g67
(dp3964
sg76
g3958
sg69
(lp3965
g62
(g63
g64
NtRp3966
(dp3967
g67
(dp3968
g75
I4
ssg76
g3962
sg69
(lp3969
S'*'
asbasbasbasbasbasbasbag62
(g78
g64
NtRp3970
(dp3971
g67
(dp3972
sg76
g3601
sg69
(lp3973
g62
(g83
g64
NtRp3974
(dp3975
g67
(dp3976
g87
g88
ssg76
g3970
sg69
(lp3977
S'headers'
p3978
asbag62
(g83
g64
NtRp3979
(dp3980
g67
(dp3981
g94
g95
ssg76
g3970
sg69
(lp3982
S':'
asbag62
(g83
g64
NtRp3983
(dp3984
g67
(dp3985
sg76
g3970
sg69
(lp3986
g62
(g63
g64
NtRp3987
(dp3988
g67
(dp3989
g75
I5
ssg76
g3983
sg69
(lp3990
g62
(g71
g64
NtRp3991
(dp3992
g67
(dp3993
g75
I4
ssg76
Nsg69
(lp3994
g62
(g78
g64
NtRp3995
(dp3996
g67
(dp3997
sg76
g3991
sg69
(lp3998
g62
(g83
g64
NtRp3999
(dp4000
g67
(dp4001
g87
g88
ssg76
g3995
sg69
(lp4002
S'Cache-Control'
p4003
asbag62
(g83
g64
NtRp4004
(dp4005
g67
(dp4006
g94
g95
ssg76
g3995
sg69
(lp4007
S':'
asbag62
(g83
g64
NtRp4008
(dp4009
g67
(dp4010
sg76
g3995
sg69
(lp4011
g62
(g63
g64
NtRp4012
(dp4013
g67
(dp4014
g75
I4
ssg76
g4008
sg69
(lp4015
S'no-store, no-cache, must-revalidate, post-check=0, pre-check=0'
p4016
asbasbasbag62
(g78
g64
NtRp4017
(dp4018
g67
(dp4019
sg76
g3991
sg69
(lp4020
g62
(g83
g64
NtRp4021
(dp4022
g67
(dp4023
g87
g88
ssg76
g4017
sg69
(lp4024
S'Content-Type'
p4025
asbag62
(g83
g64
NtRp4026
(dp4027
g67
(dp4028
g94
g95
ssg76
g4017
sg69
(lp4029
S':'
asbag62
(g83
g64
NtRp4030
(dp4031
g67
(dp4032
sg76
g4017
sg69
(lp4033
g62
(g63
g64
NtRp4034
(dp4035
g67
(dp4036
g75
I4
ssg76
g4030
sg69
(lp4037
S'text/html; charset=utf-8'
p4038
asbasbasbag62
(g78
g64
NtRp4039
(dp4040
g67
(dp4041
sg76
g3991
sg69
(lp4042
g62
(g83
g64
NtRp4043
(dp4044
g67
(dp4045
g87
g88
ssg76
g4039
sg69
(lp4046
S'Expires'
p4047
asbag62
(g83
g64
NtRp4048
(dp4049
g67
(dp4050
g94
g95
ssg76
g4039
sg69
(lp4051
S':'
asbag62
(g83
g64
NtRp4052
(dp4053
g67
(dp4054
sg76
g4039
sg69
(lp4055
g62
(g63
g64
NtRp4056
(dp4057
g67
(dp4058
g75
I4
ssg76
g4052
sg69
(lp4059
S'Tue, 23 Oct 2012 21:03:34 GMT'
p4060
asbasbasbag62
(g78
g64
NtRp4061
(dp4062
g67
(dp4063
sg76
g3991
sg69
(lp4064
g62
(g83
g64
NtRp4065
(dp4066
g67
(dp4067
g87
g88
ssg76
g4061
sg69
(lp4068
S'Pragma'
p4069
asbag62
(g83
g64
NtRp4070
(dp4071
g67
(dp4072
g94
g95
ssg76
g4061
sg69
(lp4073
S':'
asbag62
(g83
g64
NtRp4074
(dp4075
g67
(dp4076
sg76
g4061
sg69
(lp4077
g62
(g63
g64
NtRp4078
(dp4079
g67
(dp4080
g75
I4
ssg76
g4074
sg69
(lp4081
S'no-cache'
p4082
asbasbasbag62
(g78
g64
NtRp4083
(dp4084
g67
(dp4085
sg76
g3991
sg69
(lp4086
g62
(g83
g64
NtRp4087
(dp4088
g67
(dp4089
g87
g88
ssg76
g4083
sg69
(lp4090
S'X-Powered-By'
p4091
asbag62
(g83
g64
NtRp4092
(dp4093
g67
(dp4094
g94
g95
ssg76
g4083
sg69
(lp4095
S':'
asbag62
(g83
g64
NtRp4096
(dp4097
g67
(dp4098
sg76
g4083
sg69
(lp4099
g62
(g63
g64
NtRp4100
(dp4101
g67
(dp4102
g75
I4
ssg76
g4096
sg69
(lp4103
S'web2py'
p4104
asbasbasbasbasbasbasbag62
(g78
g64
NtRp4105
(dp4106
g67
(dp4107
sg76
g3601
sg69
(lp4108
g62
(g83
g64
NtRp4109
(dp4110
g67
(dp4111
g87
g88
ssg76
g4105
sg69
(lp4112
S'menu'
p4113
asbag62
(g83
g64
NtRp4114
(dp4115
g67
(dp4116
g94
g95
ssg76
g4105
sg69
(lp4117
S':'
asbag62
(g83
g64
NtRp4118
(dp4119
g67
(dp4120
sg76
g4105
sg69
(lp4121
g62
(g63
g64
NtRp4122
(dp4123
g67
(dp4124
g75
I5
ssg76
g4118
sg69
(lp4125
g62
(g71
g64
NtRp4126
(dp4127
g67
(dp4128
g75
I4
ssg76
Nsg69
(lp4129
g62
(g78
g64
NtRp4130
(dp4131
g67
(dp4132
sg76
g4126
sg69
(lp4133
g62
(g83
g64
NtRp4134
(dp4135
g67
(dp4136
sg76
g4130
sg69
(lp4137
g62
(g63
g64
NtRp4138
(dp4139
g67
(dp4140
g75
I4
ssg76
g4134
sg69
(lp4141
g62
(g71
g64
NtRp4142
(dp4143
g67
(dp4144
g75
I3
ssg76
Nsg69
(lp4145
g62
(g78
g64
NtRp4146
(dp4147
g67
(dp4148
sg76
g4142
sg69
(lp4149
g62
(g83
g64
NtRp4150
(dp4151
g67
(dp4152
sg76
g4146
sg69
(lp4153
g62
(g63
g64
NtRp4154
(dp4155
g67
(dp4156
g75
I3
ssg76
g4150
sg69
(lp4157
cgluon.languages
lazyT_unpickle
p4158
(S't\x04\x00\x00\x00Home'
tRp4159
asbasbasbag62
(g78
g64
NtRp4160
(dp4161
g67
(dp4162
sg76
g4142
sg69
(lp4163
g62
(g83
g64
NtRp4164
(dp4165
g67
(dp4166
sg76
g4160
sg69
(lp4167
g62
(g63
g64
NtRp4168
(dp4169
g67
(dp4170
g75
I3
ssg76
g4164
sg69
(lp4171
g105
asbasbasbag62
(g78
g64
NtRp4172
(dp4173
g67
(dp4174
sg76
g4142
sg69
(lp4175
g62
(g83
g64
NtRp4176
(dp4177
g67
(dp4178
sg76
g4172
sg69
(lp4179
g62
(g63
g64
NtRp4180
(dp4181
g67
(dp4182
g75
I3
ssg76
g4176
sg69
(lp4183
S'/SeniorProject/default/index'
p4184
asbasbasbag62
(g78
g64
NtRp4185
(dp4186
g67
(dp4187
sg76
g4142
sg69
(lp4188
g62
(g83
g64
NtRp4189
(dp4190
g67
(dp4191
sg76
g4185
sg69
(lp4192
g62
(g63
g64
NtRp4193
(dp4194
g67
(dp4195
g75
I3
ssg76
g4189
sg69
(lp4196
g62
(g71
g64
NtRp4197
(dp4198
g67
(dp4199
g75
I2
ssg76
Nsg69
(lp4200
sbasbasbasbasbasbasbasbag62
(g78
g64
NtRp4201
(dp4202
g67
(dp4203
sg76
g4126
sg69
(lp4204
g62
(g83
g64
NtRp4205
(dp4206
g67
(dp4207
sg76
g4201
sg69
(lp4208
g62
(g63
g64
NtRp4209
(dp4210
g67
(dp4211
g75
I4
ssg76
g4205
sg69
(lp4212
g62
(g71
g64
NtRp4213
(dp4214
g67
(dp4215
g75
I3
ssg76
Nsg69
(lp4216
g62
(g78
g64
NtRp4217
(dp4218
g67
(dp4219
sg76
g4213
sg69
(lp4220
g62
(g83
g64
NtRp4221
(dp4222
g67
(dp4223
sg76
g4217
sg69
(lp4224
g62
(g63
g64
NtRp4225
(dp4226
g67
(dp4227
g75
I3
ssg76
g4221
sg69
(lp4228
g62
(cgluon.html
SPAN
p4229
g64
NtRp4230
(dp4231
g67
(dp4232
g87
S'color:yellow'
p4233
ssg76
Nsg69
(lp4234
g4104
asbasbasbasbag62
(g78
g64
NtRp4235
(dp4236
g67
(dp4237
sg76
g4213
sg69
(lp4238
g62
(g83
g64
NtRp4239
(dp4240
g67
(dp4241
sg76
g4235
sg69
(lp4242
g62
(g63
g64
NtRp4243
(dp4244
g67
(dp4245
g75
I3
ssg76
g4239
sg69
(lp4246
g105
asbasbasbag62
(g78
g64
NtRp4247
(dp4248
g67
(dp4249
sg76
g4213
sg69
(lp4250
g62
(g83
g64
NtRp4251
(dp4252
g67
(dp4253
sg76
g4247
sg69
(lp4254
g62
(g63
g64
NtRp4255
(dp4256
g67
(dp4257
g75
I3
ssg76
g4251
sg69
(lp4258
S'None'
p4259
asbasbasbag62
(g78
g64
NtRp4260
(dp4261
g67
(dp4262
sg76
g4213
sg69
(lp4263
g62
(g83
g64
NtRp4264
(dp4265
g67
(dp4266
sg76
g4260
sg69
(lp4267
g62
(g63
g64
NtRp4268
(dp4269
g67
(dp4270
g75
I3
ssg76
g4264
sg69
(lp4271
g62
(g71
g64
NtRp4272
(dp4273
g67
(dp4274
g75
I2
ssg76
Nsg69
(lp4275
g62
(g78
g64
NtRp4276
(dp4277
g67
(dp4278
sg76
g4272
sg69
(lp4279
g62
(g83
g64
NtRp4280
(dp4281
g67
(dp4282
sg76
g4276
sg69
(lp4283
g62
(g63
g64
NtRp4284
(dp4285
g67
(dp4286
g75
I2
ssg76
g4280
sg69
(lp4287
g62
(g71
g64
NtRp4288
(dp4289
g67
(dp4290
g75
I1
ssg76
Nsg69
(lp4291
g62
(g78
g64
NtRp4292
(dp4293
g67
(dp4294
sg76
g4288
sg69
(lp4295
g62
(g83
g64
NtRp4296
(dp4297
g67
(dp4298
sg76
g4292
sg69
(lp4299
g62
(g63
g64
NtRp4300
(dp4301
g67
(dp4302
g75
I1
ssg76
g4296
sg69
(lp4303
g4158
(S's\x08\x00\x00\x00My Sites'
tRp4304
asbasbasbag62
(g78
g64
NtRp4305
(dp4306
g67
(dp4307
sg76
g4288
sg69
(lp4308
g62
(g83
g64
NtRp4309
(dp4310
g67
(dp4311
sg76
g4305
sg69
(lp4312
g62
(g63
g64
NtRp4313
(dp4314
g67
(dp4315
g75
I1
ssg76
g4309
sg69
(lp4316
I00
asbasbasbag62
(g78
g64
NtRp4317
(dp4318
g67
(dp4319
sg76
g4288
sg69
(lp4320
g62
(g83
g64
NtRp4321
(dp4322
g67
(dp4323
sg76
g4317
sg69
(lp4324
g62
(g63
g64
NtRp4325
(dp4326
g67
(dp4327
g75
I1
ssg76
g4321
sg69
(lp4328
S'/admin/default/site'
p4329
asbasbasbasbasbasbasbag62
(g78
g64
NtRp4330
(dp4331
g67
(dp4332
sg76
g4272
sg69
(lp4333
g62
(g83
g64
NtRp4334
(dp4335
g67
(dp4336
sg76
g4330
sg69
(lp4337
g62
(g63
g64
NtRp4338
(dp4339
g67
(dp4340
g75
I2
ssg76
g4334
sg69
(lp4341
g62
(g71
g64
NtRp4342
(dp4343
g67
(dp4344
g75
I1
ssg76
Nsg69
(lp4345
g62
(g78
g64
NtRp4346
(dp4347
g67
(dp4348
sg76
g4342
sg69
(lp4349
g62
(g83
g64
NtRp4350
(dp4351
g67
(dp4352
sg76
g4346
sg69
(lp4353
g62
(g63
g64
NtRp4354
(dp4355
g67
(dp4356
g75
I1
ssg76
g4350
sg69
(lp4357
g4158
(S's\x08\x00\x00\x00This App'
tRp4358
asbasbasbag62
(g78
g64
NtRp4359
(dp4360
g67
(dp4361
sg76
g4342
sg69
(lp4362
g62
(g83
g64
NtRp4363
(dp4364
g67
(dp4365
sg76
g4359
sg69
(lp4366
g62
(g63
g64
NtRp4367
(dp4368
g67
(dp4369
g75
I1
ssg76
g4363
sg69
(lp4370
I00
asbasbasbag62
(g78
g64
NtRp4371
(dp4372
g67
(dp4373
sg76
g4342
sg69
(lp4374
g62
(g83
g64
NtRp4375
(dp4376
g67
(dp4377
sg76
g4371
sg69
(lp4378
g62
(g63
g64
NtRp4379
(dp4380
g67
(dp4381
g75
I1
ssg76
g4375
sg69
(lp4382
S'/admin/default/design/SeniorProject'
p4383
asbasbasbag62
(g78
g64
NtRp4384
(dp4385
g67
(dp4386
sg76
g4342
sg69
(lp4387
g62
(g83
g64
NtRp4388
(dp4389
g67
(dp4390
sg76
g4384
sg69
(lp4391
g62
(g63
g64
NtRp4392
(dp4393
g67
(dp4394
g75
I1
ssg76
g4388
sg69
(lp4395
(lp4396
(g4158
(S't\n\x00\x00\x00Controller'
tRp4397
I00
S'/admin/default/edit/SeniorProject/controllers/default.py'
tp4398
a(g4158
(S't\x04\x00\x00\x00View'
tRp4399
I00
S'/admin/default/edit/SeniorProject/views/default/index.html'
tp4400
a(g4158
(S't\x06\x00\x00\x00Layout'
tRp4401
I00
S'/admin/default/edit/SeniorProject/views/layout.html'
tp4402
a(g4158
(S't\n\x00\x00\x00Stylesheet'
tRp4403
I00
S'/admin/default/edit/SeniorProject/static/css/web2py.css'
tp4404
a(g4158
(S's\x08\x00\x00\x00DB Model'
tRp4405
I00
S'/admin/default/edit/SeniorProject/models/db.py'
tp4406
a(g4158
(S's\n\x00\x00\x00Menu Model'
tRp4407
I00
S'/admin/default/edit/SeniorProject/models/menu.py'
tp4408
a(g4158
(S't\x08\x00\x00\x00Database'
tRp4409
I00
S'/SeniorProject/appadmin/index'
tp4410
a(g4158
(S't\x06\x00\x00\x00Errors'
tRp4411
I00
S'/admin/default/errors/SeniorProject'
tp4412
a(g4158
(S't\x05\x00\x00\x00About'
tRp4413
I00
S'/admin/default/about/SeniorProject'
tp4414
aasbasbasbasbasbasbasbag62
(g78
g64
NtRp4415
(dp4416
g67
(dp4417
sg76
g4272
sg69
(lp4418
g62
(g83
g64
NtRp4419
(dp4420
g67
(dp4421
sg76
g4415
sg69
(lp4422
g62
(g63
g64
NtRp4423
(dp4424
g67
(dp4425
g75
I2
ssg76
g4419
sg69
(lp4426
g62
(g71
g64
NtRp4427
(dp4428
g67
(dp4429
g75
I1
ssg76
Nsg69
(lp4430
g62
(g78
g64
NtRp4431
(dp4432
g67
(dp4433
sg76
g4427
sg69
(lp4434
g62
(g83
g64
NtRp4435
(dp4436
g67
(dp4437
sg76
g4431
sg69
(lp4438
g62
(g63
g64
NtRp4439
(dp4440
g67
(dp4441
g75
I1
ssg76
g4435
sg69
(lp4442
S'web2py.com'
p4443
asbasbasbag62
(g78
g64
NtRp4444
(dp4445
g67
(dp4446
sg76
g4427
sg69
(lp4447
g62
(g83
g64
NtRp4448
(dp4449
g67
(dp4450
sg76
g4444
sg69
(lp4451
g62
(g63
g64
NtRp4452
(dp4453
g67
(dp4454
g75
I1
ssg76
g4448
sg69
(lp4455
I00
asbasbasbag62
(g78
g64
NtRp4456
(dp4457
g67
(dp4458
sg76
g4427
sg69
(lp4459
g62
(g83
g64
NtRp4460
(dp4461
g67
(dp4462
sg76
g4456
sg69
(lp4463
g62
(g63
g64
NtRp4464
(dp4465
g67
(dp4466
g75
I1
ssg76
g4460
sg69
(lp4467
S'http://www.web2py.com'
p4468
asbasbasbag62
(g78
g64
NtRp4469
(dp4470
g67
(dp4471
sg76
g4427
sg69
(lp4472
g62
(g83
g64
NtRp4473
(dp4474
g67
(dp4475
sg76
g4469
sg69
(lp4476
g62
(g63
g64
NtRp4477
(dp4478
g67
(dp4479
g75
I1
ssg76
g4473
sg69
(lp4480
(lp4481
(g4158
(S't\x08\x00\x00\x00Download'
tRp4482
I00
S'http://www.web2py.com/examples/default/download'
p4483
tp4484
a(g4158
(S't\x07\x00\x00\x00Support'
tRp4485
I00
S'http://www.web2py.com/examples/default/support'
p4486
tp4487
a(g4158
(S't\x04\x00\x00\x00Demo'
tRp4488
I00
S'http://web2py.com/demo_admin'
p4489
tp4490
a(g4158
(S's\x0e\x00\x00\x00Quick Examples'
tRp4491
I00
S'http://web2py.com/examples/default/examples'
p4492
tp4493
a(g4158
(S't\x03\x00\x00\x00FAQ'
tRp4494
I00
S'http://web2py.com/AlterEgo'
p4495
tp4496
a(g4158
(S't\x06\x00\x00\x00Videos'
tRp4497
I00
S'http://www.web2py.com/examples/default/videos/'
p4498
tp4499
a(g4158
(S's\x11\x00\x00\x00Free Applications'
tRp4500
I00
S'http://web2py.com/appliances'
p4501
tp4502
a(g4158
(S't\x07\x00\x00\x00Plugins'
tRp4503
I00
S'http://web2py.com/plugins'
p4504
tp4505
a(g4158
(S't\x07\x00\x00\x00Layouts'
tRp4506
I00
S'http://web2py.com/layouts'
p4507
tp4508
a(g4158
(S't\x07\x00\x00\x00Recipes'
tRp4509
I00
S'http://web2pyslices.com/'
p4510
tp4511
a(g4158
(S't\x08\x00\x00\x00Semantic'
tRp4512
I00
S'http://web2py.com/semantic'
p4513
tp4514
aasbasbasbasbasbasbasbag62
(g78
g64
NtRp4515
(dp4516
g67
(dp4517
sg76
g4272
sg69
(lp4518
g62
(g83
g64
NtRp4519
(dp4520
g67
(dp4521
sg76
g4515
sg69
(lp4522
g62
(g63
g64
NtRp4523
(dp4524
g67
(dp4525
g75
I2
ssg76
g4519
sg69
(lp4526
g62
(g71
g64
NtRp4527
(dp4528
g67
(dp4529
g75
I1
ssg76
Nsg69
(lp4530
g62
(g78
g64
NtRp4531
(dp4532
g67
(dp4533
sg76
g4527
sg69
(lp4534
g62
(g83
g64
NtRp4535
(dp4536
g67
(dp4537
sg76
g4531
sg69
(lp4538
g62
(g63
g64
NtRp4539
(dp4540
g67
(dp4541
g75
I1
ssg76
g4535
sg69
(lp4542
g4158
(S't\r\x00\x00\x00Documentation'
tRp4543
asbasbasbag62
(g78
g64
NtRp4544
(dp4545
g67
(dp4546
sg76
g4527
sg69
(lp4547
g62
(g83
g64
NtRp4548
(dp4549
g67
(dp4550
sg76
g4544
sg69
(lp4551
g62
(g63
g64
NtRp4552
(dp4553
g67
(dp4554
g75
I1
ssg76
g4548
sg69
(lp4555
I00
asbasbasbag62
(g78
g64
NtRp4556
(dp4557
g67
(dp4558
sg76
g4527
sg69
(lp4559
g62
(g83
g64
NtRp4560
(dp4561
g67
(dp4562
sg76
g4556
sg69
(lp4563
g62
(g63
g64
NtRp4564
(dp4565
g67
(dp4566
g75
I1
ssg76
g4560
sg69
(lp4567
S'http://www.web2py.com/book'
p4568
asbasbasbag62
(g78
g64
NtRp4569
(dp4570
g67
(dp4571
sg76
g4527
sg69
(lp4572
g62
(g83
g64
NtRp4573
(dp4574
g67
(dp4575
sg76
g4569
sg69
(lp4576
g62
(g63
g64
NtRp4577
(dp4578
g67
(dp4579
g75
I1
ssg76
g4573
sg69
(lp4580
(lp4581
(g4158
(S't\x07\x00\x00\x00Preface'
tRp4582
I00
S'http://www.web2py.com/book/default/chapter/00'
p4583
tp4584
a(g4158
(S't\x0c\x00\x00\x00Introduction'
tRp4585
I00
S'http://www.web2py.com/book/default/chapter/01'
p4586
tp4587
a(g4158
(S't\x06\x00\x00\x00Python'
tRp4588
I00
S'http://www.web2py.com/book/default/chapter/02'
p4589
tp4590
a(g4158
(S't\x08\x00\x00\x00Overview'
tRp4591
I00
S'http://www.web2py.com/book/default/chapter/03'
p4592
tp4593
a(g4158
(S's\x08\x00\x00\x00The Core'
tRp4594
I00
S'http://www.web2py.com/book/default/chapter/04'
p4595
tp4596
a(g4158
(S's\t\x00\x00\x00The Views'
tRp4597
I00
S'http://www.web2py.com/book/default/chapter/05'
p4598
tp4599
a(g4158
(S't\x08\x00\x00\x00Database'
tRp4600
I00
S'http://www.web2py.com/book/default/chapter/06'
p4601
tp4602
a(g4158
(S's\x14\x00\x00\x00Forms and Validators'
tRp4603
I00
S'http://www.web2py.com/book/default/chapter/07'
p4604
tp4605
a(g4158
(S's\r\x00\x00\x00Email and SMS'
tRp4606
I00
S'http://www.web2py.com/book/default/chapter/08'
p4607
tp4608
a(g4158
(S's\x0e\x00\x00\x00Access Control'
tRp4609
I00
S'http://www.web2py.com/book/default/chapter/09'
p4610
tp4611
a(g4158
(S't\x08\x00\x00\x00Services'
tRp4612
I00
S'http://www.web2py.com/book/default/chapter/10'
p4613
tp4614
a(g4158
(S's\x0c\x00\x00\x00Ajax Recipes'
tRp4615
I00
S'http://www.web2py.com/book/default/chapter/11'
p4616
tp4617
a(g4158
(S's\x16\x00\x00\x00Components and Plugins'
tRp4618
I00
S'http://www.web2py.com/book/default/chapter/12'
p4619
tp4620
a(g4158
(S's\x12\x00\x00\x00Deployment Recipes'
tRp4621
I00
S'http://www.web2py.com/book/default/chapter/13'
p4622
tp4623
a(g4158
(S's\r\x00\x00\x00Other Recipes'
tRp4624
I00
S'http://www.web2py.com/book/default/chapter/14'
p4625
tp4626
a(g4158
(S's\r\x00\x00\x00Buy this book'
tRp4627
I00
S'http://stores.lulu.com/web2py'
p4628
tp4629
aasbasbasbasbasbasbasbag62
(g78
g64
NtRp4630
(dp4631
g67
(dp4632
sg76
g4272
sg69
(lp4633
g62
(g83
g64
NtRp4634
(dp4635
g67
(dp4636
sg76
g4630
sg69
(lp4637
g62
(g63
g64
NtRp4638
(dp4639
g67
(dp4640
g75
I2
ssg76
g4634
sg69
(lp4641
g62
(g71
g64
NtRp4642
(dp4643
g67
(dp4644
g75
I1
ssg76
Nsg69
(lp4645
g62
(g78
g64
NtRp4646
(dp4647
g67
(dp4648
sg76
g4642
sg69
(lp4649
g62
(g83
g64
NtRp4650
(dp4651
g67
(dp4652
sg76
g4646
sg69
(lp4653
g62
(g63
g64
NtRp4654
(dp4655
g67
(dp4656
g75
I1
ssg76
g4650
sg69
(lp4657
g4158
(S't\t\x00\x00\x00Community'
tRp4658
asbasbasbag62
(g78
g64
NtRp4659
(dp4660
g67
(dp4661
sg76
g4642
sg69
(lp4662
g62
(g83
g64
NtRp4663
(dp4664
g67
(dp4665
sg76
g4659
sg69
(lp4666
g62
(g63
g64
NtRp4667
(dp4668
g67
(dp4669
g75
I1
ssg76
g4663
sg69
(lp4670
I00
asbasbasbag62
(g78
g64
NtRp4671
(dp4672
g67
(dp4673
sg76
g4642
sg69
(lp4674
g62
(g83
g64
NtRp4675
(dp4676
g67
(dp4677
sg76
g4671
sg69
(lp4678
g62
(g63
g64
NtRp4679
(dp4680
g67
(dp4681
g75
I1
ssg76
g4675
sg69
(lp4682
Nasbasbasbag62
(g78
g64
NtRp4683
(dp4684
g67
(dp4685
sg76
g4642
sg69
(lp4686
g62
(g83
g64
NtRp4687
(dp4688
g67
(dp4689
sg76
g4683
sg69
(lp4690
g62
(g63
g64
NtRp4691
(dp4692
g67
(dp4693
g75
I1
ssg76
g4687
sg69
(lp4694
(lp4695
(g4158
(S't\x06\x00\x00\x00Groups'
tRp4696
I00
S'http://www.web2py.com/examples/default/usergroups'
p4697
tp4698
a(g4158
(S't\x07\x00\x00\x00Twitter'
tRp4699
I00
S'http://twitter.com/web2py'
p4700
tp4701
a(g4158
(S's\t\x00\x00\x00Live Chat'
tRp4702
I00
S'http://webchat.freenode.net/?channels=web2py'
p4703
tp4704
aasbasbasbasbasbasbasbag62
(g78
g64
NtRp4705
(dp4706
g67
(dp4707
sg76
g4272
sg69
(lp4708
g62
(g83
g64
NtRp4709
(dp4710
g67
(dp4711
sg76
g4705
sg69
(lp4712
g62
(g63
g64
NtRp4713
(dp4714
g67
(dp4715
g75
I2
ssg76
g4709
sg69
(lp4716
g62
(g71
g64
NtRp4717
(dp4718
g67
(dp4719
g75
I1
ssg76
Nsg69
(lp4720
g62
(g78
g64
NtRp4721
(dp4722
g67
(dp4723
sg76
g4717
sg69
(lp4724
g62
(g83
g64
NtRp4725
(dp4726
g67
(dp4727
sg76
g4721
sg69
(lp4728
g62
(g63
g64
NtRp4729
(dp4730
g67
(dp4731
g75
I1
ssg76
g4725
sg69
(lp4732
g4158
(S't\x07\x00\x00\x00Plugins'
tRp4733
asbasbasbag62
(g78
g64
NtRp4734
(dp4735
g67
(dp4736
sg76
g4717
sg69
(lp4737
g62
(g83
g64
NtRp4738
(dp4739
g67
(dp4740
sg76
g4734
sg69
(lp4741
g62
(g63
g64
NtRp4742
(dp4743
g67
(dp4744
g75
I1
ssg76
g4738
sg69
(lp4745
I00
asbasbasbag62
(g78
g64
NtRp4746
(dp4747
g67
(dp4748
sg76
g4717
sg69
(lp4749
g62
(g83
g64
NtRp4750
(dp4751
g67
(dp4752
sg76
g4746
sg69
(lp4753
g62
(g63
g64
NtRp4754
(dp4755
g67
(dp4756
g75
I1
ssg76
g4750
sg69
(lp4757
Nasbasbasbag62
(g78
g64
NtRp4758
(dp4759
g67
(dp4760
sg76
g4717
sg69
(lp4761
g62
(g83
g64
NtRp4762
(dp4763
g67
(dp4764
sg76
g4758
sg69
(lp4765
g62
(g63
g64
NtRp4766
(dp4767
g67
(dp4768
g75
I1
ssg76
g4762
sg69
(lp4769
(lp4770
(S'plugin_wiki'
p4771
I00
S'http://web2py.com/examples/default/download'
p4772
tp4773
a(g4158
(S's\r\x00\x00\x00Other Plugins'
tRp4774
I00
g4504
tp4775
a(g4158
(S's\x0e\x00\x00\x00Layout Plugins'
tRp4776
I00
g4507
tp4777
aasbasbasbasbasbasbasbasbasbasbasbasbasbasbasbasbasbasbasbag62
(g78
g64
NtRp4778
(dp4779
g67
(dp4780
sg76
g3601
sg69
(lp4781
g62
(g83
g64
NtRp4782
(dp4783
g67
(dp4784
g87
g88
ssg76
g4778
sg69
(lp4785
S'meta'
p4786
asbag62
(g83
g64
NtRp4787
(dp4788
g67
(dp4789
g94
g95
ssg76
g4778
sg69
(lp4790
S':'
asbag62
(g83
g64
NtRp4791
(dp4792
g67
(dp4793
sg76
g4778
sg69
(lp4794
g62
(g63
g64
NtRp4795
(dp4796
g67
(dp4797
g75
I5
ssg76
g4791
sg69
(lp4798
g62
(g71
g64
NtRp4799
(dp4800
g67
(dp4801
g75
I4
ssg76
Nsg69
(lp4802
g62
(g78
g64
NtRp4803
(dp4804
g67
(dp4805
sg76
g4799
sg69
(lp4806
g62
(g83
g64
NtRp4807
(dp4808
g67
(dp4809
g87
g88
ssg76
g4803
sg69
(lp4810
S'author'
p4811
asbag62
(g83
g64
NtRp4812
(dp4813
g67
(dp4814
g94
g95
ssg76
g4803
sg69
(lp4815
S':'
asbag62
(g83
g64
NtRp4816
(dp4817
g67
(dp4818
sg76
g4803
sg69
(lp4819
g62
(g63
g64
NtRp4820
(dp4821
g67
(dp4822
g75
I4
ssg76
g4816
sg69
(lp4823
S'Your Name <you@example.com>'
p4824
asbasbasbag62
(g78
g64
NtRp4825
(dp4826
g67
(dp4827
sg76
g4799
sg69
(lp4828
g62
(g83
g64
NtRp4829
(dp4830
g67
(dp4831
g87
g88
ssg76
g4825
sg69
(lp4832
S'copyright'
p4833
asbag62
(g83
g64
NtRp4834
(dp4835
g67
(dp4836
g94
g95
ssg76
g4825
sg69
(lp4837
S':'
asbag62
(g83
g64
NtRp4838
(dp4839
g67
(dp4840
sg76
g4825
sg69
(lp4841
g62
(g63
g64
NtRp4842
(dp4843
g67
(dp4844
g75
I4
ssg76
g4838
sg69
(lp4845
S'Copyright 2011'
p4846
asbasbasbag62
(g78
g64
NtRp4847
(dp4848
g67
(dp4849
sg76
g4799
sg69
(lp4850
g62
(g83
g64
NtRp4851
(dp4852
g67
(dp4853
g87
g88
ssg76
g4847
sg69
(lp4854
S'description'
p4855
asbag62
(g83
g64
NtRp4856
(dp4857
g67
(dp4858
g94
g95
ssg76
g4847
sg69
(lp4859
S':'
asbag62
(g83
g64
NtRp4860
(dp4861
g67
(dp4862
sg76
g4847
sg69
(lp4863
g62
(g63
g64
NtRp4864
(dp4865
g67
(dp4866
g75
I4
ssg76
g4860
sg69
(lp4867
S'a cool new app'
p4868
asbasbasbag62
(g78
g64
NtRp4869
(dp4870
g67
(dp4871
sg76
g4799
sg69
(lp4872
g62
(g83
g64
NtRp4873
(dp4874
g67
(dp4875
g87
g88
ssg76
g4869
sg69
(lp4876
S'generator'
p4877
asbag62
(g83
g64
NtRp4878
(dp4879
g67
(dp4880
g94
g95
ssg76
g4869
sg69
(lp4881
S':'
asbag62
(g83
g64
NtRp4882
(dp4883
g67
(dp4884
sg76
g4869
sg69
(lp4885
g62
(g63
g64
NtRp4886
(dp4887
g67
(dp4888
g75
I4
ssg76
g4882
sg69
(lp4889
S'Web2py Web Framework'
p4890
asbasbasbag62
(g78
g64
NtRp4891
(dp4892
g67
(dp4893
sg76
g4799
sg69
(lp4894
g62
(g83
g64
NtRp4895
(dp4896
g67
(dp4897
g87
g88
ssg76
g4891
sg69
(lp4898
S'keywords'
p4899
asbag62
(g83
g64
NtRp4900
(dp4901
g67
(dp4902
g94
g95
ssg76
g4891
sg69
(lp4903
S':'
asbag62
(g83
g64
NtRp4904
(dp4905
g67
(dp4906
sg76
g4891
sg69
(lp4907
g62
(g63
g64
NtRp4908
(dp4909
g67
(dp4910
g75
I4
ssg76
g4904
sg69
(lp4911
S'web2py, python, framework'
p4912
asbasbasbasbasbasbasbag62
(g78
g64
NtRp4913
(dp4914
g67
(dp4915
sg76
g3601
sg69
(lp4916
g62
(g83
g64
NtRp4917
(dp4918
g67
(dp4919
g87
g88
ssg76
g4913
sg69
(lp4920
S'postprocessing'
p4921
asbag62
(g83
g64
NtRp4922
(dp4923
g67
(dp4924
g94
g95
ssg76
g4913
sg69
(lp4925
S':'
asbag62
(g83
g64
NtRp4926
(dp4927
g67
(dp4928
sg76
g4913
sg69
(lp4929
g62
(g63
g64
NtRp4930
(dp4931
g67
(dp4932
g75
I5
ssg76
g4926
sg69
(lp4933
g62
(g71
g64
NtRp4934
(dp4935
g67
(dp4936
g75
I4
ssg76
Nsg69
(lp4937
sbasbasbasbag62
(g78
g64
NtRp4938
(dp4939
g67
(dp4940
sg76
g3601
sg69
(lp4941
g62
(g83
g64
NtRp4942
(dp4943
g67
(dp4944
g87
g88
ssg76
g4938
sg69
(lp4945
S'session_file'
p4946
asbag62
(g83
g64
NtRp4947
(dp4948
g67
(dp4949
g94
g95
ssg76
g4938
sg69
(lp4950
S':'
asbag62
(g83
g64
NtRp4951
(dp4952
g67
(dp4953
sg76
g4938
sg69
(lp4954
g62
(g63
g64
NtRp4955
(dp4956
g67
(dp4957
g75
I5
ssg76
g4951
sg69
(lp4958
S"<open file 'C:\\Users\\Alysse\\Documents\\GitHub\\finholt-senior-project\\web2py\\applications\\SeniorProject\\sessions\\127.0.0.1-27e84226-676e-4898-b7a2-674f445a7186', mode 'rb+' at 0x03115A70>"
p4959
asbasbasbag62
(g78
g64
NtRp4960
(dp4961
g67
(dp4962
sg76
g3601
sg69
(lp4963
g62
(g83
g64
NtRp4964
(dp4965
g67
(dp4966
g87
g88
ssg76
g4960
sg69
(lp4967
S'session_filename'
p4968
asbag62
(g83
g64
NtRp4969
(dp4970
g67
(dp4971
g94
g95
ssg76
g4960
sg69
(lp4972
S':'
asbag62
(g83
g64
NtRp4973
(dp4974
g67
(dp4975
sg76
g4960
sg69
(lp4976
g62
(g63
g64
NtRp4977
(dp4978
g67
(dp4979
g75
I5
ssg76
g4973
sg69
(lp4980
S'C:\\Users\\Alysse\\Documents\\GitHub\\finholt-senior-project\\web2py\\applications\\SeniorProject\\sessions\\127.0.0.1-27e84226-676e-4898-b7a2-674f445a7186'
p4981
asbasbasbag62
(g78
g64
NtRp4982
(dp4983
g67
(dp4984
sg76
g3601
sg69
(lp4985
g62
(g83
g64
NtRp4986
(dp4987
g67
(dp4988
g87
g88
ssg76
g4982
sg69
(lp4989
S'session_id'
p4990
asbag62
(g83
g64
NtRp4991
(dp4992
g67
(dp4993
g94
g95
ssg76
g4982
sg69
(lp4994
S':'
asbag62
(g83
g64
NtRp4995
(dp4996
g67
(dp4997
sg76
g4982
sg69
(lp4998
g62
(g63
g64
NtRp4999
(dp5000
g67
(dp5001
g75
I5
ssg76
g4995
sg69
(lp5002
S'127.0.0.1-27e84226-676e-4898-b7a2-674f445a7186'
p5003
asbasbasbag62
(g78
g64
NtRp5004
(dp5005
g67
(dp5006
sg76
g3601
sg69
(lp5007
g62
(g83
g64
NtRp5008
(dp5009
g67
(dp5010
g87
g88
ssg76
g5004
sg69
(lp5011
S'session_id_name'
p5012
asbag62
(g83
g64
NtRp5013
(dp5014
g67
(dp5015
g94
g95
ssg76
g5004
sg69
(lp5016
S':'
asbag62
(g83
g64
NtRp5017
(dp5018
g67
(dp5019
sg76
g5004
sg69
(lp5020
g62
(g63
g64
NtRp5021
(dp5022
g67
(dp5023
g75
I5
ssg76
g5017
sg69
(lp5024
g3658
asbasbasbag62
(g78
g64
NtRp5025
(dp5026
g67
(dp5027
sg76
g3601
sg69
(lp5028
g62
(g83
g64
NtRp5029
(dp5030
g67
(dp5031
g87
g88
ssg76
g5025
sg69
(lp5032
S'session_locked'
p5033
asbag62
(g83
g64
NtRp5034
(dp5035
g67
(dp5036
g94
g95
ssg76
g5025
sg69
(lp5037
S':'
asbag62
(g83
g64
NtRp5038
(dp5039
g67
(dp5040
sg76
g5025
sg69
(lp5041
g62
(g63
g64
NtRp5042
(dp5043
g67
(dp5044
g75
I5
ssg76
g5038
sg69
(lp5045
g1813
asbasbasbag62
(g78
g64
NtRp5046
(dp5047
g67
(dp5048
sg76
g3601
sg69
(lp5049
g62
(g83
g64
NtRp5050
(dp5051
g67
(dp5052
g87
g88
ssg76
g5046
sg69
(lp5053
S'session_new'
p5054
asbag62
(g83
g64
NtRp5055
(dp5056
g67
(dp5057
g94
g95
ssg76
g5046
sg69
(lp5058
S':'
asbag62
(g83
g64
NtRp5059
(dp5060
g67
(dp5061
sg76
g5046
sg69
(lp5062
g62
(g63
g64
NtRp5063
(dp5064
g67
(dp5065
g75
I5
ssg76
g5059
sg69
(lp5066
g105
asbasbasbag62
(g78
g64
NtRp5067
(dp5068
g67
(dp5069
sg76
g3601
sg69
(lp5070
g62
(g83
g64
NtRp5071
(dp5072
g67
(dp5073
g87
g88
ssg76
g5067
sg69
(lp5074
S'status'
p5075
asbag62
(g83
g64
NtRp5076
(dp5077
g67
(dp5078
g94
g95
ssg76
g5067
sg69
(lp5079
S':'
asbag62
(g83
g64
NtRp5080
(dp5081
g67
(dp5082
sg76
g5067
sg69
(lp5083
g62
(g63
g64
NtRp5084
(dp5085
g67
(dp5086
g75
I5
ssg76
g5080
sg69
(lp5087
S'200'
p5088
asbasbasbag62
(g78
g64
NtRp5089
(dp5090
g67
(dp5091
sg76
g3601
sg69
(lp5092
g62
(g83
g64
NtRp5093
(dp5094
g67
(dp5095
g87
g88
ssg76
g5089
sg69
(lp5096
S'subtitle'
p5097
asbag62
(g83
g64
NtRp5098
(dp5099
g67
(dp5100
g94
g95
ssg76
g5089
sg69
(lp5101
S':'
asbag62
(g83
g64
NtRp5102
(dp5103
g67
(dp5104
sg76
g5089
sg69
(lp5105
g62
(g63
g64
NtRp5106
(dp5107
g67
(dp5108
g75
I5
ssg76
g5102
sg69
(lp5109
g4158
(S's\r\x00\x00\x00customize me!'
tRp5110
asbasbasbag62
(g78
g64
NtRp5111
(dp5112
g67
(dp5113
sg76
g3601
sg69
(lp5114
g62
(g83
g64
NtRp5115
(dp5116
g67
(dp5117
g87
g88
ssg76
g5111
sg69
(lp5118
S'title'
p5119
asbag62
(g83
g64
NtRp5120
(dp5121
g67
(dp5122
g94
g95
ssg76
g5111
sg69
(lp5123
S':'
asbag62
(g83
g64
NtRp5124
(dp5125
g67
(dp5126
sg76
g5111
sg69
(lp5127
g62
(g63
g64
NtRp5128
(dp5129
g67
(dp5130
g75
I5
ssg76
g5124
sg69
(lp5131
S'Seniorproject'
p5132
asbasbasbag62
(g78
g64
NtRp5133
(dp5134
g67
(dp5135
sg76
g3601
sg69
(lp5136
g62
(g83
g64
NtRp5137
(dp5138
g67
(dp5139
g87
g88
ssg76
g5133
sg69
(lp5140
g2543
asbag62
(g83
g64
NtRp5141
(dp5142
g67
(dp5143
g94
g95
ssg76
g5133
sg69
(lp5144
S':'
asbag62
(g83
g64
NtRp5145
(dp5146
g67
(dp5147
sg76
g5133
sg69
(lp5148
g62
(g63
g64
NtRp5149
(dp5150
g67
(dp5151
g75
I5
ssg76
g5145
sg69
(lp5152
g2556
asbasbasbag62
(g78
g64
NtRp5153
(dp5154
g67
(dp5155
sg76
g3601
sg69
(lp5156
g62
(g83
g64
NtRp5157
(dp5158
g67
(dp5159
g87
g88
ssg76
g5153
sg69
(lp5160
S'view'
p5161
asbag62
(g83
g64
NtRp5162
(dp5163
g67
(dp5164
g94
g95
ssg76
g5153
sg69
(lp5165
S':'
asbag62
(g83
g64
NtRp5166
(dp5167
g67
(dp5168
sg76
g5153
sg69
(lp5169
g62
(g63
g64
NtRp5170
(dp5171
g67
(dp5172
g75
I5
ssg76
g5166
sg69
(lp5173
S'default/index.html'
p5174
asbasbasbasbasbsS'locals'
p5175
(dp5176
g1914
S"'JPG'"
p5177
sS'self'
p5178
S'<gluon.dal.Field object>'
p5179
sS'm'
S'<_sre.SRE_Match object>'
p5180
sS'encoded_filename'
p5181
S"'416c797373652048616665726d616e2c204a657373696520...96e672120466562727561727920352c20323031322e4a5047'"
p5182
sg35
S"'Alysse Haferman, Jessie Cline, Nicole Hayden matching! February 5, 2012.JPG'"
p5183
sS'newfilename'
p5184
S"'Proposal.file.be7814aef2aec21c.416c7973736520486...72120466562727561727920352c20323031322e4a5047.JPG'"
p5185
sg3391
S"<open file '<fdopen>', mode 'w+b'>"
p5186
sS'uuid_key'
p5187
S"'be7814aef2aec21c'"
p5188
sg381
S"r'C:\\Users\\Alysse\\Documents\\GitHub\\finholt-senior-...y\\applications\\SeniorProject\\databases\\..\\uploads'"
p5189
sS'pathfilename'
p5190
S"r'C:\\Users\\Alysse\\Documents\\GitHub\\finholt-senior-...72120466562727561727920352c20323031322e4a5047.JPG'"
p5191
sssS'traceback'
p5192
S'Traceback (most recent call last):\n  File "C:\\Users\\Alysse\\Documents\\GitHub\\finholt-senior-project\\web2py\\gluon\\restricted.py", line 205, in restricted\n    exec ccode in environment\n  File "C:\\Users\\Alysse\\Documents\\GitHub\\finholt-senior-project\\web2py\\applications\\SeniorProject\\controllers/default.py", line 173, in <module>\n  File "C:\\Users\\Alysse\\Documents\\GitHub\\finholt-senior-project\\web2py\\gluon\\globals.py", line 173, in <lambda>\n    self._caller = lambda f: f()\n  File "C:\\Users\\Alysse\\Documents\\GitHub\\finholt-senior-project\\web2py\\applications\\SeniorProject\\controllers/default.py", line 62, in index\n    if proposalForm.process().accepted:\n  File "C:\\Users\\Alysse\\Documents\\GitHub\\finholt-senior-project\\web2py\\gluon\\html.py", line 1994, in process\n    self.validate(**kwargs)\n  File "C:\\Users\\Alysse\\Documents\\GitHub\\finholt-senior-project\\web2py\\gluon\\html.py", line 1941, in validate\n    if self.accepts(**kwargs):\n  File "C:\\Users\\Alysse\\Documents\\GitHub\\finholt-senior-project\\web2py\\gluon\\sqlhtml.py", line 1207, in accepts\n    newfilename = field.store(source_file, original_filename, field.uploadfolder)\n  File "C:\\Users\\Alysse\\Documents\\GitHub\\finholt-senior-project\\web2py\\gluon\\dal.py", line 7364, in store\n    dest_file = open(pathfilename, \'wb\')\nIOError: [Errno 2] No such file or directory: \'C:\\\\Users\\\\Alysse\\\\Documents\\\\GitHub\\\\finholt-senior-project\\\\web2py\\\\applications\\\\SeniorProject\\\\databases\\\\..\\\\uploads\\\\Proposal.file.be7814aef2aec21c.416c797373652048616665726d616e2c204a657373696520436c696e652c204e69636f6c652048617964656e206d61746368696e672120466562727561727920352c20323031322e4a5047.JPG\'\n'
p5193
s.