(dp1
S'description'
p2
(dp3
S'type'
p4
S'string'
p5
sS'sortable'
p6
I5
sS'sql'
p7
S'CHAR(512)'
p8
ssS'creator'
p9
(dp10
g4
g5
sg6
I6
sg7
S'CHAR(512)'
p11
ssS'created_on'
p12
(dp13
g4
S'datetime'
p14
sg6
I4
sg7
S'TIMESTAMP'
p15
ssS'projectNum'
p16
(dp17
g4
g5
sg6
I2
sg7
S'CHAR(512)'
p18
ssg4
(dp19
g4
g5
sg6
I3
sg7
S'CHAR(512)'
p20
ssS'id'
p21
(dp22
g4
g21
sg6
I1
sg7
S'INTEGER PRIMARY KEY AUTOINCREMENT'
p23
ss.