(dp1
S'description'
p2
(dp3
S'type'
p4
S'text'
p5
sS'sortable'
p6
I5
sS'sql'
p7
S'TEXT'
p8
ssS'title'
p9
(dp10
g4
S'string'
p11
sg6
I4
sg7
S'CHAR(512)'
p12
ssS'photo'
p13
(dp14
g4
S'upload'
p15
sg6
I6
sg7
S'CHAR(512)'
p16
ssS'flickrURL'
p17
(dp18
g4
g11
sg6
I3
sg7
S'CHAR(512)'
p19
ssS'projectNum'
p20
(dp21
g4
g11
sg6
I2
sg7
S'CHAR(512)'
p22
ssS'id'
p23
(dp24
g4
g23
sg6
I1
sg7
S'INTEGER PRIMARY KEY AUTOINCREMENT'
p25
ss.