(dp1
S'file'
p2
(dp3
S'type'
p4
S'upload'
p5
sS'sortable'
p6
I4
sS'sql'
p7
S'CHAR(512)'
p8
ssS'projectNum'
p9
(dp10
g4
S'string'
p11
sg6
I5
sg7
S'CHAR(512)'
p12
ssS'id'
p13
(dp14
g4
g13
sg6
I1
sg7
S'INTEGER PRIMARY KEY AUTOINCREMENT'
p15
ssS'reqNum'
p16
(dp17
g4
S'integer'
p18
sg6
I2
sg7
S'INTEGER'
p19
ssS'propDate'
p20
(dp21
g4
S'date'
p22
sg6
I3
sg7
S'DATE'
p23
ss.