(dp1
S'description'
p2
(dp3
S'type'
p4
S'text'
p5
sS'sortable'
p6
I5
sS'sql'
p7
S'TEXT'
p8
ssS'creator'
p9
(dp10
g4
S'string'
p11
sg6
I6
sg7
S'CHAR(512)'
p12
ssS'created_on'
p13
(dp14
g4
S'datetime'
p15
sg6
I4
sg7
S'TIMESTAMP'
p16
ssS'projectNum'
p17
(dp18
g4
g11
sg6
I2
sg7
S'CHAR(512)'
p19
ssg4
(dp20
g4
g11
sg6
I3
sg7
S'CHAR(512)'
p21
ssS'id'
p22
(dp23
g4
g22
sg6
I1
sg7
S'INTEGER PRIMARY KEY AUTOINCREMENT'
p24
ss.