(dp1
S'meetDate'
p2
(dp3
S'type'
p4
S'date'
p5
sS'sortable'
p6
I3
sS'sql'
p7
S'DATE'
p8
ssS'projectNum'
p9
(dp10
g4
S'string'
p11
sg6
I2
sg7
S'CHAR(512)'
p12
ssS'id'
p13
(dp14
g4
g13
sg6
I1
sg7
S'INTEGER PRIMARY KEY AUTOINCREMENT'
p15
ssS'file'
p16
(dp17
g4
S'upload'
p18
sg6
I4
sg7
S'CHAR(512)'
p19
ss.