(dp1
S'propNum'
p2
(dp3
S'type'
p4
S'integer'
p5
sS'sortable'
p6
I2
sS'sql'
p7
S'INTEGER'
p8
ssS'file'
p9
(dp10
g4
S'upload'
p11
sg6
I5
sg7
S'CHAR(512)'
p12
ssS'propDate'
p13
(dp14
g4
S'date'
p15
sg6
I4
sg7
S'DATE'
p16
ssS'propReqRef'
p17
(dp18
g4
g5
sg6
I3
sg7
S'INTEGER'
p19
ssS'projectNum'
p20
(dp21
g4
S'string'
p22
sg6
I6
sg7
S'CHAR(512)'
p23
ssS'id'
p24
(dp25
g4
g24
sg6
I1
sg7
S'INTEGER PRIMARY KEY AUTOINCREMENT'
p26
ss.