(dp1
S'openDate'
p2
(dp3
S'type'
p4
S'date'
p5
sS'sortable'
p6
I3
sS'sql'
p7
S'DATE'
p8
ssS'id'
p9
(dp10
g4
g9
sg6
I1
sg7
S'INTEGER PRIMARY KEY AUTOINCREMENT'
p11
ssS'closedDate'
p12
(dp13
g4
g5
sg6
I4
sg7
S'DATE'
p14
ssS'name'
p15
(dp16
g4
S'string'
p17
sg6
I2
sg7
S'CHAR(512)'
p18
ss.